///////////////////////////////////////////////////////////////////////////////
//                                                                            /
// IAR C/C++ Compiler V8.10.3.10338/W32 for 8051        26/Aug/2015  19:20:28 /
// Copyright 2004-2011 IAR Systems AB.                                        /
//                                                                            /
//    Core               =  plain                                             /
//    Code model         =  banked                                            /
//    Data model         =  large                                             /
//    Calling convention =  xdata reentrant                                   /
//    Constant location  =  data_rom                                          /
//    Dptr setup         =  1,16                                              /
//    Source file        =  S:\zigbee\Myzigbe\version 3.0 for                 /
//                          test\Projects\zstack\AT commands\AT command 3.2   /
//                          -Body Sensor\Source\AT_AF.c                       /
//    Command line       =  -f "S:\zigbee\Myzigbe\version 3.0 for             /
//                          test\Projects\zstack\AT commands\AT command 3.2   /
//                          -Body Sensor\CC2530DB\..\..\..\Tools\CC2530DB\f8w /
//                          Endev.cfg" (-DCPU32MHZ -DROOT=__near_func         /
//                          -DMAC_CFG_TX_DATA_MAX=3 -DMAC_CFG_TX_MAX=6        /
//                          -DMAC_CFG_RX_MAX=3) -f "S:\zigbee\Myzigbe\version /
//                           3.0 for test\Projects\zstack\AT commands\AT      /
//                          command 3.2 -Body Sensor\CC2530DB\..\..\..\Tools\ /
//                          CC2530DB\f8wConfig.cfg" (-DZIGBEEPRO -DSECURE=0   /
//                          -DZG_SECURE_DYNAMIC=0 -DREFLECTOR                 /
//                          -DDEFAULT_CHANLIST=0x00000800                     /
//                          -DZDAPP_CONFIG_PAN_ID=0xFFFF                      /
//                          -DNWK_START_DELAY=100 -DEXTENDED_JOINING_RANDOM_M /
//                          ASK=0x007F -DBEACON_REQUEST_DELAY=100             /
//                          -DBEACON_REQ_DELAY_MASK=0x00FF                    /
//                          -DLINK_STATUS_JITTER_MASK=0x007F                  /
//                          -DROUTE_EXPIRY_TIME=30 -DAPSC_ACK_WAIT_DURATION_P /
//                          OLLED=3000 -DNWK_INDIRECT_MSG_TIMEOUT=7           /
//                          -DMAX_RREQ_ENTRIES=8 -DAPSC_MAX_FRAME_RETRIES=3   /
//                          -DNWK_MAX_DATA_RETRIES=2                          /
//                          -DMAX_POLL_FAILURE_RETRIES=2 -DMAX_BCAST=9        /
//                          -DAPS_MAX_GROUPS=16 -DMAX_RTG_ENTRIES=40          /
//                          -DNWK_MAX_BINDING_ENTRIES=4                       /
//                          -DMAX_BINDING_CLUSTER_IDS=4                       /
//                          "-DDEFAULT_KEY={0x01, 0x03, 0x05, 0x07, 0x09,     /
//                          0x0B, 0x0D, 0x0F, 0x00, 0x02, 0x04, 0x06, 0x08,   /
//                          0x0A, 0x0C, 0x0D}" -DMAC_MAX_FRAME_SIZE=116       /
//                          -DZDNWKMGR_MIN_TRANSMISSIONS=20 "-DCONST=const    /
//                          __code" -DGENERIC=__generic                       /
//                          -DRFD_RCVC_ALWAYS_ON=FALSE -DPOLL_RATE=1000       /
//                          -DQUEUED_POLL_RATE=100 -DRESPONSE_POLL_RATE=100)  /
//                          -DREJOIN_POLL_RATE=440 "S:\zigbee\Myzigbe\version /
//                           3.0 for test\Projects\zstack\AT commands\AT      /
//                          command 3.2 -Body Sensor\Source\AT_AF.c" -D       /
//                          ZIGBEEPRO -D NWK_AUTO_POLL -D HAL_UART=TRUE -D    /
//                          HOLD_AUTO_START -D NV_RESTORE -D REFLECTOR -D     /
//                          HAL_UART_ISR=1 -D HAL_UART_DMA=0 -D               /
//                          xHAL_UART_ISR_TX_MAX=200 -D xPOWER_SAVING -D      /
//                          ZCL_READ -D ZCL_WRITE -D ZCL_IDENTIFY -D          /
//                          ZCL_ON_OFF -D ZCL_DISCOVER -D xZTOOL_P1 -D        /
//                          xMT_TASK -D xMT_SYS_FUNC -D xMT_ZDO_FUNC -D       /
//                          xLCD_SUPPORTED=DEBUG -D                           /
//                          xMT_UART_DEFAULT_OVERFLOW=FALSE -lC               /
//                          "S:\zigbee\Myzigbe\version 3.0 for                /
//                          test\Projects\zstack\AT commands\AT command 3.2   /
//                          -Body Sensor\CC2530DB\EndDeviceEB\List\" -lA      /
//                          "S:\zigbee\Myzigbe\version 3.0 for                /
//                          test\Projects\zstack\AT commands\AT command 3.2   /
//                          -Body Sensor\CC2530DB\EndDeviceEB\List\"          /
//                          --diag_suppress Pe001,Pa010 -o                    /
//                          "S:\zigbee\Myzigbe\version 3.0 for                /
//                          test\Projects\zstack\AT commands\AT command 3.2   /
//                          -Body Sensor\CC2530DB\EndDeviceEB\Obj\" -e        /
//                          --no_code_motion --debug --core=plain             /
//                          --dptr=16,1 --data_model=large                    /
//                          --code_model=banked --calling_convention=xdata_re /
//                          entrant --place_constants=data_rom                /
//                          --nr_virtual_regs 16 -I                           /
//                          "S:\zigbee\Myzigbe\version 3.0 for                /
//                          test\Projects\zstack\AT commands\AT command 3.2   /
//                          -Body Sensor\CC2530DB\" -I                        /
//                          "S:\zigbee\Myzigbe\version 3.0 for                /
//                          test\Projects\zstack\AT commands\AT command 3.2   /
//                          -Body Sensor\CC2530DB\..\Source\" -I              /
//                          "S:\zigbee\Myzigbe\version 3.0 for                /
//                          test\Projects\zstack\AT commands\AT command 3.2   /
//                          -Body Sensor\CC2530DB\..\Source\hal\" -I          /
//                          "S:\zigbee\Myzigbe\version 3.0 for                /
//                          test\Projects\zstack\AT commands\AT command 3.2   /
//                          -Body Sensor\CC2530DB\..\Source\Modified\" -I     /
//                          "S:\zigbee\Myzigbe\version 3.0 for                /
//                          test\Projects\zstack\AT commands\AT command 3.2   /
//                          -Body Sensor\CC2530DB\..\..\..\ZMain\TI2530DB\"   /
//                          -I "S:\zigbee\Myzigbe\version 3.0 for             /
//                          test\Projects\zstack\AT commands\AT command 3.2   /
//                          -Body Sensor\CC2530DB\..\..\..\..\..\Components\h /
//                          al\include\" -I "S:\zigbee\Myzigbe\version 3.0    /
//                          for test\Projects\zstack\AT commands\AT command   /
//                          3.2 -Body Sensor\CC2530DB\..\..\..\..\..\Componen /
//                          ts\hal\target\CC2530EB\" -I                       /
//                          "S:\zigbee\Myzigbe\version 3.0 for                /
//                          test\Projects\zstack\AT commands\AT command 3.2   /
//                          -Body Sensor\CC2530DB\..\..\..\..\..\Components\m /
//                          ac\include\" -I "S:\zigbee\Myzigbe\version 3.0    /
//                          for test\Projects\zstack\AT commands\AT command   /
//                          3.2 -Body Sensor\CC2530DB\..\..\..\..\..\Componen /
//                          ts\mac\high_level\" -I "S:\zigbee\Myzigbe\version /
//                           3.0 for test\Projects\zstack\AT commands\AT      /
//                          command 3.2 -Body Sensor\CC2530DB\..\..\..\..\..\ /
//                          Components\mac\low_level\srf04\" -I               /
//                          "S:\zigbee\Myzigbe\version 3.0 for                /
//                          test\Projects\zstack\AT commands\AT command 3.2   /
//                          -Body Sensor\CC2530DB\..\..\..\..\..\Components\m /
//                          ac\low_level\srf04\single_chip\" -I               /
//                          "S:\zigbee\Myzigbe\version 3.0 for                /
//                          test\Projects\zstack\AT commands\AT command 3.2   /
//                          -Body Sensor\CC2530DB\..\..\..\..\..\Components\m /
//                          t\" -I "S:\zigbee\Myzigbe\version 3.0 for         /
//                          test\Projects\zstack\AT commands\AT command 3.2   /
//                          -Body Sensor\CC2530DB\..\..\..\..\..\Components\o /
//                          sal\include\" -I "S:\zigbee\Myzigbe\version 3.0   /
//                          for test\Projects\zstack\AT commands\AT command   /
//                          3.2 -Body Sensor\CC2530DB\..\..\..\..\..\Componen /
//                          ts\services\saddr\" -I "S:\zigbee\Myzigbe\version /
//                           3.0 for test\Projects\zstack\AT commands\AT      /
//                          command 3.2 -Body Sensor\CC2530DB\..\..\..\..\..\ /
//                          Components\services\sdata\" -I                    /
//                          "S:\zigbee\Myzigbe\version 3.0 for                /
//                          test\Projects\zstack\AT commands\AT command 3.2   /
//                          -Body Sensor\CC2530DB\..\..\..\..\..\Components\s /
//                          tack\af\" -I "S:\zigbee\Myzigbe\version 3.0 for   /
//                          test\Projects\zstack\AT commands\AT command 3.2   /
//                          -Body Sensor\CC2530DB\..\..\..\..\..\Components\s /
//                          tack\nwk\" -I "S:\zigbee\Myzigbe\version 3.0 for  /
//                          test\Projects\zstack\AT commands\AT command 3.2   /
//                          -Body Sensor\CC2530DB\..\..\..\..\..\Components\s /
//                          tack\sapi\" -I "S:\zigbee\Myzigbe\version 3.0     /
//                          for test\Projects\zstack\AT commands\AT command   /
//                          3.2 -Body Sensor\CC2530DB\..\..\..\..\..\Componen /
//                          ts\stack\sec\" -I "S:\zigbee\Myzigbe\version 3.0  /
//                          for test\Projects\zstack\AT commands\AT command   /
//                          3.2 -Body Sensor\CC2530DB\..\..\..\..\..\Componen /
//                          ts\stack\sys\" -I "S:\zigbee\Myzigbe\version 3.0  /
//                          for test\Projects\zstack\AT commands\AT command   /
//                          3.2 -Body Sensor\CC2530DB\..\..\..\..\..\Componen /
//                          ts\stack\zdo\" -I "S:\zigbee\Myzigbe\version 3.0  /
//                          for test\Projects\zstack\AT commands\AT command   /
//                          3.2 -Body Sensor\CC2530DB\..\..\..\..\..\Componen /
//                          ts\stack\zcl\" -I "S:\zigbee\Myzigbe\version 3.0  /
//                          for test\Projects\zstack\AT commands\AT command   /
//                          3.2 -Body Sensor\CC2530DB\..\..\..\..\..\Componen /
//                          ts\zmac\" -I "S:\zigbee\Myzigbe\version 3.0 for   /
//                          test\Projects\zstack\AT commands\AT command 3.2   /
//                          -Body Sensor\CC2530DB\..\..\..\..\..\Components\z /
//                          mac\f8w\" -Ohz --require_prototypes               /
//    List file          =  S:\zigbee\Myzigbe\version 3.0 for                 /
//                          test\Projects\zstack\AT commands\AT command 3.2   /
//                          -Body Sensor\CC2530DB\EndDeviceEB\List\AT_AF.s51  /
//                                                                            /
//                                                                            /
///////////////////////////////////////////////////////////////////////////////

        NAME AT_AF

        RTMODEL "__SystemLibrary", "CLib"
        RTMODEL "__calling_convention", "xdata_reentrant"
        RTMODEL "__code_model", "banked"
        RTMODEL "__core", "plain"
        RTMODEL "__data_model", "large"
        RTMODEL "__dptr_size", "16"
        RTMODEL "__extended_stack", "disabled"
        RTMODEL "__location_for_constants", "data"
        RTMODEL "__number_of_dptrs", "1"
        RTMODEL "__rt_version", "1"

        RSEG DOVERLAY:DATA:NOROOT(0)
        RSEG IOVERLAY:IDATA:NOROOT(0)
        RSEG ISTACK:IDATA:NOROOT(0)
        RSEG PSTACK:XDATA:NOROOT(0)
        RSEG XSTACK:XDATA:NOROOT(0)

        EXTERN ?ALLOC_XSTACK8
        EXTERN ?BANKED_ENTER_XDATA
        EXTERN ?BANKED_LEAVE_XDATA
        EXTERN ?BDISPATCH
        EXTERN ?BRET
        EXTERN ?DEALLOC_XSTACK8
        EXTERN ?MOVE_LONG8_XDATA_XDATA
        EXTERN ?PUSH_XSTACK8_X_TWO
        EXTERN ?PUSH_XSTACK_I_ONE
        EXTERN ?PUSH_XSTACK_I_THREE
        EXTERN ?PUSH_XSTACK_I_TWO
        EXTERN ?S_SHL
        EXTERN ?US_SWITCH_DENSE
        EXTERN ?V0
        EXTERN ?XSP
        EXTERN ?XSTACK_DISP0_8
        EXTERN __INIT_XDATA_I
        EXTERN __INIT_XDATA_Z

        PUBLIC ??AT_AF_Cmd_HA_CIDDISC_CB?relay
        FUNCTION ??AT_AF_Cmd_HA_CIDDISC_CB?relay,0203H
        PUBLIC ??AT_AF_Cmd_HA_CIDDISC_req?relay
        FUNCTION ??AT_AF_Cmd_HA_CIDDISC_req?relay,0203H
        PUBLIC ??AT_AF_Cmd_HA_CIDDISC_rsp?relay
        FUNCTION ??AT_AF_Cmd_HA_CIDDISC_rsp?relay,0203H
        PUBLIC ??AT_AF_Cmd_HA_DISC_CB?relay
        FUNCTION ??AT_AF_Cmd_HA_DISC_CB?relay,0203H
        PUBLIC ??AT_AF_Cmd_HA_DISC_req?relay
        FUNCTION ??AT_AF_Cmd_HA_DISC_req?relay,0203H
        PUBLIC ??AT_AF_Cmd_HA_DISC_rsp?relay
        FUNCTION ??AT_AF_Cmd_HA_DISC_rsp?relay,0203H
        PUBLIC ??AT_AF_Cmd_POWER_SVING_EXP_CB?relay
        FUNCTION ??AT_AF_Cmd_POWER_SVING_EXP_CB?relay,0203H
        FUNCTION ??AT_AF_Cmd_PSE_req?relay,0203H
        PUBLIC ??AT_AF_Cmd_REPENABLE_CB?relay
        FUNCTION ??AT_AF_Cmd_REPENABLE_CB?relay,0203H
        PUBLIC ??AT_AF_Cmd_REPENABLE_req?relay
        FUNCTION ??AT_AF_Cmd_REPENABLE_req?relay,0203H
        PUBLIC ??AT_AF_Cmd_REPENABLE_rsp?relay
        FUNCTION ??AT_AF_Cmd_REPENABLE_rsp?relay,0203H
        PUBLIC ??AT_AF_Cmd_REPPRINT_CB?relay
        FUNCTION ??AT_AF_Cmd_REPPRINT_CB?relay,0203H
        PUBLIC ??AT_AF_Cmd_REPPRINT_req?relay
        FUNCTION ??AT_AF_Cmd_REPPRINT_req?relay,0203H
        PUBLIC ??AT_AF_Cmd_REPPRINT_rsp?relay
        FUNCTION ??AT_AF_Cmd_REPPRINT_rsp?relay,0203H
        PUBLIC ??AT_AF_Cmd_R_CIDDISC_CB?relay
        FUNCTION ??AT_AF_Cmd_R_CIDDISC_CB?relay,0203H
        PUBLIC ??AT_AF_Cmd_R_CIDDISC_req?relay
        FUNCTION ??AT_AF_Cmd_R_CIDDISC_req?relay,0203H
        PUBLIC ??AT_AF_Cmd_R_CIDDISC_rsp?relay
        FUNCTION ??AT_AF_Cmd_R_CIDDISC_rsp?relay,0203H
        PUBLIC ??AT_AF_Cmd_send_simple_?relay
        FUNCTION ??AT_AF_Cmd_send_simple_?relay,0203H
        PUBLIC ??AT_AF_MessageMSGCB?relay
        FUNCTION ??AT_AF_MessageMSGCB?relay,0203H
        PUBLIC ??AT_AF_Register?relay
        FUNCTION ??AT_AF_Register?relay,0203H
        PUBLIC ??AT_AF_TEST_KEY_CB?relay
        FUNCTION ??AT_AF_TEST_KEY_CB?relay,0203H
        PUBLIC AT_AF_ClusterList
        PUBLIC AT_AF_Cmd_HA_CIDDISC_CB
        FUNCTION AT_AF_Cmd_HA_CIDDISC_CB,021203H
        ARGFRAME XSTACK, 10, STACK
        ARGFRAME IOVERLAY, 0, STATIC
        ARGFRAME DOVERLAY, 0, STATIC
        LOCFRAME ISTACK, 2, STACK
        PUBLIC AT_AF_Cmd_HA_CIDDISC_req
        FUNCTION AT_AF_Cmd_HA_CIDDISC_req,021203H
        ARGFRAME XSTACK, 0, STACK
        ARGFRAME IOVERLAY, 0, STATIC
        ARGFRAME DOVERLAY, 0, STATIC
        LOCFRAME ISTACK, 1, STACK
        LOCFRAME XSTACK, 38, STACK
        PUBLIC AT_AF_Cmd_HA_CIDDISC_rsp
        FUNCTION AT_AF_Cmd_HA_CIDDISC_rsp,021203H
        ARGFRAME XSTACK, 0, STACK
        ARGFRAME IOVERLAY, 0, STATIC
        ARGFRAME DOVERLAY, 0, STATIC
        LOCFRAME XSTACK, 16, STACK
        PUBLIC AT_AF_Cmd_HA_DISC_CB
        FUNCTION AT_AF_Cmd_HA_DISC_CB,021203H
        ARGFRAME XSTACK, 10, STACK
        ARGFRAME IOVERLAY, 0, STATIC
        ARGFRAME DOVERLAY, 0, STATIC
        LOCFRAME ISTACK, 2, STACK
        PUBLIC AT_AF_Cmd_HA_DISC_req
        FUNCTION AT_AF_Cmd_HA_DISC_req,021203H
        ARGFRAME XSTACK, 0, STACK
        ARGFRAME IOVERLAY, 0, STATIC
        ARGFRAME DOVERLAY, 0, STATIC
        LOCFRAME ISTACK, 2, STACK
        LOCFRAME XSTACK, 28, STACK
        PUBLIC AT_AF_Cmd_HA_DISC_rsp
        FUNCTION AT_AF_Cmd_HA_DISC_rsp,021203H
        ARGFRAME XSTACK, 0, STACK
        ARGFRAME IOVERLAY, 0, STATIC
        ARGFRAME DOVERLAY, 0, STATIC
        LOCFRAME XSTACK, 18, STACK
        PUBLIC AT_AF_Cmd_POWER_SVING_EXP_CB
        FUNCTION AT_AF_Cmd_POWER_SVING_EXP_CB,021203H
        ARGFRAME XSTACK, 10, STACK
        ARGFRAME IOVERLAY, 0, STATIC
        ARGFRAME DOVERLAY, 0, STATIC
        LOCFRAME ISTACK, 1, STACK
        LOCFRAME XSTACK, 28, STACK
        FUNCTION AT_AF_Cmd_PSE_req,021203H
        ARGFRAME XSTACK, 19, STACK
        ARGFRAME IOVERLAY, 0, STATIC
        ARGFRAME DOVERLAY, 0, STATIC
        LOCFRAME XSTACK, 14, STACK
        PUBLIC AT_AF_Cmd_REPENABLE_CB
        FUNCTION AT_AF_Cmd_REPENABLE_CB,021203H
        ARGFRAME XSTACK, 10, STACK
        ARGFRAME IOVERLAY, 0, STATIC
        ARGFRAME DOVERLAY, 0, STATIC
        LOCFRAME ISTACK, 2, STACK
        PUBLIC AT_AF_Cmd_REPENABLE_req
        FUNCTION AT_AF_Cmd_REPENABLE_req,021203H
        ARGFRAME XSTACK, 0, STACK
        ARGFRAME IOVERLAY, 0, STATIC
        ARGFRAME DOVERLAY, 0, STATIC
        LOCFRAME ISTACK, 1, STACK
        LOCFRAME XSTACK, 28, STACK
        PUBLIC AT_AF_Cmd_REPENABLE_rsp
        FUNCTION AT_AF_Cmd_REPENABLE_rsp,021203H
        ARGFRAME XSTACK, 0, STACK
        ARGFRAME IOVERLAY, 0, STATIC
        ARGFRAME DOVERLAY, 0, STATIC
        LOCFRAME XSTACK, 14, STACK
        PUBLIC AT_AF_Cmd_REPPRINT_CB
        FUNCTION AT_AF_Cmd_REPPRINT_CB,021203H
        ARGFRAME XSTACK, 10, STACK
        ARGFRAME IOVERLAY, 0, STATIC
        ARGFRAME DOVERLAY, 0, STATIC
        LOCFRAME ISTACK, 2, STACK
        PUBLIC AT_AF_Cmd_REPPRINT_req
        FUNCTION AT_AF_Cmd_REPPRINT_req,021203H
        ARGFRAME XSTACK, 0, STACK
        ARGFRAME IOVERLAY, 0, STATIC
        ARGFRAME DOVERLAY, 0, STATIC
        LOCFRAME ISTACK, 2, STACK
        LOCFRAME XSTACK, 26, STACK
        PUBLIC AT_AF_Cmd_REPPRINT_rsp
        FUNCTION AT_AF_Cmd_REPPRINT_rsp,021203H
        ARGFRAME XSTACK, 0, STACK
        ARGFRAME IOVERLAY, 0, STATIC
        ARGFRAME DOVERLAY, 0, STATIC
        LOCFRAME ISTACK, 2, STACK
        LOCFRAME XSTACK, 19, STACK
        PUBLIC AT_AF_Cmd_R_CIDDISC_CB
        FUNCTION AT_AF_Cmd_R_CIDDISC_CB,021203H
        ARGFRAME XSTACK, 10, STACK
        ARGFRAME IOVERLAY, 0, STATIC
        ARGFRAME DOVERLAY, 0, STATIC
        LOCFRAME ISTACK, 2, STACK
        PUBLIC AT_AF_Cmd_R_CIDDISC_req
        FUNCTION AT_AF_Cmd_R_CIDDISC_req,021203H
        ARGFRAME XSTACK, 0, STACK
        ARGFRAME IOVERLAY, 0, STATIC
        ARGFRAME DOVERLAY, 0, STATIC
        LOCFRAME ISTACK, 2, STACK
        PUBLIC AT_AF_Cmd_R_CIDDISC_rsp
        FUNCTION AT_AF_Cmd_R_CIDDISC_rsp,0203H
        ARGFRAME XSTACK, 0, STACK
        PUBLIC AT_AF_Cmd_send_simple_
        FUNCTION AT_AF_Cmd_send_simple_,021203H
        ARGFRAME XSTACK, 2, STACK
        LOCFRAME XSTACK, 33, STACK
        PUBLIC AT_AF_Group
        PUBLIC AT_AF_MessageMSGCB
        FUNCTION AT_AF_MessageMSGCB,0a1203H
        ARGFRAME XSTACK, 0, STACK
        LOCFRAME XSTACK, 10, STACK
        PUBLIC AT_AF_Register
        FUNCTION AT_AF_Register,021203H
        ARGFRAME XSTACK, 0, STACK
        LOCFRAME ISTACK, 2, STACK
        PUBLIC AT_AF_SimpleDesc
        PUBLIC AT_AF_TEST_KEY_CB
        FUNCTION AT_AF_TEST_KEY_CB,021203H
        ARGFRAME XSTACK, 10, STACK
        ARGFRAME IOVERLAY, 0, STATIC
        ARGFRAME DOVERLAY, 0, STATIC
        LOCFRAME ISTACK, 2, STACK
        PUBLIC AT_AF_TransID
        PUBLIC AT_AF_epDesc
        
        CFI Names cfiNames0
        CFI StackFrame CFA_SP SP IDATA
        CFI StackFrame CFA_PSP16 PSP16 XDATA
        CFI StackFrame CFA_XSP16 XSP16 XDATA
        CFI StaticOverlayFrame CFA_IOVERLAY IOVERLAY
        CFI StaticOverlayFrame CFA_DOVERLAY DOVERLAY
        CFI Resource `PSW.CY`:1, `B.BR0`:1, `B.BR1`:1, `B.BR2`:1, `B.BR3`:1
        CFI Resource `B.BR4`:1, `B.BR5`:1, `B.BR6`:1, `B.BR7`:1, `VB.BR8`:1
        CFI Resource `VB.BR9`:1, `VB.BR10`:1, `VB.BR11`:1, `VB.BR12`:1
        CFI Resource `VB.BR13`:1, `VB.BR14`:1, `VB.BR15`:1, VB:8, B:8, A:8
        CFI Resource PSW:8, DPL0:8, DPH0:8, R0:8, R1:8, R2:8, R3:8, R4:8, R5:8
        CFI Resource R6:8, R7:8, V0:8, V1:8, V2:8, V3:8, V4:8, V5:8, V6:8, V7:8
        CFI Resource V8:8, V9:8, V10:8, V11:8, V12:8, V13:8, V14:8, V15:8, SP:8
        CFI Resource PSPH:8, PSPL:8, PSP16:16, XSPH:8, XSPL:8, XSP16:16
        CFI VirtualResource ?RET:24
        CFI Resource ?BRET_EXT:8
        CFI VirtualResource ?RET_HIGH:8, ?RET_LOW:8
        CFI ResourceParts PSP16 PSPH, PSPL
        CFI ResourceParts XSP16 XSPH, XSPL
        CFI ResourceParts ?RET ?BRET_EXT, ?RET_HIGH, ?RET_LOW
        CFI EndNames cfiNames0
        
        CFI Common cfiCommon0 Using cfiNames0
        CFI CodeAlign 1
        CFI DataAlign -1
        CFI ReturnAddress ?RET CODE
        CFI CFA_DOVERLAY Used
        CFI CFA_IOVERLAY Used
        CFI CFA_SP SP+-3
        CFI CFA_PSP16 PSP16+0
        CFI CFA_XSP16 XSP16+0
        CFI `PSW.CY` SameValue
        CFI `B.BR0` SameValue
        CFI `B.BR1` SameValue
        CFI `B.BR2` SameValue
        CFI `B.BR3` SameValue
        CFI `B.BR4` SameValue
        CFI `B.BR5` SameValue
        CFI `B.BR6` SameValue
        CFI `B.BR7` SameValue
        CFI `VB.BR8` SameValue
        CFI `VB.BR9` SameValue
        CFI `VB.BR10` SameValue
        CFI `VB.BR11` SameValue
        CFI `VB.BR12` SameValue
        CFI `VB.BR13` SameValue
        CFI `VB.BR14` SameValue
        CFI `VB.BR15` SameValue
        CFI VB SameValue
        CFI B Undefined
        CFI A Undefined
        CFI PSW SameValue
        CFI DPL0 SameValue
        CFI DPH0 SameValue
        CFI R0 Undefined
        CFI R1 Undefined
        CFI R2 Undefined
        CFI R3 Undefined
        CFI R4 Undefined
        CFI R5 Undefined
        CFI R6 SameValue
        CFI R7 SameValue
        CFI V0 SameValue
        CFI V1 SameValue
        CFI V2 SameValue
        CFI V3 SameValue
        CFI V4 SameValue
        CFI V5 SameValue
        CFI V6 SameValue
        CFI V7 SameValue
        CFI V8 SameValue
        CFI V9 SameValue
        CFI V10 SameValue
        CFI V11 SameValue
        CFI V12 SameValue
        CFI V13 SameValue
        CFI V14 SameValue
        CFI V15 SameValue
        CFI PSPH Undefined
        CFI PSPL Undefined
        CFI XSPH Undefined
        CFI XSPL Undefined
        CFI ?RET Concat
        CFI ?BRET_EXT Frame(CFA_SP, 3)
        CFI ?RET_HIGH Frame(CFA_SP, 2)
        CFI ?RET_LOW Frame(CFA_SP, 1)
        CFI EndCommon cfiCommon0
        
        
        CFI Common cfiCommon1 Using cfiNames0
        CFI CodeAlign 1
        CFI DataAlign -1
        CFI ReturnAddress ?RET CODE
        CFI CFA_DOVERLAY Used
        CFI CFA_IOVERLAY Used
        CFI CFA_SP SP+-2
        CFI CFA_PSP16 PSP16+0
        CFI CFA_XSP16 XSP16+0
        CFI `PSW.CY` SameValue
        CFI `B.BR0` SameValue
        CFI `B.BR1` SameValue
        CFI `B.BR2` SameValue
        CFI `B.BR3` SameValue
        CFI `B.BR4` SameValue
        CFI `B.BR5` SameValue
        CFI `B.BR6` SameValue
        CFI `B.BR7` SameValue
        CFI `VB.BR8` SameValue
        CFI `VB.BR9` SameValue
        CFI `VB.BR10` SameValue
        CFI `VB.BR11` SameValue
        CFI `VB.BR12` SameValue
        CFI `VB.BR13` SameValue
        CFI `VB.BR14` SameValue
        CFI `VB.BR15` SameValue
        CFI VB SameValue
        CFI B SameValue
        CFI A SameValue
        CFI PSW SameValue
        CFI DPL0 SameValue
        CFI DPH0 SameValue
        CFI R0 SameValue
        CFI R1 SameValue
        CFI R2 SameValue
        CFI R3 SameValue
        CFI R4 SameValue
        CFI R5 SameValue
        CFI R6 SameValue
        CFI R7 SameValue
        CFI V0 SameValue
        CFI V1 SameValue
        CFI V2 SameValue
        CFI V3 SameValue
        CFI V4 SameValue
        CFI V5 SameValue
        CFI V6 SameValue
        CFI V7 SameValue
        CFI V8 SameValue
        CFI V9 SameValue
        CFI V10 SameValue
        CFI V11 SameValue
        CFI V12 SameValue
        CFI V13 SameValue
        CFI V14 SameValue
        CFI V15 SameValue
        CFI PSPH Undefined
        CFI PSPL Undefined
        CFI XSPH Undefined
        CFI XSPL Undefined
        CFI ?RET Concat
        CFI ?BRET_EXT SameValue
        CFI ?RET_HIGH Frame(CFA_SP, 2)
        CFI ?RET_LOW Frame(CFA_SP, 1)
        CFI EndCommon cfiCommon1
        
afRegister          SYMBOL "afRegister"
aps_AddGroup        SYMBOL "aps_AddGroup"
AF_DataRequest      SYMBOL "AF_DataRequest"
afNumEndPoints      SYMBOL "afNumEndPoints"
osal_mem_alloc      SYMBOL "osal_mem_alloc"
afEndPoints         SYMBOL "afEndPoints"
AT_sort_arr         SYMBOL "AT_sort_arr"
osal_mem_free       SYMBOL "osal_mem_free"
AT_HalUARTWrite     SYMBOL "AT_HalUARTWrite"
AT_Int16toChar      SYMBOL "AT_Int16toChar"
AT_Int8toChar       SYMBOL "AT_Int8toChar"
AT_af_get_ep        SYMBOL "AT_af_get_ep"
AT_af_register_ep   SYMBOL "AT_af_register_ep"
AT_ZCL_EP_ENABLE    SYMBOL "AT_ZCL_EP_ENABLE"
AT_NV_ZCL_get_index_ SYMBOL "AT_NV_ZCL_get_index_"
AT_NV_ZCL_saveEPStatus SYMBOL "AT_NV_ZCL_saveEPStatus"
AT_af_remove_ep     SYMBOL "AT_af_remove_ep"
afFindEndPointDesc  SYMBOL "afFindEndPointDesc"
printf              SYMBOL "printf"
AT_is_CMD_EPs       SYMBOL "AT_is_CMD_EPs"
afFindSimpleDesc    SYMBOL "afFindSimpleDesc"
osal_memcpy         SYMBOL "osal_memcpy"
AT_HandleCMD        SYMBOL "AT_HandleCMD"
HalLedBlink         SYMBOL "HalLedBlink"
HalLedSet           SYMBOL "HalLedSet"
??AF_DataRequest?relay SYMBOL "?relay", AF_DataRequest
??AT_HalUARTWrite?relay SYMBOL "?relay", AT_HalUARTWrite
??AT_HandleCMD?relay SYMBOL "?relay", AT_HandleCMD
??AT_Int16toChar?relay SYMBOL "?relay", AT_Int16toChar
??AT_Int8toChar?relay SYMBOL "?relay", AT_Int8toChar
??AT_NV_ZCL_get_index_?relay SYMBOL "?relay", AT_NV_ZCL_get_index_
??AT_NV_ZCL_saveEPStatus?relay SYMBOL "?relay", AT_NV_ZCL_saveEPStatus
??AT_ZCL_EP_ENABLE?relay SYMBOL "?relay", AT_ZCL_EP_ENABLE
??AT_af_get_ep?relay SYMBOL "?relay", AT_af_get_ep
??AT_af_register_ep?relay SYMBOL "?relay", AT_af_register_ep
??AT_af_remove_ep?relay SYMBOL "?relay", AT_af_remove_ep
??AT_is_CMD_EPs?relay SYMBOL "?relay", AT_is_CMD_EPs
??AT_sort_arr?relay SYMBOL "?relay", AT_sort_arr
??HalLedBlink?relay SYMBOL "?relay", HalLedBlink
??HalLedSet?relay   SYMBOL "?relay", HalLedSet
??afEndPoints?relay SYMBOL "?relay", afEndPoints
??afFindEndPointDesc?relay SYMBOL "?relay", afFindEndPointDesc
??afFindSimpleDesc?relay SYMBOL "?relay", afFindSimpleDesc
??afNumEndPoints?relay SYMBOL "?relay", afNumEndPoints
??afRegister?relay  SYMBOL "?relay", afRegister
??aps_AddGroup?relay SYMBOL "?relay", aps_AddGroup
??osal_mem_alloc?relay SYMBOL "?relay", osal_mem_alloc
??osal_mem_free?relay SYMBOL "?relay", osal_mem_free
??osal_memcpy?relay SYMBOL "?relay", osal_memcpy
??printf?relay      SYMBOL "?relay", printf
AT_AF_Cmd_HA_CIDDISC_CB SYMBOL "AT_AF_Cmd_HA_CIDDISC_CB"
??AT_AF_Cmd_HA_CIDDISC_CB?relay SYMBOL "?relay", AT_AF_Cmd_HA_CIDDISC_CB
AT_AF_Cmd_HA_CIDDISC_req SYMBOL "AT_AF_Cmd_HA_CIDDISC_req"
??AT_AF_Cmd_HA_CIDDISC_req?relay SYMBOL "?relay", AT_AF_Cmd_HA_CIDDISC_req
AT_AF_Cmd_HA_CIDDISC_rsp SYMBOL "AT_AF_Cmd_HA_CIDDISC_rsp"
??AT_AF_Cmd_HA_CIDDISC_rsp?relay SYMBOL "?relay", AT_AF_Cmd_HA_CIDDISC_rsp
AT_AF_Cmd_HA_DISC_CB SYMBOL "AT_AF_Cmd_HA_DISC_CB"
??AT_AF_Cmd_HA_DISC_CB?relay SYMBOL "?relay", AT_AF_Cmd_HA_DISC_CB
AT_AF_Cmd_HA_DISC_req SYMBOL "AT_AF_Cmd_HA_DISC_req"
??AT_AF_Cmd_HA_DISC_req?relay SYMBOL "?relay", AT_AF_Cmd_HA_DISC_req
AT_AF_Cmd_HA_DISC_rsp SYMBOL "AT_AF_Cmd_HA_DISC_rsp"
??AT_AF_Cmd_HA_DISC_rsp?relay SYMBOL "?relay", AT_AF_Cmd_HA_DISC_rsp
AT_AF_Cmd_POWER_SVING_EXP_CB SYMBOL "AT_AF_Cmd_POWER_SVING_EXP_CB"
??AT_AF_Cmd_POWER_SVING_EXP_CB?relay SYMBOL "?relay", AT_AF_Cmd_POWER_SVING_EXP_CB
AT_AF_Cmd_REPENABLE_CB SYMBOL "AT_AF_Cmd_REPENABLE_CB"
??AT_AF_Cmd_REPENABLE_CB?relay SYMBOL "?relay", AT_AF_Cmd_REPENABLE_CB
AT_AF_Cmd_REPENABLE_req SYMBOL "AT_AF_Cmd_REPENABLE_req"
??AT_AF_Cmd_REPENABLE_req?relay SYMBOL "?relay", AT_AF_Cmd_REPENABLE_req
AT_AF_Cmd_REPENABLE_rsp SYMBOL "AT_AF_Cmd_REPENABLE_rsp"
??AT_AF_Cmd_REPENABLE_rsp?relay SYMBOL "?relay", AT_AF_Cmd_REPENABLE_rsp
AT_AF_Cmd_REPPRINT_CB SYMBOL "AT_AF_Cmd_REPPRINT_CB"
??AT_AF_Cmd_REPPRINT_CB?relay SYMBOL "?relay", AT_AF_Cmd_REPPRINT_CB
AT_AF_Cmd_REPPRINT_req SYMBOL "AT_AF_Cmd_REPPRINT_req"
??AT_AF_Cmd_REPPRINT_req?relay SYMBOL "?relay", AT_AF_Cmd_REPPRINT_req
AT_AF_Cmd_REPPRINT_rsp SYMBOL "AT_AF_Cmd_REPPRINT_rsp"
??AT_AF_Cmd_REPPRINT_rsp?relay SYMBOL "?relay", AT_AF_Cmd_REPPRINT_rsp
AT_AF_Cmd_R_CIDDISC_CB SYMBOL "AT_AF_Cmd_R_CIDDISC_CB"
??AT_AF_Cmd_R_CIDDISC_CB?relay SYMBOL "?relay", AT_AF_Cmd_R_CIDDISC_CB
AT_AF_Cmd_R_CIDDISC_req SYMBOL "AT_AF_Cmd_R_CIDDISC_req"
??AT_AF_Cmd_R_CIDDISC_req?relay SYMBOL "?relay", AT_AF_Cmd_R_CIDDISC_req
AT_AF_Cmd_R_CIDDISC_rsp SYMBOL "AT_AF_Cmd_R_CIDDISC_rsp"
??AT_AF_Cmd_R_CIDDISC_rsp?relay SYMBOL "?relay", AT_AF_Cmd_R_CIDDISC_rsp
AT_AF_Cmd_send_simple_ SYMBOL "AT_AF_Cmd_send_simple_"
??AT_AF_Cmd_send_simple_?relay SYMBOL "?relay", AT_AF_Cmd_send_simple_
AT_AF_MessageMSGCB  SYMBOL "AT_AF_MessageMSGCB"
??AT_AF_MessageMSGCB?relay SYMBOL "?relay", AT_AF_MessageMSGCB
AT_AF_Register      SYMBOL "AT_AF_Register"
??AT_AF_Register?relay SYMBOL "?relay", AT_AF_Register
AT_AF_TEST_KEY_CB   SYMBOL "AT_AF_TEST_KEY_CB"
??AT_AF_TEST_KEY_CB?relay SYMBOL "?relay", AT_AF_TEST_KEY_CB

        EXTERN afRegister
        FUNCTION afRegister,0202H
        ARGFRAME ISTACK, 2, STACK
        ARGFRAME PSTACK, 0, STACK
        ARGFRAME XSTACK, 0, STACK
        ARGFRAME IOVERLAY, 0, STATIC
        ARGFRAME DOVERLAY, 0, STATIC
        EXTERN aps_AddGroup
        FUNCTION aps_AddGroup,0202H
        ARGFRAME ISTACK, 2, STACK
        ARGFRAME PSTACK, 0, STACK
        ARGFRAME XSTACK, 0, STACK
        ARGFRAME IOVERLAY, 0, STATIC
        ARGFRAME DOVERLAY, 0, STATIC
        EXTERN AF_DataRequest
        FUNCTION AF_DataRequest,0202H
        ARGFRAME ISTACK, 0, STACK
        ARGFRAME PSTACK, 0, STACK
        ARGFRAME XSTACK, 38, STACK
        ARGFRAME IOVERLAY, 0, STATIC
        ARGFRAME DOVERLAY, 0, STATIC
        EXTERN afNumEndPoints
        FUNCTION afNumEndPoints,0202H
        ARGFRAME ISTACK, 0, STACK
        ARGFRAME PSTACK, 0, STACK
        ARGFRAME XSTACK, 17, STACK
        ARGFRAME IOVERLAY, 0, STATIC
        ARGFRAME DOVERLAY, 0, STATIC
        EXTERN osal_mem_alloc
        FUNCTION osal_mem_alloc,0202H
        ARGFRAME ISTACK, 0, STACK
        ARGFRAME PSTACK, 0, STACK
        ARGFRAME XSTACK, 29, STACK
        ARGFRAME IOVERLAY, 0, STATIC
        ARGFRAME DOVERLAY, 0, STATIC
        EXTERN afEndPoints
        FUNCTION afEndPoints,0202H
        ARGFRAME ISTACK, 0, STACK
        ARGFRAME PSTACK, 0, STACK
        ARGFRAME XSTACK, 17, STACK
        ARGFRAME IOVERLAY, 0, STATIC
        ARGFRAME DOVERLAY, 0, STATIC
        EXTERN AT_sort_arr
        FUNCTION AT_sort_arr,0202H
        ARGFRAME ISTACK, 0, STACK
        ARGFRAME PSTACK, 0, STACK
        ARGFRAME XSTACK, 17, STACK
        ARGFRAME IOVERLAY, 0, STATIC
        ARGFRAME DOVERLAY, 0, STATIC
        EXTERN osal_mem_free
        FUNCTION osal_mem_free,0202H
        ARGFRAME ISTACK, 0, STACK
        ARGFRAME PSTACK, 0, STACK
        ARGFRAME XSTACK, 29, STACK
        ARGFRAME IOVERLAY, 0, STATIC
        ARGFRAME DOVERLAY, 0, STATIC
        EXTERN AT_HalUARTWrite
        FUNCTION AT_HalUARTWrite,0202H
        ARGFRAME ISTACK, 0, STACK
        ARGFRAME PSTACK, 0, STACK
        ARGFRAME XSTACK, 19, STACK
        ARGFRAME IOVERLAY, 0, STATIC
        ARGFRAME DOVERLAY, 0, STATIC
        EXTERN AT_Int16toChar
        FUNCTION AT_Int16toChar,0202H
        ARGFRAME ISTACK, 0, STACK
        ARGFRAME PSTACK, 0, STACK
        ARGFRAME XSTACK, 19, STACK
        ARGFRAME IOVERLAY, 0, STATIC
        ARGFRAME DOVERLAY, 0, STATIC
        EXTERN AT_Int8toChar
        FUNCTION AT_Int8toChar,0202H
        ARGFRAME ISTACK, 0, STACK
        ARGFRAME PSTACK, 0, STACK
        ARGFRAME XSTACK, 19, STACK
        ARGFRAME IOVERLAY, 0, STATIC
        ARGFRAME DOVERLAY, 0, STATIC
        EXTERN AT_af_get_ep
        FUNCTION AT_af_get_ep,0202H
        ARGFRAME ISTACK, 0, STACK
        ARGFRAME PSTACK, 0, STACK
        ARGFRAME XSTACK, 19, STACK
        ARGFRAME IOVERLAY, 0, STATIC
        ARGFRAME DOVERLAY, 0, STATIC
        EXTERN AT_af_register_ep
        FUNCTION AT_af_register_ep,0202H
        ARGFRAME ISTACK, 0, STACK
        ARGFRAME PSTACK, 0, STACK
        ARGFRAME XSTACK, 19, STACK
        ARGFRAME IOVERLAY, 0, STATIC
        ARGFRAME DOVERLAY, 0, STATIC
        EXTERN AT_ZCL_EP_ENABLE
        FUNCTION AT_ZCL_EP_ENABLE,0202H
        ARGFRAME ISTACK, 0, STACK
        ARGFRAME PSTACK, 0, STACK
        ARGFRAME XSTACK, 19, STACK
        ARGFRAME IOVERLAY, 0, STATIC
        ARGFRAME DOVERLAY, 0, STATIC
        EXTERN AT_NV_ZCL_get_index_
        FUNCTION AT_NV_ZCL_get_index_,0202H
        ARGFRAME ISTACK, 0, STACK
        ARGFRAME PSTACK, 0, STACK
        ARGFRAME XSTACK, 19, STACK
        ARGFRAME IOVERLAY, 0, STATIC
        ARGFRAME DOVERLAY, 0, STATIC
        EXTERN AT_NV_ZCL_saveEPStatus
        FUNCTION AT_NV_ZCL_saveEPStatus,0202H
        ARGFRAME ISTACK, 0, STACK
        ARGFRAME PSTACK, 0, STACK
        ARGFRAME XSTACK, 19, STACK
        ARGFRAME IOVERLAY, 0, STATIC
        ARGFRAME DOVERLAY, 0, STATIC
        EXTERN AT_af_remove_ep
        FUNCTION AT_af_remove_ep,0202H
        ARGFRAME ISTACK, 0, STACK
        ARGFRAME PSTACK, 0, STACK
        ARGFRAME XSTACK, 19, STACK
        ARGFRAME IOVERLAY, 0, STATIC
        ARGFRAME DOVERLAY, 0, STATIC
        EXTERN afFindEndPointDesc
        FUNCTION afFindEndPointDesc,0202H
        ARGFRAME ISTACK, 0, STACK
        ARGFRAME PSTACK, 0, STACK
        ARGFRAME XSTACK, 19, STACK
        ARGFRAME IOVERLAY, 0, STATIC
        ARGFRAME DOVERLAY, 0, STATIC
        EXTERN printf
        FUNCTION printf,0202H
        ARGFRAME ISTACK, 0, STACK
        ARGFRAME PSTACK, 0, STACK
        ARGFRAME XSTACK, 25, STACK
        ARGFRAME IOVERLAY, 0, STATIC
        ARGFRAME DOVERLAY, 0, STATIC
        EXTERN AT_is_CMD_EPs
        FUNCTION AT_is_CMD_EPs,0202H
        ARGFRAME ISTACK, 0, STACK
        ARGFRAME PSTACK, 0, STACK
        ARGFRAME XSTACK, 29, STACK
        ARGFRAME IOVERLAY, 0, STATIC
        ARGFRAME DOVERLAY, 0, STATIC
        EXTERN afFindSimpleDesc
        FUNCTION afFindSimpleDesc,0202H
        ARGFRAME ISTACK, 0, STACK
        ARGFRAME PSTACK, 0, STACK
        ARGFRAME XSTACK, 29, STACK
        ARGFRAME IOVERLAY, 0, STATIC
        ARGFRAME DOVERLAY, 0, STATIC
        EXTERN osal_memcpy
        FUNCTION osal_memcpy,0202H
        ARGFRAME ISTACK, 0, STACK
        ARGFRAME PSTACK, 0, STACK
        ARGFRAME XSTACK, 32, STACK
        ARGFRAME IOVERLAY, 0, STATIC
        ARGFRAME DOVERLAY, 0, STATIC
        EXTERN AT_HandleCMD
        FUNCTION AT_HandleCMD,0202H
        ARGFRAME ISTACK, 2, STACK
        ARGFRAME PSTACK, 0, STACK
        ARGFRAME XSTACK, 0, STACK
        ARGFRAME IOVERLAY, 0, STATIC
        ARGFRAME DOVERLAY, 0, STATIC
        EXTERN HalLedBlink
        FUNCTION HalLedBlink,0202H
        ARGFRAME ISTACK, 2, STACK
        ARGFRAME PSTACK, 0, STACK
        ARGFRAME XSTACK, 0, STACK
        ARGFRAME IOVERLAY, 0, STATIC
        ARGFRAME DOVERLAY, 0, STATIC
        EXTERN HalLedSet
        FUNCTION HalLedSet,0202H
        ARGFRAME ISTACK, 0, STACK
        ARGFRAME PSTACK, 0, STACK
        ARGFRAME XSTACK, 10, STACK
        ARGFRAME IOVERLAY, 0, STATIC
        ARGFRAME DOVERLAY, 0, STATIC
        EXTERN ??AF_DataRequest?relay
        FUNCTION ??AF_DataRequest?relay,00H
        EXTERN ??AT_HalUARTWrite?relay
        FUNCTION ??AT_HalUARTWrite?relay,00H
        EXTERN ??AT_HandleCMD?relay
        FUNCTION ??AT_HandleCMD?relay,00H
        EXTERN ??AT_Int16toChar?relay
        FUNCTION ??AT_Int16toChar?relay,00H
        EXTERN ??AT_Int8toChar?relay
        FUNCTION ??AT_Int8toChar?relay,00H
        EXTERN ??AT_NV_ZCL_get_index_?relay
        FUNCTION ??AT_NV_ZCL_get_index_?relay,00H
        EXTERN ??AT_NV_ZCL_saveEPStatus?relay
        FUNCTION ??AT_NV_ZCL_saveEPStatus?relay,00H
        EXTERN ??AT_ZCL_EP_ENABLE?relay
        FUNCTION ??AT_ZCL_EP_ENABLE?relay,00H
        EXTERN ??AT_af_get_ep?relay
        FUNCTION ??AT_af_get_ep?relay,00H
        EXTERN ??AT_af_register_ep?relay
        FUNCTION ??AT_af_register_ep?relay,00H
        EXTERN ??AT_af_remove_ep?relay
        FUNCTION ??AT_af_remove_ep?relay,00H
        EXTERN ??AT_is_CMD_EPs?relay
        FUNCTION ??AT_is_CMD_EPs?relay,00H
        EXTERN ??AT_sort_arr?relay
        FUNCTION ??AT_sort_arr?relay,00H
        EXTERN ??HalLedBlink?relay
        FUNCTION ??HalLedBlink?relay,00H
        EXTERN ??HalLedSet?relay
        FUNCTION ??HalLedSet?relay,00H
        EXTERN ??afEndPoints?relay
        FUNCTION ??afEndPoints?relay,00H
        EXTERN ??afFindEndPointDesc?relay
        FUNCTION ??afFindEndPointDesc?relay,00H
        EXTERN ??afFindSimpleDesc?relay
        FUNCTION ??afFindSimpleDesc?relay,00H
        EXTERN ??afNumEndPoints?relay
        FUNCTION ??afNumEndPoints?relay,00H
        EXTERN ??afRegister?relay
        FUNCTION ??afRegister?relay,00H
        EXTERN ??aps_AddGroup?relay
        FUNCTION ??aps_AddGroup?relay,00H
        EXTERN ??osal_mem_alloc?relay
        FUNCTION ??osal_mem_alloc?relay,00H
        EXTERN ??osal_mem_free?relay
        FUNCTION ??osal_mem_free?relay,00H
        EXTERN ??osal_memcpy?relay
        FUNCTION ??osal_memcpy?relay,00H
        EXTERN ??printf?relay
        FUNCTION ??printf?relay,00H
        EXTERN AT_CMD_EPs_Num

// S:\zigbee\Myzigbe\version 3.0 for test\Projects\zstack\AT commands\AT command 3.2 -Body Sensor\Source\AT_AF.c
//    1 /**************************************************************************************************
//    2   Filename:       AT_AF.c
//    3 
//    4   Description:    AT command module
//    5   Author:         Xiao Wang
//    6 **************************************************************************************************/
//    7 
//    8 
//    9 #include "OSAL.h"
//   10 #include "ZGlobals.h"
//   11 #include "AF.h"
//   12 #include "aps_groups.h"
//   13 #include "ZDApp.h"
//   14 
//   15 
//   16 #include "At_include.h"
//   17 
//   18 #include "hal_led.h"
//   19 #include "zcl.h"
//   20 /*************************************global variable*****************
//   21 *
//   22 */
//   23 
//   24 

        RSEG XDATA_I:XDATA:NOROOT(0)
//   25 aps_Group_t AT_AF_Group={
AT_AF_Group:
        DATA8
        DS 18
        REQUIRE `?<Initializer for AT_AF_Group>`
        REQUIRE __INIT_XDATA_I
//   26   AT_AF_GROUP_ID,                               //group id
//   27   {'A','T','_','A','F','_','g','r','o','u','p','\0'}    //group name "AT_AF_group"
//   28 };
//   29 

        RSEG XDATA_ROM_C:CONST:REORDER:NOROOT(0)
        DATA8
//   30 const cId_t AT_AF_ClusterList[AT_AF_MAX_CLUSTERS] = AT_AF_ClusterList_ ;
AT_AF_ClusterList:
        DATA16
        DW 0
        DW 1
        DW 2
        DW 3
        DW 4
        DW 6
        DW 0
//   31 

        RSEG XDATA_ROM_C:CONST:REORDER:NOROOT(0)
        DATA8
//   32 const SimpleDescriptionFormat_t AT_AF_SimpleDesc =
AT_AF_SimpleDesc:
        DB 204
        DATA16
        DW 7
        DW 2
        DATA8
        DB 0
        DB 7
        DATA16
        DW AT_AF_ClusterList
        DATA8
        DB 7
        DATA16
        DW AT_AF_ClusterList
//   33 {
//   34   AT_AF_ENDPOINT,              //  int Endpoint;
//   35   AT_AF_PROFID,                //  uint16 AppProfId[2];
//   36   AT_AF_DEVICEID,              //  uint16 AppDeviceId[2];
//   37   AT_AF_DEVICE_VERSION,        //  int   AppDevVer:4;
//   38   AT_AF_FLAGS,                 //  int   AppFlags:4;
//   39   AT_AF_MAX_CLUSTERS,                                     //  uint8  AppNumInClusters;
//   40   (cId_t *)AT_AF_ClusterList,                            //  uint8 *pAppInClusterList;
//   41   AT_AF_MAX_CLUSTERS,          //  uint8  AppNumInClusters;
//   42   (cId_t *)AT_AF_ClusterList   //  uint8 *pAppInClusterList;
//   43 };
//   44 

        RSEG XDATA_Z:XDATA:NOROOT(0)
        DATA8
//   45 endPointDesc_t AT_AF_epDesc;
AT_AF_epDesc:
        DS 6
        REQUIRE __INIT_XDATA_Z

        RSEG XDATA_Z:XDATA:NOROOT(0)
        DATA8
//   46 uint8 AT_AF_TransID;  // This is the unique message ID (counter)
AT_AF_TransID:
        DS 1
        REQUIRE __INIT_XDATA_Z
//   47 
//   48 /****************Local function*********************/
//   49 void AT_AF_Cmd_REPPRINT_CB(afIncomingMSGPacket_t *pkt );
//   50 void AT_AF_Cmd_REPPRINT_req(afIncomingMSGPacket_t *pkt  );
//   51 void AT_AF_Cmd_REPPRINT_rsp(afIncomingMSGPacket_t *pkt );
//   52 void AT_AF_Cmd_REPENABLE_CB(afIncomingMSGPacket_t *pkt );
//   53 void AT_AF_Cmd_REPENABLE_req(afIncomingMSGPacket_t *pkt  );
//   54 void AT_AF_Cmd_REPENABLE_rsp(afIncomingMSGPacket_t *pkt );
//   55 
//   56 void AT_AF_Cmd_HA_DISC_CB(afIncomingMSGPacket_t *pkt );
//   57 void AT_AF_Cmd_HA_DISC_req(afIncomingMSGPacket_t *pkt  );
//   58 void AT_AF_Cmd_HA_DISC_rsp(afIncomingMSGPacket_t *pkt );
//   59 
//   60 void AT_AF_Cmd_HA_CIDDISC_CB(afIncomingMSGPacket_t *pkt );
//   61 void AT_AF_Cmd_HA_CIDDISC_req(afIncomingMSGPacket_t *pkt  );
//   62 void AT_AF_Cmd_HA_CIDDISC_rsp(afIncomingMSGPacket_t *pkt );
//   63 
//   64 void AT_AF_Cmd_R_CIDDISC_CB(afIncomingMSGPacket_t *pkt );
//   65 void AT_AF_Cmd_R_CIDDISC_req(afIncomingMSGPacket_t *pkt  );
//   66 void AT_AF_Cmd_R_CIDDISC_rsp(afIncomingMSGPacket_t *pkt );
//   67 
//   68 void AT_AF_Cmd_POWER_SVING_EXP_CB(afIncomingMSGPacket_t *pkt );
//   69 
//   70 void AT_AF_TEST_KEY_CB(afIncomingMSGPacket_t *pkt );
//   71 

        RSEG BANKED_CODE:CODE:NOROOT(0)
//   72 void AT_AF_Register(uint8 *task_id){
AT_AF_Register:
        CFI Block cfiBlock0 Using cfiCommon0
        CFI Function AT_AF_Register
        CODE
        FUNCALL AT_AF_Register, afRegister
        LOCFRAME ISTACK, 2, STACK
        LOCFRAME PSTACK, 0, STACK
        LOCFRAME XSTACK, 0, STACK
        LOCFRAME IOVERLAY, 0, STATIC
        LOCFRAME DOVERLAY, 0, STATIC
        ARGFRAME ISTACK, 2, STACK
        ARGFRAME PSTACK, 0, STACK
        ARGFRAME XSTACK, 0, STACK
        ARGFRAME IOVERLAY, 0, STATIC
        ARGFRAME DOVERLAY, 0, STATIC
        FUNCALL AT_AF_Register, aps_AddGroup
        LOCFRAME ISTACK, 2, STACK
        LOCFRAME PSTACK, 0, STACK
        LOCFRAME XSTACK, 0, STACK
        LOCFRAME IOVERLAY, 0, STATIC
        LOCFRAME DOVERLAY, 0, STATIC
        ARGFRAME ISTACK, 2, STACK
        ARGFRAME PSTACK, 0, STACK
        ARGFRAME XSTACK, 0, STACK
        ARGFRAME IOVERLAY, 0, STATIC
        ARGFRAME DOVERLAY, 0, STATIC
        PUSH    DPL
        CFI DPL0 Frame(CFA_SP, 4)
        CFI CFA_SP SP+-4
        PUSH    DPH
        CFI DPH0 Frame(CFA_SP, 5)
        CFI CFA_SP SP+-5
        ; Saved register size: 2
        ; Auto size: 0
//   73  // Fill out the endpoint description.
//   74   AT_AF_epDesc.endPoint = AT_AF_ENDPOINT;
        MOV     DPTR,#AT_AF_epDesc
        MOV     A,#-0x34
        MOVX    @DPTR,A
//   75   AT_AF_epDesc.task_id = task_id;
        INC     DPTR
        MOV     A,R2
        MOVX    @DPTR,A
        INC     DPTR
        MOV     A,R3
        MOVX    @DPTR,A
//   76   AT_AF_epDesc.simpleDesc
//   77             = (SimpleDescriptionFormat_t *)&AT_AF_SimpleDesc;
        INC     DPTR
        MOV     A,#AT_AF_SimpleDesc & 0xff
        MOVX    @DPTR,A
        INC     DPTR
        MOV     A,#(AT_AF_SimpleDesc >> 8) & 0xff
        MOVX    @DPTR,A
//   78   AT_AF_epDesc.latencyReq = noLatencyReqs;
        INC     DPTR
        CLR     A
        MOVX    @DPTR,A
//   79   
//   80   // Register the endpoint description with the AF
//   81   afRegister( &AT_AF_epDesc );
        ; Setup parameters for call to function afRegister
        MOV     R2,#AT_AF_epDesc & 0xff
        MOV     R3,#(AT_AF_epDesc >> 8) & 0xff
        LCALL   ??afRegister?relay
//   82   
//   83   aps_AddGroup( AT_AF_ENDPOINT, &AT_AF_Group );
        ; Setup parameters for call to function aps_AddGroup
        MOV     R2,#AT_AF_Group & 0xff
        MOV     R3,#(AT_AF_Group >> 8) & 0xff
        MOV     R1,#-0x34
        LCALL   ??aps_AddGroup?relay
//   84   
//   85 }
        LJMP    ?Subroutine0 & 0xFFFF
        CFI EndBlock cfiBlock0
//   86 
//   87 

        RSEG BANKED_CODE:CODE:NOROOT(0)
//   88 void AT_AF_MessageMSGCB( afIncomingMSGPacket_t *pkt )
AT_AF_MessageMSGCB:
        CFI Block cfiBlock1 Using cfiCommon0
        CFI Function AT_AF_MessageMSGCB
        CODE
//   89 {
        FUNCALL AT_AF_MessageMSGCB, AT_AF_Cmd_REPPRINT_CB
        LOCFRAME ISTACK, 0, STACK
        LOCFRAME PSTACK, 0, STACK
        LOCFRAME XSTACK, 10, STACK
        LOCFRAME IOVERLAY, 0, STATIC
        LOCFRAME DOVERLAY, 0, STATIC
        ARGFRAME ISTACK, 0, STACK
        ARGFRAME PSTACK, 0, STACK
        ARGFRAME XSTACK, 10, STACK
        ARGFRAME IOVERLAY, 0, STATIC
        ARGFRAME DOVERLAY, 0, STATIC
        FUNCALL AT_AF_MessageMSGCB, AT_AF_Cmd_REPENABLE_CB
        LOCFRAME ISTACK, 0, STACK
        LOCFRAME PSTACK, 0, STACK
        LOCFRAME XSTACK, 10, STACK
        LOCFRAME IOVERLAY, 0, STATIC
        LOCFRAME DOVERLAY, 0, STATIC
        ARGFRAME ISTACK, 0, STACK
        ARGFRAME PSTACK, 0, STACK
        ARGFRAME XSTACK, 10, STACK
        ARGFRAME IOVERLAY, 0, STATIC
        ARGFRAME DOVERLAY, 0, STATIC
        FUNCALL AT_AF_MessageMSGCB, AT_AF_Cmd_HA_DISC_CB
        LOCFRAME ISTACK, 0, STACK
        LOCFRAME PSTACK, 0, STACK
        LOCFRAME XSTACK, 10, STACK
        LOCFRAME IOVERLAY, 0, STATIC
        LOCFRAME DOVERLAY, 0, STATIC
        ARGFRAME ISTACK, 0, STACK
        ARGFRAME PSTACK, 0, STACK
        ARGFRAME XSTACK, 10, STACK
        ARGFRAME IOVERLAY, 0, STATIC
        ARGFRAME DOVERLAY, 0, STATIC
        FUNCALL AT_AF_MessageMSGCB, AT_AF_Cmd_HA_CIDDISC_CB
        LOCFRAME ISTACK, 0, STACK
        LOCFRAME PSTACK, 0, STACK
        LOCFRAME XSTACK, 10, STACK
        LOCFRAME IOVERLAY, 0, STATIC
        LOCFRAME DOVERLAY, 0, STATIC
        ARGFRAME ISTACK, 0, STACK
        ARGFRAME PSTACK, 0, STACK
        ARGFRAME XSTACK, 10, STACK
        ARGFRAME IOVERLAY, 0, STATIC
        ARGFRAME DOVERLAY, 0, STATIC
        FUNCALL AT_AF_MessageMSGCB, AT_AF_Cmd_R_CIDDISC_CB
        LOCFRAME ISTACK, 0, STACK
        LOCFRAME PSTACK, 0, STACK
        LOCFRAME XSTACK, 10, STACK
        LOCFRAME IOVERLAY, 0, STATIC
        LOCFRAME DOVERLAY, 0, STATIC
        ARGFRAME ISTACK, 0, STACK
        ARGFRAME PSTACK, 0, STACK
        ARGFRAME XSTACK, 10, STACK
        ARGFRAME IOVERLAY, 0, STATIC
        ARGFRAME DOVERLAY, 0, STATIC
        FUNCALL AT_AF_MessageMSGCB, AT_AF_TEST_KEY_CB
        LOCFRAME ISTACK, 0, STACK
        LOCFRAME PSTACK, 0, STACK
        LOCFRAME XSTACK, 10, STACK
        LOCFRAME IOVERLAY, 0, STATIC
        LOCFRAME DOVERLAY, 0, STATIC
        ARGFRAME ISTACK, 0, STACK
        ARGFRAME PSTACK, 0, STACK
        ARGFRAME XSTACK, 10, STACK
        ARGFRAME IOVERLAY, 0, STATIC
        ARGFRAME DOVERLAY, 0, STATIC
        FUNCALL AT_AF_MessageMSGCB, AT_AF_Cmd_POWER_SVING_EXP_CB
        LOCFRAME ISTACK, 0, STACK
        LOCFRAME PSTACK, 0, STACK
        LOCFRAME XSTACK, 10, STACK
        LOCFRAME IOVERLAY, 0, STATIC
        LOCFRAME DOVERLAY, 0, STATIC
        ARGFRAME ISTACK, 0, STACK
        ARGFRAME PSTACK, 0, STACK
        ARGFRAME XSTACK, 10, STACK
        ARGFRAME IOVERLAY, 0, STATIC
        ARGFRAME DOVERLAY, 0, STATIC
        MOV     A,#-0xa
        LCALL   ?BANKED_ENTER_XDATA
        CFI DPH0 load(1, XDATA, add(CFA_XSP16, literal(-1)))
        CFI DPL0 load(1, XDATA, add(CFA_XSP16, literal(-2)))
        CFI ?BRET_EXT load(1, XDATA, add(CFA_XSP16, literal(-3)))
        CFI ?RET_HIGH load(1, XDATA, add(CFA_XSP16, literal(-4)))
        CFI ?RET_LOW load(1, XDATA, add(CFA_XSP16, literal(-5)))
        CFI R7 load(1, XDATA, add(CFA_XSP16, literal(-6)))
        CFI V1 load(1, XDATA, add(CFA_XSP16, literal(-7)))
        CFI V0 load(1, XDATA, add(CFA_XSP16, literal(-8)))
        CFI VB load(1, XDATA, add(CFA_XSP16, literal(-9)))
        CFI R6 load(1, XDATA, add(CFA_XSP16, literal(-10)))
        CFI CFA_SP SP+0
        CFI CFA_XSP16 add(XSP16, 10)
        ; Saved register size: 10
        ; Auto size: 0
//   90   
//   91   switch ( pkt->clusterId )
        MOV     DPL,R2
        MOV     DPH,R3
        INC     DPTR
        INC     DPTR
        INC     DPTR
        INC     DPTR
        LCALL   ??Subroutine45_0 & 0xFFFF
??CrossCallReturnLabel_65:
        MOV     R0,#?V0 + 0
        LCALL   ?US_SWITCH_DENSE
`?<Jumptable for AT_AF_MessageMSGCB>_0`:
        DATA
        DATA16
        DATA
        DATA16
        DW        0
        DATA
        DATA8
        DATA
        DATA8
        DB        6
        DATA
        DATA16
        DATA
        DATA16
        DW        ??AT_AF_MessageMSGCB_0
        DATA
        DATA16
        DATA
        DATA16
        DW        ??AT_AF_MessageMSGCB_1
        DATA
        DATA16
        DATA
        DATA16
        DW        ??AT_AF_MessageMSGCB_2
        DATA
        DATA16
        DATA
        DATA16
        DW        ??AT_AF_MessageMSGCB_3
        DATA
        DATA16
        DATA
        DATA16
        DW        ??AT_AF_MessageMSGCB_4
        DATA
        DATA16
        DATA
        DATA16
        DW        ??AT_AF_MessageMSGCB_5
        DATA
        DATA16
        DATA
        DATA16
        DW        ??AT_AF_MessageMSGCB_6
        DATA
        DATA16
        DATA
        DATA16
        DW        ??AT_AF_MessageMSGCB_7
        CODE
//   92   {
//   93     case AT_AF_Cmd_REPPRINT_CLUSTERID:
//   94       AT_AF_Cmd_REPPRINT_CB(pkt);
??AT_AF_MessageMSGCB_1:
        ; Setup parameters for call to function AT_AF_Cmd_REPPRINT_CB
        LCALL   ??AT_AF_Cmd_REPPRINT_CB?relay
//   95       break;
        SJMP    ??AT_AF_MessageMSGCB_0
//   96     case AT_AF_Cmd_REPENABLE_CLUSTERID:
//   97       AT_AF_Cmd_REPENABLE_CB(pkt);
??AT_AF_MessageMSGCB_2:
        ; Setup parameters for call to function AT_AF_Cmd_REPENABLE_CB
        LCALL   ??AT_AF_Cmd_REPENABLE_CB?relay
//   98       break;
        SJMP    ??AT_AF_MessageMSGCB_0
//   99     case  AT_AF_Cmd_HA_DISC_CLUSTERID:
//  100       AT_AF_Cmd_HA_DISC_CB(pkt);
??AT_AF_MessageMSGCB_3:
        ; Setup parameters for call to function AT_AF_Cmd_HA_DISC_CB
        LCALL   ??AT_AF_Cmd_HA_DISC_CB?relay
//  101       break;
        SJMP    ??AT_AF_MessageMSGCB_0
//  102     case  AT_AF_Cmd_HA_CIDDISC_CLUSTERID:
//  103       AT_AF_Cmd_HA_CIDDISC_CB(pkt);
??AT_AF_MessageMSGCB_4:
        ; Setup parameters for call to function AT_AF_Cmd_HA_CIDDISC_CB
        LCALL   ??AT_AF_Cmd_HA_CIDDISC_CB?relay
//  104       break;
        SJMP    ??AT_AF_MessageMSGCB_0
//  105     case  AT_AF_Cmd_R_CIDDISC_CLUSTERID:
//  106       AT_AF_Cmd_R_CIDDISC_CB(pkt);
??AT_AF_MessageMSGCB_5:
        ; Setup parameters for call to function AT_AF_Cmd_R_CIDDISC_CB
        LCALL   ??AT_AF_Cmd_R_CIDDISC_CB?relay
//  107       break;
        SJMP    ??AT_AF_MessageMSGCB_0
//  108     case  AT_AF_TEST_KEY_CLUSTERID:
//  109       AT_AF_TEST_KEY_CB(pkt);
??AT_AF_MessageMSGCB_6:
        ; Setup parameters for call to function AT_AF_TEST_KEY_CB
        LCALL   ??AT_AF_TEST_KEY_CB?relay
//  110       break;
        SJMP    ??AT_AF_MessageMSGCB_0
//  111     case  AT_AF_POWER_SVING_EXP_CLUSTERID:
//  112       AT_AF_Cmd_POWER_SVING_EXP_CB(pkt);
??AT_AF_MessageMSGCB_7:
        ; Setup parameters for call to function AT_AF_Cmd_POWER_SVING_EXP_CB
        LCALL   ??AT_AF_Cmd_POWER_SVING_EXP_CB?relay
        CFI EndBlock cfiBlock1
//  113       break;
//  114       
//  115   }
//  116 }
??AT_AF_MessageMSGCB_0:
        REQUIRE ?Subroutine1
        ; // Fall through to label ?Subroutine1

        RSEG BANKED_CODE:CODE:NOROOT(0)
?Subroutine1:
        CFI Block cfiBlock2 Using cfiCommon0
        CFI NoFunction
        CFI CFA_SP SP+0
        CFI CFA_XSP16 add(XSP16, 10)
        CFI VB load(1, XDATA, add(CFA_XSP16, literal(-9)))
        CFI DPL0 load(1, XDATA, add(CFA_XSP16, literal(-2)))
        CFI DPH0 load(1, XDATA, add(CFA_XSP16, literal(-1)))
        CFI R6 load(1, XDATA, add(CFA_XSP16, literal(-10)))
        CFI R7 load(1, XDATA, add(CFA_XSP16, literal(-6)))
        CFI V0 load(1, XDATA, add(CFA_XSP16, literal(-8)))
        CFI V1 load(1, XDATA, add(CFA_XSP16, literal(-7)))
        CFI ?BRET_EXT load(1, XDATA, add(CFA_XSP16, literal(-3)))
        CFI ?RET_HIGH load(1, XDATA, add(CFA_XSP16, literal(-4)))
        CFI ?RET_LOW load(1, XDATA, add(CFA_XSP16, literal(-5)))
        MOV     R7,#0x2
        LJMP    ?BANKED_LEAVE_XDATA
        CFI EndBlock cfiBlock2
//  117 
//  118 

        RSEG BANKED_CODE:CODE:NOROOT(0)
//  119 afStatus_t AT_AF_Cmd_send_simple_(uint16 nwkAddr,uint16 CID,uint8 len, uint8 *buff){
AT_AF_Cmd_send_simple_:
        CFI Block cfiBlock3 Using cfiCommon0
        CFI Function AT_AF_Cmd_send_simple_
        CODE
        FUNCALL AT_AF_Cmd_send_simple_, AF_DataRequest
        LOCFRAME ISTACK, 0, STACK
        LOCFRAME PSTACK, 0, STACK
        LOCFRAME XSTACK, 33, STACK
        LOCFRAME IOVERLAY, 0, STATIC
        LOCFRAME DOVERLAY, 0, STATIC
        ARGFRAME ISTACK, 0, STACK
        ARGFRAME PSTACK, 0, STACK
        ARGFRAME XSTACK, 33, STACK
        ARGFRAME IOVERLAY, 0, STATIC
        ARGFRAME DOVERLAY, 0, STATIC
        MOV     A,#-0xc
        LCALL   ?BANKED_ENTER_XDATA
        CFI DPH0 load(1, XDATA, add(CFA_XSP16, literal(-1)))
        CFI DPL0 load(1, XDATA, add(CFA_XSP16, literal(-2)))
        CFI ?BRET_EXT load(1, XDATA, add(CFA_XSP16, literal(-3)))
        CFI ?RET_HIGH load(1, XDATA, add(CFA_XSP16, literal(-4)))
        CFI ?RET_LOW load(1, XDATA, add(CFA_XSP16, literal(-5)))
        CFI R7 load(1, XDATA, add(CFA_XSP16, literal(-6)))
        CFI V3 load(1, XDATA, add(CFA_XSP16, literal(-7)))
        CFI V2 load(1, XDATA, add(CFA_XSP16, literal(-8)))
        CFI V1 load(1, XDATA, add(CFA_XSP16, literal(-9)))
        CFI V0 load(1, XDATA, add(CFA_XSP16, literal(-10)))
        CFI VB load(1, XDATA, add(CFA_XSP16, literal(-11)))
        CFI R6 load(1, XDATA, add(CFA_XSP16, literal(-12)))
        CFI CFA_SP SP+0
        CFI CFA_XSP16 add(XSP16, 12)
        ; Saved register size: 12
        ; Auto size: 12
        MOV     A,#-0xc
        LCALL   ?ALLOC_XSTACK8
        CFI CFA_XSP16 add(XSP16, 24)
        MOV     A,R1
        MOV     R6,A
        MOV     A,#0x18
        LCALL   ?XSTACK_DISP0_8
        LCALL   ??Subroutine45_0 & 0xFFFF
//  120   
//  121   afAddrType_t dstAddr;
//  122   dstAddr.endPoint = AT_AF_ENDPOINT;
??CrossCallReturnLabel_66:
        MOV     A,#0x9
        LCALL   ?XSTACK_DISP0_8
        MOV     A,#-0x34
        MOVX    @DPTR,A
//  123   dstAddr.addr.shortAddr =nwkAddr;
        MOV     DPL,?XSP + 0
        MOV     DPH,?XSP + 1
        MOV     A,R2
        MOVX    @DPTR,A
        INC     DPTR
        MOV     A,R3
        MOVX    @DPTR,A
//  124   dstAddr.addrMode = (afAddrMode_t) Addr16Bit;
        MOV     A,#0x8
        LCALL   ?XSTACK_DISP0_8
        MOV     A,#0x2
        MOVX    @DPTR,A
//  125   
//  126   return AF_DataRequest( &dstAddr, & AT_AF_epDesc,
//  127                        CID,
//  128                        len,
//  129                        buff,
//  130                        &AT_AF_TransID,
//  131                        AF_DISCV_ROUTE,
//  132                        AF_DEFAULT_RADIUS );
        ; Setup parameters for call to function AF_DataRequest
        MOV     ?V0 + 2,#0x1e
        MOV     R0,#?V0 + 2
        LCALL   ?PUSH_XSTACK_I_ONE
        CFI CFA_XSP16 add(XSP16, 25)
        MOV     ?V0 + 2,#AT_AF_TransID & 0xff
        MOV     ?V0 + 3,#(AT_AF_TransID >> 8) & 0xff
        MOV     R0,#?V0 + 2
        LCALL   ?PUSH_XSTACK_I_TWO
        CFI CFA_XSP16 add(XSP16, 27)
        MOV     R0,#?V0 + 0
        LCALL   ?PUSH_XSTACK_I_TWO
        CFI CFA_XSP16 add(XSP16, 29)
        MOV     ?V0 + 0,R6
        MOV     ?V0 + 1,#0x0
        MOV     R0,#?V0 + 0
        LCALL   ?PUSH_XSTACK_I_TWO
        CFI CFA_XSP16 add(XSP16, 31)
        MOV     ?V0 + 0,R4
        MOV     ?V0 + 1,R5
        MOV     R0,#?V0 + 0
        LCALL   ?PUSH_XSTACK_I_TWO
        CFI CFA_XSP16 add(XSP16, 33)
        MOV     R1,#0x20
        MOV     R4,#AT_AF_epDesc & 0xff
        MOV     R5,#(AT_AF_epDesc >> 8) & 0xff
        MOV     A,#0x9
        LCALL   ?XSTACK_DISP0_8
        MOV     R2,DPL
        MOV     R3,DPH
        LCALL   ??AF_DataRequest?relay
        MOV     A,#0x9
        LCALL   ?DEALLOC_XSTACK8
        CFI CFA_XSP16 add(XSP16, 24)
        MOV     A,#0xc
        LCALL   ?DEALLOC_XSTACK8
        CFI EndBlock cfiBlock3
        REQUIRE ?Subroutine2
        ; // Fall through to label ?Subroutine2
//  133 }

        RSEG BANKED_CODE:CODE:NOROOT(0)
?Subroutine2:
        CFI Block cfiBlock4 Using cfiCommon0
        CFI NoFunction
        CFI CFA_SP SP+0
        CFI CFA_XSP16 add(XSP16, 12)
        CFI VB load(1, XDATA, add(CFA_XSP16, literal(-11)))
        CFI DPL0 load(1, XDATA, add(CFA_XSP16, literal(-2)))
        CFI DPH0 load(1, XDATA, add(CFA_XSP16, literal(-1)))
        CFI R6 load(1, XDATA, add(CFA_XSP16, literal(-12)))
        CFI R7 load(1, XDATA, add(CFA_XSP16, literal(-6)))
        CFI V0 load(1, XDATA, add(CFA_XSP16, literal(-10)))
        CFI V1 load(1, XDATA, add(CFA_XSP16, literal(-9)))
        CFI V2 load(1, XDATA, add(CFA_XSP16, literal(-8)))
        CFI V3 load(1, XDATA, add(CFA_XSP16, literal(-7)))
        CFI ?BRET_EXT load(1, XDATA, add(CFA_XSP16, literal(-3)))
        CFI ?RET_HIGH load(1, XDATA, add(CFA_XSP16, literal(-4)))
        CFI ?RET_LOW load(1, XDATA, add(CFA_XSP16, literal(-5)))
        MOV     R7,#0x4
        LJMP    ?BANKED_LEAVE_XDATA
        CFI EndBlock cfiBlock4
//  134 
//  135 
//  136 

        RSEG BANKED_CODE:CODE:NOROOT(0)
//  137 void AT_AF_Cmd_REPPRINT_req(afIncomingMSGPacket_t *pkt ){
AT_AF_Cmd_REPPRINT_req:
        CFI Block cfiBlock5 Using cfiCommon0
        CFI Function AT_AF_Cmd_REPPRINT_req
        CODE
        FUNCALL AT_AF_Cmd_REPPRINT_req, afNumEndPoints
        LOCFRAME ISTACK, 0, STACK
        LOCFRAME PSTACK, 0, STACK
        LOCFRAME XSTACK, 17, STACK
        LOCFRAME IOVERLAY, 0, STATIC
        LOCFRAME DOVERLAY, 0, STATIC
        ARGFRAME ISTACK, 0, STACK
        ARGFRAME PSTACK, 0, STACK
        ARGFRAME XSTACK, 17, STACK
        ARGFRAME IOVERLAY, 0, STATIC
        ARGFRAME DOVERLAY, 0, STATIC
        FUNCALL AT_AF_Cmd_REPPRINT_req, osal_mem_alloc
        LOCFRAME ISTACK, 0, STACK
        LOCFRAME PSTACK, 0, STACK
        LOCFRAME XSTACK, 17, STACK
        LOCFRAME IOVERLAY, 0, STATIC
        LOCFRAME DOVERLAY, 0, STATIC
        ARGFRAME ISTACK, 0, STACK
        ARGFRAME PSTACK, 0, STACK
        ARGFRAME XSTACK, 17, STACK
        ARGFRAME IOVERLAY, 0, STATIC
        ARGFRAME DOVERLAY, 0, STATIC
        FUNCALL AT_AF_Cmd_REPPRINT_req, afEndPoints
        LOCFRAME ISTACK, 0, STACK
        LOCFRAME PSTACK, 0, STACK
        LOCFRAME XSTACK, 17, STACK
        LOCFRAME IOVERLAY, 0, STATIC
        LOCFRAME DOVERLAY, 0, STATIC
        ARGFRAME ISTACK, 0, STACK
        ARGFRAME PSTACK, 0, STACK
        ARGFRAME XSTACK, 17, STACK
        ARGFRAME IOVERLAY, 0, STATIC
        ARGFRAME DOVERLAY, 0, STATIC
        FUNCALL AT_AF_Cmd_REPPRINT_req, AT_sort_arr
        LOCFRAME ISTACK, 0, STACK
        LOCFRAME PSTACK, 0, STACK
        LOCFRAME XSTACK, 17, STACK
        LOCFRAME IOVERLAY, 0, STATIC
        LOCFRAME DOVERLAY, 0, STATIC
        ARGFRAME ISTACK, 0, STACK
        ARGFRAME PSTACK, 0, STACK
        ARGFRAME XSTACK, 17, STACK
        ARGFRAME IOVERLAY, 0, STATIC
        ARGFRAME DOVERLAY, 0, STATIC
        FUNCALL AT_AF_Cmd_REPPRINT_req, osal_mem_free
        LOCFRAME ISTACK, 0, STACK
        LOCFRAME PSTACK, 0, STACK
        LOCFRAME XSTACK, 17, STACK
        LOCFRAME IOVERLAY, 0, STATIC
        LOCFRAME DOVERLAY, 0, STATIC
        ARGFRAME ISTACK, 0, STACK
        ARGFRAME PSTACK, 0, STACK
        ARGFRAME XSTACK, 17, STACK
        ARGFRAME IOVERLAY, 0, STATIC
        ARGFRAME DOVERLAY, 0, STATIC
        FUNCALL AT_AF_Cmd_REPPRINT_req, AF_DataRequest
        LOCFRAME ISTACK, 0, STACK
        LOCFRAME PSTACK, 0, STACK
        LOCFRAME XSTACK, 26, STACK
        LOCFRAME IOVERLAY, 0, STATIC
        LOCFRAME DOVERLAY, 0, STATIC
        ARGFRAME ISTACK, 0, STACK
        ARGFRAME PSTACK, 0, STACK
        ARGFRAME XSTACK, 26, STACK
        ARGFRAME IOVERLAY, 0, STATIC
        ARGFRAME DOVERLAY, 0, STATIC
        MOV     A,#-0xd
        LCALL   ?BANKED_ENTER_XDATA
        CFI DPH0 load(1, XDATA, add(CFA_XSP16, literal(-1)))
        CFI DPL0 load(1, XDATA, add(CFA_XSP16, literal(-2)))
        CFI ?BRET_EXT load(1, XDATA, add(CFA_XSP16, literal(-3)))
        CFI ?RET_HIGH load(1, XDATA, add(CFA_XSP16, literal(-4)))
        CFI ?RET_LOW load(1, XDATA, add(CFA_XSP16, literal(-5)))
        CFI R7 load(1, XDATA, add(CFA_XSP16, literal(-6)))
        CFI V4 load(1, XDATA, add(CFA_XSP16, literal(-7)))
        CFI V3 load(1, XDATA, add(CFA_XSP16, literal(-8)))
        CFI V2 load(1, XDATA, add(CFA_XSP16, literal(-9)))
        CFI V1 load(1, XDATA, add(CFA_XSP16, literal(-10)))
        CFI V0 load(1, XDATA, add(CFA_XSP16, literal(-11)))
        CFI VB load(1, XDATA, add(CFA_XSP16, literal(-12)))
        CFI R6 load(1, XDATA, add(CFA_XSP16, literal(-13)))
        CFI CFA_SP SP+0
        CFI CFA_XSP16 add(XSP16, 13)
        ; Saved register size: 13
        ; Auto size: 4
        MOV     A,#-0x4
        LCALL   ?ALLOC_XSTACK8
        CFI CFA_XSP16 add(XSP16, 17)
        MOV     ?V0 + 0,R2
        MOV     ?V0 + 1,R3
//  138   const uint8 AT_CMD_EP_ARRAY[] = AT_CMD_EPs;
        MOV     A,#0x3
        LCALL   ?XSTACK_DISP0_8
        MOV     R4,DPL
        MOV     R5,DPH
        MOV     DPH,#(`?<Constant {7}>` >> 8) & 0xff
        MOV     DPL,#`?<Constant {7}>` & 0xff
        MOV     A,#0x1
        LCALL   ?MOVE_LONG8_XDATA_XDATA
//  139   uint8 epNum = afNumEndPoints()-1;
        ; Setup parameters for call to function afNumEndPoints
        LCALL   ??afNumEndPoints?relay
        MOV     A,R1
        DEC     A
        MOV     ?V0 + 4,A
//  140   byte* epBuf = (byte*)  osal_mem_alloc(epNum);
        ; Setup parameters for call to function osal_mem_alloc
        MOV     R2,A
        MOV     R3,#0x0
        LCALL   ??osal_mem_alloc?relay
        MOV     ?V0 + 2,R2
        MOV     ?V0 + 3,R3
        MOV     R6,?V0 + 2
        MOV     R7,?V0 + 3
//  141   if(epBuf==NULL) return;
        MOV     A,R6
        ORL     A,R7
        JNZ     $+5
        LJMP    ??AT_AF_Cmd_REPPRINT_req_0 & 0xFFFF
//  142   afEndPoints( epBuf, true);
        ; Setup parameters for call to function afEndPoints
        MOV     R1,#0x1
        LCALL   ??afEndPoints?relay
//  143   AT_sort_arr(epBuf,epNum);
        ; Setup parameters for call to function AT_sort_arr
        MOV     R1,?V0 + 4
        MOV     A,R6
        MOV     R2,A
        MOV     A,R7
        MOV     R3,A
        LCALL   ??AT_sort_arr?relay
//  144   
//  145   //the epStatus store the search result
//  146   uint8 pbuf_temp[sizeof(AT_CMD_EP_ARRAY)+sizeof(AT_AF_hdr)];
//  147   AT_AF_Cmd_REPPRINT_rsp_t* pbuf = (AT_AF_Cmd_REPPRINT_rsp_t*)pbuf_temp;
//  148   pbuf->hdr.cmd=AT_AF_Cmd_rsp;
        MOV     DPL,?XSP + 0
        MOV     DPH,?XSP + 1
        MOV     A,#-0x80
        MOVX    @DPTR,A
//  149   pbuf->hdr.numItem=AT_CMD_EPs_Num;
        MOV     DPTR,#AT_CMD_EPs_Num
        MOVX    A,@DPTR
        PUSH    A
        CFI CFA_SP SP+-1
        MOV     A,#0x1
        LCALL   ?XSTACK_DISP0_8
        POP     A
        CFI CFA_SP SP+0
        MOVX    @DPTR,A
//  150   
//  151   int i,j;
//  152   for(i=0,j=0;j<AT_CMD_EPs_Num;j++){
        MOV     R2,#0x0
        MOV     R3,#0x0
        MOV     R0,#0x0
        MOV     R1,#0x0
        SJMP    ??AT_AF_Cmd_REPPRINT_req_1
//  153     if(epBuf[i]==AT_CMD_EP_ARRAY[j]){
//  154       pbuf->status[j] = AT_AF_enable;
//  155       i++;
//  156     }
//  157     else pbuf->status[j] = AT_AF_disable;
??AT_AF_Cmd_REPPRINT_req_2:
        LCALL   ?Subroutine23 & 0xFFFF
??CrossCallReturnLabel_28:
        CLR     A
        MOVX    @DPTR,A
??AT_AF_Cmd_REPPRINT_req_3:
        MOV     A,R0
        ADD     A,#0x1
        INC     R0
        MOV     A,R1
        ADDC    A,#0x0
        MOV     R1,A
??AT_AF_Cmd_REPPRINT_req_1:
        MOV     DPTR,#AT_CMD_EPs_Num
        MOVX    A,@DPTR
        MOV     R4,A
        CLR     C
        MOV     A,R0
        SUBB    A,R4
        MOV     A,R1
        SUBB    A,#0x0
        MOV     C,0xD0 /* PSW */.2
        XRL     A,PSW
        RLC     A
        MOV     A,R6
        JNC     ??AT_AF_Cmd_REPPRINT_req_4
        ADD     A,R2
        MOV     DPL,A
        MOV     A,R7
        ADDC    A,R3
        MOV     DPH,A
        MOVX    A,@DPTR
        MOV     R4,A
        MOV     A,#0x3
        LCALL   ?XSTACK_DISP0_8
        LCALL   ?Subroutine37 & 0xFFFF
??CrossCallReturnLabel_45:
        MOVX    A,@DPTR
        XRL     A,R4
        MOV     DPL,?XSP + 0
        MOV     DPH,?XSP + 1
        JNZ     ??AT_AF_Cmd_REPPRINT_req_2
        LCALL   ?Subroutine23 & 0xFFFF
??CrossCallReturnLabel_29:
        MOV     A,#0x1
        MOVX    @DPTR,A
        MOV     A,R2
        ADD     A,#0x1
        INC     R2
        MOV     A,R3
        ADDC    A,#0x0
        MOV     R3,A
        SJMP    ??AT_AF_Cmd_REPPRINT_req_3
//  158   }
//  159   osal_mem_free(epBuf);
??AT_AF_Cmd_REPPRINT_req_4:
        ; Setup parameters for call to function osal_mem_free
        MOV     R2,A
        MOV     A,R7
        MOV     R3,A
        LCALL   ??osal_mem_free?relay
//  160   AF_DataRequest( & (pkt->srcAddr), & AT_AF_epDesc,
//  161                        AT_AF_Cmd_REPPRINT_CLUSTERID,
//  162                        sizeof(AT_CMD_EP_ARRAY)+sizeof(AT_AF_hdr),
//  163                        (uint8*)pbuf,
//  164                        &AT_AF_TransID,
//  165                        AF_DISCV_ROUTE,
//  166                        AF_DEFAULT_RADIUS );
        ; Setup parameters for call to function AF_DataRequest
        MOV     ?V0 + 2,#0x1e
        MOV     R0,#?V0 + 2
        LCALL   ?PUSH_XSTACK_I_ONE
        CFI CFA_XSP16 add(XSP16, 18)
        MOV     ?V0 + 2,#AT_AF_TransID & 0xff
        MOV     ?V0 + 3,#(AT_AF_TransID >> 8) & 0xff
        MOV     R0,#?V0 + 2
        LCALL   ?PUSH_XSTACK_I_TWO
        CFI CFA_XSP16 add(XSP16, 20)
        MOV     A,#0x3
        LCALL   ?XSTACK_DISP0_8
        MOV     ?V0 + 2,DPL
        MOV     ?V0 + 3,DPH
        MOV     R0,#?V0 + 2
        LCALL   ?PUSH_XSTACK_I_TWO
        CFI CFA_XSP16 add(XSP16, 22)
        MOV     ?V0 + 2,#0x3
        MOV     ?V0 + 3,#0x0
        MOV     R0,#?V0 + 2
        LCALL   ?PUSH_XSTACK_I_TWO
        CFI CFA_XSP16 add(XSP16, 24)
        CLR     A
        MOV     ?V0 + 2,A
        MOV     R0,#?V0 + 2
        LCALL   ?PUSH_XSTACK_I_TWO
        CFI CFA_XSP16 add(XSP16, 26)
        LCALL   ?Subroutine19 & 0xFFFF
??CrossCallReturnLabel_111:
        LCALL   ?DEALLOC_XSTACK8
        CFI CFA_XSP16 add(XSP16, 17)
//  167   
//  168 }
??AT_AF_Cmd_REPPRINT_req_0:
        MOV     A,#0x4
        LCALL   ?DEALLOC_XSTACK8
        CFI CFA_XSP16 add(XSP16, 13)
        MOV     R7,#0x5
        LJMP    ?BANKED_LEAVE_XDATA
        CFI EndBlock cfiBlock5

        RSEG BANKED_CODE:CODE:NOROOT(0)
?Subroutine23:
        CFI Block cfiCond6 Using cfiCommon0
        CFI NoFunction
        CFI Conditional ??CrossCallReturnLabel_28
        CFI R6 load(1, XDATA, add(CFA_XSP16, literal(-13)))
        CFI VB load(1, XDATA, add(CFA_XSP16, literal(-12)))
        CFI V0 load(1, XDATA, add(CFA_XSP16, literal(-11)))
        CFI V1 load(1, XDATA, add(CFA_XSP16, literal(-10)))
        CFI V2 load(1, XDATA, add(CFA_XSP16, literal(-9)))
        CFI V3 load(1, XDATA, add(CFA_XSP16, literal(-8)))
        CFI V4 load(1, XDATA, add(CFA_XSP16, literal(-7)))
        CFI R7 load(1, XDATA, add(CFA_XSP16, literal(-6)))
        CFI ?RET_LOW load(1, XDATA, add(CFA_XSP16, literal(-5)))
        CFI ?RET_HIGH load(1, XDATA, add(CFA_XSP16, literal(-4)))
        CFI ?BRET_EXT load(1, XDATA, add(CFA_XSP16, literal(-3)))
        CFI DPL0 load(1, XDATA, add(CFA_XSP16, literal(-2)))
        CFI DPH0 load(1, XDATA, add(CFA_XSP16, literal(-1)))
        CFI CFA_SP SP+0
        CFI CFA_XSP16 add(XSP16, 17)
        CFI Block cfiCond7 Using cfiCommon0
        CFI (cfiCond7) NoFunction
        CFI (cfiCond7) Conditional ??CrossCallReturnLabel_29
        CFI (cfiCond7) R6 load(1, XDATA, add(CFA_XSP16, literal(-13)))
        CFI (cfiCond7) VB load(1, XDATA, add(CFA_XSP16, literal(-12)))
        CFI (cfiCond7) V0 load(1, XDATA, add(CFA_XSP16, literal(-11)))
        CFI (cfiCond7) V1 load(1, XDATA, add(CFA_XSP16, literal(-10)))
        CFI (cfiCond7) V2 load(1, XDATA, add(CFA_XSP16, literal(-9)))
        CFI (cfiCond7) V3 load(1, XDATA, add(CFA_XSP16, literal(-8)))
        CFI (cfiCond7) V4 load(1, XDATA, add(CFA_XSP16, literal(-7)))
        CFI (cfiCond7) R7 load(1, XDATA, add(CFA_XSP16, literal(-6)))
        CFI (cfiCond7) ?RET_LOW load(1, XDATA, add(CFA_XSP16, literal(-5)))
        CFI (cfiCond7) ?RET_HIGH load(1, XDATA, add(CFA_XSP16, literal(-4)))
        CFI (cfiCond7) ?BRET_EXT load(1, XDATA, add(CFA_XSP16, literal(-3)))
        CFI (cfiCond7) DPL0 load(1, XDATA, add(CFA_XSP16, literal(-2)))
        CFI (cfiCond7) DPH0 load(1, XDATA, add(CFA_XSP16, literal(-1)))
        CFI (cfiCond7) CFA_SP SP+0
        CFI (cfiCond7) CFA_XSP16 add(XSP16, 17)
        CFI Block cfiPicker8 Using cfiCommon1
        CFI (cfiPicker8) NoFunction
        CFI (cfiPicker8) Picker
        LCALL   ?Subroutine37 & 0xFFFF
??CrossCallReturnLabel_46:
        INC     DPTR
        INC     DPTR
        RET
        CFI EndBlock cfiCond6
        CFI EndBlock cfiCond7
        CFI EndBlock cfiPicker8

        RSEG BANKED_CODE:CODE:NOROOT(0)
?Subroutine37:
        CFI Block cfiCond9 Using cfiCommon0
        CFI NoFunction
        CFI Conditional ??CrossCallReturnLabel_45
        CFI R6 load(1, XDATA, add(CFA_XSP16, literal(-13)))
        CFI VB load(1, XDATA, add(CFA_XSP16, literal(-12)))
        CFI V0 load(1, XDATA, add(CFA_XSP16, literal(-11)))
        CFI V1 load(1, XDATA, add(CFA_XSP16, literal(-10)))
        CFI V2 load(1, XDATA, add(CFA_XSP16, literal(-9)))
        CFI V3 load(1, XDATA, add(CFA_XSP16, literal(-8)))
        CFI V4 load(1, XDATA, add(CFA_XSP16, literal(-7)))
        CFI R7 load(1, XDATA, add(CFA_XSP16, literal(-6)))
        CFI ?RET_LOW load(1, XDATA, add(CFA_XSP16, literal(-5)))
        CFI ?RET_HIGH load(1, XDATA, add(CFA_XSP16, literal(-4)))
        CFI ?BRET_EXT load(1, XDATA, add(CFA_XSP16, literal(-3)))
        CFI DPL0 load(1, XDATA, add(CFA_XSP16, literal(-2)))
        CFI DPH0 load(1, XDATA, add(CFA_XSP16, literal(-1)))
        CFI CFA_SP SP+0
        CFI CFA_XSP16 add(XSP16, 17)
        CFI Block cfiCond10 Using cfiCommon0
        CFI (cfiCond10) NoFunction
        CFI (cfiCond10) Conditional ??CrossCallReturnLabel_46, ??CrossCallReturnLabel_28
        CFI (cfiCond10) R6 load(1, XDATA, add(CFA_XSP16, literal(-13)))
        CFI (cfiCond10) VB load(1, XDATA, add(CFA_XSP16, literal(-12)))
        CFI (cfiCond10) V0 load(1, XDATA, add(CFA_XSP16, literal(-11)))
        CFI (cfiCond10) V1 load(1, XDATA, add(CFA_XSP16, literal(-10)))
        CFI (cfiCond10) V2 load(1, XDATA, add(CFA_XSP16, literal(-9)))
        CFI (cfiCond10) V3 load(1, XDATA, add(CFA_XSP16, literal(-8)))
        CFI (cfiCond10) V4 load(1, XDATA, add(CFA_XSP16, literal(-7)))
        CFI (cfiCond10) R7 load(1, XDATA, add(CFA_XSP16, literal(-6)))
        CFI (cfiCond10) ?RET_LOW load(1, XDATA, add(CFA_XSP16, literal(-5)))
        CFI (cfiCond10) ?RET_HIGH load(1, XDATA, add(CFA_XSP16, literal(-4)))
        CFI (cfiCond10) ?BRET_EXT load(1, XDATA, add(CFA_XSP16, literal(-3)))
        CFI (cfiCond10) DPL0 load(1, XDATA, add(CFA_XSP16, literal(-2)))
        CFI (cfiCond10) DPH0 load(1, XDATA, add(CFA_XSP16, literal(-1)))
        CFI (cfiCond10) CFA_SP SP+0
        CFI (cfiCond10) CFA_XSP16 add(XSP16, 17)
        CFI Block cfiCond11 Using cfiCommon0
        CFI (cfiCond11) NoFunction
        CFI (cfiCond11) Conditional ??CrossCallReturnLabel_46, ??CrossCallReturnLabel_29
        CFI (cfiCond11) R6 load(1, XDATA, add(CFA_XSP16, literal(-13)))
        CFI (cfiCond11) VB load(1, XDATA, add(CFA_XSP16, literal(-12)))
        CFI (cfiCond11) V0 load(1, XDATA, add(CFA_XSP16, literal(-11)))
        CFI (cfiCond11) V1 load(1, XDATA, add(CFA_XSP16, literal(-10)))
        CFI (cfiCond11) V2 load(1, XDATA, add(CFA_XSP16, literal(-9)))
        CFI (cfiCond11) V3 load(1, XDATA, add(CFA_XSP16, literal(-8)))
        CFI (cfiCond11) V4 load(1, XDATA, add(CFA_XSP16, literal(-7)))
        CFI (cfiCond11) R7 load(1, XDATA, add(CFA_XSP16, literal(-6)))
        CFI (cfiCond11) ?RET_LOW load(1, XDATA, add(CFA_XSP16, literal(-5)))
        CFI (cfiCond11) ?RET_HIGH load(1, XDATA, add(CFA_XSP16, literal(-4)))
        CFI (cfiCond11) ?BRET_EXT load(1, XDATA, add(CFA_XSP16, literal(-3)))
        CFI (cfiCond11) DPL0 load(1, XDATA, add(CFA_XSP16, literal(-2)))
        CFI (cfiCond11) DPH0 load(1, XDATA, add(CFA_XSP16, literal(-1)))
        CFI (cfiCond11) CFA_SP SP+0
        CFI (cfiCond11) CFA_XSP16 add(XSP16, 17)
        CFI Block cfiPicker12 Using cfiCommon1
        CFI (cfiPicker12) NoFunction
        CFI (cfiPicker12) Picker
        MOV     A,DPL
        ADD     A,R0
        MOV     DPL,A
        MOV     A,DPH
        ADDC    A,R1
        MOV     DPH,A
        RET
        CFI EndBlock cfiCond9
        CFI EndBlock cfiCond10
        CFI EndBlock cfiCond11
        CFI EndBlock cfiPicker12

        RSEG BANKED_CODE:CODE:NOROOT(0)
//  169 void AT_AF_Cmd_REPPRINT_rsp(afIncomingMSGPacket_t *pkt ){
AT_AF_Cmd_REPPRINT_rsp:
        CFI Block cfiBlock13 Using cfiCommon0
        CFI Function AT_AF_Cmd_REPPRINT_rsp
        CODE
        FUNCALL AT_AF_Cmd_REPPRINT_rsp, AT_HalUARTWrite
        LOCFRAME ISTACK, 0, STACK
        LOCFRAME PSTACK, 0, STACK
        LOCFRAME XSTACK, 19, STACK
        LOCFRAME IOVERLAY, 0, STATIC
        LOCFRAME DOVERLAY, 0, STATIC
        ARGFRAME ISTACK, 0, STACK
        ARGFRAME PSTACK, 0, STACK
        ARGFRAME XSTACK, 19, STACK
        ARGFRAME IOVERLAY, 0, STATIC
        ARGFRAME DOVERLAY, 0, STATIC
        FUNCALL AT_AF_Cmd_REPPRINT_rsp, AT_HalUARTWrite
        LOCFRAME ISTACK, 0, STACK
        LOCFRAME PSTACK, 0, STACK
        LOCFRAME XSTACK, 19, STACK
        LOCFRAME IOVERLAY, 0, STATIC
        LOCFRAME DOVERLAY, 0, STATIC
        ARGFRAME ISTACK, 0, STACK
        ARGFRAME PSTACK, 0, STACK
        ARGFRAME XSTACK, 19, STACK
        ARGFRAME IOVERLAY, 0, STATIC
        ARGFRAME DOVERLAY, 0, STATIC
        FUNCALL AT_AF_Cmd_REPPRINT_rsp, AT_HalUARTWrite
        LOCFRAME ISTACK, 0, STACK
        LOCFRAME PSTACK, 0, STACK
        LOCFRAME XSTACK, 19, STACK
        LOCFRAME IOVERLAY, 0, STATIC
        LOCFRAME DOVERLAY, 0, STATIC
        ARGFRAME ISTACK, 0, STACK
        ARGFRAME PSTACK, 0, STACK
        ARGFRAME XSTACK, 19, STACK
        ARGFRAME IOVERLAY, 0, STATIC
        ARGFRAME DOVERLAY, 0, STATIC
        FUNCALL AT_AF_Cmd_REPPRINT_rsp, AT_HalUARTWrite
        LOCFRAME ISTACK, 0, STACK
        LOCFRAME PSTACK, 0, STACK
        LOCFRAME XSTACK, 19, STACK
        LOCFRAME IOVERLAY, 0, STATIC
        LOCFRAME DOVERLAY, 0, STATIC
        ARGFRAME ISTACK, 0, STACK
        ARGFRAME PSTACK, 0, STACK
        ARGFRAME XSTACK, 19, STACK
        ARGFRAME IOVERLAY, 0, STATIC
        ARGFRAME DOVERLAY, 0, STATIC
        FUNCALL AT_AF_Cmd_REPPRINT_rsp, AT_Int16toChar
        LOCFRAME ISTACK, 0, STACK
        LOCFRAME PSTACK, 0, STACK
        LOCFRAME XSTACK, 19, STACK
        LOCFRAME IOVERLAY, 0, STATIC
        LOCFRAME DOVERLAY, 0, STATIC
        ARGFRAME ISTACK, 0, STACK
        ARGFRAME PSTACK, 0, STACK
        ARGFRAME XSTACK, 19, STACK
        ARGFRAME IOVERLAY, 0, STATIC
        ARGFRAME DOVERLAY, 0, STATIC
        FUNCALL AT_AF_Cmd_REPPRINT_rsp, AT_HalUARTWrite
        LOCFRAME ISTACK, 0, STACK
        LOCFRAME PSTACK, 0, STACK
        LOCFRAME XSTACK, 19, STACK
        LOCFRAME IOVERLAY, 0, STATIC
        LOCFRAME DOVERLAY, 0, STATIC
        ARGFRAME ISTACK, 0, STACK
        ARGFRAME PSTACK, 0, STACK
        ARGFRAME XSTACK, 19, STACK
        ARGFRAME IOVERLAY, 0, STATIC
        ARGFRAME DOVERLAY, 0, STATIC
        FUNCALL AT_AF_Cmd_REPPRINT_rsp, AT_HalUARTWrite
        LOCFRAME ISTACK, 0, STACK
        LOCFRAME PSTACK, 0, STACK
        LOCFRAME XSTACK, 19, STACK
        LOCFRAME IOVERLAY, 0, STATIC
        LOCFRAME DOVERLAY, 0, STATIC
        ARGFRAME ISTACK, 0, STACK
        ARGFRAME PSTACK, 0, STACK
        ARGFRAME XSTACK, 19, STACK
        ARGFRAME IOVERLAY, 0, STATIC
        ARGFRAME DOVERLAY, 0, STATIC
        FUNCALL AT_AF_Cmd_REPPRINT_rsp, AT_HalUARTWrite
        LOCFRAME ISTACK, 0, STACK
        LOCFRAME PSTACK, 0, STACK
        LOCFRAME XSTACK, 19, STACK
        LOCFRAME IOVERLAY, 0, STATIC
        LOCFRAME DOVERLAY, 0, STATIC
        ARGFRAME ISTACK, 0, STACK
        ARGFRAME PSTACK, 0, STACK
        ARGFRAME XSTACK, 19, STACK
        ARGFRAME IOVERLAY, 0, STATIC
        ARGFRAME DOVERLAY, 0, STATIC
        FUNCALL AT_AF_Cmd_REPPRINT_rsp, AT_Int8toChar
        LOCFRAME ISTACK, 0, STACK
        LOCFRAME PSTACK, 0, STACK
        LOCFRAME XSTACK, 19, STACK
        LOCFRAME IOVERLAY, 0, STATIC
        LOCFRAME DOVERLAY, 0, STATIC
        ARGFRAME ISTACK, 0, STACK
        ARGFRAME PSTACK, 0, STACK
        ARGFRAME XSTACK, 19, STACK
        ARGFRAME IOVERLAY, 0, STATIC
        ARGFRAME DOVERLAY, 0, STATIC
        FUNCALL AT_AF_Cmd_REPPRINT_rsp, AT_HalUARTWrite
        LOCFRAME ISTACK, 0, STACK
        LOCFRAME PSTACK, 0, STACK
        LOCFRAME XSTACK, 19, STACK
        LOCFRAME IOVERLAY, 0, STATIC
        LOCFRAME DOVERLAY, 0, STATIC
        ARGFRAME ISTACK, 0, STACK
        ARGFRAME PSTACK, 0, STACK
        ARGFRAME XSTACK, 19, STACK
        ARGFRAME IOVERLAY, 0, STATIC
        ARGFRAME DOVERLAY, 0, STATIC
        FUNCALL AT_AF_Cmd_REPPRINT_rsp, AT_HalUARTWrite
        LOCFRAME ISTACK, 0, STACK
        LOCFRAME PSTACK, 0, STACK
        LOCFRAME XSTACK, 19, STACK
        LOCFRAME IOVERLAY, 0, STATIC
        LOCFRAME DOVERLAY, 0, STATIC
        ARGFRAME ISTACK, 0, STACK
        ARGFRAME PSTACK, 0, STACK
        ARGFRAME XSTACK, 19, STACK
        ARGFRAME IOVERLAY, 0, STATIC
        ARGFRAME DOVERLAY, 0, STATIC
        FUNCALL AT_AF_Cmd_REPPRINT_rsp, AT_HalUARTWrite
        LOCFRAME ISTACK, 0, STACK
        LOCFRAME PSTACK, 0, STACK
        LOCFRAME XSTACK, 19, STACK
        LOCFRAME IOVERLAY, 0, STATIC
        LOCFRAME DOVERLAY, 0, STATIC
        ARGFRAME ISTACK, 0, STACK
        ARGFRAME PSTACK, 0, STACK
        ARGFRAME XSTACK, 19, STACK
        ARGFRAME IOVERLAY, 0, STATIC
        ARGFRAME DOVERLAY, 0, STATIC
        MOV     A,#-0xe
        LCALL   ?BANKED_ENTER_XDATA
        CFI DPH0 load(1, XDATA, add(CFA_XSP16, literal(-1)))
        CFI DPL0 load(1, XDATA, add(CFA_XSP16, literal(-2)))
        CFI ?BRET_EXT load(1, XDATA, add(CFA_XSP16, literal(-3)))
        CFI ?RET_HIGH load(1, XDATA, add(CFA_XSP16, literal(-4)))
        CFI ?RET_LOW load(1, XDATA, add(CFA_XSP16, literal(-5)))
        CFI R7 load(1, XDATA, add(CFA_XSP16, literal(-6)))
        CFI V5 load(1, XDATA, add(CFA_XSP16, literal(-7)))
        CFI V4 load(1, XDATA, add(CFA_XSP16, literal(-8)))
        CFI V3 load(1, XDATA, add(CFA_XSP16, literal(-9)))
        CFI V2 load(1, XDATA, add(CFA_XSP16, literal(-10)))
        CFI V1 load(1, XDATA, add(CFA_XSP16, literal(-11)))
        CFI V0 load(1, XDATA, add(CFA_XSP16, literal(-12)))
        CFI VB load(1, XDATA, add(CFA_XSP16, literal(-13)))
        CFI R6 load(1, XDATA, add(CFA_XSP16, literal(-14)))
        CFI CFA_SP SP+0
        CFI CFA_XSP16 add(XSP16, 14)
        ; Saved register size: 14
        ; Auto size: 5
        MOV     A,#-0x5
        LCALL   ?ALLOC_XSTACK8
        CFI CFA_XSP16 add(XSP16, 19)
        MOV     ?V0 + 2,R2
        MOV     ?V0 + 3,R3
//  170   uint8* epStatus = ((AT_AF_Cmd_REPPRINT_rsp_t*) pkt->cmd.Data)->status;
        LCALL   ??Subroutine52_0 & 0xFFFF
??CrossCallReturnLabel_101:
        LCALL   ??Subroutine51_0 & 0xFFFF
??CrossCallReturnLabel_82:
        ADD     A,#0x2
        MOV     ?V0 + 4,A
        INC     DPTR
        MOVX    A,@DPTR
        ADDC    A,#0x0
        MOV     ?V0 + 5,A
//  171   const uint8 AT_CMD_EP_ARRAY[] = AT_CMD_EPs;
        MOV     DPL,?XSP + 0
        MOV     DPH,?XSP + 1
        MOV     R4,DPL
        MOV     R5,DPH
        MOV     DPH,#(`?<Constant {7}>_1` >> 8) & 0xff
        MOV     DPL,#`?<Constant {7}>_1` & 0xff
        MOV     A,#0x1
        LCALL   ?MOVE_LONG8_XDATA_XDATA
//  172   
//  173   uint8 i;
//  174   char str[4];
//  175   AT_RESP_START();
        ; Setup parameters for call to function AT_HalUARTWrite
        MOV     R4,#0x2
        MOV     R5,A
        MOV     R2,#`?<Constant "\\r\\n">` & 0xff
        MOV     R3,#(`?<Constant "\\r\\n">` >> 8) & 0xff
        MOV     R1,A
        LCALL   ??AT_HalUARTWrite?relay
//  176   AT_RESP("<nodeID>,<EndPoint>:<Status>",
//  177           sizeof("<nodeID>,<EndPoint>:<Status>")-1);
        ; Setup parameters for call to function AT_HalUARTWrite
        MOV     R4,#0x1c
        MOV     R5,#0x0
        MOV     R2,#`?<Constant "<nodeID>,<EndPoint>:<...">` & 0xff
        MOV     R3,#(`?<Constant "<nodeID>,<EndPoint>:<...">` >> 8) & 0xff
        MOV     R1,#0x0
        LCALL   ??AT_HalUARTWrite?relay
//  178   for(i=0;i<((AT_AF_Cmd_REPPRINT_rsp_t*) pkt->cmd.Data)->hdr.numItem;i++){
        MOV     ?V0 + 0,#0x0
        SJMP    ??AT_AF_Cmd_REPPRINT_rsp_0
//  179     AT_NEXT_LINE();
//  180     //display nodeID
//  181     if(pkt->srcAddr.addrMode==(afAddrMode_t)Addr16Bit){
//  182       AT_Int16toChar(pkt->srcAddr.addr.shortAddr,str);
//  183       AT_RESP(str,4);
//  184     }else AT_RESP("UNKNOWN",sizeof("UNKNOWN")-1);
//  185     AT_RESP(",",1);
//  186     
//  187     //print end point
//  188     AT_Int8toChar(AT_CMD_EP_ARRAY[i],str);
//  189     AT_RESP(str,2);
//  190     
//  191     //display status 
//  192     if(epStatus[i]==AT_AF_enable){
//  193       AT_RESP(":ENABLED",sizeof(":ENABLED")-1);
//  194     }
//  195     else AT_RESP(":DISABLED",sizeof(":DISABLED")-1);
??AT_AF_Cmd_REPPRINT_rsp_1:
        ; Setup parameters for call to function AT_HalUARTWrite
        MOV     R4,#0x9
        MOV     R5,#0x0
        MOV     R2,#`?<Constant ":DISABLED">` & 0xff
        MOV     R3,#(`?<Constant ":DISABLED">` >> 8) & 0xff
??AT_AF_Cmd_REPPRINT_rsp_2:
        MOV     R1,#0x0
        LCALL   ??AT_HalUARTWrite?relay
        INC     ?V0 + 0
??AT_AF_Cmd_REPPRINT_rsp_0:
        MOV     A,?V0 + 2
        LCALL   ??Subroutine39_0 & 0xFFFF
??CrossCallReturnLabel_108:
        MOV     A,?V0 + 3
        LCALL   ??Subroutine46_0 & 0xFFFF
??CrossCallReturnLabel_92:
        LCALL   ?Subroutine16 & 0xFFFF
??CrossCallReturnLabel_20:
        MOVX    A,@DPTR
        MOV     R0,A
        MOV     A,?V0 + 0
        CLR     C
        SUBB    A,R0
        MOV     R4,#0x2
        MOV     R5,#0x0
        JC      $+5
        LJMP    ??AT_AF_Cmd_REPPRINT_rsp_3 & 0xFFFF
        ; Setup parameters for call to function AT_HalUARTWrite
        MOV     R2,#`?<Constant "\\n\\r">` & 0xff
        MOV     R3,#(`?<Constant "\\n\\r">` >> 8) & 0xff
        MOV     R1,#0x0
        LCALL   ??AT_HalUARTWrite?relay
        MOV     A,?V0 + 2
        ADD     A,#0xe
        MOV     DPL,A
        MOV     A,?V0 + 3
        LCALL   ??Subroutine41_0 & 0xFFFF
??CrossCallReturnLabel_49:
        JNZ     ??AT_AF_Cmd_REPPRINT_rsp_4
        ; Setup parameters for call to function AT_Int16toChar
        MOV     A,#0x1
        LCALL   ?XSTACK_DISP0_8
        MOV     R4,DPL
        MOV     R5,DPH
        MOV     DPL,?V0 + 2
        MOV     DPH,?V0 + 3
        LCALL   ?Subroutine33 & 0xFFFF
??CrossCallReturnLabel_43:
        MOV     A,#0x1
        LCALL   ?XSTACK_DISP0_8
        MOV     R2,DPL
        MOV     R3,DPH
        SJMP    ??AT_AF_Cmd_REPPRINT_rsp_5
??AT_AF_Cmd_REPPRINT_rsp_4:
        ; Setup parameters for call to function AT_HalUARTWrite
        MOV     R4,#0x7
        MOV     R5,#0x0
        MOV     R2,#`?<Constant "UNKNOWN">` & 0xff
        MOV     R3,#(`?<Constant "UNKNOWN">` >> 8) & 0xff
??AT_AF_Cmd_REPPRINT_rsp_5:
        LCALL   ?Subroutine25 & 0xFFFF
??CrossCallReturnLabel_32:
        MOV     DPL,?V0 + 0
        MOV     R6,DPL
        ; Setup parameters for call to function AT_Int8toChar
        MOV     A,#0x1
        LCALL   ?XSTACK_DISP0_8
        MOV     R2,DPL
        MOV     R3,DPH
        MOV     DPL,?XSP + 0
        MOV     DPH,?XSP + 1
        MOV     A,DPL
        ADD     A,R6
        MOV     DPL,A
        MOV     A,DPH
        LCALL   ??Subroutine51_0 & 0xFFFF
??CrossCallReturnLabel_83:
        MOV     R1,A
        LCALL   ??AT_Int8toChar?relay
        ; Setup parameters for call to function AT_HalUARTWrite
        MOV     R4,#0x2
        MOV     R5,#0x0
        MOV     A,#0x1
        LCALL   ?XSTACK_DISP0_8
        MOV     R2,DPL
        MOV     R3,DPH
        MOV     R1,#0x0
        LCALL   ??AT_HalUARTWrite?relay
        MOV     A,?V0 + 4
        ADD     A,R6
        MOV     DPL,A
        MOV     A,?V0 + 5
        LCALL   ??Subroutine51_0 & 0xFFFF
??CrossCallReturnLabel_84:
        XRL     A,#0x1
        JZ      $+5
        LJMP    ??AT_AF_Cmd_REPPRINT_rsp_1 & 0xFFFF
        ; Setup parameters for call to function AT_HalUARTWrite
        MOV     R4,#0x8
        MOV     R5,#0x0
        MOV     R2,#`?<Constant ":ENABLED">` & 0xff
        MOV     R3,#(`?<Constant ":ENABLED">` >> 8) & 0xff
        LJMP    ??AT_AF_Cmd_REPPRINT_rsp_2 & 0xFFFF
//  196   }
//  197   AT_RESP_END();
??AT_AF_Cmd_REPPRINT_rsp_3:
        ; Setup parameters for call to function AT_HalUARTWrite
        MOV     R2,#`?<Constant "\\r\\n">` & 0xff
        MOV     R3,#(`?<Constant "\\r\\n">` >> 8) & 0xff
        MOV     R1,#0x0
        LCALL   ??AT_HalUARTWrite?relay
//  198 }
        LJMP    ?Subroutine3 & 0xFFFF
        CFI EndBlock cfiBlock13
//  199 
//  200 

        RSEG BANKED_CODE:CODE:NOROOT(0)
//  201 void AT_AF_Cmd_REPPRINT_CB(afIncomingMSGPacket_t *pkt ){
AT_AF_Cmd_REPPRINT_CB:
        CFI Block cfiBlock14 Using cfiCommon0
        CFI Function AT_AF_Cmd_REPPRINT_CB
        CODE
        FUNCALL AT_AF_Cmd_REPPRINT_CB, AT_AF_Cmd_REPPRINT_req
        LOCFRAME ISTACK, 2, STACK
        LOCFRAME PSTACK, 0, STACK
        LOCFRAME XSTACK, 0, STACK
        LOCFRAME IOVERLAY, 0, STATIC
        LOCFRAME DOVERLAY, 0, STATIC
        ARGFRAME ISTACK, 2, STACK
        ARGFRAME PSTACK, 0, STACK
        ARGFRAME XSTACK, 0, STACK
        ARGFRAME IOVERLAY, 0, STATIC
        ARGFRAME DOVERLAY, 0, STATIC
        FUNCALL AT_AF_Cmd_REPPRINT_CB, AT_AF_Cmd_REPPRINT_rsp
        LOCFRAME ISTACK, 2, STACK
        LOCFRAME PSTACK, 0, STACK
        LOCFRAME XSTACK, 0, STACK
        LOCFRAME IOVERLAY, 0, STATIC
        LOCFRAME DOVERLAY, 0, STATIC
        ARGFRAME ISTACK, 2, STACK
        ARGFRAME PSTACK, 0, STACK
        ARGFRAME XSTACK, 0, STACK
        ARGFRAME IOVERLAY, 0, STATIC
        ARGFRAME DOVERLAY, 0, STATIC
        PUSH    DPL
        CFI DPL0 Frame(CFA_SP, 4)
        CFI CFA_SP SP+-4
        PUSH    DPH
        CFI DPH0 Frame(CFA_SP, 5)
        CFI CFA_SP SP+-5
        ; Saved register size: 2
        ; Auto size: 0
//  202   
//  203   AT_AF_hdr *hdr = (AT_AF_hdr*)pkt->cmd.Data;
//  204   switch (hdr->cmd){
        LCALL   ?Subroutine7 & 0xFFFF
??CrossCallReturnLabel_58:
        JZ      ??AT_AF_Cmd_REPPRINT_CB_0
        ADD     A,#-0x80
        JZ      ??AT_AF_Cmd_REPPRINT_CB_1
        SJMP    ??AT_AF_Cmd_REPPRINT_CB_2
//  205   case AT_AF_Cmd_req:
//  206     AT_AF_Cmd_REPPRINT_req(pkt);
??AT_AF_Cmd_REPPRINT_CB_0:
        ; Setup parameters for call to function AT_AF_Cmd_REPPRINT_req
        LCALL   ??AT_AF_Cmd_REPPRINT_req?relay
//  207     break;
        SJMP    ??AT_AF_Cmd_REPPRINT_CB_2
//  208   case AT_AF_Cmd_rsp:
//  209     AT_AF_Cmd_REPPRINT_rsp(pkt);
??AT_AF_Cmd_REPPRINT_CB_1:
        ; Setup parameters for call to function AT_AF_Cmd_REPPRINT_rsp
        LCALL   ??AT_AF_Cmd_REPPRINT_rsp?relay
//  210     break;
//  211   }   
//  212 }
??AT_AF_Cmd_REPPRINT_CB_2:
        LJMP    ?Subroutine0 & 0xFFFF
        CFI EndBlock cfiBlock14
//  213 
//  214 
//  215 /*************************************************************
//  216     deal with the requst from other devices for REPENABLE, 
//  217     and send a response
//  218 *************************************************************/

        RSEG BANKED_CODE:CODE:NOROOT(0)
//  219 void AT_AF_Cmd_REPENABLE_req(afIncomingMSGPacket_t *pkt  ){
AT_AF_Cmd_REPENABLE_req:
        CFI Block cfiBlock15 Using cfiCommon0
        CFI Function AT_AF_Cmd_REPENABLE_req
        CODE
        FUNCALL AT_AF_Cmd_REPENABLE_req, AT_af_get_ep
        LOCFRAME ISTACK, 0, STACK
        LOCFRAME PSTACK, 0, STACK
        LOCFRAME XSTACK, 19, STACK
        LOCFRAME IOVERLAY, 0, STATIC
        LOCFRAME DOVERLAY, 0, STATIC
        ARGFRAME ISTACK, 0, STACK
        ARGFRAME PSTACK, 0, STACK
        ARGFRAME XSTACK, 19, STACK
        ARGFRAME IOVERLAY, 0, STATIC
        ARGFRAME DOVERLAY, 0, STATIC
        FUNCALL AT_AF_Cmd_REPENABLE_req, AT_af_register_ep
        LOCFRAME ISTACK, 0, STACK
        LOCFRAME PSTACK, 0, STACK
        LOCFRAME XSTACK, 19, STACK
        LOCFRAME IOVERLAY, 0, STATIC
        LOCFRAME DOVERLAY, 0, STATIC
        ARGFRAME ISTACK, 0, STACK
        ARGFRAME PSTACK, 0, STACK
        ARGFRAME XSTACK, 19, STACK
        ARGFRAME IOVERLAY, 0, STATIC
        ARGFRAME DOVERLAY, 0, STATIC
        FUNCALL AT_AF_Cmd_REPENABLE_req, AT_ZCL_EP_ENABLE
        LOCFRAME ISTACK, 0, STACK
        LOCFRAME PSTACK, 0, STACK
        LOCFRAME XSTACK, 19, STACK
        LOCFRAME IOVERLAY, 0, STATIC
        LOCFRAME DOVERLAY, 0, STATIC
        ARGFRAME ISTACK, 0, STACK
        ARGFRAME PSTACK, 0, STACK
        ARGFRAME XSTACK, 19, STACK
        ARGFRAME IOVERLAY, 0, STATIC
        ARGFRAME DOVERLAY, 0, STATIC
        FUNCALL AT_AF_Cmd_REPENABLE_req, AT_NV_ZCL_get_index_
        LOCFRAME ISTACK, 0, STACK
        LOCFRAME PSTACK, 0, STACK
        LOCFRAME XSTACK, 19, STACK
        LOCFRAME IOVERLAY, 0, STATIC
        LOCFRAME DOVERLAY, 0, STATIC
        ARGFRAME ISTACK, 0, STACK
        ARGFRAME PSTACK, 0, STACK
        ARGFRAME XSTACK, 19, STACK
        ARGFRAME IOVERLAY, 0, STATIC
        ARGFRAME DOVERLAY, 0, STATIC
        FUNCALL AT_AF_Cmd_REPENABLE_req, AT_NV_ZCL_saveEPStatus
        LOCFRAME ISTACK, 0, STACK
        LOCFRAME PSTACK, 0, STACK
        LOCFRAME XSTACK, 19, STACK
        LOCFRAME IOVERLAY, 0, STATIC
        LOCFRAME DOVERLAY, 0, STATIC
        ARGFRAME ISTACK, 0, STACK
        ARGFRAME PSTACK, 0, STACK
        ARGFRAME XSTACK, 19, STACK
        ARGFRAME IOVERLAY, 0, STATIC
        ARGFRAME DOVERLAY, 0, STATIC
        FUNCALL AT_AF_Cmd_REPENABLE_req, AT_af_get_ep
        LOCFRAME ISTACK, 0, STACK
        LOCFRAME PSTACK, 0, STACK
        LOCFRAME XSTACK, 19, STACK
        LOCFRAME IOVERLAY, 0, STATIC
        LOCFRAME DOVERLAY, 0, STATIC
        ARGFRAME ISTACK, 0, STACK
        ARGFRAME PSTACK, 0, STACK
        ARGFRAME XSTACK, 19, STACK
        ARGFRAME IOVERLAY, 0, STATIC
        ARGFRAME DOVERLAY, 0, STATIC
        FUNCALL AT_AF_Cmd_REPENABLE_req, AT_af_remove_ep
        LOCFRAME ISTACK, 0, STACK
        LOCFRAME PSTACK, 0, STACK
        LOCFRAME XSTACK, 19, STACK
        LOCFRAME IOVERLAY, 0, STATIC
        LOCFRAME DOVERLAY, 0, STATIC
        ARGFRAME ISTACK, 0, STACK
        ARGFRAME PSTACK, 0, STACK
        ARGFRAME XSTACK, 19, STACK
        ARGFRAME IOVERLAY, 0, STATIC
        ARGFRAME DOVERLAY, 0, STATIC
        FUNCALL AT_AF_Cmd_REPENABLE_req, AT_ZCL_EP_ENABLE
        LOCFRAME ISTACK, 0, STACK
        LOCFRAME PSTACK, 0, STACK
        LOCFRAME XSTACK, 19, STACK
        LOCFRAME IOVERLAY, 0, STATIC
        LOCFRAME DOVERLAY, 0, STATIC
        ARGFRAME ISTACK, 0, STACK
        ARGFRAME PSTACK, 0, STACK
        ARGFRAME XSTACK, 19, STACK
        ARGFRAME IOVERLAY, 0, STATIC
        ARGFRAME DOVERLAY, 0, STATIC
        FUNCALL AT_AF_Cmd_REPENABLE_req, AT_NV_ZCL_get_index_
        LOCFRAME ISTACK, 0, STACK
        LOCFRAME PSTACK, 0, STACK
        LOCFRAME XSTACK, 19, STACK
        LOCFRAME IOVERLAY, 0, STATIC
        LOCFRAME DOVERLAY, 0, STATIC
        ARGFRAME ISTACK, 0, STACK
        ARGFRAME PSTACK, 0, STACK
        ARGFRAME XSTACK, 19, STACK
        ARGFRAME IOVERLAY, 0, STATIC
        ARGFRAME DOVERLAY, 0, STATIC
        FUNCALL AT_AF_Cmd_REPENABLE_req, AT_NV_ZCL_saveEPStatus
        LOCFRAME ISTACK, 0, STACK
        LOCFRAME PSTACK, 0, STACK
        LOCFRAME XSTACK, 19, STACK
        LOCFRAME IOVERLAY, 0, STATIC
        LOCFRAME DOVERLAY, 0, STATIC
        ARGFRAME ISTACK, 0, STACK
        ARGFRAME PSTACK, 0, STACK
        ARGFRAME XSTACK, 19, STACK
        ARGFRAME IOVERLAY, 0, STATIC
        ARGFRAME DOVERLAY, 0, STATIC
        FUNCALL AT_AF_Cmd_REPENABLE_req, AF_DataRequest
        LOCFRAME ISTACK, 0, STACK
        LOCFRAME PSTACK, 0, STACK
        LOCFRAME XSTACK, 28, STACK
        LOCFRAME IOVERLAY, 0, STATIC
        LOCFRAME DOVERLAY, 0, STATIC
        ARGFRAME ISTACK, 0, STACK
        ARGFRAME PSTACK, 0, STACK
        ARGFRAME XSTACK, 28, STACK
        ARGFRAME IOVERLAY, 0, STATIC
        ARGFRAME DOVERLAY, 0, STATIC
        MOV     A,#-0xe
        LCALL   ?BANKED_ENTER_XDATA
        CFI DPH0 load(1, XDATA, add(CFA_XSP16, literal(-1)))
        CFI DPL0 load(1, XDATA, add(CFA_XSP16, literal(-2)))
        CFI ?BRET_EXT load(1, XDATA, add(CFA_XSP16, literal(-3)))
        CFI ?RET_HIGH load(1, XDATA, add(CFA_XSP16, literal(-4)))
        CFI ?RET_LOW load(1, XDATA, add(CFA_XSP16, literal(-5)))
        CFI R7 load(1, XDATA, add(CFA_XSP16, literal(-6)))
        CFI V5 load(1, XDATA, add(CFA_XSP16, literal(-7)))
        CFI V4 load(1, XDATA, add(CFA_XSP16, literal(-8)))
        CFI V3 load(1, XDATA, add(CFA_XSP16, literal(-9)))
        CFI V2 load(1, XDATA, add(CFA_XSP16, literal(-10)))
        CFI V1 load(1, XDATA, add(CFA_XSP16, literal(-11)))
        CFI V0 load(1, XDATA, add(CFA_XSP16, literal(-12)))
        CFI VB load(1, XDATA, add(CFA_XSP16, literal(-13)))
        CFI R6 load(1, XDATA, add(CFA_XSP16, literal(-14)))
        CFI CFA_SP SP+0
        CFI CFA_XSP16 add(XSP16, 14)
        ; Saved register size: 14
        ; Auto size: 5
        MOV     A,#-0x5
        LCALL   ?ALLOC_XSTACK8
        CFI CFA_XSP16 add(XSP16, 19)
        LCALL   ?Subroutine26 & 0xFFFF
//  220   AT_AF_Cmd_REPENABLE_rsp_t rsp;
//  221   
//  222   AT_AF_Cmd_REPENABLE_req_t *req = (AT_AF_Cmd_REPENABLE_req_t*)pkt->cmd.Data;
??CrossCallReturnLabel_99:
        LCALL   ?Subroutine14 & 0xFFFF
//  223   uint8 enable =req->enable;
??CrossCallReturnLabel_18:
        MOVX    A,@DPTR
        MOV     DPL,?XSP + 0
        MOV     DPH,?XSP + 1
        MOVX    @DPTR,A
//  224   uint8 ep     =req->ep;
        MOV     A,R0
        ADD     A,#0x3
        INC     R0
        INC     R0
        INC     R0
        MOV     A,R1
        ADDC    A,#0x0
        MOV     R1,A
        MOV     DPL,R0
        MOV     DPH,R1
        MOVX    A,@DPTR
        MOV     ?V0 + 2,A
//  225   
//  226   rsp.hdr.cmd=AT_AF_Cmd_rsp;
        MOV     A,#0x1
        LCALL   ?XSTACK_DISP0_8
        MOV     A,#-0x80
        MOVX    @DPTR,A
//  227   rsp.item.ep=req->ep;
        MOV     DPL,R0
        MOV     DPH,R1
        MOVX    A,@DPTR
        PUSH    A
        CFI CFA_SP SP+-1
        MOV     A,#0x3
        LCALL   ?XSTACK_DISP0_8
        POP     A
        CFI CFA_SP SP+0
        LCALL   ?Subroutine4 & 0xFFFF
//  228   
//  229   if(enable){
??CrossCallReturnLabel_0:
        MOV     R1,?V0 + 2
        JZ      ??AT_AF_Cmd_REPENABLE_req_0
//  230     if( AT_af_get_ep(ep)){
        ; Setup parameters for call to function AT_af_get_ep
        LCALL   ?Subroutine28 & 0xFFFF
??CrossCallReturnLabel_37:
        JZ      ??AT_AF_Cmd_REPENABLE_req_1
//  231       if(AT_af_register_ep(ep)==afStatus_SUCCESS){ 
        ; Setup parameters for call to function AT_af_register_ep
        MOV     R1,?V0 + 2
        LCALL   ??AT_af_register_ep?relay
        MOV     A,R1
        JNZ     ??CrossCallReturnLabel_8
//  232         //enable the end point in ZCL layer
//  233         AT_ZCL_EP_ENABLE( enable,ep);
        ; Setup parameters for call to function AT_ZCL_EP_ENABLE
        LCALL   ?Subroutine8 & 0xFFFF
//  234         AT_NV_ZCL_saveEPStatus(AT_NV_ZCL_get_index_(ep),&enable);
//  235       }
//  236       rsp.item.status=AT_AF_enable;
??CrossCallReturnLabel_8:
        MOV     A,#0x4
        LCALL   ?XSTACK_DISP0_8
        MOV     A,#0x1
        SJMP    ??AT_AF_Cmd_REPENABLE_req_2
//  237     }else {
//  238       rsp.item.status = AT_AF_UNKNOWNEP;
??AT_AF_Cmd_REPENABLE_req_1:
        MOV     A,#0x4
        LCALL   ?XSTACK_DISP0_8
        MOV     A,#0x2
        SJMP    ??AT_AF_Cmd_REPENABLE_req_2
//  239     }
//  240   }
//  241   else{
//  242 
//  243     if(AT_af_get_ep(ep)){
??AT_AF_Cmd_REPENABLE_req_0:
        ; Setup parameters for call to function AT_af_get_ep
        LCALL   ?Subroutine28 & 0xFFFF
??CrossCallReturnLabel_38:
        JZ      ??AT_AF_Cmd_REPENABLE_req_1
//  244       if(AT_af_remove_ep(ep)==afStatus_SUCCESS){
        ; Setup parameters for call to function AT_af_remove_ep
        MOV     R1,?V0 + 2
        LCALL   ??AT_af_remove_ep?relay
        MOV     A,R1
        JNZ     ??CrossCallReturnLabel_9
//  245         //disable the end point in ZCL layer
//  246         AT_ZCL_EP_ENABLE( enable,ep);
        ; Setup parameters for call to function AT_ZCL_EP_ENABLE
        LCALL   ?Subroutine8 & 0xFFFF
//  247         //save to NV
//  248         AT_NV_ZCL_saveEPStatus(AT_NV_ZCL_get_index_(ep),&enable);
//  249       }
//  250       rsp.item.status = AT_AF_disable;
??CrossCallReturnLabel_9:
        MOV     A,#0x4
        LCALL   ?XSTACK_DISP0_8
        CLR     A
??AT_AF_Cmd_REPENABLE_req_2:
        MOVX    @DPTR,A
//  251     }else {
//  252       rsp.item.status = AT_AF_UNKNOWNEP;
//  253     }
//  254   }
//  255   
//  256   AF_DataRequest( & (pkt->srcAddr), & AT_AF_epDesc,
//  257                        AT_AF_Cmd_REPENABLE_CLUSTERID,
//  258                        sizeof(AT_AF_Cmd_REPENABLE_rsp_t),
//  259                        (uint8*)&rsp,
//  260                        &AT_AF_TransID,
//  261                        AF_DISCV_ROUTE,
//  262                        AF_DEFAULT_RADIUS );
        ; Setup parameters for call to function AF_DataRequest
        MOV     ?V0 + 2,#0x1e
        MOV     R0,#?V0 + 2
        LCALL   ?PUSH_XSTACK_I_ONE
        CFI CFA_XSP16 add(XSP16, 20)
        MOV     ?V0 + 2,#AT_AF_TransID & 0xff
        MOV     ?V0 + 3,#(AT_AF_TransID >> 8) & 0xff
        MOV     R0,#?V0 + 2
        LCALL   ?PUSH_XSTACK_I_TWO
        CFI CFA_XSP16 add(XSP16, 22)
        MOV     A,#0x4
        LCALL   ?XSTACK_DISP0_8
        MOV     ?V0 + 2,DPL
        MOV     ?V0 + 3,DPH
        MOV     R0,#?V0 + 2
        LCALL   ?PUSH_XSTACK_I_TWO
        CFI CFA_XSP16 add(XSP16, 24)
        MOV     ?V0 + 2,#0x4
        MOV     ?V0 + 3,#0x0
        MOV     R0,#?V0 + 2
        LCALL   ?PUSH_XSTACK_I_TWO
        CFI CFA_XSP16 add(XSP16, 26)
        MOV     ?V0 + 2,#0x1
        MOV     R0,#?V0 + 2
        LCALL   ?PUSH_XSTACK_I_TWO
        CFI CFA_XSP16 add(XSP16, 28)
        LCALL   ?Subroutine19 & 0xFFFF
??CrossCallReturnLabel_112:
        LCALL   ?DEALLOC_XSTACK8
        CFI CFA_XSP16 add(XSP16, 19)
//  263   
//  264 }
        LJMP    ?Subroutine3 & 0xFFFF
        CFI EndBlock cfiBlock15

        RSEG BANKED_CODE:CODE:NOROOT(0)
?Subroutine28:
        CFI Block cfiCond16 Using cfiCommon0
        CFI NoFunction
        CFI Conditional ??CrossCallReturnLabel_37
        CFI R6 load(1, XDATA, add(CFA_XSP16, literal(-14)))
        CFI VB load(1, XDATA, add(CFA_XSP16, literal(-13)))
        CFI V0 load(1, XDATA, add(CFA_XSP16, literal(-12)))
        CFI V1 load(1, XDATA, add(CFA_XSP16, literal(-11)))
        CFI V2 load(1, XDATA, add(CFA_XSP16, literal(-10)))
        CFI V3 load(1, XDATA, add(CFA_XSP16, literal(-9)))
        CFI V4 load(1, XDATA, add(CFA_XSP16, literal(-8)))
        CFI V5 load(1, XDATA, add(CFA_XSP16, literal(-7)))
        CFI R7 load(1, XDATA, add(CFA_XSP16, literal(-6)))
        CFI ?RET_LOW load(1, XDATA, add(CFA_XSP16, literal(-5)))
        CFI ?RET_HIGH load(1, XDATA, add(CFA_XSP16, literal(-4)))
        CFI ?BRET_EXT load(1, XDATA, add(CFA_XSP16, literal(-3)))
        CFI DPL0 load(1, XDATA, add(CFA_XSP16, literal(-2)))
        CFI DPH0 load(1, XDATA, add(CFA_XSP16, literal(-1)))
        CFI CFA_SP SP+0
        CFI CFA_XSP16 add(XSP16, 19)
        CFI Block cfiCond17 Using cfiCommon0
        CFI (cfiCond17) NoFunction
        CFI (cfiCond17) Conditional ??CrossCallReturnLabel_38
        CFI (cfiCond17) R6 load(1, XDATA, add(CFA_XSP16, literal(-14)))
        CFI (cfiCond17) VB load(1, XDATA, add(CFA_XSP16, literal(-13)))
        CFI (cfiCond17) V0 load(1, XDATA, add(CFA_XSP16, literal(-12)))
        CFI (cfiCond17) V1 load(1, XDATA, add(CFA_XSP16, literal(-11)))
        CFI (cfiCond17) V2 load(1, XDATA, add(CFA_XSP16, literal(-10)))
        CFI (cfiCond17) V3 load(1, XDATA, add(CFA_XSP16, literal(-9)))
        CFI (cfiCond17) V4 load(1, XDATA, add(CFA_XSP16, literal(-8)))
        CFI (cfiCond17) V5 load(1, XDATA, add(CFA_XSP16, literal(-7)))
        CFI (cfiCond17) R7 load(1, XDATA, add(CFA_XSP16, literal(-6)))
        CFI (cfiCond17) ?RET_LOW load(1, XDATA, add(CFA_XSP16, literal(-5)))
        CFI (cfiCond17) ?RET_HIGH load(1, XDATA, add(CFA_XSP16, literal(-4)))
        CFI (cfiCond17) ?BRET_EXT load(1, XDATA, add(CFA_XSP16, literal(-3)))
        CFI (cfiCond17) DPL0 load(1, XDATA, add(CFA_XSP16, literal(-2)))
        CFI (cfiCond17) DPH0 load(1, XDATA, add(CFA_XSP16, literal(-1)))
        CFI (cfiCond17) CFA_SP SP+0
        CFI (cfiCond17) CFA_XSP16 add(XSP16, 19)
        CFI Block cfiPicker18 Using cfiCommon1
        CFI (cfiPicker18) NoFunction
        CFI (cfiPicker18) Picker
        LCALL   ??AT_af_get_ep?relay
        MOV     ?V0 + 5,R3
        MOV     A,R2
        ORL     A,?V0 + 5
        RET
        CFI EndBlock cfiCond16
        CFI EndBlock cfiCond17
        CFI EndBlock cfiPicker18

        RSEG BANKED_CODE:CODE:NOROOT(0)
?Subroutine8:
        CFI Block cfiCond19 Using cfiCommon0
        CFI NoFunction
        CFI Conditional ??CrossCallReturnLabel_8
        CFI R6 load(1, XDATA, add(CFA_XSP16, literal(-14)))
        CFI VB load(1, XDATA, add(CFA_XSP16, literal(-13)))
        CFI V0 load(1, XDATA, add(CFA_XSP16, literal(-12)))
        CFI V1 load(1, XDATA, add(CFA_XSP16, literal(-11)))
        CFI V2 load(1, XDATA, add(CFA_XSP16, literal(-10)))
        CFI V3 load(1, XDATA, add(CFA_XSP16, literal(-9)))
        CFI V4 load(1, XDATA, add(CFA_XSP16, literal(-8)))
        CFI V5 load(1, XDATA, add(CFA_XSP16, literal(-7)))
        CFI R7 load(1, XDATA, add(CFA_XSP16, literal(-6)))
        CFI ?RET_LOW load(1, XDATA, add(CFA_XSP16, literal(-5)))
        CFI ?RET_HIGH load(1, XDATA, add(CFA_XSP16, literal(-4)))
        CFI ?BRET_EXT load(1, XDATA, add(CFA_XSP16, literal(-3)))
        CFI DPL0 load(1, XDATA, add(CFA_XSP16, literal(-2)))
        CFI DPH0 load(1, XDATA, add(CFA_XSP16, literal(-1)))
        CFI CFA_SP SP+0
        CFI CFA_XSP16 add(XSP16, 19)
        CFI Block cfiCond20 Using cfiCommon0
        CFI (cfiCond20) NoFunction
        CFI (cfiCond20) Conditional ??CrossCallReturnLabel_9
        CFI (cfiCond20) R6 load(1, XDATA, add(CFA_XSP16, literal(-14)))
        CFI (cfiCond20) VB load(1, XDATA, add(CFA_XSP16, literal(-13)))
        CFI (cfiCond20) V0 load(1, XDATA, add(CFA_XSP16, literal(-12)))
        CFI (cfiCond20) V1 load(1, XDATA, add(CFA_XSP16, literal(-11)))
        CFI (cfiCond20) V2 load(1, XDATA, add(CFA_XSP16, literal(-10)))
        CFI (cfiCond20) V3 load(1, XDATA, add(CFA_XSP16, literal(-9)))
        CFI (cfiCond20) V4 load(1, XDATA, add(CFA_XSP16, literal(-8)))
        CFI (cfiCond20) V5 load(1, XDATA, add(CFA_XSP16, literal(-7)))
        CFI (cfiCond20) R7 load(1, XDATA, add(CFA_XSP16, literal(-6)))
        CFI (cfiCond20) ?RET_LOW load(1, XDATA, add(CFA_XSP16, literal(-5)))
        CFI (cfiCond20) ?RET_HIGH load(1, XDATA, add(CFA_XSP16, literal(-4)))
        CFI (cfiCond20) ?BRET_EXT load(1, XDATA, add(CFA_XSP16, literal(-3)))
        CFI (cfiCond20) DPL0 load(1, XDATA, add(CFA_XSP16, literal(-2)))
        CFI (cfiCond20) DPH0 load(1, XDATA, add(CFA_XSP16, literal(-1)))
        CFI (cfiCond20) CFA_SP SP+0
        CFI (cfiCond20) CFA_XSP16 add(XSP16, 19)
        CFI Block cfiPicker21 Using cfiCommon1
        CFI (cfiPicker21) NoFunction
        CFI (cfiPicker21) Picker
        MOV     R2,?V0 + 2
        MOV     DPL,?XSP + 0
        MOV     DPH,?XSP + 1
        MOVX    A,@DPTR
        MOV     R1,A
        LCALL   ??AT_ZCL_EP_ENABLE?relay
        ; Setup parameters for call to function AT_NV_ZCL_saveEPStatus
        ; Setup parameters for call to function AT_NV_ZCL_saveEPStatus
        MOV     DPL,?XSP + 0
        MOV     DPH,?XSP + 1
        MOV     R6,DPL
        MOV     R7,DPH
        ; Setup parameters for call to function AT_NV_ZCL_get_index_
        ; Setup parameters for call to function AT_NV_ZCL_get_index_
        MOV     R1,?V0 + 2
        LCALL   ??AT_NV_ZCL_get_index_?relay
        MOV     A,R6
        MOV     R2,A
        MOV     A,R7
        MOV     R3,A
        LCALL   ??AT_NV_ZCL_saveEPStatus?relay
        RET
        CFI EndBlock cfiCond19
        CFI EndBlock cfiCond20
        CFI EndBlock cfiPicker21
//  265 
//  266 /*************************************************************
//  267 deal with the response from other devices
//  268 *************************************************************/

        RSEG BANKED_CODE:CODE:NOROOT(0)
//  269 void AT_AF_Cmd_REPENABLE_rsp(afIncomingMSGPacket_t *pkt ){
AT_AF_Cmd_REPENABLE_rsp:
        CFI Block cfiBlock22 Using cfiCommon0
        CFI Function AT_AF_Cmd_REPENABLE_rsp
        CODE
        FUNCALL AT_AF_Cmd_REPENABLE_rsp, AT_HalUARTWrite
        LOCFRAME ISTACK, 0, STACK
        LOCFRAME PSTACK, 0, STACK
        LOCFRAME XSTACK, 14, STACK
        LOCFRAME IOVERLAY, 0, STATIC
        LOCFRAME DOVERLAY, 0, STATIC
        ARGFRAME ISTACK, 0, STACK
        ARGFRAME PSTACK, 0, STACK
        ARGFRAME XSTACK, 14, STACK
        ARGFRAME IOVERLAY, 0, STATIC
        ARGFRAME DOVERLAY, 0, STATIC
        FUNCALL AT_AF_Cmd_REPENABLE_rsp, AT_HalUARTWrite
        LOCFRAME ISTACK, 0, STACK
        LOCFRAME PSTACK, 0, STACK
        LOCFRAME XSTACK, 14, STACK
        LOCFRAME IOVERLAY, 0, STATIC
        LOCFRAME DOVERLAY, 0, STATIC
        ARGFRAME ISTACK, 0, STACK
        ARGFRAME PSTACK, 0, STACK
        ARGFRAME XSTACK, 14, STACK
        ARGFRAME IOVERLAY, 0, STATIC
        ARGFRAME DOVERLAY, 0, STATIC
        FUNCALL AT_AF_Cmd_REPENABLE_rsp, AT_Int16toChar
        LOCFRAME ISTACK, 0, STACK
        LOCFRAME PSTACK, 0, STACK
        LOCFRAME XSTACK, 14, STACK
        LOCFRAME IOVERLAY, 0, STATIC
        LOCFRAME DOVERLAY, 0, STATIC
        ARGFRAME ISTACK, 0, STACK
        ARGFRAME PSTACK, 0, STACK
        ARGFRAME XSTACK, 14, STACK
        ARGFRAME IOVERLAY, 0, STATIC
        ARGFRAME DOVERLAY, 0, STATIC
        FUNCALL AT_AF_Cmd_REPENABLE_rsp, AT_HalUARTWrite
        LOCFRAME ISTACK, 0, STACK
        LOCFRAME PSTACK, 0, STACK
        LOCFRAME XSTACK, 14, STACK
        LOCFRAME IOVERLAY, 0, STATIC
        LOCFRAME DOVERLAY, 0, STATIC
        ARGFRAME ISTACK, 0, STACK
        ARGFRAME PSTACK, 0, STACK
        ARGFRAME XSTACK, 14, STACK
        ARGFRAME IOVERLAY, 0, STATIC
        ARGFRAME DOVERLAY, 0, STATIC
        FUNCALL AT_AF_Cmd_REPENABLE_rsp, AT_HalUARTWrite
        LOCFRAME ISTACK, 0, STACK
        LOCFRAME PSTACK, 0, STACK
        LOCFRAME XSTACK, 14, STACK
        LOCFRAME IOVERLAY, 0, STATIC
        LOCFRAME DOVERLAY, 0, STATIC
        ARGFRAME ISTACK, 0, STACK
        ARGFRAME PSTACK, 0, STACK
        ARGFRAME XSTACK, 14, STACK
        ARGFRAME IOVERLAY, 0, STATIC
        ARGFRAME DOVERLAY, 0, STATIC
        FUNCALL AT_AF_Cmd_REPENABLE_rsp, AT_HalUARTWrite
        LOCFRAME ISTACK, 0, STACK
        LOCFRAME PSTACK, 0, STACK
        LOCFRAME XSTACK, 14, STACK
        LOCFRAME IOVERLAY, 0, STATIC
        LOCFRAME DOVERLAY, 0, STATIC
        ARGFRAME ISTACK, 0, STACK
        ARGFRAME PSTACK, 0, STACK
        ARGFRAME XSTACK, 14, STACK
        ARGFRAME IOVERLAY, 0, STATIC
        ARGFRAME DOVERLAY, 0, STATIC
        FUNCALL AT_AF_Cmd_REPENABLE_rsp, AT_HalUARTWrite
        LOCFRAME ISTACK, 0, STACK
        LOCFRAME PSTACK, 0, STACK
        LOCFRAME XSTACK, 14, STACK
        LOCFRAME IOVERLAY, 0, STATIC
        LOCFRAME DOVERLAY, 0, STATIC
        ARGFRAME ISTACK, 0, STACK
        ARGFRAME PSTACK, 0, STACK
        ARGFRAME XSTACK, 14, STACK
        ARGFRAME IOVERLAY, 0, STATIC
        ARGFRAME DOVERLAY, 0, STATIC
        FUNCALL AT_AF_Cmd_REPENABLE_rsp, AT_Int8toChar
        LOCFRAME ISTACK, 0, STACK
        LOCFRAME PSTACK, 0, STACK
        LOCFRAME XSTACK, 14, STACK
        LOCFRAME IOVERLAY, 0, STATIC
        LOCFRAME DOVERLAY, 0, STATIC
        ARGFRAME ISTACK, 0, STACK
        ARGFRAME PSTACK, 0, STACK
        ARGFRAME XSTACK, 14, STACK
        ARGFRAME IOVERLAY, 0, STATIC
        ARGFRAME DOVERLAY, 0, STATIC
        FUNCALL AT_AF_Cmd_REPENABLE_rsp, AT_HalUARTWrite
        LOCFRAME ISTACK, 0, STACK
        LOCFRAME PSTACK, 0, STACK
        LOCFRAME XSTACK, 14, STACK
        LOCFRAME IOVERLAY, 0, STATIC
        LOCFRAME DOVERLAY, 0, STATIC
        ARGFRAME ISTACK, 0, STACK
        ARGFRAME PSTACK, 0, STACK
        ARGFRAME XSTACK, 14, STACK
        ARGFRAME IOVERLAY, 0, STATIC
        ARGFRAME DOVERLAY, 0, STATIC
        FUNCALL AT_AF_Cmd_REPENABLE_rsp, AT_Int16toChar
        LOCFRAME ISTACK, 0, STACK
        LOCFRAME PSTACK, 0, STACK
        LOCFRAME XSTACK, 14, STACK
        LOCFRAME IOVERLAY, 0, STATIC
        LOCFRAME DOVERLAY, 0, STATIC
        ARGFRAME ISTACK, 0, STACK
        ARGFRAME PSTACK, 0, STACK
        ARGFRAME XSTACK, 14, STACK
        ARGFRAME IOVERLAY, 0, STATIC
        ARGFRAME DOVERLAY, 0, STATIC
        FUNCALL AT_AF_Cmd_REPENABLE_rsp, AT_HalUARTWrite
        LOCFRAME ISTACK, 0, STACK
        LOCFRAME PSTACK, 0, STACK
        LOCFRAME XSTACK, 14, STACK
        LOCFRAME IOVERLAY, 0, STATIC
        LOCFRAME DOVERLAY, 0, STATIC
        ARGFRAME ISTACK, 0, STACK
        ARGFRAME PSTACK, 0, STACK
        ARGFRAME XSTACK, 14, STACK
        ARGFRAME IOVERLAY, 0, STATIC
        ARGFRAME DOVERLAY, 0, STATIC
        FUNCALL AT_AF_Cmd_REPENABLE_rsp, AT_HalUARTWrite
        LOCFRAME ISTACK, 0, STACK
        LOCFRAME PSTACK, 0, STACK
        LOCFRAME XSTACK, 14, STACK
        LOCFRAME IOVERLAY, 0, STATIC
        LOCFRAME DOVERLAY, 0, STATIC
        ARGFRAME ISTACK, 0, STACK
        ARGFRAME PSTACK, 0, STACK
        ARGFRAME XSTACK, 14, STACK
        ARGFRAME IOVERLAY, 0, STATIC
        ARGFRAME DOVERLAY, 0, STATIC
        FUNCALL AT_AF_Cmd_REPENABLE_rsp, AT_HalUARTWrite
        LOCFRAME ISTACK, 0, STACK
        LOCFRAME PSTACK, 0, STACK
        LOCFRAME XSTACK, 14, STACK
        LOCFRAME IOVERLAY, 0, STATIC
        LOCFRAME DOVERLAY, 0, STATIC
        ARGFRAME ISTACK, 0, STACK
        ARGFRAME PSTACK, 0, STACK
        ARGFRAME XSTACK, 14, STACK
        ARGFRAME IOVERLAY, 0, STATIC
        ARGFRAME DOVERLAY, 0, STATIC
        FUNCALL AT_AF_Cmd_REPENABLE_rsp, AT_HalUARTWrite
        LOCFRAME ISTACK, 0, STACK
        LOCFRAME PSTACK, 0, STACK
        LOCFRAME XSTACK, 14, STACK
        LOCFRAME IOVERLAY, 0, STATIC
        LOCFRAME DOVERLAY, 0, STATIC
        ARGFRAME ISTACK, 0, STACK
        ARGFRAME PSTACK, 0, STACK
        ARGFRAME XSTACK, 14, STACK
        ARGFRAME IOVERLAY, 0, STATIC
        ARGFRAME DOVERLAY, 0, STATIC
        FUNCALL AT_AF_Cmd_REPENABLE_rsp, AT_HalUARTWrite
        LOCFRAME ISTACK, 0, STACK
        LOCFRAME PSTACK, 0, STACK
        LOCFRAME XSTACK, 14, STACK
        LOCFRAME IOVERLAY, 0, STATIC
        LOCFRAME DOVERLAY, 0, STATIC
        ARGFRAME ISTACK, 0, STACK
        ARGFRAME PSTACK, 0, STACK
        ARGFRAME XSTACK, 14, STACK
        ARGFRAME IOVERLAY, 0, STATIC
        ARGFRAME DOVERLAY, 0, STATIC
        MOV     A,#-0xa
        LCALL   ?BANKED_ENTER_XDATA
        CFI DPH0 load(1, XDATA, add(CFA_XSP16, literal(-1)))
        CFI DPL0 load(1, XDATA, add(CFA_XSP16, literal(-2)))
        CFI ?BRET_EXT load(1, XDATA, add(CFA_XSP16, literal(-3)))
        CFI ?RET_HIGH load(1, XDATA, add(CFA_XSP16, literal(-4)))
        CFI ?RET_LOW load(1, XDATA, add(CFA_XSP16, literal(-5)))
        CFI R7 load(1, XDATA, add(CFA_XSP16, literal(-6)))
        CFI V1 load(1, XDATA, add(CFA_XSP16, literal(-7)))
        CFI V0 load(1, XDATA, add(CFA_XSP16, literal(-8)))
        CFI VB load(1, XDATA, add(CFA_XSP16, literal(-9)))
        CFI R6 load(1, XDATA, add(CFA_XSP16, literal(-10)))
        CFI CFA_SP SP+0
        CFI CFA_XSP16 add(XSP16, 10)
        ; Saved register size: 10
        ; Auto size: 4
        MOV     A,#-0x4
        LCALL   ?ALLOC_XSTACK8
        CFI CFA_XSP16 add(XSP16, 14)
        LCALL   ?Subroutine38 & 0xFFFF
//  270   AT_AF_Cmd_REPENABLE_rsp_t *rsp = (AT_AF_Cmd_REPENABLE_rsp_t*)pkt->cmd.Data;
??CrossCallReturnLabel_105:
        MOV     A,R7
        LCALL   ?Subroutine14 & 0xFFFF
//  271   uint8 status =rsp->item.status;
??CrossCallReturnLabel_19:
        INC     DPTR
        MOVX    A,@DPTR
        MOV     ?V0 + 1,A
//  272   uint8 ep     =rsp->item.ep;
        MOV     DPL,R0
        MOV     DPH,R1
        INC     DPTR
        INC     DPTR
        MOVX    A,@DPTR
        MOV     ?V0 + 0,A
//  273   char str[4];
//  274   AT_RESP_START();
        ; Setup parameters for call to function AT_HalUARTWrite
        MOV     R4,#0x2
        MOV     R5,#0x0
        MOV     R2,#`?<Constant "\\r\\n">` & 0xff
        MOV     R3,#(`?<Constant "\\r\\n">` >> 8) & 0xff
        MOV     R1,#0x0
        LCALL   ??AT_HalUARTWrite?relay
//  275        
//  276   switch (status){
        MOV     A,?V0 + 1
        JZ      ??AT_AF_Cmd_REPENABLE_rsp_0
        DEC     A
        JZ      ??AT_AF_Cmd_REPENABLE_rsp_1
        DEC     A
        JZ      ??AT_AF_Cmd_REPENABLE_rsp_2
        SJMP    ??AT_AF_Cmd_REPENABLE_rsp_3
//  277   case AT_AF_enable:
//  278     AT_RESP("ENABLED:",sizeof("ENABLED:")-1);
??AT_AF_Cmd_REPENABLE_rsp_1:
        ; Setup parameters for call to function AT_HalUARTWrite
        MOV     R4,#0x8
        MOV     R5,#0x0
        MOV     R2,#`?<Constant "ENABLED:">` & 0xff
        MOV     R3,#(`?<Constant "ENABLED:">` >> 8) & 0xff
        LCALL   ?Subroutine20 & 0xFFFF
//  279     //print nodeID
//  280     if(pkt->srcAddr.addrMode==(afAddrMode_t)Addr16Bit){
??CrossCallReturnLabel_47:
        JNZ     ??AT_AF_Cmd_REPENABLE_rsp_4
//  281       AT_Int16toChar(pkt->srcAddr.addr.shortAddr,str);
??AT_AF_Cmd_REPENABLE_rsp_5:
        ; Setup parameters for call to function AT_Int16toChar
        LCALL   ?Subroutine10 & 0xFFFF
//  282       AT_RESP(str,4);
//  283     }else AT_RESP("UNKNOWN",sizeof("UNKNOWN")-1);
??CrossCallReturnLabel_12:
        SJMP    ??AT_AF_Cmd_REPENABLE_rsp_6
//  284     AT_RESP(",",1); 
//  285     //print end point
//  286     AT_Int8toChar(ep,str);
//  287     AT_RESP(str,2);
//  288     break;
//  289   case AT_AF_disable:
//  290     AT_RESP("DISABLED:",sizeof("DISABLED:")-1);
??AT_AF_Cmd_REPENABLE_rsp_0:
        ; Setup parameters for call to function AT_HalUARTWrite
        MOV     R4,#0x9
        MOV     R5,#0x0
        MOV     R2,#`?<Constant "DISABLED:">` & 0xff
        MOV     R3,#(`?<Constant "DISABLED:">` >> 8) & 0xff
        LCALL   ?Subroutine20 & 0xFFFF
//  291     //print nodeID
//  292     if(pkt->srcAddr.addrMode==(afAddrMode_t)Addr16Bit){
??CrossCallReturnLabel_48:
        JZ      ??AT_AF_Cmd_REPENABLE_rsp_5
??AT_AF_Cmd_REPENABLE_rsp_4:
        ; Setup parameters for call to function AT_HalUARTWrite
        MOV     R4,#0x7
        MOV     R5,#0x0
        MOV     R2,#`?<Constant "UNKNOWN">` & 0xff
        MOV     R3,#(`?<Constant "UNKNOWN">` >> 8) & 0xff
??AT_AF_Cmd_REPENABLE_rsp_6:
        LCALL   ?Subroutine25 & 0xFFFF
??CrossCallReturnLabel_33:
        ; Setup parameters for call to function AT_Int8toChar
        MOV     DPL,?XSP + 0
        MOV     DPH,?XSP + 1
        MOV     R2,DPL
        MOV     R3,DPH
        MOV     R1,?V0 + 0
        LCALL   ??AT_Int8toChar?relay
        ; Setup parameters for call to function AT_HalUARTWrite
        MOV     R4,#0x2
        MOV     R5,#0x0
        MOV     DPL,?XSP + 0
        MOV     DPH,?XSP + 1
        MOV     R2,DPL
        MOV     R3,DPH
        SJMP    ??AT_AF_Cmd_REPENABLE_rsp_7
//  293       AT_Int16toChar(pkt->srcAddr.addr.shortAddr,str);
//  294       AT_RESP(str,4);
//  295     }else AT_RESP("UNKNOWN",sizeof("UNKNOWN")-1);
//  296     AT_RESP(",",1); 
//  297     //print end point
//  298     AT_Int8toChar(ep,str);
//  299     AT_RESP(str,2);
//  300     break;
//  301   case AT_AF_UNKNOWNEP:
//  302     if(pkt->srcAddr.addrMode==(afAddrMode_t)Addr16Bit){
??AT_AF_Cmd_REPENABLE_rsp_2:
        LCALL   ??Subroutine40_0 & 0xFFFF
??CrossCallReturnLabel_51:
        JNZ     ??AT_AF_Cmd_REPENABLE_rsp_8
//  303       AT_Int16toChar(pkt->srcAddr.addr.shortAddr,str);
        ; Setup parameters for call to function AT_Int16toChar
        LCALL   ?Subroutine10 & 0xFFFF
//  304       AT_RESP(str,4);
//  305     }else AT_RESP("UNKNOWN",sizeof("UNKNOWN")-1);
??CrossCallReturnLabel_13:
        SJMP    ??AT_AF_Cmd_REPENABLE_rsp_9
??AT_AF_Cmd_REPENABLE_rsp_8:
        ; Setup parameters for call to function AT_HalUARTWrite
        MOV     R4,#0x7
        MOV     R5,#0x0
        MOV     R2,#`?<Constant "UNKNOWN">` & 0xff
        MOV     R3,#(`?<Constant "UNKNOWN">` >> 8) & 0xff
??AT_AF_Cmd_REPENABLE_rsp_9:
        LCALL   ?Subroutine25 & 0xFFFF
//  306     AT_RESP(",",1); 
//  307     //print end point
//  308     AT_RESP("UNKNOWNEP",sizeof("UNKNOWNEP")-1);
??CrossCallReturnLabel_34:
        ; Setup parameters for call to function AT_HalUARTWrite
        MOV     R4,#0x9
        MOV     R5,#0x0
        MOV     R2,#`?<Constant "UNKNOWNEP">` & 0xff
        MOV     R3,#(`?<Constant "UNKNOWNEP">` >> 8) & 0xff
??AT_AF_Cmd_REPENABLE_rsp_7:
        MOV     R1,#0x0
        LCALL   ??AT_HalUARTWrite?relay
//  309     break;
//  310   }
//  311   AT_RESP_END();
??AT_AF_Cmd_REPENABLE_rsp_3:
        ; Setup parameters for call to function AT_HalUARTWrite
        MOV     R4,#0x2
        MOV     R5,#0x0
        MOV     R2,#`?<Constant "\\r\\n">` & 0xff
        MOV     R3,#(`?<Constant "\\r\\n">` >> 8) & 0xff
        MOV     R1,#0x0
        LCALL   ??AT_HalUARTWrite?relay
//  312 }
        MOV     A,#0x4
        LCALL   ?DEALLOC_XSTACK8
        CFI CFA_XSP16 add(XSP16, 10)
        LJMP    ?Subroutine1 & 0xFFFF
        CFI EndBlock cfiBlock22

        RSEG BANKED_CODE:CODE:NOROOT(0)
?Subroutine38:
        CFI Block cfiCond23 Using cfiCommon0
        CFI NoFunction
        CFI Conditional ??CrossCallReturnLabel_105
        CFI R6 load(1, XDATA, add(CFA_XSP16, literal(-10)))
        CFI VB load(1, XDATA, add(CFA_XSP16, literal(-9)))
        CFI V0 load(1, XDATA, add(CFA_XSP16, literal(-8)))
        CFI V1 load(1, XDATA, add(CFA_XSP16, literal(-7)))
        CFI R7 load(1, XDATA, add(CFA_XSP16, literal(-6)))
        CFI ?RET_LOW load(1, XDATA, add(CFA_XSP16, literal(-5)))
        CFI ?RET_HIGH load(1, XDATA, add(CFA_XSP16, literal(-4)))
        CFI ?BRET_EXT load(1, XDATA, add(CFA_XSP16, literal(-3)))
        CFI DPL0 load(1, XDATA, add(CFA_XSP16, literal(-2)))
        CFI DPH0 load(1, XDATA, add(CFA_XSP16, literal(-1)))
        CFI CFA_SP SP+0
        CFI CFA_XSP16 add(XSP16, 14)
        CFI Block cfiCond24 Using cfiCommon0
        CFI (cfiCond24) NoFunction
        CFI (cfiCond24) Conditional ??CrossCallReturnLabel_106
        CFI (cfiCond24) R6 load(1, XDATA, add(CFA_XSP16, literal(-14)))
        CFI (cfiCond24) VB load(1, XDATA, add(CFA_XSP16, literal(-13)))
        CFI (cfiCond24) V0 load(1, XDATA, add(CFA_XSP16, literal(-12)))
        CFI (cfiCond24) V1 load(1, XDATA, add(CFA_XSP16, literal(-11)))
        CFI (cfiCond24) V2 load(1, XDATA, add(CFA_XSP16, literal(-10)))
        CFI (cfiCond24) V3 load(1, XDATA, add(CFA_XSP16, literal(-9)))
        CFI (cfiCond24) V4 load(1, XDATA, add(CFA_XSP16, literal(-8)))
        CFI (cfiCond24) V5 load(1, XDATA, add(CFA_XSP16, literal(-7)))
        CFI (cfiCond24) R7 load(1, XDATA, add(CFA_XSP16, literal(-6)))
        CFI (cfiCond24) ?RET_LOW load(1, XDATA, add(CFA_XSP16, literal(-5)))
        CFI (cfiCond24) ?RET_HIGH load(1, XDATA, add(CFA_XSP16, literal(-4)))
        CFI (cfiCond24) ?BRET_EXT load(1, XDATA, add(CFA_XSP16, literal(-3)))
        CFI (cfiCond24) DPL0 load(1, XDATA, add(CFA_XSP16, literal(-2)))
        CFI (cfiCond24) DPH0 load(1, XDATA, add(CFA_XSP16, literal(-1)))
        CFI (cfiCond24) CFA_SP SP+0
        CFI (cfiCond24) CFA_XSP16 add(XSP16, 19)
        CFI Block cfiCond25 Using cfiCommon0
        CFI (cfiCond25) NoFunction
        CFI (cfiCond25) Conditional ??CrossCallReturnLabel_107
        CFI (cfiCond25) R6 load(1, XDATA, add(CFA_XSP16, literal(-14)))
        CFI (cfiCond25) VB load(1, XDATA, add(CFA_XSP16, literal(-13)))
        CFI (cfiCond25) V0 load(1, XDATA, add(CFA_XSP16, literal(-12)))
        CFI (cfiCond25) V1 load(1, XDATA, add(CFA_XSP16, literal(-11)))
        CFI (cfiCond25) V2 load(1, XDATA, add(CFA_XSP16, literal(-10)))
        CFI (cfiCond25) V3 load(1, XDATA, add(CFA_XSP16, literal(-9)))
        CFI (cfiCond25) V4 load(1, XDATA, add(CFA_XSP16, literal(-8)))
        CFI (cfiCond25) V5 load(1, XDATA, add(CFA_XSP16, literal(-7)))
        CFI (cfiCond25) R7 load(1, XDATA, add(CFA_XSP16, literal(-6)))
        CFI (cfiCond25) ?RET_LOW load(1, XDATA, add(CFA_XSP16, literal(-5)))
        CFI (cfiCond25) ?RET_HIGH load(1, XDATA, add(CFA_XSP16, literal(-4)))
        CFI (cfiCond25) ?BRET_EXT load(1, XDATA, add(CFA_XSP16, literal(-3)))
        CFI (cfiCond25) DPL0 load(1, XDATA, add(CFA_XSP16, literal(-2)))
        CFI (cfiCond25) DPH0 load(1, XDATA, add(CFA_XSP16, literal(-1)))
        CFI (cfiCond25) CFA_SP SP+0
        CFI (cfiCond25) CFA_XSP16 add(XSP16, 19)
        CFI Block cfiPicker26 Using cfiCommon1
        CFI (cfiPicker26) NoFunction
        CFI (cfiPicker26) Picker
        MOV     A,R2
        MOV     R6,A
        MOV     A,R3
        MOV     R7,A
        MOV     A,R6
        CFI EndBlock cfiCond23
        CFI EndBlock cfiCond24
        CFI EndBlock cfiCond25
        CFI EndBlock cfiPicker26
        REQUIRE ??Subroutine39_0
        ; // Fall through to label ??Subroutine39_0

        RSEG BANKED_CODE:CODE:NOROOT(0)
??Subroutine39_0:
        CFI Block cfiCond27 Using cfiCommon0
        CFI NoFunction
        CFI Conditional ??CrossCallReturnLabel_108
        CFI R6 load(1, XDATA, add(CFA_XSP16, literal(-14)))
        CFI VB load(1, XDATA, add(CFA_XSP16, literal(-13)))
        CFI V0 load(1, XDATA, add(CFA_XSP16, literal(-12)))
        CFI V1 load(1, XDATA, add(CFA_XSP16, literal(-11)))
        CFI V2 load(1, XDATA, add(CFA_XSP16, literal(-10)))
        CFI V3 load(1, XDATA, add(CFA_XSP16, literal(-9)))
        CFI V4 load(1, XDATA, add(CFA_XSP16, literal(-8)))
        CFI V5 load(1, XDATA, add(CFA_XSP16, literal(-7)))
        CFI R7 load(1, XDATA, add(CFA_XSP16, literal(-6)))
        CFI ?RET_LOW load(1, XDATA, add(CFA_XSP16, literal(-5)))
        CFI ?RET_HIGH load(1, XDATA, add(CFA_XSP16, literal(-4)))
        CFI ?BRET_EXT load(1, XDATA, add(CFA_XSP16, literal(-3)))
        CFI DPL0 load(1, XDATA, add(CFA_XSP16, literal(-2)))
        CFI DPH0 load(1, XDATA, add(CFA_XSP16, literal(-1)))
        CFI CFA_SP SP+0
        CFI CFA_XSP16 add(XSP16, 19)
        CFI Block cfiCond28 Using cfiCommon0
        CFI (cfiCond28) NoFunction
        CFI (cfiCond28) Conditional ??CrossCallReturnLabel_109, ??CrossCallReturnLabel_58
        CFI (cfiCond28) DPL0 Frame(CFA_SP, 4)
        CFI (cfiCond28) DPH0 Frame(CFA_SP, 5)
        CFI (cfiCond28) CFA_SP SP+-5
        CFI Block cfiCond29 Using cfiCommon0
        CFI (cfiCond29) NoFunction
        CFI (cfiCond29) Conditional ??CrossCallReturnLabel_109, ??CrossCallReturnLabel_59
        CFI (cfiCond29) DPL0 Frame(CFA_SP, 4)
        CFI (cfiCond29) DPH0 Frame(CFA_SP, 5)
        CFI (cfiCond29) CFA_SP SP+-5
        CFI Block cfiCond30 Using cfiCommon0
        CFI (cfiCond30) NoFunction
        CFI (cfiCond30) Conditional ??CrossCallReturnLabel_109, ??CrossCallReturnLabel_60
        CFI (cfiCond30) DPL0 Frame(CFA_SP, 4)
        CFI (cfiCond30) DPH0 Frame(CFA_SP, 5)
        CFI (cfiCond30) CFA_SP SP+-5
        CFI Block cfiCond31 Using cfiCommon0
        CFI (cfiCond31) NoFunction
        CFI (cfiCond31) Conditional ??CrossCallReturnLabel_109, ??CrossCallReturnLabel_61
        CFI (cfiCond31) DPL0 Frame(CFA_SP, 4)
        CFI (cfiCond31) DPH0 Frame(CFA_SP, 5)
        CFI (cfiCond31) CFA_SP SP+-5
        CFI Block cfiCond32 Using cfiCommon0
        CFI (cfiCond32) NoFunction
        CFI (cfiCond32) Conditional ??CrossCallReturnLabel_109, ??CrossCallReturnLabel_62
        CFI (cfiCond32) DPL0 Frame(CFA_SP, 4)
        CFI (cfiCond32) DPH0 Frame(CFA_SP, 5)
        CFI (cfiCond32) CFA_SP SP+-5
        CFI Block cfiCond33 Using cfiCommon0
        CFI (cfiCond33) NoFunction
        CFI (cfiCond33) Conditional ??CrossCallReturnLabel_110, ??CrossCallReturnLabel_99
        CFI (cfiCond33) R6 load(1, XDATA, add(CFA_XSP16, literal(-14)))
        CFI (cfiCond33) VB load(1, XDATA, add(CFA_XSP16, literal(-13)))
        CFI (cfiCond33) V0 load(1, XDATA, add(CFA_XSP16, literal(-12)))
        CFI (cfiCond33) V1 load(1, XDATA, add(CFA_XSP16, literal(-11)))
        CFI (cfiCond33) V2 load(1, XDATA, add(CFA_XSP16, literal(-10)))
        CFI (cfiCond33) V3 load(1, XDATA, add(CFA_XSP16, literal(-9)))
        CFI (cfiCond33) V4 load(1, XDATA, add(CFA_XSP16, literal(-8)))
        CFI (cfiCond33) V5 load(1, XDATA, add(CFA_XSP16, literal(-7)))
        CFI (cfiCond33) R7 load(1, XDATA, add(CFA_XSP16, literal(-6)))
        CFI (cfiCond33) ?RET_LOW load(1, XDATA, add(CFA_XSP16, literal(-5)))
        CFI (cfiCond33) ?RET_HIGH load(1, XDATA, add(CFA_XSP16, literal(-4)))
        CFI (cfiCond33) ?BRET_EXT load(1, XDATA, add(CFA_XSP16, literal(-3)))
        CFI (cfiCond33) DPL0 load(1, XDATA, add(CFA_XSP16, literal(-2)))
        CFI (cfiCond33) DPH0 load(1, XDATA, add(CFA_XSP16, literal(-1)))
        CFI (cfiCond33) CFA_SP SP+0
        CFI (cfiCond33) CFA_XSP16 add(XSP16, 19)
        CFI Block cfiCond34 Using cfiCommon0
        CFI (cfiCond34) NoFunction
        CFI (cfiCond34) Conditional ??CrossCallReturnLabel_110, ??CrossCallReturnLabel_100
        CFI (cfiCond34) R6 load(1, XDATA, add(CFA_XSP16, literal(-12)))
        CFI (cfiCond34) VB load(1, XDATA, add(CFA_XSP16, literal(-11)))
        CFI (cfiCond34) V0 load(1, XDATA, add(CFA_XSP16, literal(-10)))
        CFI (cfiCond34) V1 load(1, XDATA, add(CFA_XSP16, literal(-9)))
        CFI (cfiCond34) V2 load(1, XDATA, add(CFA_XSP16, literal(-8)))
        CFI (cfiCond34) V3 load(1, XDATA, add(CFA_XSP16, literal(-7)))
        CFI (cfiCond34) R7 load(1, XDATA, add(CFA_XSP16, literal(-6)))
        CFI (cfiCond34) ?RET_LOW load(1, XDATA, add(CFA_XSP16, literal(-5)))
        CFI (cfiCond34) ?RET_HIGH load(1, XDATA, add(CFA_XSP16, literal(-4)))
        CFI (cfiCond34) ?BRET_EXT load(1, XDATA, add(CFA_XSP16, literal(-3)))
        CFI (cfiCond34) DPL0 load(1, XDATA, add(CFA_XSP16, literal(-2)))
        CFI (cfiCond34) DPH0 load(1, XDATA, add(CFA_XSP16, literal(-1)))
        CFI (cfiCond34) CFA_SP SP+0
        CFI (cfiCond34) CFA_XSP16 add(XSP16, 12)
        CFI Block cfiCond35 Using cfiCommon0
        CFI (cfiCond35) NoFunction
        CFI (cfiCond35) Conditional ??CrossCallReturnLabel_110, ??CrossCallReturnLabel_101
        CFI (cfiCond35) R6 load(1, XDATA, add(CFA_XSP16, literal(-14)))
        CFI (cfiCond35) VB load(1, XDATA, add(CFA_XSP16, literal(-13)))
        CFI (cfiCond35) V0 load(1, XDATA, add(CFA_XSP16, literal(-12)))
        CFI (cfiCond35) V1 load(1, XDATA, add(CFA_XSP16, literal(-11)))
        CFI (cfiCond35) V2 load(1, XDATA, add(CFA_XSP16, literal(-10)))
        CFI (cfiCond35) V3 load(1, XDATA, add(CFA_XSP16, literal(-9)))
        CFI (cfiCond35) V4 load(1, XDATA, add(CFA_XSP16, literal(-8)))
        CFI (cfiCond35) V5 load(1, XDATA, add(CFA_XSP16, literal(-7)))
        CFI (cfiCond35) R7 load(1, XDATA, add(CFA_XSP16, literal(-6)))
        CFI (cfiCond35) ?RET_LOW load(1, XDATA, add(CFA_XSP16, literal(-5)))
        CFI (cfiCond35) ?RET_HIGH load(1, XDATA, add(CFA_XSP16, literal(-4)))
        CFI (cfiCond35) ?BRET_EXT load(1, XDATA, add(CFA_XSP16, literal(-3)))
        CFI (cfiCond35) DPL0 load(1, XDATA, add(CFA_XSP16, literal(-2)))
        CFI (cfiCond35) DPH0 load(1, XDATA, add(CFA_XSP16, literal(-1)))
        CFI (cfiCond35) CFA_SP SP+0
        CFI (cfiCond35) CFA_XSP16 add(XSP16, 19)
        CFI Block cfiCond36 Using cfiCommon0
        CFI (cfiCond36) NoFunction
        CFI (cfiCond36) Conditional ??CrossCallReturnLabel_110, ??CrossCallReturnLabel_102
        CFI (cfiCond36) R6 load(1, XDATA, add(CFA_XSP16, literal(-22)))
        CFI (cfiCond36) VB load(1, XDATA, add(CFA_XSP16, literal(-21)))
        CFI (cfiCond36) V0 load(1, XDATA, add(CFA_XSP16, literal(-20)))
        CFI (cfiCond36) V1 load(1, XDATA, add(CFA_XSP16, literal(-19)))
        CFI (cfiCond36) V2 load(1, XDATA, add(CFA_XSP16, literal(-18)))
        CFI (cfiCond36) V3 load(1, XDATA, add(CFA_XSP16, literal(-17)))
        CFI (cfiCond36) V4 load(1, XDATA, add(CFA_XSP16, literal(-16)))
        CFI (cfiCond36) V5 load(1, XDATA, add(CFA_XSP16, literal(-15)))
        CFI (cfiCond36) V6 load(1, XDATA, add(CFA_XSP16, literal(-14)))
        CFI (cfiCond36) V7 load(1, XDATA, add(CFA_XSP16, literal(-13)))
        CFI (cfiCond36) V8 load(1, XDATA, add(CFA_XSP16, literal(-12)))
        CFI (cfiCond36) V9 load(1, XDATA, add(CFA_XSP16, literal(-11)))
        CFI (cfiCond36) V10 load(1, XDATA, add(CFA_XSP16, literal(-10)))
        CFI (cfiCond36) V11 load(1, XDATA, add(CFA_XSP16, literal(-9)))
        CFI (cfiCond36) V12 load(1, XDATA, add(CFA_XSP16, literal(-8)))
        CFI (cfiCond36) V13 load(1, XDATA, add(CFA_XSP16, literal(-7)))
        CFI (cfiCond36) R7 load(1, XDATA, add(CFA_XSP16, literal(-6)))
        CFI (cfiCond36) ?RET_LOW load(1, XDATA, add(CFA_XSP16, literal(-5)))
        CFI (cfiCond36) ?RET_HIGH load(1, XDATA, add(CFA_XSP16, literal(-4)))
        CFI (cfiCond36) ?BRET_EXT load(1, XDATA, add(CFA_XSP16, literal(-3)))
        CFI (cfiCond36) DPL0 load(1, XDATA, add(CFA_XSP16, literal(-2)))
        CFI (cfiCond36) DPH0 load(1, XDATA, add(CFA_XSP16, literal(-1)))
        CFI (cfiCond36) CFA_SP SP+0
        CFI (cfiCond36) CFA_XSP16 add(XSP16, 29)
        CFI Block cfiCond37 Using cfiCommon0
        CFI (cfiCond37) NoFunction
        CFI (cfiCond37) Conditional ??CrossCallReturnLabel_110, ??CrossCallReturnLabel_103
        CFI (cfiCond37) DPL0 Frame(CFA_SP, 4)
        CFI (cfiCond37) DPH0 Frame(CFA_SP, 5)
        CFI (cfiCond37) CFA_SP SP+-5
        CFI Block cfiCond38 Using cfiCommon0
        CFI (cfiCond38) NoFunction
        CFI (cfiCond38) Conditional ??CrossCallReturnLabel_110, ??CrossCallReturnLabel_104
        CFI (cfiCond38) R6 load(1, XDATA, add(CFA_XSP16, literal(-10)))
        CFI (cfiCond38) VB load(1, XDATA, add(CFA_XSP16, literal(-9)))
        CFI (cfiCond38) V0 load(1, XDATA, add(CFA_XSP16, literal(-8)))
        CFI (cfiCond38) V1 load(1, XDATA, add(CFA_XSP16, literal(-7)))
        CFI (cfiCond38) R7 load(1, XDATA, add(CFA_XSP16, literal(-6)))
        CFI (cfiCond38) ?RET_LOW load(1, XDATA, add(CFA_XSP16, literal(-5)))
        CFI (cfiCond38) ?RET_HIGH load(1, XDATA, add(CFA_XSP16, literal(-4)))
        CFI (cfiCond38) ?BRET_EXT load(1, XDATA, add(CFA_XSP16, literal(-3)))
        CFI (cfiCond38) DPL0 load(1, XDATA, add(CFA_XSP16, literal(-2)))
        CFI (cfiCond38) DPH0 load(1, XDATA, add(CFA_XSP16, literal(-1)))
        CFI (cfiCond38) CFA_SP SP+0
        CFI (cfiCond38) CFA_XSP16 add(XSP16, 10)
        CFI Block cfiCond39 Using cfiCommon0
        CFI (cfiCond39) NoFunction
        CFI (cfiCond39) Conditional ??CrossCallReturnLabel_105
        CFI (cfiCond39) R6 load(1, XDATA, add(CFA_XSP16, literal(-10)))
        CFI (cfiCond39) VB load(1, XDATA, add(CFA_XSP16, literal(-9)))
        CFI (cfiCond39) V0 load(1, XDATA, add(CFA_XSP16, literal(-8)))
        CFI (cfiCond39) V1 load(1, XDATA, add(CFA_XSP16, literal(-7)))
        CFI (cfiCond39) R7 load(1, XDATA, add(CFA_XSP16, literal(-6)))
        CFI (cfiCond39) ?RET_LOW load(1, XDATA, add(CFA_XSP16, literal(-5)))
        CFI (cfiCond39) ?RET_HIGH load(1, XDATA, add(CFA_XSP16, literal(-4)))
        CFI (cfiCond39) ?BRET_EXT load(1, XDATA, add(CFA_XSP16, literal(-3)))
        CFI (cfiCond39) DPL0 load(1, XDATA, add(CFA_XSP16, literal(-2)))
        CFI (cfiCond39) DPH0 load(1, XDATA, add(CFA_XSP16, literal(-1)))
        CFI (cfiCond39) CFA_SP SP+0
        CFI (cfiCond39) CFA_XSP16 add(XSP16, 14)
        CFI Block cfiCond40 Using cfiCommon0
        CFI (cfiCond40) NoFunction
        CFI (cfiCond40) Conditional ??CrossCallReturnLabel_106
        CFI (cfiCond40) R6 load(1, XDATA, add(CFA_XSP16, literal(-14)))
        CFI (cfiCond40) VB load(1, XDATA, add(CFA_XSP16, literal(-13)))
        CFI (cfiCond40) V0 load(1, XDATA, add(CFA_XSP16, literal(-12)))
        CFI (cfiCond40) V1 load(1, XDATA, add(CFA_XSP16, literal(-11)))
        CFI (cfiCond40) V2 load(1, XDATA, add(CFA_XSP16, literal(-10)))
        CFI (cfiCond40) V3 load(1, XDATA, add(CFA_XSP16, literal(-9)))
        CFI (cfiCond40) V4 load(1, XDATA, add(CFA_XSP16, literal(-8)))
        CFI (cfiCond40) V5 load(1, XDATA, add(CFA_XSP16, literal(-7)))
        CFI (cfiCond40) R7 load(1, XDATA, add(CFA_XSP16, literal(-6)))
        CFI (cfiCond40) ?RET_LOW load(1, XDATA, add(CFA_XSP16, literal(-5)))
        CFI (cfiCond40) ?RET_HIGH load(1, XDATA, add(CFA_XSP16, literal(-4)))
        CFI (cfiCond40) ?BRET_EXT load(1, XDATA, add(CFA_XSP16, literal(-3)))
        CFI (cfiCond40) DPL0 load(1, XDATA, add(CFA_XSP16, literal(-2)))
        CFI (cfiCond40) DPH0 load(1, XDATA, add(CFA_XSP16, literal(-1)))
        CFI (cfiCond40) CFA_SP SP+0
        CFI (cfiCond40) CFA_XSP16 add(XSP16, 19)
        CFI Block cfiCond41 Using cfiCommon0
        CFI (cfiCond41) NoFunction
        CFI (cfiCond41) Conditional ??CrossCallReturnLabel_107
        CFI (cfiCond41) R6 load(1, XDATA, add(CFA_XSP16, literal(-14)))
        CFI (cfiCond41) VB load(1, XDATA, add(CFA_XSP16, literal(-13)))
        CFI (cfiCond41) V0 load(1, XDATA, add(CFA_XSP16, literal(-12)))
        CFI (cfiCond41) V1 load(1, XDATA, add(CFA_XSP16, literal(-11)))
        CFI (cfiCond41) V2 load(1, XDATA, add(CFA_XSP16, literal(-10)))
        CFI (cfiCond41) V3 load(1, XDATA, add(CFA_XSP16, literal(-9)))
        CFI (cfiCond41) V4 load(1, XDATA, add(CFA_XSP16, literal(-8)))
        CFI (cfiCond41) V5 load(1, XDATA, add(CFA_XSP16, literal(-7)))
        CFI (cfiCond41) R7 load(1, XDATA, add(CFA_XSP16, literal(-6)))
        CFI (cfiCond41) ?RET_LOW load(1, XDATA, add(CFA_XSP16, literal(-5)))
        CFI (cfiCond41) ?RET_HIGH load(1, XDATA, add(CFA_XSP16, literal(-4)))
        CFI (cfiCond41) ?BRET_EXT load(1, XDATA, add(CFA_XSP16, literal(-3)))
        CFI (cfiCond41) DPL0 load(1, XDATA, add(CFA_XSP16, literal(-2)))
        CFI (cfiCond41) DPH0 load(1, XDATA, add(CFA_XSP16, literal(-1)))
        CFI (cfiCond41) CFA_SP SP+0
        CFI (cfiCond41) CFA_XSP16 add(XSP16, 19)
        CFI Block cfiPicker42 Using cfiCommon1
        CFI (cfiPicker42) NoFunction
        CFI (cfiPicker42) Picker
        ADD     A,#0x22
        MOV     DPL,A
        RET
        CFI EndBlock cfiCond27
        CFI EndBlock cfiCond28
        CFI EndBlock cfiCond29
        CFI EndBlock cfiCond30
        CFI EndBlock cfiCond31
        CFI EndBlock cfiCond32
        CFI EndBlock cfiCond33
        CFI EndBlock cfiCond34
        CFI EndBlock cfiCond35
        CFI EndBlock cfiCond36
        CFI EndBlock cfiCond37
        CFI EndBlock cfiCond38
        CFI EndBlock cfiCond39
        CFI EndBlock cfiCond40
        CFI EndBlock cfiCond41
        CFI EndBlock cfiPicker42

        RSEG BANKED_CODE:CODE:NOROOT(0)
?Subroutine25:
        CFI Block cfiCond43 Using cfiCommon0
        CFI NoFunction
        CFI Conditional ??CrossCallReturnLabel_32
        CFI R6 load(1, XDATA, add(CFA_XSP16, literal(-14)))
        CFI VB load(1, XDATA, add(CFA_XSP16, literal(-13)))
        CFI V0 load(1, XDATA, add(CFA_XSP16, literal(-12)))
        CFI V1 load(1, XDATA, add(CFA_XSP16, literal(-11)))
        CFI V2 load(1, XDATA, add(CFA_XSP16, literal(-10)))
        CFI V3 load(1, XDATA, add(CFA_XSP16, literal(-9)))
        CFI V4 load(1, XDATA, add(CFA_XSP16, literal(-8)))
        CFI V5 load(1, XDATA, add(CFA_XSP16, literal(-7)))
        CFI R7 load(1, XDATA, add(CFA_XSP16, literal(-6)))
        CFI ?RET_LOW load(1, XDATA, add(CFA_XSP16, literal(-5)))
        CFI ?RET_HIGH load(1, XDATA, add(CFA_XSP16, literal(-4)))
        CFI ?BRET_EXT load(1, XDATA, add(CFA_XSP16, literal(-3)))
        CFI DPL0 load(1, XDATA, add(CFA_XSP16, literal(-2)))
        CFI DPH0 load(1, XDATA, add(CFA_XSP16, literal(-1)))
        CFI CFA_SP SP+0
        CFI CFA_XSP16 add(XSP16, 19)
        CFI Block cfiCond44 Using cfiCommon0
        CFI (cfiCond44) NoFunction
        CFI (cfiCond44) Conditional ??CrossCallReturnLabel_33
        CFI (cfiCond44) R6 load(1, XDATA, add(CFA_XSP16, literal(-10)))
        CFI (cfiCond44) VB load(1, XDATA, add(CFA_XSP16, literal(-9)))
        CFI (cfiCond44) V0 load(1, XDATA, add(CFA_XSP16, literal(-8)))
        CFI (cfiCond44) V1 load(1, XDATA, add(CFA_XSP16, literal(-7)))
        CFI (cfiCond44) R7 load(1, XDATA, add(CFA_XSP16, literal(-6)))
        CFI (cfiCond44) ?RET_LOW load(1, XDATA, add(CFA_XSP16, literal(-5)))
        CFI (cfiCond44) ?RET_HIGH load(1, XDATA, add(CFA_XSP16, literal(-4)))
        CFI (cfiCond44) ?BRET_EXT load(1, XDATA, add(CFA_XSP16, literal(-3)))
        CFI (cfiCond44) DPL0 load(1, XDATA, add(CFA_XSP16, literal(-2)))
        CFI (cfiCond44) DPH0 load(1, XDATA, add(CFA_XSP16, literal(-1)))
        CFI (cfiCond44) CFA_SP SP+0
        CFI (cfiCond44) CFA_XSP16 add(XSP16, 14)
        CFI Block cfiCond45 Using cfiCommon0
        CFI (cfiCond45) NoFunction
        CFI (cfiCond45) Conditional ??CrossCallReturnLabel_34
        CFI (cfiCond45) R6 load(1, XDATA, add(CFA_XSP16, literal(-10)))
        CFI (cfiCond45) VB load(1, XDATA, add(CFA_XSP16, literal(-9)))
        CFI (cfiCond45) V0 load(1, XDATA, add(CFA_XSP16, literal(-8)))
        CFI (cfiCond45) V1 load(1, XDATA, add(CFA_XSP16, literal(-7)))
        CFI (cfiCond45) R7 load(1, XDATA, add(CFA_XSP16, literal(-6)))
        CFI (cfiCond45) ?RET_LOW load(1, XDATA, add(CFA_XSP16, literal(-5)))
        CFI (cfiCond45) ?RET_HIGH load(1, XDATA, add(CFA_XSP16, literal(-4)))
        CFI (cfiCond45) ?BRET_EXT load(1, XDATA, add(CFA_XSP16, literal(-3)))
        CFI (cfiCond45) DPL0 load(1, XDATA, add(CFA_XSP16, literal(-2)))
        CFI (cfiCond45) DPH0 load(1, XDATA, add(CFA_XSP16, literal(-1)))
        CFI (cfiCond45) CFA_SP SP+0
        CFI (cfiCond45) CFA_XSP16 add(XSP16, 14)
        CFI Block cfiPicker46 Using cfiCommon1
        CFI (cfiPicker46) NoFunction
        CFI (cfiPicker46) Picker
        MOV     R1,#0x0
        LCALL   ??AT_HalUARTWrite?relay
        ; Setup parameters for call to function AT_HalUARTWrite
        ; Setup parameters for call to function AT_HalUARTWrite
        ; Setup parameters for call to function AT_HalUARTWrite
        MOV     R4,#0x1
        MOV     R5,#0x0
        MOV     R2,#`?<Constant ",">` & 0xff
        MOV     R3,#(`?<Constant ",">` >> 8) & 0xff
        MOV     R1,#0x0
        LCALL   ??AT_HalUARTWrite?relay
        RET
        CFI EndBlock cfiCond43
        CFI EndBlock cfiCond44
        CFI EndBlock cfiCond45
        CFI EndBlock cfiPicker46

        RSEG BANKED_CODE:CODE:NOROOT(0)
?Subroutine20:
        CFI Block cfiCond47 Using cfiCommon0
        CFI NoFunction
        CFI Conditional ??CrossCallReturnLabel_47
        CFI R6 load(1, XDATA, add(CFA_XSP16, literal(-10)))
        CFI VB load(1, XDATA, add(CFA_XSP16, literal(-9)))
        CFI V0 load(1, XDATA, add(CFA_XSP16, literal(-8)))
        CFI V1 load(1, XDATA, add(CFA_XSP16, literal(-7)))
        CFI R7 load(1, XDATA, add(CFA_XSP16, literal(-6)))
        CFI ?RET_LOW load(1, XDATA, add(CFA_XSP16, literal(-5)))
        CFI ?RET_HIGH load(1, XDATA, add(CFA_XSP16, literal(-4)))
        CFI ?BRET_EXT load(1, XDATA, add(CFA_XSP16, literal(-3)))
        CFI DPL0 load(1, XDATA, add(CFA_XSP16, literal(-2)))
        CFI DPH0 load(1, XDATA, add(CFA_XSP16, literal(-1)))
        CFI CFA_SP SP+0
        CFI CFA_XSP16 add(XSP16, 14)
        CFI Block cfiCond48 Using cfiCommon0
        CFI (cfiCond48) NoFunction
        CFI (cfiCond48) Conditional ??CrossCallReturnLabel_48
        CFI (cfiCond48) R6 load(1, XDATA, add(CFA_XSP16, literal(-10)))
        CFI (cfiCond48) VB load(1, XDATA, add(CFA_XSP16, literal(-9)))
        CFI (cfiCond48) V0 load(1, XDATA, add(CFA_XSP16, literal(-8)))
        CFI (cfiCond48) V1 load(1, XDATA, add(CFA_XSP16, literal(-7)))
        CFI (cfiCond48) R7 load(1, XDATA, add(CFA_XSP16, literal(-6)))
        CFI (cfiCond48) ?RET_LOW load(1, XDATA, add(CFA_XSP16, literal(-5)))
        CFI (cfiCond48) ?RET_HIGH load(1, XDATA, add(CFA_XSP16, literal(-4)))
        CFI (cfiCond48) ?BRET_EXT load(1, XDATA, add(CFA_XSP16, literal(-3)))
        CFI (cfiCond48) DPL0 load(1, XDATA, add(CFA_XSP16, literal(-2)))
        CFI (cfiCond48) DPH0 load(1, XDATA, add(CFA_XSP16, literal(-1)))
        CFI (cfiCond48) CFA_SP SP+0
        CFI (cfiCond48) CFA_XSP16 add(XSP16, 14)
        CFI Block cfiPicker49 Using cfiCommon1
        CFI (cfiPicker49) NoFunction
        CFI (cfiPicker49) Picker
        MOV     R1,#0x0
        LCALL   ??AT_HalUARTWrite?relay
        CFI EndBlock cfiCond47
        CFI EndBlock cfiCond48
        CFI EndBlock cfiPicker49
        REQUIRE ??Subroutine40_0
        ; // Fall through to label ??Subroutine40_0

        RSEG BANKED_CODE:CODE:NOROOT(0)
??Subroutine40_0:
        CFI Block cfiCond50 Using cfiCommon0
        CFI NoFunction
        CFI Conditional ??CrossCallReturnLabel_51
        CFI R6 load(1, XDATA, add(CFA_XSP16, literal(-10)))
        CFI VB load(1, XDATA, add(CFA_XSP16, literal(-9)))
        CFI V0 load(1, XDATA, add(CFA_XSP16, literal(-8)))
        CFI V1 load(1, XDATA, add(CFA_XSP16, literal(-7)))
        CFI R7 load(1, XDATA, add(CFA_XSP16, literal(-6)))
        CFI ?RET_LOW load(1, XDATA, add(CFA_XSP16, literal(-5)))
        CFI ?RET_HIGH load(1, XDATA, add(CFA_XSP16, literal(-4)))
        CFI ?BRET_EXT load(1, XDATA, add(CFA_XSP16, literal(-3)))
        CFI DPL0 load(1, XDATA, add(CFA_XSP16, literal(-2)))
        CFI DPH0 load(1, XDATA, add(CFA_XSP16, literal(-1)))
        CFI CFA_SP SP+0
        CFI CFA_XSP16 add(XSP16, 14)
        CFI Block cfiCond51 Using cfiCommon0
        CFI (cfiCond51) NoFunction
        CFI (cfiCond51) Conditional ??CrossCallReturnLabel_52
        CFI (cfiCond51) R6 load(1, XDATA, add(CFA_XSP16, literal(-16)))
        CFI (cfiCond51) VB load(1, XDATA, add(CFA_XSP16, literal(-15)))
        CFI (cfiCond51) V0 load(1, XDATA, add(CFA_XSP16, literal(-14)))
        CFI (cfiCond51) V1 load(1, XDATA, add(CFA_XSP16, literal(-13)))
        CFI (cfiCond51) V2 load(1, XDATA, add(CFA_XSP16, literal(-12)))
        CFI (cfiCond51) V3 load(1, XDATA, add(CFA_XSP16, literal(-11)))
        CFI (cfiCond51) V4 load(1, XDATA, add(CFA_XSP16, literal(-10)))
        CFI (cfiCond51) V5 load(1, XDATA, add(CFA_XSP16, literal(-9)))
        CFI (cfiCond51) V6 load(1, XDATA, add(CFA_XSP16, literal(-8)))
        CFI (cfiCond51) V7 load(1, XDATA, add(CFA_XSP16, literal(-7)))
        CFI (cfiCond51) R7 load(1, XDATA, add(CFA_XSP16, literal(-6)))
        CFI (cfiCond51) ?RET_LOW load(1, XDATA, add(CFA_XSP16, literal(-5)))
        CFI (cfiCond51) ?RET_HIGH load(1, XDATA, add(CFA_XSP16, literal(-4)))
        CFI (cfiCond51) ?BRET_EXT load(1, XDATA, add(CFA_XSP16, literal(-3)))
        CFI (cfiCond51) DPL0 load(1, XDATA, add(CFA_XSP16, literal(-2)))
        CFI (cfiCond51) DPH0 load(1, XDATA, add(CFA_XSP16, literal(-1)))
        CFI (cfiCond51) CFA_SP SP+0
        CFI (cfiCond51) CFA_XSP16 add(XSP16, 16)
        CFI Block cfiCond52 Using cfiCommon0
        CFI (cfiCond52) NoFunction
        CFI (cfiCond52) Conditional ??CrossCallReturnLabel_47
        CFI (cfiCond52) R6 load(1, XDATA, add(CFA_XSP16, literal(-10)))
        CFI (cfiCond52) VB load(1, XDATA, add(CFA_XSP16, literal(-9)))
        CFI (cfiCond52) V0 load(1, XDATA, add(CFA_XSP16, literal(-8)))
        CFI (cfiCond52) V1 load(1, XDATA, add(CFA_XSP16, literal(-7)))
        CFI (cfiCond52) R7 load(1, XDATA, add(CFA_XSP16, literal(-6)))
        CFI (cfiCond52) ?RET_LOW load(1, XDATA, add(CFA_XSP16, literal(-5)))
        CFI (cfiCond52) ?RET_HIGH load(1, XDATA, add(CFA_XSP16, literal(-4)))
        CFI (cfiCond52) ?BRET_EXT load(1, XDATA, add(CFA_XSP16, literal(-3)))
        CFI (cfiCond52) DPL0 load(1, XDATA, add(CFA_XSP16, literal(-2)))
        CFI (cfiCond52) DPH0 load(1, XDATA, add(CFA_XSP16, literal(-1)))
        CFI (cfiCond52) CFA_SP SP+0
        CFI (cfiCond52) CFA_XSP16 add(XSP16, 14)
        CFI Block cfiCond53 Using cfiCommon0
        CFI (cfiCond53) NoFunction
        CFI (cfiCond53) Conditional ??CrossCallReturnLabel_48
        CFI (cfiCond53) R6 load(1, XDATA, add(CFA_XSP16, literal(-10)))
        CFI (cfiCond53) VB load(1, XDATA, add(CFA_XSP16, literal(-9)))
        CFI (cfiCond53) V0 load(1, XDATA, add(CFA_XSP16, literal(-8)))
        CFI (cfiCond53) V1 load(1, XDATA, add(CFA_XSP16, literal(-7)))
        CFI (cfiCond53) R7 load(1, XDATA, add(CFA_XSP16, literal(-6)))
        CFI (cfiCond53) ?RET_LOW load(1, XDATA, add(CFA_XSP16, literal(-5)))
        CFI (cfiCond53) ?RET_HIGH load(1, XDATA, add(CFA_XSP16, literal(-4)))
        CFI (cfiCond53) ?BRET_EXT load(1, XDATA, add(CFA_XSP16, literal(-3)))
        CFI (cfiCond53) DPL0 load(1, XDATA, add(CFA_XSP16, literal(-2)))
        CFI (cfiCond53) DPH0 load(1, XDATA, add(CFA_XSP16, literal(-1)))
        CFI (cfiCond53) CFA_SP SP+0
        CFI (cfiCond53) CFA_XSP16 add(XSP16, 14)
        CFI Block cfiPicker54 Using cfiCommon1
        CFI (cfiPicker54) NoFunction
        CFI (cfiPicker54) Picker
        MOV     A,R6
        ADD     A,#0xe
        MOV     DPL,A
        MOV     A,R7
        CFI EndBlock cfiCond50
        CFI EndBlock cfiCond51
        CFI EndBlock cfiCond52
        CFI EndBlock cfiCond53
        CFI EndBlock cfiPicker54
        REQUIRE ??Subroutine41_0
        ; // Fall through to label ??Subroutine41_0

        RSEG BANKED_CODE:CODE:NOROOT(0)
??Subroutine41_0:
        CFI Block cfiCond55 Using cfiCommon0
        CFI NoFunction
        CFI Conditional ??CrossCallReturnLabel_49
        CFI R6 load(1, XDATA, add(CFA_XSP16, literal(-14)))
        CFI VB load(1, XDATA, add(CFA_XSP16, literal(-13)))
        CFI V0 load(1, XDATA, add(CFA_XSP16, literal(-12)))
        CFI V1 load(1, XDATA, add(CFA_XSP16, literal(-11)))
        CFI V2 load(1, XDATA, add(CFA_XSP16, literal(-10)))
        CFI V3 load(1, XDATA, add(CFA_XSP16, literal(-9)))
        CFI V4 load(1, XDATA, add(CFA_XSP16, literal(-8)))
        CFI V5 load(1, XDATA, add(CFA_XSP16, literal(-7)))
        CFI R7 load(1, XDATA, add(CFA_XSP16, literal(-6)))
        CFI ?RET_LOW load(1, XDATA, add(CFA_XSP16, literal(-5)))
        CFI ?RET_HIGH load(1, XDATA, add(CFA_XSP16, literal(-4)))
        CFI ?BRET_EXT load(1, XDATA, add(CFA_XSP16, literal(-3)))
        CFI DPL0 load(1, XDATA, add(CFA_XSP16, literal(-2)))
        CFI DPH0 load(1, XDATA, add(CFA_XSP16, literal(-1)))
        CFI CFA_SP SP+0
        CFI CFA_XSP16 add(XSP16, 19)
        CFI Block cfiCond56 Using cfiCommon0
        CFI (cfiCond56) NoFunction
        CFI (cfiCond56) Conditional ??CrossCallReturnLabel_50
        CFI (cfiCond56) R6 load(1, XDATA, add(CFA_XSP16, literal(-12)))
        CFI (cfiCond56) VB load(1, XDATA, add(CFA_XSP16, literal(-11)))
        CFI (cfiCond56) V0 load(1, XDATA, add(CFA_XSP16, literal(-10)))
        CFI (cfiCond56) V1 load(1, XDATA, add(CFA_XSP16, literal(-9)))
        CFI (cfiCond56) V2 load(1, XDATA, add(CFA_XSP16, literal(-8)))
        CFI (cfiCond56) V3 load(1, XDATA, add(CFA_XSP16, literal(-7)))
        CFI (cfiCond56) R7 load(1, XDATA, add(CFA_XSP16, literal(-6)))
        CFI (cfiCond56) ?RET_LOW load(1, XDATA, add(CFA_XSP16, literal(-5)))
        CFI (cfiCond56) ?RET_HIGH load(1, XDATA, add(CFA_XSP16, literal(-4)))
        CFI (cfiCond56) ?BRET_EXT load(1, XDATA, add(CFA_XSP16, literal(-3)))
        CFI (cfiCond56) DPL0 load(1, XDATA, add(CFA_XSP16, literal(-2)))
        CFI (cfiCond56) DPH0 load(1, XDATA, add(CFA_XSP16, literal(-1)))
        CFI (cfiCond56) CFA_SP SP+0
        CFI (cfiCond56) CFA_XSP16 add(XSP16, 12)
        CFI Block cfiCond57 Using cfiCommon0
        CFI (cfiCond57) NoFunction
        CFI (cfiCond57) Conditional ??CrossCallReturnLabel_51
        CFI (cfiCond57) R6 load(1, XDATA, add(CFA_XSP16, literal(-10)))
        CFI (cfiCond57) VB load(1, XDATA, add(CFA_XSP16, literal(-9)))
        CFI (cfiCond57) V0 load(1, XDATA, add(CFA_XSP16, literal(-8)))
        CFI (cfiCond57) V1 load(1, XDATA, add(CFA_XSP16, literal(-7)))
        CFI (cfiCond57) R7 load(1, XDATA, add(CFA_XSP16, literal(-6)))
        CFI (cfiCond57) ?RET_LOW load(1, XDATA, add(CFA_XSP16, literal(-5)))
        CFI (cfiCond57) ?RET_HIGH load(1, XDATA, add(CFA_XSP16, literal(-4)))
        CFI (cfiCond57) ?BRET_EXT load(1, XDATA, add(CFA_XSP16, literal(-3)))
        CFI (cfiCond57) DPL0 load(1, XDATA, add(CFA_XSP16, literal(-2)))
        CFI (cfiCond57) DPH0 load(1, XDATA, add(CFA_XSP16, literal(-1)))
        CFI (cfiCond57) CFA_SP SP+0
        CFI (cfiCond57) CFA_XSP16 add(XSP16, 14)
        CFI Block cfiCond58 Using cfiCommon0
        CFI (cfiCond58) NoFunction
        CFI (cfiCond58) Conditional ??CrossCallReturnLabel_52
        CFI (cfiCond58) R6 load(1, XDATA, add(CFA_XSP16, literal(-16)))
        CFI (cfiCond58) VB load(1, XDATA, add(CFA_XSP16, literal(-15)))
        CFI (cfiCond58) V0 load(1, XDATA, add(CFA_XSP16, literal(-14)))
        CFI (cfiCond58) V1 load(1, XDATA, add(CFA_XSP16, literal(-13)))
        CFI (cfiCond58) V2 load(1, XDATA, add(CFA_XSP16, literal(-12)))
        CFI (cfiCond58) V3 load(1, XDATA, add(CFA_XSP16, literal(-11)))
        CFI (cfiCond58) V4 load(1, XDATA, add(CFA_XSP16, literal(-10)))
        CFI (cfiCond58) V5 load(1, XDATA, add(CFA_XSP16, literal(-9)))
        CFI (cfiCond58) V6 load(1, XDATA, add(CFA_XSP16, literal(-8)))
        CFI (cfiCond58) V7 load(1, XDATA, add(CFA_XSP16, literal(-7)))
        CFI (cfiCond58) R7 load(1, XDATA, add(CFA_XSP16, literal(-6)))
        CFI (cfiCond58) ?RET_LOW load(1, XDATA, add(CFA_XSP16, literal(-5)))
        CFI (cfiCond58) ?RET_HIGH load(1, XDATA, add(CFA_XSP16, literal(-4)))
        CFI (cfiCond58) ?BRET_EXT load(1, XDATA, add(CFA_XSP16, literal(-3)))
        CFI (cfiCond58) DPL0 load(1, XDATA, add(CFA_XSP16, literal(-2)))
        CFI (cfiCond58) DPH0 load(1, XDATA, add(CFA_XSP16, literal(-1)))
        CFI (cfiCond58) CFA_SP SP+0
        CFI (cfiCond58) CFA_XSP16 add(XSP16, 16)
        CFI Block cfiCond59 Using cfiCommon0
        CFI (cfiCond59) NoFunction
        CFI (cfiCond59) Conditional ??CrossCallReturnLabel_47
        CFI (cfiCond59) R6 load(1, XDATA, add(CFA_XSP16, literal(-10)))
        CFI (cfiCond59) VB load(1, XDATA, add(CFA_XSP16, literal(-9)))
        CFI (cfiCond59) V0 load(1, XDATA, add(CFA_XSP16, literal(-8)))
        CFI (cfiCond59) V1 load(1, XDATA, add(CFA_XSP16, literal(-7)))
        CFI (cfiCond59) R7 load(1, XDATA, add(CFA_XSP16, literal(-6)))
        CFI (cfiCond59) ?RET_LOW load(1, XDATA, add(CFA_XSP16, literal(-5)))
        CFI (cfiCond59) ?RET_HIGH load(1, XDATA, add(CFA_XSP16, literal(-4)))
        CFI (cfiCond59) ?BRET_EXT load(1, XDATA, add(CFA_XSP16, literal(-3)))
        CFI (cfiCond59) DPL0 load(1, XDATA, add(CFA_XSP16, literal(-2)))
        CFI (cfiCond59) DPH0 load(1, XDATA, add(CFA_XSP16, literal(-1)))
        CFI (cfiCond59) CFA_SP SP+0
        CFI (cfiCond59) CFA_XSP16 add(XSP16, 14)
        CFI Block cfiCond60 Using cfiCommon0
        CFI (cfiCond60) NoFunction
        CFI (cfiCond60) Conditional ??CrossCallReturnLabel_48
        CFI (cfiCond60) R6 load(1, XDATA, add(CFA_XSP16, literal(-10)))
        CFI (cfiCond60) VB load(1, XDATA, add(CFA_XSP16, literal(-9)))
        CFI (cfiCond60) V0 load(1, XDATA, add(CFA_XSP16, literal(-8)))
        CFI (cfiCond60) V1 load(1, XDATA, add(CFA_XSP16, literal(-7)))
        CFI (cfiCond60) R7 load(1, XDATA, add(CFA_XSP16, literal(-6)))
        CFI (cfiCond60) ?RET_LOW load(1, XDATA, add(CFA_XSP16, literal(-5)))
        CFI (cfiCond60) ?RET_HIGH load(1, XDATA, add(CFA_XSP16, literal(-4)))
        CFI (cfiCond60) ?BRET_EXT load(1, XDATA, add(CFA_XSP16, literal(-3)))
        CFI (cfiCond60) DPL0 load(1, XDATA, add(CFA_XSP16, literal(-2)))
        CFI (cfiCond60) DPH0 load(1, XDATA, add(CFA_XSP16, literal(-1)))
        CFI (cfiCond60) CFA_SP SP+0
        CFI (cfiCond60) CFA_XSP16 add(XSP16, 14)
        CFI Block cfiPicker61 Using cfiCommon1
        CFI (cfiPicker61) NoFunction
        CFI (cfiPicker61) Picker
        LCALL   ??Subroutine46_0 & 0xFFFF
??CrossCallReturnLabel_96:
        MOVX    A,@DPTR
        XRL     A,#0x2
        RET
        CFI EndBlock cfiCond55
        CFI EndBlock cfiCond56
        CFI EndBlock cfiCond57
        CFI EndBlock cfiCond58
        CFI EndBlock cfiCond59
        CFI EndBlock cfiCond60
        CFI EndBlock cfiPicker61

        RSEG BANKED_CODE:CODE:NOROOT(0)
?Subroutine14:
        CFI Block cfiCond62 Using cfiCommon0
        CFI NoFunction
        CFI Conditional ??CrossCallReturnLabel_18
        CFI R6 load(1, XDATA, add(CFA_XSP16, literal(-14)))
        CFI VB load(1, XDATA, add(CFA_XSP16, literal(-13)))
        CFI V0 load(1, XDATA, add(CFA_XSP16, literal(-12)))
        CFI V1 load(1, XDATA, add(CFA_XSP16, literal(-11)))
        CFI V2 load(1, XDATA, add(CFA_XSP16, literal(-10)))
        CFI V3 load(1, XDATA, add(CFA_XSP16, literal(-9)))
        CFI V4 load(1, XDATA, add(CFA_XSP16, literal(-8)))
        CFI V5 load(1, XDATA, add(CFA_XSP16, literal(-7)))
        CFI R7 load(1, XDATA, add(CFA_XSP16, literal(-6)))
        CFI ?RET_LOW load(1, XDATA, add(CFA_XSP16, literal(-5)))
        CFI ?RET_HIGH load(1, XDATA, add(CFA_XSP16, literal(-4)))
        CFI ?BRET_EXT load(1, XDATA, add(CFA_XSP16, literal(-3)))
        CFI DPL0 load(1, XDATA, add(CFA_XSP16, literal(-2)))
        CFI DPH0 load(1, XDATA, add(CFA_XSP16, literal(-1)))
        CFI CFA_SP SP+0
        CFI CFA_XSP16 add(XSP16, 19)
        CFI Block cfiCond63 Using cfiCommon0
        CFI (cfiCond63) NoFunction
        CFI (cfiCond63) Conditional ??CrossCallReturnLabel_19
        CFI (cfiCond63) R6 load(1, XDATA, add(CFA_XSP16, literal(-10)))
        CFI (cfiCond63) VB load(1, XDATA, add(CFA_XSP16, literal(-9)))
        CFI (cfiCond63) V0 load(1, XDATA, add(CFA_XSP16, literal(-8)))
        CFI (cfiCond63) V1 load(1, XDATA, add(CFA_XSP16, literal(-7)))
        CFI (cfiCond63) R7 load(1, XDATA, add(CFA_XSP16, literal(-6)))
        CFI (cfiCond63) ?RET_LOW load(1, XDATA, add(CFA_XSP16, literal(-5)))
        CFI (cfiCond63) ?RET_HIGH load(1, XDATA, add(CFA_XSP16, literal(-4)))
        CFI (cfiCond63) ?BRET_EXT load(1, XDATA, add(CFA_XSP16, literal(-3)))
        CFI (cfiCond63) DPL0 load(1, XDATA, add(CFA_XSP16, literal(-2)))
        CFI (cfiCond63) DPH0 load(1, XDATA, add(CFA_XSP16, literal(-1)))
        CFI (cfiCond63) CFA_SP SP+0
        CFI (cfiCond63) CFA_XSP16 add(XSP16, 14)
        CFI Block cfiPicker64 Using cfiCommon1
        CFI (cfiPicker64) NoFunction
        CFI (cfiPicker64) Picker
        LCALL   ?Subroutine34 & 0xFFFF
??CrossCallReturnLabel_55:
        MOV     DPL,R0
        MOV     DPH,R1
        INC     DPTR
        INC     DPTR
        RET
        CFI EndBlock cfiCond62
        CFI EndBlock cfiCond63
        CFI EndBlock cfiPicker64

        RSEG BANKED_CODE:CODE:NOROOT(0)
?Subroutine34:
        CFI Block cfiCond65 Using cfiCommon0
        CFI NoFunction
        CFI Conditional ??CrossCallReturnLabel_55, ??CrossCallReturnLabel_18
        CFI R6 load(1, XDATA, add(CFA_XSP16, literal(-14)))
        CFI VB load(1, XDATA, add(CFA_XSP16, literal(-13)))
        CFI V0 load(1, XDATA, add(CFA_XSP16, literal(-12)))
        CFI V1 load(1, XDATA, add(CFA_XSP16, literal(-11)))
        CFI V2 load(1, XDATA, add(CFA_XSP16, literal(-10)))
        CFI V3 load(1, XDATA, add(CFA_XSP16, literal(-9)))
        CFI V4 load(1, XDATA, add(CFA_XSP16, literal(-8)))
        CFI V5 load(1, XDATA, add(CFA_XSP16, literal(-7)))
        CFI R7 load(1, XDATA, add(CFA_XSP16, literal(-6)))
        CFI ?RET_LOW load(1, XDATA, add(CFA_XSP16, literal(-5)))
        CFI ?RET_HIGH load(1, XDATA, add(CFA_XSP16, literal(-4)))
        CFI ?BRET_EXT load(1, XDATA, add(CFA_XSP16, literal(-3)))
        CFI DPL0 load(1, XDATA, add(CFA_XSP16, literal(-2)))
        CFI DPH0 load(1, XDATA, add(CFA_XSP16, literal(-1)))
        CFI CFA_SP SP+0
        CFI CFA_XSP16 add(XSP16, 19)
        CFI Block cfiCond66 Using cfiCommon0
        CFI (cfiCond66) NoFunction
        CFI (cfiCond66) Conditional ??CrossCallReturnLabel_55, ??CrossCallReturnLabel_19
        CFI (cfiCond66) R6 load(1, XDATA, add(CFA_XSP16, literal(-10)))
        CFI (cfiCond66) VB load(1, XDATA, add(CFA_XSP16, literal(-9)))
        CFI (cfiCond66) V0 load(1, XDATA, add(CFA_XSP16, literal(-8)))
        CFI (cfiCond66) V1 load(1, XDATA, add(CFA_XSP16, literal(-7)))
        CFI (cfiCond66) R7 load(1, XDATA, add(CFA_XSP16, literal(-6)))
        CFI (cfiCond66) ?RET_LOW load(1, XDATA, add(CFA_XSP16, literal(-5)))
        CFI (cfiCond66) ?RET_HIGH load(1, XDATA, add(CFA_XSP16, literal(-4)))
        CFI (cfiCond66) ?BRET_EXT load(1, XDATA, add(CFA_XSP16, literal(-3)))
        CFI (cfiCond66) DPL0 load(1, XDATA, add(CFA_XSP16, literal(-2)))
        CFI (cfiCond66) DPH0 load(1, XDATA, add(CFA_XSP16, literal(-1)))
        CFI (cfiCond66) CFA_SP SP+0
        CFI (cfiCond66) CFA_XSP16 add(XSP16, 14)
        CFI Block cfiCond67 Using cfiCommon0
        CFI (cfiCond67) NoFunction
        CFI (cfiCond67) Conditional ??CrossCallReturnLabel_56, ??CrossCallReturnLabel_22
        CFI (cfiCond67) R6 load(1, XDATA, add(CFA_XSP16, literal(-14)))
        CFI (cfiCond67) VB load(1, XDATA, add(CFA_XSP16, literal(-13)))
        CFI (cfiCond67) V0 load(1, XDATA, add(CFA_XSP16, literal(-12)))
        CFI (cfiCond67) V1 load(1, XDATA, add(CFA_XSP16, literal(-11)))
        CFI (cfiCond67) V2 load(1, XDATA, add(CFA_XSP16, literal(-10)))
        CFI (cfiCond67) V3 load(1, XDATA, add(CFA_XSP16, literal(-9)))
        CFI (cfiCond67) V4 load(1, XDATA, add(CFA_XSP16, literal(-8)))
        CFI (cfiCond67) V5 load(1, XDATA, add(CFA_XSP16, literal(-7)))
        CFI (cfiCond67) R7 load(1, XDATA, add(CFA_XSP16, literal(-6)))
        CFI (cfiCond67) ?RET_LOW load(1, XDATA, add(CFA_XSP16, literal(-5)))
        CFI (cfiCond67) ?RET_HIGH load(1, XDATA, add(CFA_XSP16, literal(-4)))
        CFI (cfiCond67) ?BRET_EXT load(1, XDATA, add(CFA_XSP16, literal(-3)))
        CFI (cfiCond67) DPL0 load(1, XDATA, add(CFA_XSP16, literal(-2)))
        CFI (cfiCond67) DPH0 load(1, XDATA, add(CFA_XSP16, literal(-1)))
        CFI (cfiCond67) CFA_SP SP+0
        CFI (cfiCond67) CFA_XSP16 add(XSP16, 19)
        CFI Block cfiCond68 Using cfiCommon0
        CFI (cfiCond68) NoFunction
        CFI (cfiCond68) Conditional ??CrossCallReturnLabel_56, ??CrossCallReturnLabel_23
        CFI (cfiCond68) R6 load(1, XDATA, add(CFA_XSP16, literal(-10)))
        CFI (cfiCond68) VB load(1, XDATA, add(CFA_XSP16, literal(-9)))
        CFI (cfiCond68) V0 load(1, XDATA, add(CFA_XSP16, literal(-8)))
        CFI (cfiCond68) V1 load(1, XDATA, add(CFA_XSP16, literal(-7)))
        CFI (cfiCond68) R7 load(1, XDATA, add(CFA_XSP16, literal(-6)))
        CFI (cfiCond68) ?RET_LOW load(1, XDATA, add(CFA_XSP16, literal(-5)))
        CFI (cfiCond68) ?RET_HIGH load(1, XDATA, add(CFA_XSP16, literal(-4)))
        CFI (cfiCond68) ?BRET_EXT load(1, XDATA, add(CFA_XSP16, literal(-3)))
        CFI (cfiCond68) DPL0 load(1, XDATA, add(CFA_XSP16, literal(-2)))
        CFI (cfiCond68) DPH0 load(1, XDATA, add(CFA_XSP16, literal(-1)))
        CFI (cfiCond68) CFA_SP SP+0
        CFI (cfiCond68) CFA_XSP16 add(XSP16, 10)
        CFI Block cfiPicker69 Using cfiCommon1
        CFI (cfiPicker69) NoFunction
        CFI (cfiPicker69) Picker
        ADDC    A,#0x0
        CFI EndBlock cfiCond65
        CFI EndBlock cfiCond66
        CFI EndBlock cfiCond67
        CFI EndBlock cfiCond68
        CFI EndBlock cfiPicker69
        REQUIRE ??Subroutine42_0
        ; // Fall through to label ??Subroutine42_0

        RSEG BANKED_CODE:CODE:NOROOT(0)
??Subroutine42_0:
        CFI Block cfiCond70 Using cfiCommon0
        CFI NoFunction
        CFI Conditional ??CrossCallReturnLabel_54, ??CrossCallReturnLabel_10
        CFI R6 load(1, XDATA, add(CFA_XSP16, literal(-14)))
        CFI VB load(1, XDATA, add(CFA_XSP16, literal(-13)))
        CFI V0 load(1, XDATA, add(CFA_XSP16, literal(-12)))
        CFI V1 load(1, XDATA, add(CFA_XSP16, literal(-11)))
        CFI V2 load(1, XDATA, add(CFA_XSP16, literal(-10)))
        CFI V3 load(1, XDATA, add(CFA_XSP16, literal(-9)))
        CFI V4 load(1, XDATA, add(CFA_XSP16, literal(-8)))
        CFI V5 load(1, XDATA, add(CFA_XSP16, literal(-7)))
        CFI R7 load(1, XDATA, add(CFA_XSP16, literal(-6)))
        CFI ?RET_LOW load(1, XDATA, add(CFA_XSP16, literal(-5)))
        CFI ?RET_HIGH load(1, XDATA, add(CFA_XSP16, literal(-4)))
        CFI ?BRET_EXT load(1, XDATA, add(CFA_XSP16, literal(-3)))
        CFI DPL0 load(1, XDATA, add(CFA_XSP16, literal(-2)))
        CFI DPH0 load(1, XDATA, add(CFA_XSP16, literal(-1)))
        CFI CFA_SP SP+0
        CFI CFA_XSP16 add(XSP16, 19)
        CFI Block cfiCond71 Using cfiCommon0
        CFI (cfiCond71) NoFunction
        CFI (cfiCond71) Conditional ??CrossCallReturnLabel_54, ??CrossCallReturnLabel_11
        CFI (cfiCond71) R6 load(1, XDATA, add(CFA_XSP16, literal(-14)))
        CFI (cfiCond71) VB load(1, XDATA, add(CFA_XSP16, literal(-13)))
        CFI (cfiCond71) V0 load(1, XDATA, add(CFA_XSP16, literal(-12)))
        CFI (cfiCond71) V1 load(1, XDATA, add(CFA_XSP16, literal(-11)))
        CFI (cfiCond71) V2 load(1, XDATA, add(CFA_XSP16, literal(-10)))
        CFI (cfiCond71) V3 load(1, XDATA, add(CFA_XSP16, literal(-9)))
        CFI (cfiCond71) V4 load(1, XDATA, add(CFA_XSP16, literal(-8)))
        CFI (cfiCond71) V5 load(1, XDATA, add(CFA_XSP16, literal(-7)))
        CFI (cfiCond71) R7 load(1, XDATA, add(CFA_XSP16, literal(-6)))
        CFI (cfiCond71) ?RET_LOW load(1, XDATA, add(CFA_XSP16, literal(-5)))
        CFI (cfiCond71) ?RET_HIGH load(1, XDATA, add(CFA_XSP16, literal(-4)))
        CFI (cfiCond71) ?BRET_EXT load(1, XDATA, add(CFA_XSP16, literal(-3)))
        CFI (cfiCond71) DPL0 load(1, XDATA, add(CFA_XSP16, literal(-2)))
        CFI (cfiCond71) DPH0 load(1, XDATA, add(CFA_XSP16, literal(-1)))
        CFI (cfiCond71) CFA_SP SP+0
        CFI (cfiCond71) CFA_XSP16 add(XSP16, 19)
        CFI Block cfiCond72 Using cfiCommon0
        CFI (cfiCond72) NoFunction
        CFI (cfiCond72) Conditional ??CrossCallReturnLabel_55, ??CrossCallReturnLabel_18
        CFI (cfiCond72) R6 load(1, XDATA, add(CFA_XSP16, literal(-14)))
        CFI (cfiCond72) VB load(1, XDATA, add(CFA_XSP16, literal(-13)))
        CFI (cfiCond72) V0 load(1, XDATA, add(CFA_XSP16, literal(-12)))
        CFI (cfiCond72) V1 load(1, XDATA, add(CFA_XSP16, literal(-11)))
        CFI (cfiCond72) V2 load(1, XDATA, add(CFA_XSP16, literal(-10)))
        CFI (cfiCond72) V3 load(1, XDATA, add(CFA_XSP16, literal(-9)))
        CFI (cfiCond72) V4 load(1, XDATA, add(CFA_XSP16, literal(-8)))
        CFI (cfiCond72) V5 load(1, XDATA, add(CFA_XSP16, literal(-7)))
        CFI (cfiCond72) R7 load(1, XDATA, add(CFA_XSP16, literal(-6)))
        CFI (cfiCond72) ?RET_LOW load(1, XDATA, add(CFA_XSP16, literal(-5)))
        CFI (cfiCond72) ?RET_HIGH load(1, XDATA, add(CFA_XSP16, literal(-4)))
        CFI (cfiCond72) ?BRET_EXT load(1, XDATA, add(CFA_XSP16, literal(-3)))
        CFI (cfiCond72) DPL0 load(1, XDATA, add(CFA_XSP16, literal(-2)))
        CFI (cfiCond72) DPH0 load(1, XDATA, add(CFA_XSP16, literal(-1)))
        CFI (cfiCond72) CFA_SP SP+0
        CFI (cfiCond72) CFA_XSP16 add(XSP16, 19)
        CFI Block cfiCond73 Using cfiCommon0
        CFI (cfiCond73) NoFunction
        CFI (cfiCond73) Conditional ??CrossCallReturnLabel_55, ??CrossCallReturnLabel_19
        CFI (cfiCond73) R6 load(1, XDATA, add(CFA_XSP16, literal(-10)))
        CFI (cfiCond73) VB load(1, XDATA, add(CFA_XSP16, literal(-9)))
        CFI (cfiCond73) V0 load(1, XDATA, add(CFA_XSP16, literal(-8)))
        CFI (cfiCond73) V1 load(1, XDATA, add(CFA_XSP16, literal(-7)))
        CFI (cfiCond73) R7 load(1, XDATA, add(CFA_XSP16, literal(-6)))
        CFI (cfiCond73) ?RET_LOW load(1, XDATA, add(CFA_XSP16, literal(-5)))
        CFI (cfiCond73) ?RET_HIGH load(1, XDATA, add(CFA_XSP16, literal(-4)))
        CFI (cfiCond73) ?BRET_EXT load(1, XDATA, add(CFA_XSP16, literal(-3)))
        CFI (cfiCond73) DPL0 load(1, XDATA, add(CFA_XSP16, literal(-2)))
        CFI (cfiCond73) DPH0 load(1, XDATA, add(CFA_XSP16, literal(-1)))
        CFI (cfiCond73) CFA_SP SP+0
        CFI (cfiCond73) CFA_XSP16 add(XSP16, 14)
        CFI Block cfiCond74 Using cfiCommon0
        CFI (cfiCond74) NoFunction
        CFI (cfiCond74) Conditional ??CrossCallReturnLabel_56, ??CrossCallReturnLabel_22
        CFI (cfiCond74) R6 load(1, XDATA, add(CFA_XSP16, literal(-14)))
        CFI (cfiCond74) VB load(1, XDATA, add(CFA_XSP16, literal(-13)))
        CFI (cfiCond74) V0 load(1, XDATA, add(CFA_XSP16, literal(-12)))
        CFI (cfiCond74) V1 load(1, XDATA, add(CFA_XSP16, literal(-11)))
        CFI (cfiCond74) V2 load(1, XDATA, add(CFA_XSP16, literal(-10)))
        CFI (cfiCond74) V3 load(1, XDATA, add(CFA_XSP16, literal(-9)))
        CFI (cfiCond74) V4 load(1, XDATA, add(CFA_XSP16, literal(-8)))
        CFI (cfiCond74) V5 load(1, XDATA, add(CFA_XSP16, literal(-7)))
        CFI (cfiCond74) R7 load(1, XDATA, add(CFA_XSP16, literal(-6)))
        CFI (cfiCond74) ?RET_LOW load(1, XDATA, add(CFA_XSP16, literal(-5)))
        CFI (cfiCond74) ?RET_HIGH load(1, XDATA, add(CFA_XSP16, literal(-4)))
        CFI (cfiCond74) ?BRET_EXT load(1, XDATA, add(CFA_XSP16, literal(-3)))
        CFI (cfiCond74) DPL0 load(1, XDATA, add(CFA_XSP16, literal(-2)))
        CFI (cfiCond74) DPH0 load(1, XDATA, add(CFA_XSP16, literal(-1)))
        CFI (cfiCond74) CFA_SP SP+0
        CFI (cfiCond74) CFA_XSP16 add(XSP16, 19)
        CFI Block cfiCond75 Using cfiCommon0
        CFI (cfiCond75) NoFunction
        CFI (cfiCond75) Conditional ??CrossCallReturnLabel_56, ??CrossCallReturnLabel_23
        CFI (cfiCond75) R6 load(1, XDATA, add(CFA_XSP16, literal(-10)))
        CFI (cfiCond75) VB load(1, XDATA, add(CFA_XSP16, literal(-9)))
        CFI (cfiCond75) V0 load(1, XDATA, add(CFA_XSP16, literal(-8)))
        CFI (cfiCond75) V1 load(1, XDATA, add(CFA_XSP16, literal(-7)))
        CFI (cfiCond75) R7 load(1, XDATA, add(CFA_XSP16, literal(-6)))
        CFI (cfiCond75) ?RET_LOW load(1, XDATA, add(CFA_XSP16, literal(-5)))
        CFI (cfiCond75) ?RET_HIGH load(1, XDATA, add(CFA_XSP16, literal(-4)))
        CFI (cfiCond75) ?BRET_EXT load(1, XDATA, add(CFA_XSP16, literal(-3)))
        CFI (cfiCond75) DPL0 load(1, XDATA, add(CFA_XSP16, literal(-2)))
        CFI (cfiCond75) DPH0 load(1, XDATA, add(CFA_XSP16, literal(-1)))
        CFI (cfiCond75) CFA_SP SP+0
        CFI (cfiCond75) CFA_XSP16 add(XSP16, 10)
        CFI Block cfiPicker76 Using cfiCommon1
        CFI (cfiPicker76) NoFunction
        CFI (cfiPicker76) Picker
        MOV     DPH,A
        CFI EndBlock cfiCond70
        CFI EndBlock cfiCond71
        CFI EndBlock cfiCond72
        CFI EndBlock cfiCond73
        CFI EndBlock cfiCond74
        CFI EndBlock cfiCond75
        CFI EndBlock cfiPicker76
        REQUIRE ??Subroutine43_0
        ; // Fall through to label ??Subroutine43_0

        RSEG BANKED_CODE:CODE:NOROOT(0)
??Subroutine43_0:
        CFI Block cfiCond77 Using cfiCommon0
        CFI NoFunction
        CFI Conditional ??CrossCallReturnLabel_53
        CFI R6 load(1, XDATA, add(CFA_XSP16, literal(-14)))
        CFI VB load(1, XDATA, add(CFA_XSP16, literal(-13)))
        CFI V0 load(1, XDATA, add(CFA_XSP16, literal(-12)))
        CFI V1 load(1, XDATA, add(CFA_XSP16, literal(-11)))
        CFI V2 load(1, XDATA, add(CFA_XSP16, literal(-10)))
        CFI V3 load(1, XDATA, add(CFA_XSP16, literal(-9)))
        CFI V4 load(1, XDATA, add(CFA_XSP16, literal(-8)))
        CFI V5 load(1, XDATA, add(CFA_XSP16, literal(-7)))
        CFI R7 load(1, XDATA, add(CFA_XSP16, literal(-6)))
        CFI ?RET_LOW load(1, XDATA, add(CFA_XSP16, literal(-5)))
        CFI ?RET_HIGH load(1, XDATA, add(CFA_XSP16, literal(-4)))
        CFI ?BRET_EXT load(1, XDATA, add(CFA_XSP16, literal(-3)))
        CFI DPL0 load(1, XDATA, add(CFA_XSP16, literal(-2)))
        CFI DPH0 load(1, XDATA, add(CFA_XSP16, literal(-1)))
        CFI CFA_SP SP+0
        CFI CFA_XSP16 add(XSP16, 19)
        CFI Block cfiCond78 Using cfiCommon0
        CFI (cfiCond78) NoFunction
        CFI (cfiCond78) Conditional ??CrossCallReturnLabel_54, ??CrossCallReturnLabel_10
        CFI (cfiCond78) R6 load(1, XDATA, add(CFA_XSP16, literal(-14)))
        CFI (cfiCond78) VB load(1, XDATA, add(CFA_XSP16, literal(-13)))
        CFI (cfiCond78) V0 load(1, XDATA, add(CFA_XSP16, literal(-12)))
        CFI (cfiCond78) V1 load(1, XDATA, add(CFA_XSP16, literal(-11)))
        CFI (cfiCond78) V2 load(1, XDATA, add(CFA_XSP16, literal(-10)))
        CFI (cfiCond78) V3 load(1, XDATA, add(CFA_XSP16, literal(-9)))
        CFI (cfiCond78) V4 load(1, XDATA, add(CFA_XSP16, literal(-8)))
        CFI (cfiCond78) V5 load(1, XDATA, add(CFA_XSP16, literal(-7)))
        CFI (cfiCond78) R7 load(1, XDATA, add(CFA_XSP16, literal(-6)))
        CFI (cfiCond78) ?RET_LOW load(1, XDATA, add(CFA_XSP16, literal(-5)))
        CFI (cfiCond78) ?RET_HIGH load(1, XDATA, add(CFA_XSP16, literal(-4)))
        CFI (cfiCond78) ?BRET_EXT load(1, XDATA, add(CFA_XSP16, literal(-3)))
        CFI (cfiCond78) DPL0 load(1, XDATA, add(CFA_XSP16, literal(-2)))
        CFI (cfiCond78) DPH0 load(1, XDATA, add(CFA_XSP16, literal(-1)))
        CFI (cfiCond78) CFA_SP SP+0
        CFI (cfiCond78) CFA_XSP16 add(XSP16, 19)
        CFI Block cfiCond79 Using cfiCommon0
        CFI (cfiCond79) NoFunction
        CFI (cfiCond79) Conditional ??CrossCallReturnLabel_54, ??CrossCallReturnLabel_11
        CFI (cfiCond79) R6 load(1, XDATA, add(CFA_XSP16, literal(-14)))
        CFI (cfiCond79) VB load(1, XDATA, add(CFA_XSP16, literal(-13)))
        CFI (cfiCond79) V0 load(1, XDATA, add(CFA_XSP16, literal(-12)))
        CFI (cfiCond79) V1 load(1, XDATA, add(CFA_XSP16, literal(-11)))
        CFI (cfiCond79) V2 load(1, XDATA, add(CFA_XSP16, literal(-10)))
        CFI (cfiCond79) V3 load(1, XDATA, add(CFA_XSP16, literal(-9)))
        CFI (cfiCond79) V4 load(1, XDATA, add(CFA_XSP16, literal(-8)))
        CFI (cfiCond79) V5 load(1, XDATA, add(CFA_XSP16, literal(-7)))
        CFI (cfiCond79) R7 load(1, XDATA, add(CFA_XSP16, literal(-6)))
        CFI (cfiCond79) ?RET_LOW load(1, XDATA, add(CFA_XSP16, literal(-5)))
        CFI (cfiCond79) ?RET_HIGH load(1, XDATA, add(CFA_XSP16, literal(-4)))
        CFI (cfiCond79) ?BRET_EXT load(1, XDATA, add(CFA_XSP16, literal(-3)))
        CFI (cfiCond79) DPL0 load(1, XDATA, add(CFA_XSP16, literal(-2)))
        CFI (cfiCond79) DPH0 load(1, XDATA, add(CFA_XSP16, literal(-1)))
        CFI (cfiCond79) CFA_SP SP+0
        CFI (cfiCond79) CFA_XSP16 add(XSP16, 19)
        CFI Block cfiCond80 Using cfiCommon0
        CFI (cfiCond80) NoFunction
        CFI (cfiCond80) Conditional ??CrossCallReturnLabel_55, ??CrossCallReturnLabel_18
        CFI (cfiCond80) R6 load(1, XDATA, add(CFA_XSP16, literal(-14)))
        CFI (cfiCond80) VB load(1, XDATA, add(CFA_XSP16, literal(-13)))
        CFI (cfiCond80) V0 load(1, XDATA, add(CFA_XSP16, literal(-12)))
        CFI (cfiCond80) V1 load(1, XDATA, add(CFA_XSP16, literal(-11)))
        CFI (cfiCond80) V2 load(1, XDATA, add(CFA_XSP16, literal(-10)))
        CFI (cfiCond80) V3 load(1, XDATA, add(CFA_XSP16, literal(-9)))
        CFI (cfiCond80) V4 load(1, XDATA, add(CFA_XSP16, literal(-8)))
        CFI (cfiCond80) V5 load(1, XDATA, add(CFA_XSP16, literal(-7)))
        CFI (cfiCond80) R7 load(1, XDATA, add(CFA_XSP16, literal(-6)))
        CFI (cfiCond80) ?RET_LOW load(1, XDATA, add(CFA_XSP16, literal(-5)))
        CFI (cfiCond80) ?RET_HIGH load(1, XDATA, add(CFA_XSP16, literal(-4)))
        CFI (cfiCond80) ?BRET_EXT load(1, XDATA, add(CFA_XSP16, literal(-3)))
        CFI (cfiCond80) DPL0 load(1, XDATA, add(CFA_XSP16, literal(-2)))
        CFI (cfiCond80) DPH0 load(1, XDATA, add(CFA_XSP16, literal(-1)))
        CFI (cfiCond80) CFA_SP SP+0
        CFI (cfiCond80) CFA_XSP16 add(XSP16, 19)
        CFI Block cfiCond81 Using cfiCommon0
        CFI (cfiCond81) NoFunction
        CFI (cfiCond81) Conditional ??CrossCallReturnLabel_55, ??CrossCallReturnLabel_19
        CFI (cfiCond81) R6 load(1, XDATA, add(CFA_XSP16, literal(-10)))
        CFI (cfiCond81) VB load(1, XDATA, add(CFA_XSP16, literal(-9)))
        CFI (cfiCond81) V0 load(1, XDATA, add(CFA_XSP16, literal(-8)))
        CFI (cfiCond81) V1 load(1, XDATA, add(CFA_XSP16, literal(-7)))
        CFI (cfiCond81) R7 load(1, XDATA, add(CFA_XSP16, literal(-6)))
        CFI (cfiCond81) ?RET_LOW load(1, XDATA, add(CFA_XSP16, literal(-5)))
        CFI (cfiCond81) ?RET_HIGH load(1, XDATA, add(CFA_XSP16, literal(-4)))
        CFI (cfiCond81) ?BRET_EXT load(1, XDATA, add(CFA_XSP16, literal(-3)))
        CFI (cfiCond81) DPL0 load(1, XDATA, add(CFA_XSP16, literal(-2)))
        CFI (cfiCond81) DPH0 load(1, XDATA, add(CFA_XSP16, literal(-1)))
        CFI (cfiCond81) CFA_SP SP+0
        CFI (cfiCond81) CFA_XSP16 add(XSP16, 14)
        CFI Block cfiCond82 Using cfiCommon0
        CFI (cfiCond82) NoFunction
        CFI (cfiCond82) Conditional ??CrossCallReturnLabel_56, ??CrossCallReturnLabel_22
        CFI (cfiCond82) R6 load(1, XDATA, add(CFA_XSP16, literal(-14)))
        CFI (cfiCond82) VB load(1, XDATA, add(CFA_XSP16, literal(-13)))
        CFI (cfiCond82) V0 load(1, XDATA, add(CFA_XSP16, literal(-12)))
        CFI (cfiCond82) V1 load(1, XDATA, add(CFA_XSP16, literal(-11)))
        CFI (cfiCond82) V2 load(1, XDATA, add(CFA_XSP16, literal(-10)))
        CFI (cfiCond82) V3 load(1, XDATA, add(CFA_XSP16, literal(-9)))
        CFI (cfiCond82) V4 load(1, XDATA, add(CFA_XSP16, literal(-8)))
        CFI (cfiCond82) V5 load(1, XDATA, add(CFA_XSP16, literal(-7)))
        CFI (cfiCond82) R7 load(1, XDATA, add(CFA_XSP16, literal(-6)))
        CFI (cfiCond82) ?RET_LOW load(1, XDATA, add(CFA_XSP16, literal(-5)))
        CFI (cfiCond82) ?RET_HIGH load(1, XDATA, add(CFA_XSP16, literal(-4)))
        CFI (cfiCond82) ?BRET_EXT load(1, XDATA, add(CFA_XSP16, literal(-3)))
        CFI (cfiCond82) DPL0 load(1, XDATA, add(CFA_XSP16, literal(-2)))
        CFI (cfiCond82) DPH0 load(1, XDATA, add(CFA_XSP16, literal(-1)))
        CFI (cfiCond82) CFA_SP SP+0
        CFI (cfiCond82) CFA_XSP16 add(XSP16, 19)
        CFI Block cfiCond83 Using cfiCommon0
        CFI (cfiCond83) NoFunction
        CFI (cfiCond83) Conditional ??CrossCallReturnLabel_56, ??CrossCallReturnLabel_23
        CFI (cfiCond83) R6 load(1, XDATA, add(CFA_XSP16, literal(-10)))
        CFI (cfiCond83) VB load(1, XDATA, add(CFA_XSP16, literal(-9)))
        CFI (cfiCond83) V0 load(1, XDATA, add(CFA_XSP16, literal(-8)))
        CFI (cfiCond83) V1 load(1, XDATA, add(CFA_XSP16, literal(-7)))
        CFI (cfiCond83) R7 load(1, XDATA, add(CFA_XSP16, literal(-6)))
        CFI (cfiCond83) ?RET_LOW load(1, XDATA, add(CFA_XSP16, literal(-5)))
        CFI (cfiCond83) ?RET_HIGH load(1, XDATA, add(CFA_XSP16, literal(-4)))
        CFI (cfiCond83) ?BRET_EXT load(1, XDATA, add(CFA_XSP16, literal(-3)))
        CFI (cfiCond83) DPL0 load(1, XDATA, add(CFA_XSP16, literal(-2)))
        CFI (cfiCond83) DPH0 load(1, XDATA, add(CFA_XSP16, literal(-1)))
        CFI (cfiCond83) CFA_SP SP+0
        CFI (cfiCond83) CFA_XSP16 add(XSP16, 10)
        CFI Block cfiPicker84 Using cfiCommon1
        CFI (cfiPicker84) NoFunction
        CFI (cfiPicker84) Picker
        MOVX    A,@DPTR
        MOV     R0,A
        INC     DPTR
        MOVX    A,@DPTR
        MOV     R1,A
        RET
        CFI EndBlock cfiCond77
        CFI EndBlock cfiCond78
        CFI EndBlock cfiCond79
        CFI EndBlock cfiCond80
        CFI EndBlock cfiCond81
        CFI EndBlock cfiCond82
        CFI EndBlock cfiCond83
        CFI EndBlock cfiPicker84

        RSEG BANKED_CODE:CODE:NOROOT(0)
?Subroutine10:
        CFI Block cfiCond85 Using cfiCommon0
        CFI NoFunction
        CFI Conditional ??CrossCallReturnLabel_12
        CFI R6 load(1, XDATA, add(CFA_XSP16, literal(-10)))
        CFI VB load(1, XDATA, add(CFA_XSP16, literal(-9)))
        CFI V0 load(1, XDATA, add(CFA_XSP16, literal(-8)))
        CFI V1 load(1, XDATA, add(CFA_XSP16, literal(-7)))
        CFI R7 load(1, XDATA, add(CFA_XSP16, literal(-6)))
        CFI ?RET_LOW load(1, XDATA, add(CFA_XSP16, literal(-5)))
        CFI ?RET_HIGH load(1, XDATA, add(CFA_XSP16, literal(-4)))
        CFI ?BRET_EXT load(1, XDATA, add(CFA_XSP16, literal(-3)))
        CFI DPL0 load(1, XDATA, add(CFA_XSP16, literal(-2)))
        CFI DPH0 load(1, XDATA, add(CFA_XSP16, literal(-1)))
        CFI CFA_SP SP+0
        CFI CFA_XSP16 add(XSP16, 14)
        CFI Block cfiCond86 Using cfiCommon0
        CFI (cfiCond86) NoFunction
        CFI (cfiCond86) Conditional ??CrossCallReturnLabel_13
        CFI (cfiCond86) R6 load(1, XDATA, add(CFA_XSP16, literal(-10)))
        CFI (cfiCond86) VB load(1, XDATA, add(CFA_XSP16, literal(-9)))
        CFI (cfiCond86) V0 load(1, XDATA, add(CFA_XSP16, literal(-8)))
        CFI (cfiCond86) V1 load(1, XDATA, add(CFA_XSP16, literal(-7)))
        CFI (cfiCond86) R7 load(1, XDATA, add(CFA_XSP16, literal(-6)))
        CFI (cfiCond86) ?RET_LOW load(1, XDATA, add(CFA_XSP16, literal(-5)))
        CFI (cfiCond86) ?RET_HIGH load(1, XDATA, add(CFA_XSP16, literal(-4)))
        CFI (cfiCond86) ?BRET_EXT load(1, XDATA, add(CFA_XSP16, literal(-3)))
        CFI (cfiCond86) DPL0 load(1, XDATA, add(CFA_XSP16, literal(-2)))
        CFI (cfiCond86) DPH0 load(1, XDATA, add(CFA_XSP16, literal(-1)))
        CFI (cfiCond86) CFA_SP SP+0
        CFI (cfiCond86) CFA_XSP16 add(XSP16, 14)
        CFI Block cfiPicker87 Using cfiCommon1
        CFI (cfiPicker87) NoFunction
        CFI (cfiPicker87) Picker
        MOV     DPL,?XSP + 0
        MOV     DPH,?XSP + 1
        MOV     R4,DPL
        MOV     R5,DPH
        MOV     DPL,R6
        MOV     DPH,R7
        LCALL   ?Subroutine33 & 0xFFFF
??CrossCallReturnLabel_44:
        MOV     DPL,?XSP + 0
        MOV     DPH,?XSP + 1
        MOV     R2,DPL
        MOV     R3,DPH
        RET
        CFI EndBlock cfiCond85
        CFI EndBlock cfiCond86
        CFI EndBlock cfiPicker87

        RSEG BANKED_CODE:CODE:NOROOT(0)
?Subroutine33:
        CFI Block cfiCond88 Using cfiCommon0
        CFI NoFunction
        CFI Conditional ??CrossCallReturnLabel_43
        CFI R6 load(1, XDATA, add(CFA_XSP16, literal(-14)))
        CFI VB load(1, XDATA, add(CFA_XSP16, literal(-13)))
        CFI V0 load(1, XDATA, add(CFA_XSP16, literal(-12)))
        CFI V1 load(1, XDATA, add(CFA_XSP16, literal(-11)))
        CFI V2 load(1, XDATA, add(CFA_XSP16, literal(-10)))
        CFI V3 load(1, XDATA, add(CFA_XSP16, literal(-9)))
        CFI V4 load(1, XDATA, add(CFA_XSP16, literal(-8)))
        CFI V5 load(1, XDATA, add(CFA_XSP16, literal(-7)))
        CFI R7 load(1, XDATA, add(CFA_XSP16, literal(-6)))
        CFI ?RET_LOW load(1, XDATA, add(CFA_XSP16, literal(-5)))
        CFI ?RET_HIGH load(1, XDATA, add(CFA_XSP16, literal(-4)))
        CFI ?BRET_EXT load(1, XDATA, add(CFA_XSP16, literal(-3)))
        CFI DPL0 load(1, XDATA, add(CFA_XSP16, literal(-2)))
        CFI DPH0 load(1, XDATA, add(CFA_XSP16, literal(-1)))
        CFI CFA_SP SP+0
        CFI CFA_XSP16 add(XSP16, 19)
        CFI Block cfiCond89 Using cfiCommon0
        CFI (cfiCond89) NoFunction
        CFI (cfiCond89) Conditional ??CrossCallReturnLabel_44, ??CrossCallReturnLabel_12
        CFI (cfiCond89) R6 load(1, XDATA, add(CFA_XSP16, literal(-10)))
        CFI (cfiCond89) VB load(1, XDATA, add(CFA_XSP16, literal(-9)))
        CFI (cfiCond89) V0 load(1, XDATA, add(CFA_XSP16, literal(-8)))
        CFI (cfiCond89) V1 load(1, XDATA, add(CFA_XSP16, literal(-7)))
        CFI (cfiCond89) R7 load(1, XDATA, add(CFA_XSP16, literal(-6)))
        CFI (cfiCond89) ?RET_LOW load(1, XDATA, add(CFA_XSP16, literal(-5)))
        CFI (cfiCond89) ?RET_HIGH load(1, XDATA, add(CFA_XSP16, literal(-4)))
        CFI (cfiCond89) ?BRET_EXT load(1, XDATA, add(CFA_XSP16, literal(-3)))
        CFI (cfiCond89) DPL0 load(1, XDATA, add(CFA_XSP16, literal(-2)))
        CFI (cfiCond89) DPH0 load(1, XDATA, add(CFA_XSP16, literal(-1)))
        CFI (cfiCond89) CFA_SP SP+0
        CFI (cfiCond89) CFA_XSP16 add(XSP16, 14)
        CFI Block cfiCond90 Using cfiCommon0
        CFI (cfiCond90) NoFunction
        CFI (cfiCond90) Conditional ??CrossCallReturnLabel_44, ??CrossCallReturnLabel_13
        CFI (cfiCond90) R6 load(1, XDATA, add(CFA_XSP16, literal(-10)))
        CFI (cfiCond90) VB load(1, XDATA, add(CFA_XSP16, literal(-9)))
        CFI (cfiCond90) V0 load(1, XDATA, add(CFA_XSP16, literal(-8)))
        CFI (cfiCond90) V1 load(1, XDATA, add(CFA_XSP16, literal(-7)))
        CFI (cfiCond90) R7 load(1, XDATA, add(CFA_XSP16, literal(-6)))
        CFI (cfiCond90) ?RET_LOW load(1, XDATA, add(CFA_XSP16, literal(-5)))
        CFI (cfiCond90) ?RET_HIGH load(1, XDATA, add(CFA_XSP16, literal(-4)))
        CFI (cfiCond90) ?BRET_EXT load(1, XDATA, add(CFA_XSP16, literal(-3)))
        CFI (cfiCond90) DPL0 load(1, XDATA, add(CFA_XSP16, literal(-2)))
        CFI (cfiCond90) DPH0 load(1, XDATA, add(CFA_XSP16, literal(-1)))
        CFI (cfiCond90) CFA_SP SP+0
        CFI (cfiCond90) CFA_XSP16 add(XSP16, 14)
        CFI Block cfiPicker91 Using cfiCommon1
        CFI (cfiPicker91) NoFunction
        CFI (cfiPicker91) Picker
        INC     DPTR
        INC     DPTR
        INC     DPTR
        INC     DPTR
        INC     DPTR
        INC     DPTR
        MOVX    A,@DPTR
        MOV     R2,A
        INC     DPTR
        MOVX    A,@DPTR
        MOV     R3,A
        LCALL   ??AT_Int16toChar?relay
        ; Setup parameters for call to function AT_HalUARTWrite
        ; Setup parameters for call to function AT_HalUARTWrite
        ; Setup parameters for call to function AT_HalUARTWrite
        MOV     R4,#0x4
        MOV     R5,#0x0
        RET
        CFI EndBlock cfiCond88
        CFI EndBlock cfiCond89
        CFI EndBlock cfiCond90
        CFI EndBlock cfiPicker91
//  313 /**************************************************************
//  314 deal with AT_AF_Cmd_REPENABLE_CLUSTERID messages.
//  315 *************************************************************/

        RSEG BANKED_CODE:CODE:NOROOT(0)
//  316 void AT_AF_Cmd_REPENABLE_CB(afIncomingMSGPacket_t *pkt ){
AT_AF_Cmd_REPENABLE_CB:
        CFI Block cfiBlock92 Using cfiCommon0
        CFI Function AT_AF_Cmd_REPENABLE_CB
        CODE
        FUNCALL AT_AF_Cmd_REPENABLE_CB, AT_AF_Cmd_REPENABLE_req
        LOCFRAME ISTACK, 2, STACK
        LOCFRAME PSTACK, 0, STACK
        LOCFRAME XSTACK, 0, STACK
        LOCFRAME IOVERLAY, 0, STATIC
        LOCFRAME DOVERLAY, 0, STATIC
        ARGFRAME ISTACK, 2, STACK
        ARGFRAME PSTACK, 0, STACK
        ARGFRAME XSTACK, 0, STACK
        ARGFRAME IOVERLAY, 0, STATIC
        ARGFRAME DOVERLAY, 0, STATIC
        FUNCALL AT_AF_Cmd_REPENABLE_CB, AT_AF_Cmd_REPENABLE_rsp
        LOCFRAME ISTACK, 2, STACK
        LOCFRAME PSTACK, 0, STACK
        LOCFRAME XSTACK, 0, STACK
        LOCFRAME IOVERLAY, 0, STATIC
        LOCFRAME DOVERLAY, 0, STATIC
        ARGFRAME ISTACK, 2, STACK
        ARGFRAME PSTACK, 0, STACK
        ARGFRAME XSTACK, 0, STACK
        ARGFRAME IOVERLAY, 0, STATIC
        ARGFRAME DOVERLAY, 0, STATIC
        PUSH    DPL
        CFI DPL0 Frame(CFA_SP, 4)
        CFI CFA_SP SP+-4
        PUSH    DPH
        CFI DPH0 Frame(CFA_SP, 5)
        CFI CFA_SP SP+-5
        ; Saved register size: 2
        ; Auto size: 0
//  317   AT_AF_Cmd_REPENABLE_req_t *req = (AT_AF_Cmd_REPENABLE_req_t *)pkt->cmd.Data;
//  318   if(req->hdr.cmd==AT_AF_Cmd_req){
        LCALL   ?Subroutine7 & 0xFFFF
??CrossCallReturnLabel_59:
        JNZ     ??AT_AF_Cmd_REPENABLE_CB_0
//  319     AT_AF_Cmd_REPENABLE_req(pkt);
        ; Setup parameters for call to function AT_AF_Cmd_REPENABLE_req
        LCALL   ??AT_AF_Cmd_REPENABLE_req?relay
        SJMP    ??AT_AF_Cmd_REPENABLE_CB_1
//  320   }else{
//  321     AT_AF_Cmd_REPENABLE_rsp(pkt);
??AT_AF_Cmd_REPENABLE_CB_0:
        ; Setup parameters for call to function AT_AF_Cmd_REPENABLE_rsp
        LCALL   ??AT_AF_Cmd_REPENABLE_rsp?relay
//  322   }
//  323 }
??AT_AF_Cmd_REPENABLE_CB_1:
        LJMP    ?Subroutine0 & 0xFFFF
        CFI EndBlock cfiBlock92
//  324 
//  325 
//  326 

        RSEG BANKED_CODE:CODE:NOROOT(0)
//  327 void AT_AF_Cmd_HA_DISC_CB(afIncomingMSGPacket_t *pkt ){
AT_AF_Cmd_HA_DISC_CB:
        CFI Block cfiBlock93 Using cfiCommon0
        CFI Function AT_AF_Cmd_HA_DISC_CB
        CODE
        FUNCALL AT_AF_Cmd_HA_DISC_CB, AT_AF_Cmd_HA_DISC_req
        LOCFRAME ISTACK, 2, STACK
        LOCFRAME PSTACK, 0, STACK
        LOCFRAME XSTACK, 0, STACK
        LOCFRAME IOVERLAY, 0, STATIC
        LOCFRAME DOVERLAY, 0, STATIC
        ARGFRAME ISTACK, 2, STACK
        ARGFRAME PSTACK, 0, STACK
        ARGFRAME XSTACK, 0, STACK
        ARGFRAME IOVERLAY, 0, STATIC
        ARGFRAME DOVERLAY, 0, STATIC
        FUNCALL AT_AF_Cmd_HA_DISC_CB, AT_AF_Cmd_HA_DISC_rsp
        LOCFRAME ISTACK, 2, STACK
        LOCFRAME PSTACK, 0, STACK
        LOCFRAME XSTACK, 0, STACK
        LOCFRAME IOVERLAY, 0, STATIC
        LOCFRAME DOVERLAY, 0, STATIC
        ARGFRAME ISTACK, 2, STACK
        ARGFRAME PSTACK, 0, STACK
        ARGFRAME XSTACK, 0, STACK
        ARGFRAME IOVERLAY, 0, STATIC
        ARGFRAME DOVERLAY, 0, STATIC
        PUSH    DPL
        CFI DPL0 Frame(CFA_SP, 4)
        CFI CFA_SP SP+-4
        PUSH    DPH
        CFI DPH0 Frame(CFA_SP, 5)
        CFI CFA_SP SP+-5
        ; Saved register size: 2
        ; Auto size: 0
//  328   AT_AF_hdr *req = (AT_AF_hdr *)pkt->cmd.Data;
//  329   if(req->cmd==AT_AF_Cmd_req){
        LCALL   ?Subroutine7 & 0xFFFF
??CrossCallReturnLabel_60:
        JNZ     ??AT_AF_Cmd_HA_DISC_CB_0
//  330     AT_AF_Cmd_HA_DISC_req(pkt);
        ; Setup parameters for call to function AT_AF_Cmd_HA_DISC_req
        LCALL   ??AT_AF_Cmd_HA_DISC_req?relay
        SJMP    ??AT_AF_Cmd_HA_DISC_CB_1
//  331   }else{
//  332     AT_AF_Cmd_HA_DISC_rsp(pkt);
??AT_AF_Cmd_HA_DISC_CB_0:
        ; Setup parameters for call to function AT_AF_Cmd_HA_DISC_rsp
        LCALL   ??AT_AF_Cmd_HA_DISC_rsp?relay
//  333   }
//  334 }
??AT_AF_Cmd_HA_DISC_CB_1:
        LJMP    ?Subroutine0 & 0xFFFF
        CFI EndBlock cfiBlock93

        RSEG BANKED_CODE:CODE:NOROOT(0)
?Subroutine7:
        CFI Block cfiCond94 Using cfiCommon0
        CFI NoFunction
        CFI Conditional ??CrossCallReturnLabel_58
        CFI DPL0 Frame(CFA_SP, 4)
        CFI DPH0 Frame(CFA_SP, 5)
        CFI CFA_SP SP+-5
        CFI Block cfiCond95 Using cfiCommon0
        CFI (cfiCond95) NoFunction
        CFI (cfiCond95) Conditional ??CrossCallReturnLabel_59
        CFI (cfiCond95) DPL0 Frame(CFA_SP, 4)
        CFI (cfiCond95) DPH0 Frame(CFA_SP, 5)
        CFI (cfiCond95) CFA_SP SP+-5
        CFI Block cfiCond96 Using cfiCommon0
        CFI (cfiCond96) NoFunction
        CFI (cfiCond96) Conditional ??CrossCallReturnLabel_60
        CFI (cfiCond96) DPL0 Frame(CFA_SP, 4)
        CFI (cfiCond96) DPH0 Frame(CFA_SP, 5)
        CFI (cfiCond96) CFA_SP SP+-5
        CFI Block cfiCond97 Using cfiCommon0
        CFI (cfiCond97) NoFunction
        CFI (cfiCond97) Conditional ??CrossCallReturnLabel_61
        CFI (cfiCond97) DPL0 Frame(CFA_SP, 4)
        CFI (cfiCond97) DPH0 Frame(CFA_SP, 5)
        CFI (cfiCond97) CFA_SP SP+-5
        CFI Block cfiCond98 Using cfiCommon0
        CFI (cfiCond98) NoFunction
        CFI (cfiCond98) Conditional ??CrossCallReturnLabel_62
        CFI (cfiCond98) DPL0 Frame(CFA_SP, 4)
        CFI (cfiCond98) DPH0 Frame(CFA_SP, 5)
        CFI (cfiCond98) CFA_SP SP+-5
        CFI Block cfiPicker99 Using cfiCommon1
        CFI (cfiPicker99) NoFunction
        CFI (cfiPicker99) Picker
        MOV     A,R2
        LCALL   ??Subroutine39_0 & 0xFFFF
??CrossCallReturnLabel_109:
        MOV     A,R3
        CFI EndBlock cfiCond94
        CFI EndBlock cfiCond95
        CFI EndBlock cfiCond96
        CFI EndBlock cfiCond97
        CFI EndBlock cfiCond98
        CFI EndBlock cfiPicker99
        REQUIRE ??Subroutine44_0
        ; // Fall through to label ??Subroutine44_0

        RSEG BANKED_CODE:CODE:NOROOT(0)
??Subroutine44_0:
        CFI Block cfiCond100 Using cfiCommon0
        CFI NoFunction
        CFI Conditional ??CrossCallReturnLabel_57
        CFI R6 load(1, XDATA, add(CFA_XSP16, literal(-14)))
        CFI VB load(1, XDATA, add(CFA_XSP16, literal(-13)))
        CFI V0 load(1, XDATA, add(CFA_XSP16, literal(-12)))
        CFI V1 load(1, XDATA, add(CFA_XSP16, literal(-11)))
        CFI V2 load(1, XDATA, add(CFA_XSP16, literal(-10)))
        CFI V3 load(1, XDATA, add(CFA_XSP16, literal(-9)))
        CFI V4 load(1, XDATA, add(CFA_XSP16, literal(-8)))
        CFI V5 load(1, XDATA, add(CFA_XSP16, literal(-7)))
        CFI R7 load(1, XDATA, add(CFA_XSP16, literal(-6)))
        CFI ?RET_LOW load(1, XDATA, add(CFA_XSP16, literal(-5)))
        CFI ?RET_HIGH load(1, XDATA, add(CFA_XSP16, literal(-4)))
        CFI ?BRET_EXT load(1, XDATA, add(CFA_XSP16, literal(-3)))
        CFI DPL0 load(1, XDATA, add(CFA_XSP16, literal(-2)))
        CFI DPH0 load(1, XDATA, add(CFA_XSP16, literal(-1)))
        CFI CFA_SP SP+0
        CFI CFA_XSP16 add(XSP16, 19)
        CFI Block cfiCond101 Using cfiCommon0
        CFI (cfiCond101) NoFunction
        CFI (cfiCond101) Conditional ??CrossCallReturnLabel_58
        CFI (cfiCond101) DPL0 Frame(CFA_SP, 4)
        CFI (cfiCond101) DPH0 Frame(CFA_SP, 5)
        CFI (cfiCond101) CFA_SP SP+-5
        CFI Block cfiCond102 Using cfiCommon0
        CFI (cfiCond102) NoFunction
        CFI (cfiCond102) Conditional ??CrossCallReturnLabel_59
        CFI (cfiCond102) DPL0 Frame(CFA_SP, 4)
        CFI (cfiCond102) DPH0 Frame(CFA_SP, 5)
        CFI (cfiCond102) CFA_SP SP+-5
        CFI Block cfiCond103 Using cfiCommon0
        CFI (cfiCond103) NoFunction
        CFI (cfiCond103) Conditional ??CrossCallReturnLabel_60
        CFI (cfiCond103) DPL0 Frame(CFA_SP, 4)
        CFI (cfiCond103) DPH0 Frame(CFA_SP, 5)
        CFI (cfiCond103) CFA_SP SP+-5
        CFI Block cfiCond104 Using cfiCommon0
        CFI (cfiCond104) NoFunction
        CFI (cfiCond104) Conditional ??CrossCallReturnLabel_61
        CFI (cfiCond104) DPL0 Frame(CFA_SP, 4)
        CFI (cfiCond104) DPH0 Frame(CFA_SP, 5)
        CFI (cfiCond104) CFA_SP SP+-5
        CFI Block cfiCond105 Using cfiCommon0
        CFI (cfiCond105) NoFunction
        CFI (cfiCond105) Conditional ??CrossCallReturnLabel_62
        CFI (cfiCond105) DPL0 Frame(CFA_SP, 4)
        CFI (cfiCond105) DPH0 Frame(CFA_SP, 5)
        CFI (cfiCond105) CFA_SP SP+-5
        CFI Block cfiPicker106 Using cfiCommon1
        CFI (cfiPicker106) NoFunction
        CFI (cfiPicker106) Picker
        LCALL   ??Subroutine46_0 & 0xFFFF
??CrossCallReturnLabel_97:
        LCALL   ?Subroutine35 & 0xFFFF
??CrossCallReturnLabel_64:
        MOVX    A,@DPTR
        RET
        CFI EndBlock cfiCond100
        CFI EndBlock cfiCond101
        CFI EndBlock cfiCond102
        CFI EndBlock cfiCond103
        CFI EndBlock cfiCond104
        CFI EndBlock cfiCond105
        CFI EndBlock cfiPicker106
//  335 
//  336 /***************************************************************************
//  337 deal with the HA discover request
//  338 *****************************************************************************/

        RSEG BANKED_CODE:CODE:NOROOT(0)
//  339 void AT_AF_Cmd_HA_DISC_req(afIncomingMSGPacket_t *pkt  ){
AT_AF_Cmd_HA_DISC_req:
        CFI Block cfiBlock107 Using cfiCommon0
        CFI Function AT_AF_Cmd_HA_DISC_req
        CODE
        FUNCALL AT_AF_Cmd_HA_DISC_req, AT_af_get_ep
        LOCFRAME ISTACK, 0, STACK
        LOCFRAME PSTACK, 0, STACK
        LOCFRAME XSTACK, 19, STACK
        LOCFRAME IOVERLAY, 0, STATIC
        LOCFRAME DOVERLAY, 0, STATIC
        ARGFRAME ISTACK, 0, STACK
        ARGFRAME PSTACK, 0, STACK
        ARGFRAME XSTACK, 19, STACK
        ARGFRAME IOVERLAY, 0, STATIC
        ARGFRAME DOVERLAY, 0, STATIC
        FUNCALL AT_AF_Cmd_HA_DISC_req, afFindEndPointDesc
        LOCFRAME ISTACK, 0, STACK
        LOCFRAME PSTACK, 0, STACK
        LOCFRAME XSTACK, 19, STACK
        LOCFRAME IOVERLAY, 0, STATIC
        LOCFRAME DOVERLAY, 0, STATIC
        ARGFRAME ISTACK, 0, STACK
        ARGFRAME PSTACK, 0, STACK
        ARGFRAME XSTACK, 19, STACK
        ARGFRAME IOVERLAY, 0, STATIC
        ARGFRAME DOVERLAY, 0, STATIC
        FUNCALL AT_AF_Cmd_HA_DISC_req, afFindEndPointDesc
        LOCFRAME ISTACK, 0, STACK
        LOCFRAME PSTACK, 0, STACK
        LOCFRAME XSTACK, 19, STACK
        LOCFRAME IOVERLAY, 0, STATIC
        LOCFRAME DOVERLAY, 0, STATIC
        ARGFRAME ISTACK, 0, STACK
        ARGFRAME PSTACK, 0, STACK
        ARGFRAME XSTACK, 19, STACK
        ARGFRAME IOVERLAY, 0, STATIC
        ARGFRAME DOVERLAY, 0, STATIC
        FUNCALL AT_AF_Cmd_HA_DISC_req, afFindEndPointDesc
        LOCFRAME ISTACK, 0, STACK
        LOCFRAME PSTACK, 0, STACK
        LOCFRAME XSTACK, 19, STACK
        LOCFRAME IOVERLAY, 0, STATIC
        LOCFRAME DOVERLAY, 0, STATIC
        ARGFRAME ISTACK, 0, STACK
        ARGFRAME PSTACK, 0, STACK
        ARGFRAME XSTACK, 19, STACK
        ARGFRAME IOVERLAY, 0, STATIC
        ARGFRAME DOVERLAY, 0, STATIC
        FUNCALL AT_AF_Cmd_HA_DISC_req, AF_DataRequest
        LOCFRAME ISTACK, 0, STACK
        LOCFRAME PSTACK, 0, STACK
        LOCFRAME XSTACK, 28, STACK
        LOCFRAME IOVERLAY, 0, STATIC
        LOCFRAME DOVERLAY, 0, STATIC
        ARGFRAME ISTACK, 0, STACK
        ARGFRAME PSTACK, 0, STACK
        ARGFRAME XSTACK, 28, STACK
        ARGFRAME IOVERLAY, 0, STATIC
        ARGFRAME DOVERLAY, 0, STATIC
        MOV     A,#-0xe
        LCALL   ?BANKED_ENTER_XDATA
        CFI DPH0 load(1, XDATA, add(CFA_XSP16, literal(-1)))
        CFI DPL0 load(1, XDATA, add(CFA_XSP16, literal(-2)))
        CFI ?BRET_EXT load(1, XDATA, add(CFA_XSP16, literal(-3)))
        CFI ?RET_HIGH load(1, XDATA, add(CFA_XSP16, literal(-4)))
        CFI ?RET_LOW load(1, XDATA, add(CFA_XSP16, literal(-5)))
        CFI R7 load(1, XDATA, add(CFA_XSP16, literal(-6)))
        CFI V5 load(1, XDATA, add(CFA_XSP16, literal(-7)))
        CFI V4 load(1, XDATA, add(CFA_XSP16, literal(-8)))
        CFI V3 load(1, XDATA, add(CFA_XSP16, literal(-9)))
        CFI V2 load(1, XDATA, add(CFA_XSP16, literal(-10)))
        CFI V1 load(1, XDATA, add(CFA_XSP16, literal(-11)))
        CFI V0 load(1, XDATA, add(CFA_XSP16, literal(-12)))
        CFI VB load(1, XDATA, add(CFA_XSP16, literal(-13)))
        CFI R6 load(1, XDATA, add(CFA_XSP16, literal(-14)))
        CFI CFA_SP SP+0
        CFI CFA_XSP16 add(XSP16, 14)
        ; Saved register size: 14
        ; Auto size: 5
        MOV     A,#-0x5
        LCALL   ?ALLOC_XSTACK8
        CFI CFA_XSP16 add(XSP16, 19)
        LCALL   ?Subroutine38 & 0xFFFF
//  340   AT_AF_Cmd_HA_DISC_req_t *req = (AT_AF_Cmd_HA_DISC_req_t *)pkt->cmd.Data;
??CrossCallReturnLabel_106:
        MOV     A,R7
        LCALL   ?Subroutine17 & 0xFFFF
//  341   AT_AF_Cmd_HA_DISC_rsp_t *rsp;
//  342   uint8 zcl_epCount =0;
//  343   
//  344   uint8 AT_CMD_EP_ARRAY[]=AT_CMD_EPs;
??CrossCallReturnLabel_22:
        MOV     DPL,?XSP + 0
        MOV     DPH,?XSP + 1
        MOV     R4,DPL
        MOV     R5,DPH
        MOV     DPH,#(`?<Constant {7}>_2` >> 8) & 0xff
        MOV     DPL,#`?<Constant {7}>_2` & 0xff
        MOV     A,#0x1
        LCALL   ?MOVE_LONG8_XDATA_XDATA
//  345   uint8 i;
//  346   uint8 buf_temp[sizeof(AT_AF_Cmd_HA_DISC_rsp_t)+sizeof(AT_CMD_EP_ARRAY)*sizeof(AT_AF_Cmd_HA_DISC_item_t)];
//  347   rsp = (AT_AF_Cmd_HA_DISC_rsp_t *) buf_temp;
//  348   
//  349   for(i=0;i<sizeof(AT_CMD_EP_ARRAY);i++){
//  350     epList_t* epList = AT_af_get_ep(AT_CMD_EP_ARRAY[i]);
//  351     SimpleDescriptionFormat_t* simDesc=epList->epDesc->simpleDesc;
        ; Setup parameters for call to function AT_af_get_ep
        MOV     DPL,?XSP + 0
        MOV     DPH,?XSP + 1
        MOVX    A,@DPTR
        MOV     R1,A
        LCALL   ??AT_af_get_ep?relay
        MOV     DPL,R2
        MOV     DPH,R3
        INC     DPTR
        INC     DPTR
        LCALL   ?Subroutine16 & 0xFFFF
??CrossCallReturnLabel_21:
        INC     DPTR
        INC     DPTR
        LCALL   ??Subroutine43_0 & 0xFFFF
??CrossCallReturnLabel_53:
        MOV     ?V0 + 2,R0
        MOV     ?V0 + 3,R1
//  352     
//  353     //find the CID
//  354     bool found=false;
//  355     uint8 j;
//  356     for(j=0;j<simDesc->AppNumOutClusters;j++){
        MOV     R2,#0x0
        SJMP    ??AT_AF_Cmd_HA_DISC_req_0
??AT_AF_Cmd_HA_DISC_req_1:
        INC     R2
??AT_AF_Cmd_HA_DISC_req_0:
        MOV     DPL,?V0 + 2
        MOV     DPH,?V0 + 3
        INC     DPTR
        INC     DPTR
        INC     DPTR
        INC     DPTR
        INC     DPTR
        INC     DPTR
        INC     DPTR
        INC     DPTR
        INC     DPTR
        MOVX    A,@DPTR
        MOV     R0,A
        MOV     A,R2
        CLR     C
        SUBB    A,R0
        JNC     ??AT_AF_Cmd_HA_DISC_req_2
//  357       if(simDesc->pAppOutClusterList[j]==req->CID) {
        MOV     A,R2
        CLR     C
        RLC     A
        MOV     R0,A
        CLR     A
        RLC     A
        MOV     R1,A
        MOV     DPL,?V0 + 2
        MOV     DPH,?V0 + 3
        INC     DPTR
        INC     DPTR
        INC     DPTR
        LCALL   ?Subroutine9 & 0xFFFF
??CrossCallReturnLabel_10:
        JNZ     ??AT_AF_Cmd_HA_DISC_req_3
        INC     DPTR
        MOVX    A,@DPTR
        XRL     A,R1
??AT_AF_Cmd_HA_DISC_req_3:
        JNZ     ??AT_AF_Cmd_HA_DISC_req_1
//  358         if(req->option==0){
        MOV     DPL,?V0 + 0
        MOV     DPH,?V0 + 1
        INC     DPTR
        INC     DPTR
        INC     DPTR
        INC     DPTR
        MOVX    A,@DPTR
        JNZ     ??AT_AF_Cmd_HA_DISC_req_4
//  359           if(afFindEndPointDesc(AT_CMD_EP_ARRAY[i])) found=true;
        ; Setup parameters for call to function afFindEndPointDesc
        MOV     DPL,?XSP + 0
        MOV     DPH,?XSP + 1
        MOVX    A,@DPTR
        MOV     R1,A
        LCALL   ??afFindEndPointDesc?relay
        MOV     ?V0 + 5,R3
        MOV     A,R2
        ORL     A,?V0 + 5
        JNZ     ??AT_AF_Cmd_HA_DISC_req_4
//  360         }else{
//  361           found=true;
//  362         }
//  363         break;
//  364       }
//  365     }
//  366     if(!found){
//  367       for(j=0;j<simDesc->AppNumInClusters;j++){
??AT_AF_Cmd_HA_DISC_req_2:
        MOV     R2,#0x0
        SJMP    ??AT_AF_Cmd_HA_DISC_req_5
??AT_AF_Cmd_HA_DISC_req_6:
        INC     R2
??AT_AF_Cmd_HA_DISC_req_5:
        MOV     DPL,?V0 + 2
        MOV     DPH,?V0 + 3
        INC     DPTR
        INC     DPTR
        INC     DPTR
        INC     DPTR
        INC     DPTR
        INC     DPTR
        MOVX    A,@DPTR
        MOV     R0,A
        MOV     A,R2
        CLR     C
        SUBB    A,R0
        JC      $+5
        LJMP    ??AT_AF_Cmd_HA_DISC_req_7 & 0xFFFF
//  368         if(simDesc->pAppInClusterList[j]==req->CID) {
        MOV     A,R2
        CLR     C
        RLC     A
        MOV     R0,A
        CLR     A
        RLC     A
        MOV     R1,A
        MOV     DPL,?V0 + 2
        MOV     DPH,?V0 + 3
        LCALL   ?Subroutine9 & 0xFFFF
??CrossCallReturnLabel_11:
        JNZ     ??AT_AF_Cmd_HA_DISC_req_8
        INC     DPTR
        MOVX    A,@DPTR
        XRL     A,R1
??AT_AF_Cmd_HA_DISC_req_8:
        JNZ     ??AT_AF_Cmd_HA_DISC_req_6
//  369           if(req->option==0){
        MOV     DPL,?V0 + 0
        MOV     DPH,?V0 + 1
        INC     DPTR
        INC     DPTR
        INC     DPTR
        INC     DPTR
        MOVX    A,@DPTR
        JNZ     ??AT_AF_Cmd_HA_DISC_req_4
//  370             if(afFindEndPointDesc(AT_CMD_EP_ARRAY[i])) found=true;
        ; Setup parameters for call to function afFindEndPointDesc
        MOV     DPL,?XSP + 0
        MOV     DPH,?XSP + 1
        MOVX    A,@DPTR
        LCALL   ?Subroutine31 & 0xFFFF
//  371           }else{
//  372             found=true;
//  373           }
//  374           break;
//  375         }
//  376       }
//  377     }
??CrossCallReturnLabel_41:
        JZ      ??AT_AF_Cmd_HA_DISC_req_7
//  378     
//  379     //if found the CID
//  380     if(found){
//  381       rsp->item[zcl_epCount].ep = AT_CMD_EP_ARRAY[i];
??AT_AF_Cmd_HA_DISC_req_4:
        MOV     DPL,?XSP + 0
        MOV     DPH,?XSP + 1
        MOVX    A,@DPTR
        PUSH    A
        CFI CFA_SP SP+-1
        MOV     A,#0x3
        LCALL   ?XSTACK_DISP0_8
        POP     A
        CFI CFA_SP SP+0
        LCALL   ?Subroutine4 & 0xFFFF
//  382       rsp->item[zcl_epCount].status = afFindEndPointDesc(AT_CMD_EP_ARRAY[i]) ? AT_AF_enable : AT_AF_disable;
??CrossCallReturnLabel_1:
        LCALL   ?Subroutine31 & 0xFFFF
??CrossCallReturnLabel_42:
        JZ      ??AT_AF_Cmd_HA_DISC_req_9
        MOV     A,#0x1
        SJMP    ??AT_AF_Cmd_HA_DISC_req_10
??AT_AF_Cmd_HA_DISC_req_9:
        CLR     A
??AT_AF_Cmd_HA_DISC_req_10:
        PUSH    A
        CFI CFA_SP SP+-1
        MOV     A,#0x4
        LCALL   ?XSTACK_DISP0_8
        POP     A
        CFI CFA_SP SP+0
        MOVX    @DPTR,A
//  383       zcl_epCount++;
//  384     }
//  385   }
//  386   if(zcl_epCount!=0){
//  387     rsp->hdr.numItem=zcl_epCount;
        MOV     A,#0x2
        LCALL   ?XSTACK_DISP0_8
        MOV     A,#0x1
        MOVX    @DPTR,A
//  388     rsp->hdr.cmd=AT_AF_Cmd_rsp;
        LCALL   ?XSTACK_DISP0_8
        MOV     A,#-0x80
        LCALL   ?Subroutine5 & 0xFFFF
//  389     AF_DataRequest( & (pkt->srcAddr), & AT_AF_epDesc,
//  390                          AT_AF_Cmd_HA_DISC_CLUSTERID,
//  391                          sizeof(AT_AF_Cmd_HA_DISC_rsp_t)+zcl_epCount*sizeof(AT_AF_Cmd_HA_DISC_item_t),
//  392                          (uint8*)rsp,
//  393                          &AT_AF_TransID,
//  394                          AF_DISCV_ROUTE,
//  395                          AF_DEFAULT_RADIUS );
//  396       
//  397   }
??CrossCallReturnLabel_3:
        LCALL   ?PUSH_XSTACK_I_ONE
        CFI CFA_XSP16 add(XSP16, 20)
        MOV     ?V0 + 0,#AT_AF_TransID & 0xff
        MOV     ?V0 + 1,#(AT_AF_TransID >> 8) & 0xff
        MOV     R0,#?V0 + 0
        LCALL   ?PUSH_XSTACK_I_TWO
        CFI CFA_XSP16 add(XSP16, 22)
        MOV     A,#0x4
        LCALL   ?XSTACK_DISP0_8
        MOV     ?V0 + 0,DPL
        MOV     ?V0 + 1,DPH
        MOV     R0,#?V0 + 0
        LCALL   ?PUSH_XSTACK_I_TWO
        CFI CFA_XSP16 add(XSP16, 24)
        MOV     ?V0 + 0,#0x4
        MOV     ?V0 + 1,#0x0
        MOV     R0,#?V0 + 0
        LCALL   ?PUSH_XSTACK_I_TWO
        CFI CFA_XSP16 add(XSP16, 26)
        MOV     ?V0 + 0,#0x2
        MOV     R0,#?V0 + 0
        LCALL   ?PUSH_XSTACK_I_TWO
        CFI CFA_XSP16 add(XSP16, 28)
        MOV     R1,#0x20
        MOV     R4,#AT_AF_epDesc & 0xff
        MOV     R5,#(AT_AF_epDesc >> 8) & 0xff
        MOV     A,R6
        ADD     A,#0x6
        MOV     R2,A
        MOV     A,R7
        LCALL   ??Subroutine53_0 & 0xFFFF
??CrossCallReturnLabel_113:
        LCALL   ?DEALLOC_XSTACK8
        CFI CFA_XSP16 add(XSP16, 19)
        CFI EndBlock cfiBlock107
//  398 }
??AT_AF_Cmd_HA_DISC_req_7:
        REQUIRE ?Subroutine3
        ; // Fall through to label ?Subroutine3

        RSEG BANKED_CODE:CODE:NOROOT(0)
?Subroutine3:
        CFI Block cfiBlock108 Using cfiCommon0
        CFI NoFunction
        CFI CFA_SP SP+0
        CFI CFA_XSP16 add(XSP16, 19)
        CFI VB load(1, XDATA, add(CFA_XSP16, literal(-13)))
        CFI DPL0 load(1, XDATA, add(CFA_XSP16, literal(-2)))
        CFI DPH0 load(1, XDATA, add(CFA_XSP16, literal(-1)))
        CFI R6 load(1, XDATA, add(CFA_XSP16, literal(-14)))
        CFI R7 load(1, XDATA, add(CFA_XSP16, literal(-6)))
        CFI V0 load(1, XDATA, add(CFA_XSP16, literal(-12)))
        CFI V1 load(1, XDATA, add(CFA_XSP16, literal(-11)))
        CFI V2 load(1, XDATA, add(CFA_XSP16, literal(-10)))
        CFI V3 load(1, XDATA, add(CFA_XSP16, literal(-9)))
        CFI V4 load(1, XDATA, add(CFA_XSP16, literal(-8)))
        CFI V5 load(1, XDATA, add(CFA_XSP16, literal(-7)))
        CFI ?BRET_EXT load(1, XDATA, add(CFA_XSP16, literal(-3)))
        CFI ?RET_HIGH load(1, XDATA, add(CFA_XSP16, literal(-4)))
        CFI ?RET_LOW load(1, XDATA, add(CFA_XSP16, literal(-5)))
        MOV     A,#0x5
        LCALL   ?DEALLOC_XSTACK8
        CFI CFA_XSP16 add(XSP16, 14)
        MOV     R7,#0x6
        LJMP    ?BANKED_LEAVE_XDATA
        CFI EndBlock cfiBlock108

        RSEG BANKED_CODE:CODE:NOROOT(0)
?Subroutine31:
        CFI Block cfiCond109 Using cfiCommon0
        CFI NoFunction
        CFI Conditional ??CrossCallReturnLabel_41
        CFI R6 load(1, XDATA, add(CFA_XSP16, literal(-14)))
        CFI VB load(1, XDATA, add(CFA_XSP16, literal(-13)))
        CFI V0 load(1, XDATA, add(CFA_XSP16, literal(-12)))
        CFI V1 load(1, XDATA, add(CFA_XSP16, literal(-11)))
        CFI V2 load(1, XDATA, add(CFA_XSP16, literal(-10)))
        CFI V3 load(1, XDATA, add(CFA_XSP16, literal(-9)))
        CFI V4 load(1, XDATA, add(CFA_XSP16, literal(-8)))
        CFI V5 load(1, XDATA, add(CFA_XSP16, literal(-7)))
        CFI R7 load(1, XDATA, add(CFA_XSP16, literal(-6)))
        CFI ?RET_LOW load(1, XDATA, add(CFA_XSP16, literal(-5)))
        CFI ?RET_HIGH load(1, XDATA, add(CFA_XSP16, literal(-4)))
        CFI ?BRET_EXT load(1, XDATA, add(CFA_XSP16, literal(-3)))
        CFI DPL0 load(1, XDATA, add(CFA_XSP16, literal(-2)))
        CFI DPH0 load(1, XDATA, add(CFA_XSP16, literal(-1)))
        CFI CFA_SP SP+0
        CFI CFA_XSP16 add(XSP16, 19)
        CFI Block cfiCond110 Using cfiCommon0
        CFI (cfiCond110) NoFunction
        CFI (cfiCond110) Conditional ??CrossCallReturnLabel_42
        CFI (cfiCond110) R6 load(1, XDATA, add(CFA_XSP16, literal(-14)))
        CFI (cfiCond110) VB load(1, XDATA, add(CFA_XSP16, literal(-13)))
        CFI (cfiCond110) V0 load(1, XDATA, add(CFA_XSP16, literal(-12)))
        CFI (cfiCond110) V1 load(1, XDATA, add(CFA_XSP16, literal(-11)))
        CFI (cfiCond110) V2 load(1, XDATA, add(CFA_XSP16, literal(-10)))
        CFI (cfiCond110) V3 load(1, XDATA, add(CFA_XSP16, literal(-9)))
        CFI (cfiCond110) V4 load(1, XDATA, add(CFA_XSP16, literal(-8)))
        CFI (cfiCond110) V5 load(1, XDATA, add(CFA_XSP16, literal(-7)))
        CFI (cfiCond110) R7 load(1, XDATA, add(CFA_XSP16, literal(-6)))
        CFI (cfiCond110) ?RET_LOW load(1, XDATA, add(CFA_XSP16, literal(-5)))
        CFI (cfiCond110) ?RET_HIGH load(1, XDATA, add(CFA_XSP16, literal(-4)))
        CFI (cfiCond110) ?BRET_EXT load(1, XDATA, add(CFA_XSP16, literal(-3)))
        CFI (cfiCond110) DPL0 load(1, XDATA, add(CFA_XSP16, literal(-2)))
        CFI (cfiCond110) DPH0 load(1, XDATA, add(CFA_XSP16, literal(-1)))
        CFI (cfiCond110) CFA_SP SP+0
        CFI (cfiCond110) CFA_XSP16 add(XSP16, 19)
        CFI Block cfiPicker111 Using cfiCommon1
        CFI (cfiPicker111) NoFunction
        CFI (cfiPicker111) Picker
        MOV     R1,A
        LCALL   ??afFindEndPointDesc?relay
        MOV     ?V0 + 1,R3
        MOV     A,R2
        ORL     A,?V0 + 1
        RET
        CFI EndBlock cfiCond109
        CFI EndBlock cfiCond110
        CFI EndBlock cfiPicker111

        RSEG BANKED_CODE:CODE:NOROOT(0)
?Subroutine16:
        CFI Block cfiCond112 Using cfiCommon0
        CFI NoFunction
        CFI Conditional ??CrossCallReturnLabel_20
        CFI R6 load(1, XDATA, add(CFA_XSP16, literal(-14)))
        CFI VB load(1, XDATA, add(CFA_XSP16, literal(-13)))
        CFI V0 load(1, XDATA, add(CFA_XSP16, literal(-12)))
        CFI V1 load(1, XDATA, add(CFA_XSP16, literal(-11)))
        CFI V2 load(1, XDATA, add(CFA_XSP16, literal(-10)))
        CFI V3 load(1, XDATA, add(CFA_XSP16, literal(-9)))
        CFI V4 load(1, XDATA, add(CFA_XSP16, literal(-8)))
        CFI V5 load(1, XDATA, add(CFA_XSP16, literal(-7)))
        CFI R7 load(1, XDATA, add(CFA_XSP16, literal(-6)))
        CFI ?RET_LOW load(1, XDATA, add(CFA_XSP16, literal(-5)))
        CFI ?RET_HIGH load(1, XDATA, add(CFA_XSP16, literal(-4)))
        CFI ?BRET_EXT load(1, XDATA, add(CFA_XSP16, literal(-3)))
        CFI DPL0 load(1, XDATA, add(CFA_XSP16, literal(-2)))
        CFI DPH0 load(1, XDATA, add(CFA_XSP16, literal(-1)))
        CFI CFA_SP SP+0
        CFI CFA_XSP16 add(XSP16, 19)
        CFI Block cfiCond113 Using cfiCommon0
        CFI (cfiCond113) NoFunction
        CFI (cfiCond113) Conditional ??CrossCallReturnLabel_21
        CFI (cfiCond113) R6 load(1, XDATA, add(CFA_XSP16, literal(-14)))
        CFI (cfiCond113) VB load(1, XDATA, add(CFA_XSP16, literal(-13)))
        CFI (cfiCond113) V0 load(1, XDATA, add(CFA_XSP16, literal(-12)))
        CFI (cfiCond113) V1 load(1, XDATA, add(CFA_XSP16, literal(-11)))
        CFI (cfiCond113) V2 load(1, XDATA, add(CFA_XSP16, literal(-10)))
        CFI (cfiCond113) V3 load(1, XDATA, add(CFA_XSP16, literal(-9)))
        CFI (cfiCond113) V4 load(1, XDATA, add(CFA_XSP16, literal(-8)))
        CFI (cfiCond113) V5 load(1, XDATA, add(CFA_XSP16, literal(-7)))
        CFI (cfiCond113) R7 load(1, XDATA, add(CFA_XSP16, literal(-6)))
        CFI (cfiCond113) ?RET_LOW load(1, XDATA, add(CFA_XSP16, literal(-5)))
        CFI (cfiCond113) ?RET_HIGH load(1, XDATA, add(CFA_XSP16, literal(-4)))
        CFI (cfiCond113) ?BRET_EXT load(1, XDATA, add(CFA_XSP16, literal(-3)))
        CFI (cfiCond113) DPL0 load(1, XDATA, add(CFA_XSP16, literal(-2)))
        CFI (cfiCond113) DPH0 load(1, XDATA, add(CFA_XSP16, literal(-1)))
        CFI (cfiCond113) CFA_SP SP+0
        CFI (cfiCond113) CFA_XSP16 add(XSP16, 19)
        CFI Block cfiPicker114 Using cfiCommon1
        CFI (cfiPicker114) NoFunction
        CFI (cfiPicker114) Picker
        LCALL   ?Subroutine35 & 0xFFFF
??CrossCallReturnLabel_63:
        INC     DPTR
        RET
        CFI EndBlock cfiCond112
        CFI EndBlock cfiCond113
        CFI EndBlock cfiPicker114

        RSEG BANKED_CODE:CODE:NOROOT(0)
?Subroutine35:
        CFI Block cfiCond115 Using cfiCommon0
        CFI NoFunction
        CFI Conditional ??CrossCallReturnLabel_64, ??CrossCallReturnLabel_58
        CFI DPL0 Frame(CFA_SP, 4)
        CFI DPH0 Frame(CFA_SP, 5)
        CFI CFA_SP SP+-5
        CFI Block cfiCond116 Using cfiCommon0
        CFI (cfiCond116) NoFunction
        CFI (cfiCond116) Conditional ??CrossCallReturnLabel_64, ??CrossCallReturnLabel_59
        CFI (cfiCond116) DPL0 Frame(CFA_SP, 4)
        CFI (cfiCond116) DPH0 Frame(CFA_SP, 5)
        CFI (cfiCond116) CFA_SP SP+-5
        CFI Block cfiCond117 Using cfiCommon0
        CFI (cfiCond117) NoFunction
        CFI (cfiCond117) Conditional ??CrossCallReturnLabel_64, ??CrossCallReturnLabel_60
        CFI (cfiCond117) DPL0 Frame(CFA_SP, 4)
        CFI (cfiCond117) DPH0 Frame(CFA_SP, 5)
        CFI (cfiCond117) CFA_SP SP+-5
        CFI Block cfiCond118 Using cfiCommon0
        CFI (cfiCond118) NoFunction
        CFI (cfiCond118) Conditional ??CrossCallReturnLabel_64, ??CrossCallReturnLabel_61
        CFI (cfiCond118) DPL0 Frame(CFA_SP, 4)
        CFI (cfiCond118) DPH0 Frame(CFA_SP, 5)
        CFI (cfiCond118) CFA_SP SP+-5
        CFI Block cfiCond119 Using cfiCommon0
        CFI (cfiCond119) NoFunction
        CFI (cfiCond119) Conditional ??CrossCallReturnLabel_64, ??CrossCallReturnLabel_62
        CFI (cfiCond119) DPL0 Frame(CFA_SP, 4)
        CFI (cfiCond119) DPH0 Frame(CFA_SP, 5)
        CFI (cfiCond119) CFA_SP SP+-5
        CFI Block cfiCond120 Using cfiCommon0
        CFI (cfiCond120) NoFunction
        CFI (cfiCond120) Conditional ??CrossCallReturnLabel_64, ??CrossCallReturnLabel_57
        CFI (cfiCond120) R6 load(1, XDATA, add(CFA_XSP16, literal(-14)))
        CFI (cfiCond120) VB load(1, XDATA, add(CFA_XSP16, literal(-13)))
        CFI (cfiCond120) V0 load(1, XDATA, add(CFA_XSP16, literal(-12)))
        CFI (cfiCond120) V1 load(1, XDATA, add(CFA_XSP16, literal(-11)))
        CFI (cfiCond120) V2 load(1, XDATA, add(CFA_XSP16, literal(-10)))
        CFI (cfiCond120) V3 load(1, XDATA, add(CFA_XSP16, literal(-9)))
        CFI (cfiCond120) V4 load(1, XDATA, add(CFA_XSP16, literal(-8)))
        CFI (cfiCond120) V5 load(1, XDATA, add(CFA_XSP16, literal(-7)))
        CFI (cfiCond120) R7 load(1, XDATA, add(CFA_XSP16, literal(-6)))
        CFI (cfiCond120) ?RET_LOW load(1, XDATA, add(CFA_XSP16, literal(-5)))
        CFI (cfiCond120) ?RET_HIGH load(1, XDATA, add(CFA_XSP16, literal(-4)))
        CFI (cfiCond120) ?BRET_EXT load(1, XDATA, add(CFA_XSP16, literal(-3)))
        CFI (cfiCond120) DPL0 load(1, XDATA, add(CFA_XSP16, literal(-2)))
        CFI (cfiCond120) DPH0 load(1, XDATA, add(CFA_XSP16, literal(-1)))
        CFI (cfiCond120) CFA_SP SP+0
        CFI (cfiCond120) CFA_XSP16 add(XSP16, 19)
        CFI Block cfiCond121 Using cfiCommon0
        CFI (cfiCond121) NoFunction
        CFI (cfiCond121) Conditional ??CrossCallReturnLabel_63, ??CrossCallReturnLabel_20
        CFI (cfiCond121) R6 load(1, XDATA, add(CFA_XSP16, literal(-14)))
        CFI (cfiCond121) VB load(1, XDATA, add(CFA_XSP16, literal(-13)))
        CFI (cfiCond121) V0 load(1, XDATA, add(CFA_XSP16, literal(-12)))
        CFI (cfiCond121) V1 load(1, XDATA, add(CFA_XSP16, literal(-11)))
        CFI (cfiCond121) V2 load(1, XDATA, add(CFA_XSP16, literal(-10)))
        CFI (cfiCond121) V3 load(1, XDATA, add(CFA_XSP16, literal(-9)))
        CFI (cfiCond121) V4 load(1, XDATA, add(CFA_XSP16, literal(-8)))
        CFI (cfiCond121) V5 load(1, XDATA, add(CFA_XSP16, literal(-7)))
        CFI (cfiCond121) R7 load(1, XDATA, add(CFA_XSP16, literal(-6)))
        CFI (cfiCond121) ?RET_LOW load(1, XDATA, add(CFA_XSP16, literal(-5)))
        CFI (cfiCond121) ?RET_HIGH load(1, XDATA, add(CFA_XSP16, literal(-4)))
        CFI (cfiCond121) ?BRET_EXT load(1, XDATA, add(CFA_XSP16, literal(-3)))
        CFI (cfiCond121) DPL0 load(1, XDATA, add(CFA_XSP16, literal(-2)))
        CFI (cfiCond121) DPH0 load(1, XDATA, add(CFA_XSP16, literal(-1)))
        CFI (cfiCond121) CFA_SP SP+0
        CFI (cfiCond121) CFA_XSP16 add(XSP16, 19)
        CFI Block cfiCond122 Using cfiCommon0
        CFI (cfiCond122) NoFunction
        CFI (cfiCond122) Conditional ??CrossCallReturnLabel_63, ??CrossCallReturnLabel_21
        CFI (cfiCond122) R6 load(1, XDATA, add(CFA_XSP16, literal(-14)))
        CFI (cfiCond122) VB load(1, XDATA, add(CFA_XSP16, literal(-13)))
        CFI (cfiCond122) V0 load(1, XDATA, add(CFA_XSP16, literal(-12)))
        CFI (cfiCond122) V1 load(1, XDATA, add(CFA_XSP16, literal(-11)))
        CFI (cfiCond122) V2 load(1, XDATA, add(CFA_XSP16, literal(-10)))
        CFI (cfiCond122) V3 load(1, XDATA, add(CFA_XSP16, literal(-9)))
        CFI (cfiCond122) V4 load(1, XDATA, add(CFA_XSP16, literal(-8)))
        CFI (cfiCond122) V5 load(1, XDATA, add(CFA_XSP16, literal(-7)))
        CFI (cfiCond122) R7 load(1, XDATA, add(CFA_XSP16, literal(-6)))
        CFI (cfiCond122) ?RET_LOW load(1, XDATA, add(CFA_XSP16, literal(-5)))
        CFI (cfiCond122) ?RET_HIGH load(1, XDATA, add(CFA_XSP16, literal(-4)))
        CFI (cfiCond122) ?BRET_EXT load(1, XDATA, add(CFA_XSP16, literal(-3)))
        CFI (cfiCond122) DPL0 load(1, XDATA, add(CFA_XSP16, literal(-2)))
        CFI (cfiCond122) DPH0 load(1, XDATA, add(CFA_XSP16, literal(-1)))
        CFI (cfiCond122) CFA_SP SP+0
        CFI (cfiCond122) CFA_XSP16 add(XSP16, 19)
        CFI Block cfiPicker123 Using cfiCommon1
        CFI (cfiPicker123) NoFunction
        CFI (cfiPicker123) Picker
        MOVX    A,@DPTR
        MOV     R0,A
        INC     DPTR
        MOVX    A,@DPTR
        MOV     DPH,A
        MOV     DPL,R0
        RET
        CFI EndBlock cfiCond115
        CFI EndBlock cfiCond116
        CFI EndBlock cfiCond117
        CFI EndBlock cfiCond118
        CFI EndBlock cfiCond119
        CFI EndBlock cfiCond120
        CFI EndBlock cfiCond121
        CFI EndBlock cfiCond122
        CFI EndBlock cfiPicker123

        RSEG BANKED_CODE:CODE:NOROOT(0)
?Subroutine9:
        CFI Block cfiCond124 Using cfiCommon0
        CFI NoFunction
        CFI Conditional ??CrossCallReturnLabel_10
        CFI R6 load(1, XDATA, add(CFA_XSP16, literal(-14)))
        CFI VB load(1, XDATA, add(CFA_XSP16, literal(-13)))
        CFI V0 load(1, XDATA, add(CFA_XSP16, literal(-12)))
        CFI V1 load(1, XDATA, add(CFA_XSP16, literal(-11)))
        CFI V2 load(1, XDATA, add(CFA_XSP16, literal(-10)))
        CFI V3 load(1, XDATA, add(CFA_XSP16, literal(-9)))
        CFI V4 load(1, XDATA, add(CFA_XSP16, literal(-8)))
        CFI V5 load(1, XDATA, add(CFA_XSP16, literal(-7)))
        CFI R7 load(1, XDATA, add(CFA_XSP16, literal(-6)))
        CFI ?RET_LOW load(1, XDATA, add(CFA_XSP16, literal(-5)))
        CFI ?RET_HIGH load(1, XDATA, add(CFA_XSP16, literal(-4)))
        CFI ?BRET_EXT load(1, XDATA, add(CFA_XSP16, literal(-3)))
        CFI DPL0 load(1, XDATA, add(CFA_XSP16, literal(-2)))
        CFI DPH0 load(1, XDATA, add(CFA_XSP16, literal(-1)))
        CFI CFA_SP SP+0
        CFI CFA_XSP16 add(XSP16, 19)
        CFI Block cfiCond125 Using cfiCommon0
        CFI (cfiCond125) NoFunction
        CFI (cfiCond125) Conditional ??CrossCallReturnLabel_11
        CFI (cfiCond125) R6 load(1, XDATA, add(CFA_XSP16, literal(-14)))
        CFI (cfiCond125) VB load(1, XDATA, add(CFA_XSP16, literal(-13)))
        CFI (cfiCond125) V0 load(1, XDATA, add(CFA_XSP16, literal(-12)))
        CFI (cfiCond125) V1 load(1, XDATA, add(CFA_XSP16, literal(-11)))
        CFI (cfiCond125) V2 load(1, XDATA, add(CFA_XSP16, literal(-10)))
        CFI (cfiCond125) V3 load(1, XDATA, add(CFA_XSP16, literal(-9)))
        CFI (cfiCond125) V4 load(1, XDATA, add(CFA_XSP16, literal(-8)))
        CFI (cfiCond125) V5 load(1, XDATA, add(CFA_XSP16, literal(-7)))
        CFI (cfiCond125) R7 load(1, XDATA, add(CFA_XSP16, literal(-6)))
        CFI (cfiCond125) ?RET_LOW load(1, XDATA, add(CFA_XSP16, literal(-5)))
        CFI (cfiCond125) ?RET_HIGH load(1, XDATA, add(CFA_XSP16, literal(-4)))
        CFI (cfiCond125) ?BRET_EXT load(1, XDATA, add(CFA_XSP16, literal(-3)))
        CFI (cfiCond125) DPL0 load(1, XDATA, add(CFA_XSP16, literal(-2)))
        CFI (cfiCond125) DPH0 load(1, XDATA, add(CFA_XSP16, literal(-1)))
        CFI (cfiCond125) CFA_SP SP+0
        CFI (cfiCond125) CFA_XSP16 add(XSP16, 19)
        CFI Block cfiPicker126 Using cfiCommon1
        CFI (cfiPicker126) NoFunction
        CFI (cfiPicker126) Picker
        INC     DPTR
        INC     DPTR
        INC     DPTR
        INC     DPTR
        INC     DPTR
        INC     DPTR
        INC     DPTR
        MOVX    A,@DPTR
        ADD     A,R0
        MOV     R3,A
        INC     DPTR
        MOVX    A,@DPTR
        ADDC    A,R1
        MOV     DPL,R3
        LCALL   ??Subroutine42_0 & 0xFFFF
??CrossCallReturnLabel_54:
        MOV     DPL,?V0 + 0
        MOV     DPH,?V0 + 1
        INC     DPTR
        INC     DPTR
        MOVX    A,@DPTR
        XRL     A,R0
        RET
        CFI EndBlock cfiCond124
        CFI EndBlock cfiCond125
        CFI EndBlock cfiPicker126

        RSEG BANKED_CODE:CODE:NOROOT(0)
?Subroutine4:
        CFI Block cfiCond127 Using cfiCommon0
        CFI NoFunction
        CFI Conditional ??CrossCallReturnLabel_0
        CFI R6 load(1, XDATA, add(CFA_XSP16, literal(-14)))
        CFI VB load(1, XDATA, add(CFA_XSP16, literal(-13)))
        CFI V0 load(1, XDATA, add(CFA_XSP16, literal(-12)))
        CFI V1 load(1, XDATA, add(CFA_XSP16, literal(-11)))
        CFI V2 load(1, XDATA, add(CFA_XSP16, literal(-10)))
        CFI V3 load(1, XDATA, add(CFA_XSP16, literal(-9)))
        CFI V4 load(1, XDATA, add(CFA_XSP16, literal(-8)))
        CFI V5 load(1, XDATA, add(CFA_XSP16, literal(-7)))
        CFI R7 load(1, XDATA, add(CFA_XSP16, literal(-6)))
        CFI ?RET_LOW load(1, XDATA, add(CFA_XSP16, literal(-5)))
        CFI ?RET_HIGH load(1, XDATA, add(CFA_XSP16, literal(-4)))
        CFI ?BRET_EXT load(1, XDATA, add(CFA_XSP16, literal(-3)))
        CFI DPL0 load(1, XDATA, add(CFA_XSP16, literal(-2)))
        CFI DPH0 load(1, XDATA, add(CFA_XSP16, literal(-1)))
        CFI CFA_SP SP+0
        CFI CFA_XSP16 add(XSP16, 19)
        CFI Block cfiCond128 Using cfiCommon0
        CFI (cfiCond128) NoFunction
        CFI (cfiCond128) Conditional ??CrossCallReturnLabel_1
        CFI (cfiCond128) R6 load(1, XDATA, add(CFA_XSP16, literal(-14)))
        CFI (cfiCond128) VB load(1, XDATA, add(CFA_XSP16, literal(-13)))
        CFI (cfiCond128) V0 load(1, XDATA, add(CFA_XSP16, literal(-12)))
        CFI (cfiCond128) V1 load(1, XDATA, add(CFA_XSP16, literal(-11)))
        CFI (cfiCond128) V2 load(1, XDATA, add(CFA_XSP16, literal(-10)))
        CFI (cfiCond128) V3 load(1, XDATA, add(CFA_XSP16, literal(-9)))
        CFI (cfiCond128) V4 load(1, XDATA, add(CFA_XSP16, literal(-8)))
        CFI (cfiCond128) V5 load(1, XDATA, add(CFA_XSP16, literal(-7)))
        CFI (cfiCond128) R7 load(1, XDATA, add(CFA_XSP16, literal(-6)))
        CFI (cfiCond128) ?RET_LOW load(1, XDATA, add(CFA_XSP16, literal(-5)))
        CFI (cfiCond128) ?RET_HIGH load(1, XDATA, add(CFA_XSP16, literal(-4)))
        CFI (cfiCond128) ?BRET_EXT load(1, XDATA, add(CFA_XSP16, literal(-3)))
        CFI (cfiCond128) DPL0 load(1, XDATA, add(CFA_XSP16, literal(-2)))
        CFI (cfiCond128) DPH0 load(1, XDATA, add(CFA_XSP16, literal(-1)))
        CFI (cfiCond128) CFA_SP SP+0
        CFI (cfiCond128) CFA_XSP16 add(XSP16, 19)
        CFI Block cfiCond129 Using cfiCommon0
        CFI (cfiCond129) NoFunction
        CFI (cfiCond129) Conditional ??CrossCallReturnLabel_2
        CFI (cfiCond129) R6 load(1, XDATA, add(CFA_XSP16, literal(-22)))
        CFI (cfiCond129) VB load(1, XDATA, add(CFA_XSP16, literal(-21)))
        CFI (cfiCond129) V0 load(1, XDATA, add(CFA_XSP16, literal(-20)))
        CFI (cfiCond129) V1 load(1, XDATA, add(CFA_XSP16, literal(-19)))
        CFI (cfiCond129) V2 load(1, XDATA, add(CFA_XSP16, literal(-18)))
        CFI (cfiCond129) V3 load(1, XDATA, add(CFA_XSP16, literal(-17)))
        CFI (cfiCond129) V4 load(1, XDATA, add(CFA_XSP16, literal(-16)))
        CFI (cfiCond129) V5 load(1, XDATA, add(CFA_XSP16, literal(-15)))
        CFI (cfiCond129) V6 load(1, XDATA, add(CFA_XSP16, literal(-14)))
        CFI (cfiCond129) V7 load(1, XDATA, add(CFA_XSP16, literal(-13)))
        CFI (cfiCond129) V8 load(1, XDATA, add(CFA_XSP16, literal(-12)))
        CFI (cfiCond129) V9 load(1, XDATA, add(CFA_XSP16, literal(-11)))
        CFI (cfiCond129) V10 load(1, XDATA, add(CFA_XSP16, literal(-10)))
        CFI (cfiCond129) V11 load(1, XDATA, add(CFA_XSP16, literal(-9)))
        CFI (cfiCond129) V12 load(1, XDATA, add(CFA_XSP16, literal(-8)))
        CFI (cfiCond129) V13 load(1, XDATA, add(CFA_XSP16, literal(-7)))
        CFI (cfiCond129) R7 load(1, XDATA, add(CFA_XSP16, literal(-6)))
        CFI (cfiCond129) ?RET_LOW load(1, XDATA, add(CFA_XSP16, literal(-5)))
        CFI (cfiCond129) ?RET_HIGH load(1, XDATA, add(CFA_XSP16, literal(-4)))
        CFI (cfiCond129) ?BRET_EXT load(1, XDATA, add(CFA_XSP16, literal(-3)))
        CFI (cfiCond129) DPL0 load(1, XDATA, add(CFA_XSP16, literal(-2)))
        CFI (cfiCond129) DPH0 load(1, XDATA, add(CFA_XSP16, literal(-1)))
        CFI (cfiCond129) CFA_SP SP+0
        CFI (cfiCond129) CFA_XSP16 add(XSP16, 29)
        CFI Block cfiPicker130 Using cfiCommon1
        CFI (cfiPicker130) NoFunction
        CFI (cfiPicker130) Picker
        MOVX    @DPTR,A
        ; Setup parameters for call to function afFindEndPointDesc
        ; Setup parameters for call to function osal_memcpy
        MOV     DPL,?XSP + 0
        MOV     DPH,?XSP + 1
        MOVX    A,@DPTR
        RET
        CFI EndBlock cfiCond127
        CFI EndBlock cfiCond128
        CFI EndBlock cfiCond129
        CFI EndBlock cfiPicker130
//  399 /***************************************************************************************
//  400 +DISCOVER C Discover HA Devices On The HAN
//  401 Prompt: 
//  402     DEV:<NodeID>,<EndPoint> ,<enable/disable>
//  403     Carry out the ZigBee Service Discovery to 
//  404     find ZigBee HA devices that support the given match criteria.
//  405 
//  406 ****************************************************************************************/

        RSEG BANKED_CODE:CODE:NOROOT(0)
//  407 void AT_AF_Cmd_HA_DISC_rsp(afIncomingMSGPacket_t *pkt ){
AT_AF_Cmd_HA_DISC_rsp:
        CFI Block cfiBlock131 Using cfiCommon0
        CFI Function AT_AF_Cmd_HA_DISC_rsp
        CODE
        FUNCALL AT_AF_Cmd_HA_DISC_rsp, AT_HalUARTWrite
        LOCFRAME ISTACK, 0, STACK
        LOCFRAME PSTACK, 0, STACK
        LOCFRAME XSTACK, 16, STACK
        LOCFRAME IOVERLAY, 0, STATIC
        LOCFRAME DOVERLAY, 0, STATIC
        ARGFRAME ISTACK, 0, STACK
        ARGFRAME PSTACK, 0, STACK
        ARGFRAME XSTACK, 16, STACK
        ARGFRAME IOVERLAY, 0, STATIC
        ARGFRAME DOVERLAY, 0, STATIC
        FUNCALL AT_AF_Cmd_HA_DISC_rsp, printf
        LOCFRAME ISTACK, 0, STACK
        LOCFRAME PSTACK, 0, STACK
        LOCFRAME XSTACK, 16, STACK
        LOCFRAME IOVERLAY, 0, STATIC
        LOCFRAME DOVERLAY, 0, STATIC
        ARGFRAME ISTACK, 0, STACK
        ARGFRAME PSTACK, 0, STACK
        ARGFRAME XSTACK, 16, STACK
        ARGFRAME IOVERLAY, 0, STATIC
        ARGFRAME DOVERLAY, 0, STATIC
        FUNCALL AT_AF_Cmd_HA_DISC_rsp, AT_HalUARTWrite
        LOCFRAME ISTACK, 0, STACK
        LOCFRAME PSTACK, 0, STACK
        LOCFRAME XSTACK, 16, STACK
        LOCFRAME IOVERLAY, 0, STATIC
        LOCFRAME DOVERLAY, 0, STATIC
        ARGFRAME ISTACK, 0, STACK
        ARGFRAME PSTACK, 0, STACK
        ARGFRAME XSTACK, 16, STACK
        ARGFRAME IOVERLAY, 0, STATIC
        ARGFRAME DOVERLAY, 0, STATIC
        FUNCALL AT_AF_Cmd_HA_DISC_rsp, printf
        LOCFRAME ISTACK, 0, STACK
        LOCFRAME PSTACK, 0, STACK
        LOCFRAME XSTACK, 18, STACK
        LOCFRAME IOVERLAY, 0, STATIC
        LOCFRAME DOVERLAY, 0, STATIC
        ARGFRAME ISTACK, 0, STACK
        ARGFRAME PSTACK, 0, STACK
        ARGFRAME XSTACK, 18, STACK
        ARGFRAME IOVERLAY, 0, STATIC
        ARGFRAME DOVERLAY, 0, STATIC
        FUNCALL AT_AF_Cmd_HA_DISC_rsp, printf
        LOCFRAME ISTACK, 0, STACK
        LOCFRAME PSTACK, 0, STACK
        LOCFRAME XSTACK, 16, STACK
        LOCFRAME IOVERLAY, 0, STATIC
        LOCFRAME DOVERLAY, 0, STATIC
        ARGFRAME ISTACK, 0, STACK
        ARGFRAME PSTACK, 0, STACK
        ARGFRAME XSTACK, 16, STACK
        ARGFRAME IOVERLAY, 0, STATIC
        ARGFRAME DOVERLAY, 0, STATIC
        FUNCALL AT_AF_Cmd_HA_DISC_rsp, printf
        LOCFRAME ISTACK, 0, STACK
        LOCFRAME PSTACK, 0, STACK
        LOCFRAME XSTACK, 18, STACK
        LOCFRAME IOVERLAY, 0, STATIC
        LOCFRAME DOVERLAY, 0, STATIC
        ARGFRAME ISTACK, 0, STACK
        ARGFRAME PSTACK, 0, STACK
        ARGFRAME XSTACK, 18, STACK
        ARGFRAME IOVERLAY, 0, STATIC
        ARGFRAME DOVERLAY, 0, STATIC
        FUNCALL AT_AF_Cmd_HA_DISC_rsp, printf
        LOCFRAME ISTACK, 0, STACK
        LOCFRAME PSTACK, 0, STACK
        LOCFRAME XSTACK, 16, STACK
        LOCFRAME IOVERLAY, 0, STATIC
        LOCFRAME DOVERLAY, 0, STATIC
        ARGFRAME ISTACK, 0, STACK
        ARGFRAME PSTACK, 0, STACK
        ARGFRAME XSTACK, 16, STACK
        ARGFRAME IOVERLAY, 0, STATIC
        ARGFRAME DOVERLAY, 0, STATIC
        FUNCALL AT_AF_Cmd_HA_DISC_rsp, AT_HalUARTWrite
        LOCFRAME ISTACK, 0, STACK
        LOCFRAME PSTACK, 0, STACK
        LOCFRAME XSTACK, 16, STACK
        LOCFRAME IOVERLAY, 0, STATIC
        LOCFRAME DOVERLAY, 0, STATIC
        ARGFRAME ISTACK, 0, STACK
        ARGFRAME PSTACK, 0, STACK
        ARGFRAME XSTACK, 16, STACK
        ARGFRAME IOVERLAY, 0, STATIC
        ARGFRAME DOVERLAY, 0, STATIC
        MOV     A,#-0x10
        LCALL   ?BANKED_ENTER_XDATA
        CFI DPH0 load(1, XDATA, add(CFA_XSP16, literal(-1)))
        CFI DPL0 load(1, XDATA, add(CFA_XSP16, literal(-2)))
        CFI ?BRET_EXT load(1, XDATA, add(CFA_XSP16, literal(-3)))
        CFI ?RET_HIGH load(1, XDATA, add(CFA_XSP16, literal(-4)))
        CFI ?RET_LOW load(1, XDATA, add(CFA_XSP16, literal(-5)))
        CFI R7 load(1, XDATA, add(CFA_XSP16, literal(-6)))
        CFI V7 load(1, XDATA, add(CFA_XSP16, literal(-7)))
        CFI V6 load(1, XDATA, add(CFA_XSP16, literal(-8)))
        CFI V5 load(1, XDATA, add(CFA_XSP16, literal(-9)))
        CFI V4 load(1, XDATA, add(CFA_XSP16, literal(-10)))
        CFI V3 load(1, XDATA, add(CFA_XSP16, literal(-11)))
        CFI V2 load(1, XDATA, add(CFA_XSP16, literal(-12)))
        CFI V1 load(1, XDATA, add(CFA_XSP16, literal(-13)))
        CFI V0 load(1, XDATA, add(CFA_XSP16, literal(-14)))
        CFI VB load(1, XDATA, add(CFA_XSP16, literal(-15)))
        CFI R6 load(1, XDATA, add(CFA_XSP16, literal(-16)))
        CFI CFA_SP SP+0
        CFI CFA_XSP16 add(XSP16, 16)
        ; Saved register size: 16
        ; Auto size: 0
        MOV     A,R2
        MOV     R6,A
        MOV     A,R3
        MOV     R7,A
//  408   AT_AF_Cmd_HA_DISC_rsp_t *rsp = (AT_AF_Cmd_HA_DISC_rsp_t *)pkt->cmd.Data;
        LCALL   ?Subroutine12 & 0xFFFF
//  409   AT_RESP_START();
??CrossCallReturnLabel_67:
        ; Setup parameters for call to function AT_HalUARTWrite
        MOV     R4,#0x2
        MOV     R5,#0x0
        MOV     R2,#`?<Constant "\\r\\n">` & 0xff
        MOV     R3,#(`?<Constant "\\r\\n">` >> 8) & 0xff
        MOV     R1,#0x0
        LCALL   ??AT_HalUARTWrite?relay
//  410   uint8 i;
//  411   for(i=0;i<rsp->hdr.numItem;i++){
        MOV     ?V0 + 4,#0x0
        SJMP    ??AT_AF_Cmd_HA_DISC_rsp_0
//  412     if(pkt->srcAddr.addrMode==(afAddrMode_t)Addr16Bit){
//  413       printf("DEV:%04X,",pkt->srcAddr.addr.shortAddr);
//  414     }else {
//  415       printf("UNKNOWN");
//  416     }
//  417     printf("%02X,",rsp->item[i].ep);       
//  418     if(rsp->item[i].status==AT_AF_enable){
//  419       printf("ENABLED");
//  420     }
//  421     else printf("DISABLED");
??AT_AF_Cmd_HA_DISC_rsp_1:
        ; Setup parameters for call to function printf
        MOV     R2,#`?<Constant "DISABLED">` & 0xff
        MOV     R3,#(`?<Constant "DISABLED">` >> 8) & 0xff
??AT_AF_Cmd_HA_DISC_rsp_2:
        LCALL   ?Subroutine29 & 0xFFFF
//  422     AT_NEXT_LINE();
??CrossCallReturnLabel_39:
        INC     ?V0 + 4
??AT_AF_Cmd_HA_DISC_rsp_0:
        MOV     DPL,?V0 + 0
        MOV     DPH,?V0 + 1
        INC     DPTR
        MOVX    A,@DPTR
        MOV     R0,A
        MOV     A,?V0 + 4
        CLR     C
        SUBB    A,R0
        JNC     ??AT_AF_Cmd_HA_DISC_rsp_3
        LCALL   ??Subroutine40_0 & 0xFFFF
??CrossCallReturnLabel_52:
        JNZ     ??AT_AF_Cmd_HA_DISC_rsp_4
        ; Setup parameters for call to function printf
        MOV     DPL,R6
        MOV     DPH,R7
        INC     DPTR
        INC     DPTR
        INC     DPTR
        INC     DPTR
        INC     DPTR
        INC     DPTR
        LCALL   ?PUSH_XSTACK8_X_TWO
        CFI CFA_XSP16 add(XSP16, 18)
        MOV     R2,#`?<Constant "DEV:%04X,">` & 0xff
        MOV     R3,#(`?<Constant "DEV:%04X,">` >> 8) & 0xff
        LCALL   ??Subroutine49_0 & 0xFFFF
??CrossCallReturnLabel_77:
        LCALL   ?DEALLOC_XSTACK8
        CFI CFA_XSP16 add(XSP16, 16)
        SJMP    ??AT_AF_Cmd_HA_DISC_rsp_5
??AT_AF_Cmd_HA_DISC_rsp_4:
        ; Setup parameters for call to function printf
        MOV     R2,#`?<Constant "UNKNOWN">` & 0xff
        MOV     R3,#(`?<Constant "UNKNOWN">` >> 8) & 0xff
        LCALL   ??printf?relay
??AT_AF_Cmd_HA_DISC_rsp_5:
        MOV     A,?V0 + 4
        CLR     C
        RLC     A
        MOV     R0,A
        CLR     A
        RLC     A
        MOV     R1,A
        MOV     A,?V0 + 0
        ADD     A,R0
        MOV     R0,A
        MOV     A,?V0 + 1
        ADDC    A,R1
        MOV     R1,A
        MOV     ?V0 + 2,R0
        MOV     ?V0 + 3,R1
        ; Setup parameters for call to function printf
        MOV     DPL,R0
        MOV     DPH,A
        INC     DPTR
        INC     DPTR
        MOVX    A,@DPTR
        MOV     ?V0 + 6,A
        MOV     ?V0 + 7,#0x0
        MOV     R0,#?V0 + 6
        LCALL   ?PUSH_XSTACK_I_TWO
        CFI CFA_XSP16 add(XSP16, 18)
        MOV     R2,#`?<Constant "%02X,">` & 0xff
        MOV     R3,#(`?<Constant "%02X,">` >> 8) & 0xff
        LCALL   ??Subroutine49_0 & 0xFFFF
??CrossCallReturnLabel_78:
        LCALL   ?DEALLOC_XSTACK8
        CFI CFA_XSP16 add(XSP16, 16)
        MOV     DPL,?V0 + 2
        MOV     DPH,?V0 + 3
        INC     DPTR
        INC     DPTR
        INC     DPTR
        MOVX    A,@DPTR
        XRL     A,#0x1
        JNZ     ??AT_AF_Cmd_HA_DISC_rsp_1
        ; Setup parameters for call to function printf
        MOV     R2,#`?<Constant "ENABLED">` & 0xff
        MOV     R3,#(`?<Constant "ENABLED">` >> 8) & 0xff
        SJMP    ??AT_AF_Cmd_HA_DISC_rsp_2
//  423   }
//  424   AT_RESP_START();
??AT_AF_Cmd_HA_DISC_rsp_3:
        ; Setup parameters for call to function AT_HalUARTWrite
        MOV     R4,#0x2
        MOV     R5,#0x0
        MOV     R2,#`?<Constant "\\r\\n">` & 0xff
        MOV     R3,#(`?<Constant "\\r\\n">` >> 8) & 0xff
        MOV     R1,#0x0
        LCALL   ??AT_HalUARTWrite?relay
//  425 }
        MOV     R7,#0x8
        LJMP    ?BANKED_LEAVE_XDATA
        CFI EndBlock cfiBlock131

        RSEG BANKED_CODE:CODE:NOROOT(0)
?Subroutine12:
        CFI Block cfiCond132 Using cfiCommon0
        CFI NoFunction
        CFI Conditional ??CrossCallReturnLabel_67
        CFI R6 load(1, XDATA, add(CFA_XSP16, literal(-16)))
        CFI VB load(1, XDATA, add(CFA_XSP16, literal(-15)))
        CFI V0 load(1, XDATA, add(CFA_XSP16, literal(-14)))
        CFI V1 load(1, XDATA, add(CFA_XSP16, literal(-13)))
        CFI V2 load(1, XDATA, add(CFA_XSP16, literal(-12)))
        CFI V3 load(1, XDATA, add(CFA_XSP16, literal(-11)))
        CFI V4 load(1, XDATA, add(CFA_XSP16, literal(-10)))
        CFI V5 load(1, XDATA, add(CFA_XSP16, literal(-9)))
        CFI V6 load(1, XDATA, add(CFA_XSP16, literal(-8)))
        CFI V7 load(1, XDATA, add(CFA_XSP16, literal(-7)))
        CFI R7 load(1, XDATA, add(CFA_XSP16, literal(-6)))
        CFI ?RET_LOW load(1, XDATA, add(CFA_XSP16, literal(-5)))
        CFI ?RET_HIGH load(1, XDATA, add(CFA_XSP16, literal(-4)))
        CFI ?BRET_EXT load(1, XDATA, add(CFA_XSP16, literal(-3)))
        CFI DPL0 load(1, XDATA, add(CFA_XSP16, literal(-2)))
        CFI DPH0 load(1, XDATA, add(CFA_XSP16, literal(-1)))
        CFI CFA_SP SP+0
        CFI CFA_XSP16 add(XSP16, 16)
        CFI Block cfiCond133 Using cfiCommon0
        CFI (cfiCond133) NoFunction
        CFI (cfiCond133) Conditional ??CrossCallReturnLabel_68
        CFI (cfiCond133) R6 load(1, XDATA, add(CFA_XSP16, literal(-14)))
        CFI (cfiCond133) VB load(1, XDATA, add(CFA_XSP16, literal(-13)))
        CFI (cfiCond133) V0 load(1, XDATA, add(CFA_XSP16, literal(-12)))
        CFI (cfiCond133) V1 load(1, XDATA, add(CFA_XSP16, literal(-11)))
        CFI (cfiCond133) V2 load(1, XDATA, add(CFA_XSP16, literal(-10)))
        CFI (cfiCond133) V3 load(1, XDATA, add(CFA_XSP16, literal(-9)))
        CFI (cfiCond133) V4 load(1, XDATA, add(CFA_XSP16, literal(-8)))
        CFI (cfiCond133) V5 load(1, XDATA, add(CFA_XSP16, literal(-7)))
        CFI (cfiCond133) R7 load(1, XDATA, add(CFA_XSP16, literal(-6)))
        CFI (cfiCond133) ?RET_LOW load(1, XDATA, add(CFA_XSP16, literal(-5)))
        CFI (cfiCond133) ?RET_HIGH load(1, XDATA, add(CFA_XSP16, literal(-4)))
        CFI (cfiCond133) ?BRET_EXT load(1, XDATA, add(CFA_XSP16, literal(-3)))
        CFI (cfiCond133) DPL0 load(1, XDATA, add(CFA_XSP16, literal(-2)))
        CFI (cfiCond133) DPH0 load(1, XDATA, add(CFA_XSP16, literal(-1)))
        CFI (cfiCond133) CFA_SP SP+0
        CFI (cfiCond133) CFA_XSP16 add(XSP16, 19)
        CFI Block cfiPicker134 Using cfiCommon1
        CFI (cfiPicker134) NoFunction
        CFI (cfiPicker134) Picker
        MOV     A,R6
        ADD     A,#0x22
        LCALL   ?Subroutine36 & 0xFFFF
        CFI EndBlock cfiCond132
        CFI EndBlock cfiCond133
        CFI EndBlock cfiPicker134
??CrossCallReturnLabel_95:
        REQUIRE ??Subroutine45_0
        ; // Fall through to label ??Subroutine45_0

        RSEG BANKED_CODE:CODE:NOROOT(0)
??Subroutine45_0:
        CFI Block cfiCond135 Using cfiCommon0
        CFI NoFunction
        CFI Conditional ??CrossCallReturnLabel_65
        CFI R6 load(1, XDATA, add(CFA_XSP16, literal(-10)))
        CFI VB load(1, XDATA, add(CFA_XSP16, literal(-9)))
        CFI V0 load(1, XDATA, add(CFA_XSP16, literal(-8)))
        CFI V1 load(1, XDATA, add(CFA_XSP16, literal(-7)))
        CFI R7 load(1, XDATA, add(CFA_XSP16, literal(-6)))
        CFI ?RET_LOW load(1, XDATA, add(CFA_XSP16, literal(-5)))
        CFI ?RET_HIGH load(1, XDATA, add(CFA_XSP16, literal(-4)))
        CFI ?BRET_EXT load(1, XDATA, add(CFA_XSP16, literal(-3)))
        CFI DPL0 load(1, XDATA, add(CFA_XSP16, literal(-2)))
        CFI DPH0 load(1, XDATA, add(CFA_XSP16, literal(-1)))
        CFI CFA_SP SP+0
        CFI CFA_XSP16 add(XSP16, 10)
        CFI Block cfiCond136 Using cfiCommon0
        CFI (cfiCond136) NoFunction
        CFI (cfiCond136) Conditional ??CrossCallReturnLabel_66
        CFI (cfiCond136) R6 load(1, XDATA, add(CFA_XSP16, literal(-12)))
        CFI (cfiCond136) VB load(1, XDATA, add(CFA_XSP16, literal(-11)))
        CFI (cfiCond136) V0 load(1, XDATA, add(CFA_XSP16, literal(-10)))
        CFI (cfiCond136) V1 load(1, XDATA, add(CFA_XSP16, literal(-9)))
        CFI (cfiCond136) V2 load(1, XDATA, add(CFA_XSP16, literal(-8)))
        CFI (cfiCond136) V3 load(1, XDATA, add(CFA_XSP16, literal(-7)))
        CFI (cfiCond136) R7 load(1, XDATA, add(CFA_XSP16, literal(-6)))
        CFI (cfiCond136) ?RET_LOW load(1, XDATA, add(CFA_XSP16, literal(-5)))
        CFI (cfiCond136) ?RET_HIGH load(1, XDATA, add(CFA_XSP16, literal(-4)))
        CFI (cfiCond136) ?BRET_EXT load(1, XDATA, add(CFA_XSP16, literal(-3)))
        CFI (cfiCond136) DPL0 load(1, XDATA, add(CFA_XSP16, literal(-2)))
        CFI (cfiCond136) DPH0 load(1, XDATA, add(CFA_XSP16, literal(-1)))
        CFI (cfiCond136) CFA_SP SP+0
        CFI (cfiCond136) CFA_XSP16 add(XSP16, 24)
        CFI Block cfiCond137 Using cfiCommon0
        CFI (cfiCond137) NoFunction
        CFI (cfiCond137) Conditional ??CrossCallReturnLabel_67
        CFI (cfiCond137) R6 load(1, XDATA, add(CFA_XSP16, literal(-16)))
        CFI (cfiCond137) VB load(1, XDATA, add(CFA_XSP16, literal(-15)))
        CFI (cfiCond137) V0 load(1, XDATA, add(CFA_XSP16, literal(-14)))
        CFI (cfiCond137) V1 load(1, XDATA, add(CFA_XSP16, literal(-13)))
        CFI (cfiCond137) V2 load(1, XDATA, add(CFA_XSP16, literal(-12)))
        CFI (cfiCond137) V3 load(1, XDATA, add(CFA_XSP16, literal(-11)))
        CFI (cfiCond137) V4 load(1, XDATA, add(CFA_XSP16, literal(-10)))
        CFI (cfiCond137) V5 load(1, XDATA, add(CFA_XSP16, literal(-9)))
        CFI (cfiCond137) V6 load(1, XDATA, add(CFA_XSP16, literal(-8)))
        CFI (cfiCond137) V7 load(1, XDATA, add(CFA_XSP16, literal(-7)))
        CFI (cfiCond137) R7 load(1, XDATA, add(CFA_XSP16, literal(-6)))
        CFI (cfiCond137) ?RET_LOW load(1, XDATA, add(CFA_XSP16, literal(-5)))
        CFI (cfiCond137) ?RET_HIGH load(1, XDATA, add(CFA_XSP16, literal(-4)))
        CFI (cfiCond137) ?BRET_EXT load(1, XDATA, add(CFA_XSP16, literal(-3)))
        CFI (cfiCond137) DPL0 load(1, XDATA, add(CFA_XSP16, literal(-2)))
        CFI (cfiCond137) DPH0 load(1, XDATA, add(CFA_XSP16, literal(-1)))
        CFI (cfiCond137) CFA_SP SP+0
        CFI (cfiCond137) CFA_XSP16 add(XSP16, 16)
        CFI Block cfiCond138 Using cfiCommon0
        CFI (cfiCond138) NoFunction
        CFI (cfiCond138) Conditional ??CrossCallReturnLabel_68
        CFI (cfiCond138) R6 load(1, XDATA, add(CFA_XSP16, literal(-14)))
        CFI (cfiCond138) VB load(1, XDATA, add(CFA_XSP16, literal(-13)))
        CFI (cfiCond138) V0 load(1, XDATA, add(CFA_XSP16, literal(-12)))
        CFI (cfiCond138) V1 load(1, XDATA, add(CFA_XSP16, literal(-11)))
        CFI (cfiCond138) V2 load(1, XDATA, add(CFA_XSP16, literal(-10)))
        CFI (cfiCond138) V3 load(1, XDATA, add(CFA_XSP16, literal(-9)))
        CFI (cfiCond138) V4 load(1, XDATA, add(CFA_XSP16, literal(-8)))
        CFI (cfiCond138) V5 load(1, XDATA, add(CFA_XSP16, literal(-7)))
        CFI (cfiCond138) R7 load(1, XDATA, add(CFA_XSP16, literal(-6)))
        CFI (cfiCond138) ?RET_LOW load(1, XDATA, add(CFA_XSP16, literal(-5)))
        CFI (cfiCond138) ?RET_HIGH load(1, XDATA, add(CFA_XSP16, literal(-4)))
        CFI (cfiCond138) ?BRET_EXT load(1, XDATA, add(CFA_XSP16, literal(-3)))
        CFI (cfiCond138) DPL0 load(1, XDATA, add(CFA_XSP16, literal(-2)))
        CFI (cfiCond138) DPH0 load(1, XDATA, add(CFA_XSP16, literal(-1)))
        CFI (cfiCond138) CFA_SP SP+0
        CFI (cfiCond138) CFA_XSP16 add(XSP16, 19)
        CFI Block cfiPicker139 Using cfiCommon1
        CFI (cfiPicker139) NoFunction
        CFI (cfiPicker139) Picker
        MOVX    A,@DPTR
        MOV     ?V0 + 0,A
        INC     DPTR
        MOVX    A,@DPTR
        MOV     ?V0 + 1,A
        RET
        CFI EndBlock cfiCond135
        CFI EndBlock cfiCond136
        CFI EndBlock cfiCond137
        CFI EndBlock cfiCond138
        CFI EndBlock cfiPicker139
//  426 /********************************************************
//  427 call back funtin of the CLUSDISC command
//  428 
//  429 DISCCLUS:<Node ID>,<EndPoint>,<Status>
//  430 Prompt (will show, if <Status> is 00) 
//  431             SERVER:<ClusterID>,<ClusterID>,<ClusterID> 
//  432             CLIENT:<ClusterID>,<ClusterID>,< ClusterI
//  433 *************************************************************/

        RSEG BANKED_CODE:CODE:NOROOT(0)
//  434 void AT_AF_Cmd_HA_CIDDISC_CB(afIncomingMSGPacket_t *pkt ){
AT_AF_Cmd_HA_CIDDISC_CB:
        CFI Block cfiBlock140 Using cfiCommon0
        CFI Function AT_AF_Cmd_HA_CIDDISC_CB
        CODE
        FUNCALL AT_AF_Cmd_HA_CIDDISC_CB, AT_AF_Cmd_HA_CIDDISC_req
        LOCFRAME ISTACK, 2, STACK
        LOCFRAME PSTACK, 0, STACK
        LOCFRAME XSTACK, 0, STACK
        LOCFRAME IOVERLAY, 0, STATIC
        LOCFRAME DOVERLAY, 0, STATIC
        ARGFRAME ISTACK, 2, STACK
        ARGFRAME PSTACK, 0, STACK
        ARGFRAME XSTACK, 0, STACK
        ARGFRAME IOVERLAY, 0, STATIC
        ARGFRAME DOVERLAY, 0, STATIC
        FUNCALL AT_AF_Cmd_HA_CIDDISC_CB, AT_AF_Cmd_HA_CIDDISC_rsp
        LOCFRAME ISTACK, 2, STACK
        LOCFRAME PSTACK, 0, STACK
        LOCFRAME XSTACK, 0, STACK
        LOCFRAME IOVERLAY, 0, STATIC
        LOCFRAME DOVERLAY, 0, STATIC
        ARGFRAME ISTACK, 2, STACK
        ARGFRAME PSTACK, 0, STACK
        ARGFRAME XSTACK, 0, STACK
        ARGFRAME IOVERLAY, 0, STATIC
        ARGFRAME DOVERLAY, 0, STATIC
        PUSH    DPL
        CFI DPL0 Frame(CFA_SP, 4)
        CFI CFA_SP SP+-4
        PUSH    DPH
        CFI DPH0 Frame(CFA_SP, 5)
        CFI CFA_SP SP+-5
        ; Saved register size: 2
        ; Auto size: 0
//  435   AT_AF_hdr *req = (AT_AF_hdr *)pkt->cmd.Data;
//  436   if(req->cmd==AT_AF_Cmd_req){
        LCALL   ?Subroutine7 & 0xFFFF
??CrossCallReturnLabel_61:
        JNZ     ??AT_AF_Cmd_HA_CIDDISC_CB_0
//  437     AT_AF_Cmd_HA_CIDDISC_req(pkt);
        ; Setup parameters for call to function AT_AF_Cmd_HA_CIDDISC_req
        LCALL   ??AT_AF_Cmd_HA_CIDDISC_req?relay
        SJMP    ??AT_AF_Cmd_HA_CIDDISC_CB_1
//  438   }else{
//  439     AT_AF_Cmd_HA_CIDDISC_rsp(pkt);
??AT_AF_Cmd_HA_CIDDISC_CB_0:
        ; Setup parameters for call to function AT_AF_Cmd_HA_CIDDISC_rsp
        LCALL   ??AT_AF_Cmd_HA_CIDDISC_rsp?relay
        CFI EndBlock cfiBlock140
//  440   }
//  441 }
??AT_AF_Cmd_HA_CIDDISC_CB_1:
        REQUIRE ?Subroutine0
        ; // Fall through to label ?Subroutine0

        RSEG BANKED_CODE:CODE:NOROOT(0)
?Subroutine0:
        CFI Block cfiBlock141 Using cfiCommon0
        CFI NoFunction
        CFI CFA_SP SP+-5
        CFI DPL0 Frame(CFA_SP, 4)
        CFI DPH0 Frame(CFA_SP, 5)
        POP     DPH
        CFI CFA_SP SP+-4
        CFI DPH0 SameValue
        POP     DPL
        CFI CFA_SP SP+-3
        CFI DPL0 SameValue
        LJMP    ?BRET
        CFI EndBlock cfiBlock141
//  442 /********************************************************
//  443 process request funtin of the CLUSDISC command
//  444 *************************************************************/

        RSEG BANKED_CODE:CODE:NOROOT(0)
//  445 void AT_AF_Cmd_HA_CIDDISC_req(afIncomingMSGPacket_t *pkt  ){
AT_AF_Cmd_HA_CIDDISC_req:
        CFI Block cfiBlock142 Using cfiCommon0
        CFI Function AT_AF_Cmd_HA_CIDDISC_req
        CODE
        FUNCALL AT_AF_Cmd_HA_CIDDISC_req, AT_is_CMD_EPs
        LOCFRAME ISTACK, 0, STACK
        LOCFRAME PSTACK, 0, STACK
        LOCFRAME XSTACK, 29, STACK
        LOCFRAME IOVERLAY, 0, STATIC
        LOCFRAME DOVERLAY, 0, STATIC
        ARGFRAME ISTACK, 0, STACK
        ARGFRAME PSTACK, 0, STACK
        ARGFRAME XSTACK, 29, STACK
        ARGFRAME IOVERLAY, 0, STATIC
        ARGFRAME DOVERLAY, 0, STATIC
        FUNCALL AT_AF_Cmd_HA_CIDDISC_req, afFindSimpleDesc
        LOCFRAME ISTACK, 0, STACK
        LOCFRAME PSTACK, 0, STACK
        LOCFRAME XSTACK, 29, STACK
        LOCFRAME IOVERLAY, 0, STATIC
        LOCFRAME DOVERLAY, 0, STATIC
        ARGFRAME ISTACK, 0, STACK
        ARGFRAME PSTACK, 0, STACK
        ARGFRAME XSTACK, 29, STACK
        ARGFRAME IOVERLAY, 0, STATIC
        ARGFRAME DOVERLAY, 0, STATIC
        FUNCALL AT_AF_Cmd_HA_CIDDISC_req, osal_mem_alloc
        LOCFRAME ISTACK, 0, STACK
        LOCFRAME PSTACK, 0, STACK
        LOCFRAME XSTACK, 29, STACK
        LOCFRAME IOVERLAY, 0, STATIC
        LOCFRAME DOVERLAY, 0, STATIC
        ARGFRAME ISTACK, 0, STACK
        ARGFRAME PSTACK, 0, STACK
        ARGFRAME XSTACK, 29, STACK
        ARGFRAME IOVERLAY, 0, STATIC
        ARGFRAME DOVERLAY, 0, STATIC
        FUNCALL AT_AF_Cmd_HA_CIDDISC_req, osal_memcpy
        LOCFRAME ISTACK, 0, STACK
        LOCFRAME PSTACK, 0, STACK
        LOCFRAME XSTACK, 32, STACK
        LOCFRAME IOVERLAY, 0, STATIC
        LOCFRAME DOVERLAY, 0, STATIC
        ARGFRAME ISTACK, 0, STACK
        ARGFRAME PSTACK, 0, STACK
        ARGFRAME XSTACK, 32, STACK
        ARGFRAME IOVERLAY, 0, STATIC
        ARGFRAME DOVERLAY, 0, STATIC
        FUNCALL AT_AF_Cmd_HA_CIDDISC_req, osal_memcpy
        LOCFRAME ISTACK, 0, STACK
        LOCFRAME PSTACK, 0, STACK
        LOCFRAME XSTACK, 32, STACK
        LOCFRAME IOVERLAY, 0, STATIC
        LOCFRAME DOVERLAY, 0, STATIC
        ARGFRAME ISTACK, 0, STACK
        ARGFRAME PSTACK, 0, STACK
        ARGFRAME XSTACK, 32, STACK
        ARGFRAME IOVERLAY, 0, STATIC
        ARGFRAME DOVERLAY, 0, STATIC
        FUNCALL AT_AF_Cmd_HA_CIDDISC_req, AF_DataRequest
        LOCFRAME ISTACK, 0, STACK
        LOCFRAME PSTACK, 0, STACK
        LOCFRAME XSTACK, 38, STACK
        LOCFRAME IOVERLAY, 0, STATIC
        LOCFRAME DOVERLAY, 0, STATIC
        ARGFRAME ISTACK, 0, STACK
        ARGFRAME PSTACK, 0, STACK
        ARGFRAME XSTACK, 38, STACK
        ARGFRAME IOVERLAY, 0, STATIC
        ARGFRAME DOVERLAY, 0, STATIC
        FUNCALL AT_AF_Cmd_HA_CIDDISC_req, osal_mem_free
        LOCFRAME ISTACK, 0, STACK
        LOCFRAME PSTACK, 0, STACK
        LOCFRAME XSTACK, 29, STACK
        LOCFRAME IOVERLAY, 0, STATIC
        LOCFRAME DOVERLAY, 0, STATIC
        ARGFRAME ISTACK, 0, STACK
        ARGFRAME PSTACK, 0, STACK
        ARGFRAME XSTACK, 29, STACK
        ARGFRAME IOVERLAY, 0, STATIC
        ARGFRAME DOVERLAY, 0, STATIC
        FUNCALL AT_AF_Cmd_HA_CIDDISC_req, AF_DataRequest
        LOCFRAME ISTACK, 0, STACK
        LOCFRAME PSTACK, 0, STACK
        LOCFRAME XSTACK, 38, STACK
        LOCFRAME IOVERLAY, 0, STATIC
        LOCFRAME DOVERLAY, 0, STATIC
        ARGFRAME ISTACK, 0, STACK
        ARGFRAME PSTACK, 0, STACK
        ARGFRAME XSTACK, 38, STACK
        ARGFRAME IOVERLAY, 0, STATIC
        ARGFRAME DOVERLAY, 0, STATIC
        MOV     A,#-0x16
        LCALL   ?BANKED_ENTER_XDATA
        CFI DPH0 load(1, XDATA, add(CFA_XSP16, literal(-1)))
        CFI DPL0 load(1, XDATA, add(CFA_XSP16, literal(-2)))
        CFI ?BRET_EXT load(1, XDATA, add(CFA_XSP16, literal(-3)))
        CFI ?RET_HIGH load(1, XDATA, add(CFA_XSP16, literal(-4)))
        CFI ?RET_LOW load(1, XDATA, add(CFA_XSP16, literal(-5)))
        CFI R7 load(1, XDATA, add(CFA_XSP16, literal(-6)))
        CFI V13 load(1, XDATA, add(CFA_XSP16, literal(-7)))
        CFI V12 load(1, XDATA, add(CFA_XSP16, literal(-8)))
        CFI V11 load(1, XDATA, add(CFA_XSP16, literal(-9)))
        CFI V10 load(1, XDATA, add(CFA_XSP16, literal(-10)))
        CFI V9 load(1, XDATA, add(CFA_XSP16, literal(-11)))
        CFI V8 load(1, XDATA, add(CFA_XSP16, literal(-12)))
        CFI V7 load(1, XDATA, add(CFA_XSP16, literal(-13)))
        CFI V6 load(1, XDATA, add(CFA_XSP16, literal(-14)))
        CFI V5 load(1, XDATA, add(CFA_XSP16, literal(-15)))
        CFI V4 load(1, XDATA, add(CFA_XSP16, literal(-16)))
        CFI V3 load(1, XDATA, add(CFA_XSP16, literal(-17)))
        CFI V2 load(1, XDATA, add(CFA_XSP16, literal(-18)))
        CFI V1 load(1, XDATA, add(CFA_XSP16, literal(-19)))
        CFI V0 load(1, XDATA, add(CFA_XSP16, literal(-20)))
        CFI VB load(1, XDATA, add(CFA_XSP16, literal(-21)))
        CFI R6 load(1, XDATA, add(CFA_XSP16, literal(-22)))
        CFI CFA_SP SP+0
        CFI CFA_XSP16 add(XSP16, 22)
        ; Saved register size: 22
        ; Auto size: 7
        MOV     A,#-0x7
        LCALL   ?ALLOC_XSTACK8
        CFI CFA_XSP16 add(XSP16, 29)
        MOV     ?V0 + 10,R2
        MOV     ?V0 + 11,R3
//  446     AT_AF_hdr *req = (AT_AF_hdr *)pkt->cmd.Data;
        LCALL   ??Subroutine52_0 & 0xFFFF
??CrossCallReturnLabel_102:
        LCALL   ??Subroutine46_0 & 0xFFFF
??CrossCallReturnLabel_93:
        LCALL   ??Subroutine47_0 & 0xFFFF
//  447     AT_AF_Cmd_HA_CIDDISC_rsp_t *rsp;
//  448     uint8 status=0;
//  449     uint16 rspLen=0;
//  450     if(AT_is_CMD_EPs(req->ep)){
??CrossCallReturnLabel_69:
        ; Setup parameters for call to function AT_is_CMD_EPs
        MOV     DPL,?V0 + 4
        MOV     DPH,A
        INC     DPTR
        MOVX    A,@DPTR
        MOV     R1,A
        LCALL   ??AT_is_CMD_EPs?relay
        MOV     A,R1
        JNZ     $+5
        LJMP    ??AT_AF_Cmd_HA_CIDDISC_req_0 & 0xFFFF
//  451       SimpleDescriptionFormat_t *pDesc;
//  452       if(SUCCESS == (status=afFindSimpleDesc(&pDesc, req->ep))){
        ; Setup parameters for call to function afFindSimpleDesc
        MOV     DPL,?V0 + 4
        MOV     DPH,?V0 + 5
        INC     DPTR
        MOVX    A,@DPTR
        MOV     R1,A
        MOV     DPL,?XSP + 0
        MOV     DPH,?XSP + 1
        MOV     R2,DPL
        MOV     R3,DPH
        LCALL   ??afFindSimpleDesc?relay
        MOV     A,R1
        MOV     R0,A
        MOV     ?V0 + 2,R0
        JZ      $+5
        LJMP    ??AT_AF_Cmd_HA_CIDDISC_req_1 & 0xFFFF
//  453         rspLen = (pDesc->AppNumInClusters+pDesc->AppNumInClusters)*2 +sizeof(AT_AF_Cmd_HA_CIDDISC_rsp_t);
        LCALL   ?Subroutine13 & 0xFFFF
??CrossCallReturnLabel_16:
        MOV     ?V0 + 0,A
        MOV     ?V0 + 1,#0x0
        MOV     A,#0x2
        MOV     R0,#?V0 + 0
        LCALL   ?S_SHL
        MOV     A,?V0 + 0
        ADD     A,#0x5
        MOV     ?V0 + 0,A
        MOV     A,?V0 + 1
        ADDC    A,#0x0
        MOV     ?V0 + 1,A
//  454         rsp = osal_mem_alloc(rspLen);
        ; Setup parameters for call to function osal_mem_alloc
        MOV     R2,?V0 + 0
        MOV     R3,A
        LCALL   ??osal_mem_alloc?relay
        MOV     ?V0 + 6,R2
        MOV     ?V0 + 7,R3
        MOV     R6,?V0 + 6
        MOV     R7,?V0 + 7
//  455         if(rsp) {
        MOV     A,R6
        ORL     A,R7
        JNZ     $+5
        LJMP    ??AT_AF_Cmd_HA_CIDDISC_req_2 & 0xFFFF
//  456           rsp->status = SUCCESS;
        MOV     DPL,R6
        MOV     DPH,R7
        INC     DPTR
        INC     DPTR
        CLR     A
        MOVX    @DPTR,A
//  457           rsp->serverNum = pDesc->AppNumInClusters;
        MOV     A,R6
        ADD     A,#0x3
        MOV     ?V0 + 8,A
        MOV     A,R7
        ADDC    A,#0x0
        MOV     ?V0 + 9,A
        LCALL   ?Subroutine13 & 0xFFFF
??CrossCallReturnLabel_17:
        MOV     DPL,?V0 + 8
        MOV     DPH,?V0 + 9
        MOVX    @DPTR,A
//  458           rsp->clientNum = pDesc->AppNumOutClusters;
        MOV     A,R6
        ADD     A,#0x4
        MOV     ?V0 + 12,A
        MOV     A,R7
        ADDC    A,#0x0
        MOV     ?V0 + 13,A
        LCALL   ?Subroutine11 & 0xFFFF
??CrossCallReturnLabel_14:
        MOVX    A,@DPTR
        MOV     DPL,?V0 + 12
        MOV     DPH,?V0 + 13
        LCALL   ?Subroutine6 & 0xFFFF
//  459           rsp->hdr.ep = req->ep;
??CrossCallReturnLabel_6:
        MOV     DPL,R6
        MOV     DPH,R7
        INC     DPTR
        MOVX    @DPTR,A
//  460           rsp->hdr.cmd = AT_AF_Cmd_rsp;
        MOV     DPL,R6
        MOV     DPH,R7
        MOV     A,#-0x80
        LCALL   ?Subroutine4 & 0xFFFF
//  461           osal_memcpy(rsp->list,pDesc->pAppInClusterList,rsp->serverNum*2);
??CrossCallReturnLabel_2:
        LCALL   ??Subroutine48_0 & 0xFFFF
??CrossCallReturnLabel_72:
        LCALL   ?Subroutine15 & 0xFFFF
??CrossCallReturnLabel_70:
        MOV     ?V0 + 6,#0x0
        MOV     R0,#?V0 + 4
        LCALL   ?PUSH_XSTACK_I_THREE
        CFI CFA_XSP16 add(XSP16, 32)
        MOV     DPL,?V0 + 8
        MOV     DPH,?V0 + 9
        MOVX    A,@DPTR
        CLR     C
        RLC     A
        MOV     R4,A
        CLR     A
        RLC     A
        MOV     R5,A
        MOV     A,R6
        ADD     A,#0x5
        MOV     R2,A
        MOV     A,R7
        LCALL   ?Subroutine24 & 0xFFFF
??CrossCallReturnLabel_30:
        LCALL   ?DEALLOC_XSTACK8
        CFI CFA_XSP16 add(XSP16, 29)
//  462           osal_memcpy(rsp->list+rsp->serverNum,pDesc->pAppOutClusterList,rsp->clientNum*2);
        ; Setup parameters for call to function osal_memcpy
        LCALL   ?Subroutine11 & 0xFFFF
??CrossCallReturnLabel_15:
        LCALL   ?Subroutine15 & 0xFFFF
??CrossCallReturnLabel_71:
        MOV     R0,#?V0 + 4
        LCALL   ?PUSH_XSTACK_I_THREE
        CFI CFA_XSP16 add(XSP16, 32)
        MOV     DPL,?V0 + 12
        MOV     DPH,?V0 + 13
        MOVX    A,@DPTR
        CLR     C
        RLC     A
        MOV     R4,A
        CLR     A
        RLC     A
        MOV     R5,A
        MOV     DPL,?V0 + 8
        MOV     DPH,?V0 + 9
        MOVX    A,@DPTR
        RLC     A
        MOV     R0,A
        CLR     A
        RLC     A
        MOV     R1,A
        MOV     A,R6
        ADD     A,R0
        MOV     R0,A
        MOV     A,R7
        ADDC    A,R1
        MOV     R1,A
        MOV     A,R0
        ADD     A,#0x5
        MOV     R2,A
        MOV     A,R1
        LCALL   ?Subroutine24 & 0xFFFF
??CrossCallReturnLabel_31:
        LCALL   ?DEALLOC_XSTACK8
        CFI CFA_XSP16 add(XSP16, 29)
//  463           //sent the found data
//  464           AF_DataRequest( & (pkt->srcAddr), & AT_AF_epDesc,
//  465                                AT_AF_Cmd_HA_CIDDISC_CLUSTERID,
//  466                                rspLen,
//  467                                (uint8*)rsp,
//  468                                &AT_AF_TransID,
//  469                                AF_DISCV_ROUTE,
//  470                                AF_DEFAULT_RADIUS );
        ; Setup parameters for call to function AF_DataRequest
        MOV     ?V0 + 3,#0x1e
        MOV     R0,#?V0 + 3
        LCALL   ?PUSH_XSTACK_I_ONE
        CFI CFA_XSP16 add(XSP16, 30)
        MOV     ?V0 + 4,#AT_AF_TransID & 0xff
        MOV     ?V0 + 5,#(AT_AF_TransID >> 8) & 0xff
        MOV     R0,#?V0 + 4
        LCALL   ?PUSH_XSTACK_I_TWO
        CFI CFA_XSP16 add(XSP16, 32)
        MOV     ?V0 + 4,R6
        MOV     ?V0 + 5,R7
        MOV     R0,#?V0 + 4
        LCALL   ?PUSH_XSTACK_I_TWO
        CFI CFA_XSP16 add(XSP16, 34)
        MOV     R0,#?V0 + 0
        LCALL   ?PUSH_XSTACK_I_TWO
        CFI CFA_XSP16 add(XSP16, 36)
        MOV     ?V0 + 0,#0x3
        MOV     ?V0 + 1,#0x0
        MOV     R0,#?V0 + 0
        LCALL   ?PUSH_XSTACK_I_TWO
        CFI CFA_XSP16 add(XSP16, 38)
        MOV     R1,#0x20
        MOV     R4,#AT_AF_epDesc & 0xff
        MOV     R5,#(AT_AF_epDesc >> 8) & 0xff
        MOV     A,?V0 + 10
        ADD     A,#0x6
        MOV     R2,A
        MOV     A,?V0 + 11
        LCALL   ??Subroutine53_0 & 0xFFFF
??CrossCallReturnLabel_114:
        LCALL   ?DEALLOC_XSTACK8
        CFI CFA_XSP16 add(XSP16, 29)
//  471           osal_mem_free(rsp);
        ; Setup parameters for call to function osal_mem_free
        MOV     A,R6
        MOV     R2,A
        MOV     A,R7
        MOV     R3,A
        LCALL   ??osal_mem_free?relay
//  472           return;     //important
        SJMP    ??AT_AF_Cmd_HA_CIDDISC_req_3
//  473         }else{
//  474           status = AT_AF_MEM_ERROR;
??AT_AF_Cmd_HA_CIDDISC_req_2:
        MOV     ?V0 + 2,#0x41
        SJMP    ??AT_AF_Cmd_HA_CIDDISC_req_1
//  475         }
//  476       }else {
//  477         //status = status; //have been done
//  478       }
//  479     }else{
//  480       status = AT_AF_NOTFOUND_ERROR;
??AT_AF_Cmd_HA_CIDDISC_req_0:
        MOV     ?V0 + 2,#0x40
//  481     }
//  482     
//  483     AT_AF_Cmd_HA_CIDDISC_rsp_t dftRsp;
//  484     dftRsp.hdr.cmd = AT_AF_Cmd_rsp;
??AT_AF_Cmd_HA_CIDDISC_req_1:
        MOV     A,#0x2
        LCALL   ?XSTACK_DISP0_8
        MOV     A,#-0x80
        LCALL   ?Subroutine6 & 0xFFFF
//  485     dftRsp.hdr.ep = req->ep;
??CrossCallReturnLabel_7:
        PUSH    A
        CFI CFA_SP SP+-1
        MOV     A,#0x3
        LCALL   ?XSTACK_DISP0_8
        POP     A
        CFI CFA_SP SP+0
        MOVX    @DPTR,A
//  486     dftRsp.status = status;
        MOV     A,#0x4
        LCALL   ?XSTACK_DISP0_8
        MOV     A,?V0 + 2
        LCALL   ?Subroutine5 & 0xFFFF
//  487     rsp = &dftRsp;
//  488     AF_DataRequest( & (pkt->srcAddr), & AT_AF_epDesc,
//  489                          AT_AF_Cmd_HA_CIDDISC_CLUSTERID,
//  490                          sizeof(AT_AF_Cmd_HA_CIDDISC_rsp_t),
//  491                          (uint8*)rsp,
//  492                          &AT_AF_TransID,
//  493                          AF_DISCV_ROUTE,
//  494                          AF_DEFAULT_RADIUS );
??CrossCallReturnLabel_4:
        LCALL   ?PUSH_XSTACK_I_ONE
        CFI CFA_XSP16 add(XSP16, 30)
        MOV     ?V0 + 0,#AT_AF_TransID & 0xff
        MOV     ?V0 + 1,#(AT_AF_TransID >> 8) & 0xff
        MOV     R0,#?V0 + 0
        LCALL   ?PUSH_XSTACK_I_TWO
        CFI CFA_XSP16 add(XSP16, 32)
        MOV     A,#0x5
        LCALL   ?XSTACK_DISP0_8
        MOV     ?V0 + 0,DPL
        MOV     ?V0 + 1,DPH
        MOV     R0,#?V0 + 0
        LCALL   ?PUSH_XSTACK_I_TWO
        CFI CFA_XSP16 add(XSP16, 34)
        MOV     ?V0 + 0,#0x5
        MOV     ?V0 + 1,#0x0
        MOV     R0,#?V0 + 0
        LCALL   ?PUSH_XSTACK_I_TWO
        CFI CFA_XSP16 add(XSP16, 36)
        MOV     ?V0 + 0,#0x3
        MOV     R0,#?V0 + 0
        LCALL   ?PUSH_XSTACK_I_TWO
        CFI CFA_XSP16 add(XSP16, 38)
        MOV     R1,#0x20
        MOV     R4,#AT_AF_epDesc & 0xff
        MOV     R5,#(AT_AF_epDesc >> 8) & 0xff
        MOV     A,?V0 + 10
        ADD     A,#0x6
        MOV     R2,A
        MOV     A,?V0 + 11
        LCALL   ??Subroutine53_0 & 0xFFFF
??CrossCallReturnLabel_115:
        LCALL   ?DEALLOC_XSTACK8
        CFI CFA_XSP16 add(XSP16, 29)
//  495 }
??AT_AF_Cmd_HA_CIDDISC_req_3:
        MOV     A,#0x7
        LCALL   ?DEALLOC_XSTACK8
        CFI CFA_XSP16 add(XSP16, 22)
        MOV     R7,#0xe
        LJMP    ?BANKED_LEAVE_XDATA
        CFI EndBlock cfiBlock142

        RSEG BANKED_CODE:CODE:NOROOT(0)
?Subroutine36:
        CFI Block cfiCond143 Using cfiCommon0
        CFI NoFunction
        CFI Conditional ??CrossCallReturnLabel_95, ??CrossCallReturnLabel_67
        CFI R6 load(1, XDATA, add(CFA_XSP16, literal(-16)))
        CFI VB load(1, XDATA, add(CFA_XSP16, literal(-15)))
        CFI V0 load(1, XDATA, add(CFA_XSP16, literal(-14)))
        CFI V1 load(1, XDATA, add(CFA_XSP16, literal(-13)))
        CFI V2 load(1, XDATA, add(CFA_XSP16, literal(-12)))
        CFI V3 load(1, XDATA, add(CFA_XSP16, literal(-11)))
        CFI V4 load(1, XDATA, add(CFA_XSP16, literal(-10)))
        CFI V5 load(1, XDATA, add(CFA_XSP16, literal(-9)))
        CFI V6 load(1, XDATA, add(CFA_XSP16, literal(-8)))
        CFI V7 load(1, XDATA, add(CFA_XSP16, literal(-7)))
        CFI R7 load(1, XDATA, add(CFA_XSP16, literal(-6)))
        CFI ?RET_LOW load(1, XDATA, add(CFA_XSP16, literal(-5)))
        CFI ?RET_HIGH load(1, XDATA, add(CFA_XSP16, literal(-4)))
        CFI ?BRET_EXT load(1, XDATA, add(CFA_XSP16, literal(-3)))
        CFI DPL0 load(1, XDATA, add(CFA_XSP16, literal(-2)))
        CFI DPH0 load(1, XDATA, add(CFA_XSP16, literal(-1)))
        CFI CFA_SP SP+0
        CFI CFA_XSP16 add(XSP16, 16)
        CFI Block cfiCond144 Using cfiCommon0
        CFI (cfiCond144) NoFunction
        CFI (cfiCond144) Conditional ??CrossCallReturnLabel_95, ??CrossCallReturnLabel_68
        CFI (cfiCond144) R6 load(1, XDATA, add(CFA_XSP16, literal(-14)))
        CFI (cfiCond144) VB load(1, XDATA, add(CFA_XSP16, literal(-13)))
        CFI (cfiCond144) V0 load(1, XDATA, add(CFA_XSP16, literal(-12)))
        CFI (cfiCond144) V1 load(1, XDATA, add(CFA_XSP16, literal(-11)))
        CFI (cfiCond144) V2 load(1, XDATA, add(CFA_XSP16, literal(-10)))
        CFI (cfiCond144) V3 load(1, XDATA, add(CFA_XSP16, literal(-9)))
        CFI (cfiCond144) V4 load(1, XDATA, add(CFA_XSP16, literal(-8)))
        CFI (cfiCond144) V5 load(1, XDATA, add(CFA_XSP16, literal(-7)))
        CFI (cfiCond144) R7 load(1, XDATA, add(CFA_XSP16, literal(-6)))
        CFI (cfiCond144) ?RET_LOW load(1, XDATA, add(CFA_XSP16, literal(-5)))
        CFI (cfiCond144) ?RET_HIGH load(1, XDATA, add(CFA_XSP16, literal(-4)))
        CFI (cfiCond144) ?BRET_EXT load(1, XDATA, add(CFA_XSP16, literal(-3)))
        CFI (cfiCond144) DPL0 load(1, XDATA, add(CFA_XSP16, literal(-2)))
        CFI (cfiCond144) DPH0 load(1, XDATA, add(CFA_XSP16, literal(-1)))
        CFI (cfiCond144) CFA_SP SP+0
        CFI (cfiCond144) CFA_XSP16 add(XSP16, 19)
        CFI Block cfiCond145 Using cfiCommon0
        CFI (cfiCond145) NoFunction
        CFI (cfiCond145) Conditional ??CrossCallReturnLabel_94
        CFI (cfiCond145) R6 load(1, XDATA, add(CFA_XSP16, literal(-14)))
        CFI (cfiCond145) VB load(1, XDATA, add(CFA_XSP16, literal(-13)))
        CFI (cfiCond145) V0 load(1, XDATA, add(CFA_XSP16, literal(-12)))
        CFI (cfiCond145) V1 load(1, XDATA, add(CFA_XSP16, literal(-11)))
        CFI (cfiCond145) V2 load(1, XDATA, add(CFA_XSP16, literal(-10)))
        CFI (cfiCond145) V3 load(1, XDATA, add(CFA_XSP16, literal(-9)))
        CFI (cfiCond145) V4 load(1, XDATA, add(CFA_XSP16, literal(-8)))
        CFI (cfiCond145) V5 load(1, XDATA, add(CFA_XSP16, literal(-7)))
        CFI (cfiCond145) R7 load(1, XDATA, add(CFA_XSP16, literal(-6)))
        CFI (cfiCond145) ?RET_LOW load(1, XDATA, add(CFA_XSP16, literal(-5)))
        CFI (cfiCond145) ?RET_HIGH load(1, XDATA, add(CFA_XSP16, literal(-4)))
        CFI (cfiCond145) ?BRET_EXT load(1, XDATA, add(CFA_XSP16, literal(-3)))
        CFI (cfiCond145) DPL0 load(1, XDATA, add(CFA_XSP16, literal(-2)))
        CFI (cfiCond145) DPH0 load(1, XDATA, add(CFA_XSP16, literal(-1)))
        CFI (cfiCond145) CFA_SP SP+0
        CFI (cfiCond145) CFA_XSP16 add(XSP16, 23)
        CFI Block cfiPicker146 Using cfiCommon1
        CFI (cfiPicker146) NoFunction
        CFI (cfiPicker146) Picker
        MOV     DPL,A
        MOV     A,R7
        CFI EndBlock cfiCond143
        CFI EndBlock cfiCond144
        CFI EndBlock cfiCond145
        CFI EndBlock cfiPicker146
        REQUIRE ??Subroutine46_0
        ; // Fall through to label ??Subroutine46_0

        RSEG BANKED_CODE:CODE:NOROOT(0)
??Subroutine46_0:
        CFI Block cfiCond147 Using cfiCommon0
        CFI NoFunction
        CFI Conditional ??CrossCallReturnLabel_92
        CFI R6 load(1, XDATA, add(CFA_XSP16, literal(-14)))
        CFI VB load(1, XDATA, add(CFA_XSP16, literal(-13)))
        CFI V0 load(1, XDATA, add(CFA_XSP16, literal(-12)))
        CFI V1 load(1, XDATA, add(CFA_XSP16, literal(-11)))
        CFI V2 load(1, XDATA, add(CFA_XSP16, literal(-10)))
        CFI V3 load(1, XDATA, add(CFA_XSP16, literal(-9)))
        CFI V4 load(1, XDATA, add(CFA_XSP16, literal(-8)))
        CFI V5 load(1, XDATA, add(CFA_XSP16, literal(-7)))
        CFI R7 load(1, XDATA, add(CFA_XSP16, literal(-6)))
        CFI ?RET_LOW load(1, XDATA, add(CFA_XSP16, literal(-5)))
        CFI ?RET_HIGH load(1, XDATA, add(CFA_XSP16, literal(-4)))
        CFI ?BRET_EXT load(1, XDATA, add(CFA_XSP16, literal(-3)))
        CFI DPL0 load(1, XDATA, add(CFA_XSP16, literal(-2)))
        CFI DPH0 load(1, XDATA, add(CFA_XSP16, literal(-1)))
        CFI CFA_SP SP+0
        CFI CFA_XSP16 add(XSP16, 19)
        CFI Block cfiCond148 Using cfiCommon0
        CFI (cfiCond148) NoFunction
        CFI (cfiCond148) Conditional ??CrossCallReturnLabel_96, ??CrossCallReturnLabel_47
        CFI (cfiCond148) R6 load(1, XDATA, add(CFA_XSP16, literal(-10)))
        CFI (cfiCond148) VB load(1, XDATA, add(CFA_XSP16, literal(-9)))
        CFI (cfiCond148) V0 load(1, XDATA, add(CFA_XSP16, literal(-8)))
        CFI (cfiCond148) V1 load(1, XDATA, add(CFA_XSP16, literal(-7)))
        CFI (cfiCond148) R7 load(1, XDATA, add(CFA_XSP16, literal(-6)))
        CFI (cfiCond148) ?RET_LOW load(1, XDATA, add(CFA_XSP16, literal(-5)))
        CFI (cfiCond148) ?RET_HIGH load(1, XDATA, add(CFA_XSP16, literal(-4)))
        CFI (cfiCond148) ?BRET_EXT load(1, XDATA, add(CFA_XSP16, literal(-3)))
        CFI (cfiCond148) DPL0 load(1, XDATA, add(CFA_XSP16, literal(-2)))
        CFI (cfiCond148) DPH0 load(1, XDATA, add(CFA_XSP16, literal(-1)))
        CFI (cfiCond148) CFA_SP SP+0
        CFI (cfiCond148) CFA_XSP16 add(XSP16, 14)
        CFI Block cfiCond149 Using cfiCommon0
        CFI (cfiCond149) NoFunction
        CFI (cfiCond149) Conditional ??CrossCallReturnLabel_96, ??CrossCallReturnLabel_48
        CFI (cfiCond149) R6 load(1, XDATA, add(CFA_XSP16, literal(-10)))
        CFI (cfiCond149) VB load(1, XDATA, add(CFA_XSP16, literal(-9)))
        CFI (cfiCond149) V0 load(1, XDATA, add(CFA_XSP16, literal(-8)))
        CFI (cfiCond149) V1 load(1, XDATA, add(CFA_XSP16, literal(-7)))
        CFI (cfiCond149) R7 load(1, XDATA, add(CFA_XSP16, literal(-6)))
        CFI (cfiCond149) ?RET_LOW load(1, XDATA, add(CFA_XSP16, literal(-5)))
        CFI (cfiCond149) ?RET_HIGH load(1, XDATA, add(CFA_XSP16, literal(-4)))
        CFI (cfiCond149) ?BRET_EXT load(1, XDATA, add(CFA_XSP16, literal(-3)))
        CFI (cfiCond149) DPL0 load(1, XDATA, add(CFA_XSP16, literal(-2)))
        CFI (cfiCond149) DPH0 load(1, XDATA, add(CFA_XSP16, literal(-1)))
        CFI (cfiCond149) CFA_SP SP+0
        CFI (cfiCond149) CFA_XSP16 add(XSP16, 14)
        CFI Block cfiCond150 Using cfiCommon0
        CFI (cfiCond150) NoFunction
        CFI (cfiCond150) Conditional ??CrossCallReturnLabel_96, ??CrossCallReturnLabel_51
        CFI (cfiCond150) R6 load(1, XDATA, add(CFA_XSP16, literal(-10)))
        CFI (cfiCond150) VB load(1, XDATA, add(CFA_XSP16, literal(-9)))
        CFI (cfiCond150) V0 load(1, XDATA, add(CFA_XSP16, literal(-8)))
        CFI (cfiCond150) V1 load(1, XDATA, add(CFA_XSP16, literal(-7)))
        CFI (cfiCond150) R7 load(1, XDATA, add(CFA_XSP16, literal(-6)))
        CFI (cfiCond150) ?RET_LOW load(1, XDATA, add(CFA_XSP16, literal(-5)))
        CFI (cfiCond150) ?RET_HIGH load(1, XDATA, add(CFA_XSP16, literal(-4)))
        CFI (cfiCond150) ?BRET_EXT load(1, XDATA, add(CFA_XSP16, literal(-3)))
        CFI (cfiCond150) DPL0 load(1, XDATA, add(CFA_XSP16, literal(-2)))
        CFI (cfiCond150) DPH0 load(1, XDATA, add(CFA_XSP16, literal(-1)))
        CFI (cfiCond150) CFA_SP SP+0
        CFI (cfiCond150) CFA_XSP16 add(XSP16, 14)
        CFI Block cfiCond151 Using cfiCommon0
        CFI (cfiCond151) NoFunction
        CFI (cfiCond151) Conditional ??CrossCallReturnLabel_96, ??CrossCallReturnLabel_52
        CFI (cfiCond151) R6 load(1, XDATA, add(CFA_XSP16, literal(-16)))
        CFI (cfiCond151) VB load(1, XDATA, add(CFA_XSP16, literal(-15)))
        CFI (cfiCond151) V0 load(1, XDATA, add(CFA_XSP16, literal(-14)))
        CFI (cfiCond151) V1 load(1, XDATA, add(CFA_XSP16, literal(-13)))
        CFI (cfiCond151) V2 load(1, XDATA, add(CFA_XSP16, literal(-12)))
        CFI (cfiCond151) V3 load(1, XDATA, add(CFA_XSP16, literal(-11)))
        CFI (cfiCond151) V4 load(1, XDATA, add(CFA_XSP16, literal(-10)))
        CFI (cfiCond151) V5 load(1, XDATA, add(CFA_XSP16, literal(-9)))
        CFI (cfiCond151) V6 load(1, XDATA, add(CFA_XSP16, literal(-8)))
        CFI (cfiCond151) V7 load(1, XDATA, add(CFA_XSP16, literal(-7)))
        CFI (cfiCond151) R7 load(1, XDATA, add(CFA_XSP16, literal(-6)))
        CFI (cfiCond151) ?RET_LOW load(1, XDATA, add(CFA_XSP16, literal(-5)))
        CFI (cfiCond151) ?RET_HIGH load(1, XDATA, add(CFA_XSP16, literal(-4)))
        CFI (cfiCond151) ?BRET_EXT load(1, XDATA, add(CFA_XSP16, literal(-3)))
        CFI (cfiCond151) DPL0 load(1, XDATA, add(CFA_XSP16, literal(-2)))
        CFI (cfiCond151) DPH0 load(1, XDATA, add(CFA_XSP16, literal(-1)))
        CFI (cfiCond151) CFA_SP SP+0
        CFI (cfiCond151) CFA_XSP16 add(XSP16, 16)
        CFI Block cfiCond152 Using cfiCommon0
        CFI (cfiCond152) NoFunction
        CFI (cfiCond152) Conditional ??CrossCallReturnLabel_96, ??CrossCallReturnLabel_49
        CFI (cfiCond152) R6 load(1, XDATA, add(CFA_XSP16, literal(-14)))
        CFI (cfiCond152) VB load(1, XDATA, add(CFA_XSP16, literal(-13)))
        CFI (cfiCond152) V0 load(1, XDATA, add(CFA_XSP16, literal(-12)))
        CFI (cfiCond152) V1 load(1, XDATA, add(CFA_XSP16, literal(-11)))
        CFI (cfiCond152) V2 load(1, XDATA, add(CFA_XSP16, literal(-10)))
        CFI (cfiCond152) V3 load(1, XDATA, add(CFA_XSP16, literal(-9)))
        CFI (cfiCond152) V4 load(1, XDATA, add(CFA_XSP16, literal(-8)))
        CFI (cfiCond152) V5 load(1, XDATA, add(CFA_XSP16, literal(-7)))
        CFI (cfiCond152) R7 load(1, XDATA, add(CFA_XSP16, literal(-6)))
        CFI (cfiCond152) ?RET_LOW load(1, XDATA, add(CFA_XSP16, literal(-5)))
        CFI (cfiCond152) ?RET_HIGH load(1, XDATA, add(CFA_XSP16, literal(-4)))
        CFI (cfiCond152) ?BRET_EXT load(1, XDATA, add(CFA_XSP16, literal(-3)))
        CFI (cfiCond152) DPL0 load(1, XDATA, add(CFA_XSP16, literal(-2)))
        CFI (cfiCond152) DPH0 load(1, XDATA, add(CFA_XSP16, literal(-1)))
        CFI (cfiCond152) CFA_SP SP+0
        CFI (cfiCond152) CFA_XSP16 add(XSP16, 19)
        CFI Block cfiCond153 Using cfiCommon0
        CFI (cfiCond153) NoFunction
        CFI (cfiCond153) Conditional ??CrossCallReturnLabel_96, ??CrossCallReturnLabel_50
        CFI (cfiCond153) R6 load(1, XDATA, add(CFA_XSP16, literal(-12)))
        CFI (cfiCond153) VB load(1, XDATA, add(CFA_XSP16, literal(-11)))
        CFI (cfiCond153) V0 load(1, XDATA, add(CFA_XSP16, literal(-10)))
        CFI (cfiCond153) V1 load(1, XDATA, add(CFA_XSP16, literal(-9)))
        CFI (cfiCond153) V2 load(1, XDATA, add(CFA_XSP16, literal(-8)))
        CFI (cfiCond153) V3 load(1, XDATA, add(CFA_XSP16, literal(-7)))
        CFI (cfiCond153) R7 load(1, XDATA, add(CFA_XSP16, literal(-6)))
        CFI (cfiCond153) ?RET_LOW load(1, XDATA, add(CFA_XSP16, literal(-5)))
        CFI (cfiCond153) ?RET_HIGH load(1, XDATA, add(CFA_XSP16, literal(-4)))
        CFI (cfiCond153) ?BRET_EXT load(1, XDATA, add(CFA_XSP16, literal(-3)))
        CFI (cfiCond153) DPL0 load(1, XDATA, add(CFA_XSP16, literal(-2)))
        CFI (cfiCond153) DPH0 load(1, XDATA, add(CFA_XSP16, literal(-1)))
        CFI (cfiCond153) CFA_SP SP+0
        CFI (cfiCond153) CFA_XSP16 add(XSP16, 12)
        CFI Block cfiCond154 Using cfiCommon0
        CFI (cfiCond154) NoFunction
        CFI (cfiCond154) Conditional ??CrossCallReturnLabel_97, ??CrossCallReturnLabel_58
        CFI (cfiCond154) DPL0 Frame(CFA_SP, 4)
        CFI (cfiCond154) DPH0 Frame(CFA_SP, 5)
        CFI (cfiCond154) CFA_SP SP+-5
        CFI Block cfiCond155 Using cfiCommon0
        CFI (cfiCond155) NoFunction
        CFI (cfiCond155) Conditional ??CrossCallReturnLabel_97, ??CrossCallReturnLabel_59
        CFI (cfiCond155) DPL0 Frame(CFA_SP, 4)
        CFI (cfiCond155) DPH0 Frame(CFA_SP, 5)
        CFI (cfiCond155) CFA_SP SP+-5
        CFI Block cfiCond156 Using cfiCommon0
        CFI (cfiCond156) NoFunction
        CFI (cfiCond156) Conditional ??CrossCallReturnLabel_97, ??CrossCallReturnLabel_60
        CFI (cfiCond156) DPL0 Frame(CFA_SP, 4)
        CFI (cfiCond156) DPH0 Frame(CFA_SP, 5)
        CFI (cfiCond156) CFA_SP SP+-5
        CFI Block cfiCond157 Using cfiCommon0
        CFI (cfiCond157) NoFunction
        CFI (cfiCond157) Conditional ??CrossCallReturnLabel_97, ??CrossCallReturnLabel_61
        CFI (cfiCond157) DPL0 Frame(CFA_SP, 4)
        CFI (cfiCond157) DPH0 Frame(CFA_SP, 5)
        CFI (cfiCond157) CFA_SP SP+-5
        CFI Block cfiCond158 Using cfiCommon0
        CFI (cfiCond158) NoFunction
        CFI (cfiCond158) Conditional ??CrossCallReturnLabel_97, ??CrossCallReturnLabel_62
        CFI (cfiCond158) DPL0 Frame(CFA_SP, 4)
        CFI (cfiCond158) DPH0 Frame(CFA_SP, 5)
        CFI (cfiCond158) CFA_SP SP+-5
        CFI Block cfiCond159 Using cfiCommon0
        CFI (cfiCond159) NoFunction
        CFI (cfiCond159) Conditional ??CrossCallReturnLabel_97, ??CrossCallReturnLabel_57
        CFI (cfiCond159) R6 load(1, XDATA, add(CFA_XSP16, literal(-14)))
        CFI (cfiCond159) VB load(1, XDATA, add(CFA_XSP16, literal(-13)))
        CFI (cfiCond159) V0 load(1, XDATA, add(CFA_XSP16, literal(-12)))
        CFI (cfiCond159) V1 load(1, XDATA, add(CFA_XSP16, literal(-11)))
        CFI (cfiCond159) V2 load(1, XDATA, add(CFA_XSP16, literal(-10)))
        CFI (cfiCond159) V3 load(1, XDATA, add(CFA_XSP16, literal(-9)))
        CFI (cfiCond159) V4 load(1, XDATA, add(CFA_XSP16, literal(-8)))
        CFI (cfiCond159) V5 load(1, XDATA, add(CFA_XSP16, literal(-7)))
        CFI (cfiCond159) R7 load(1, XDATA, add(CFA_XSP16, literal(-6)))
        CFI (cfiCond159) ?RET_LOW load(1, XDATA, add(CFA_XSP16, literal(-5)))
        CFI (cfiCond159) ?RET_HIGH load(1, XDATA, add(CFA_XSP16, literal(-4)))
        CFI (cfiCond159) ?BRET_EXT load(1, XDATA, add(CFA_XSP16, literal(-3)))
        CFI (cfiCond159) DPL0 load(1, XDATA, add(CFA_XSP16, literal(-2)))
        CFI (cfiCond159) DPH0 load(1, XDATA, add(CFA_XSP16, literal(-1)))
        CFI (cfiCond159) CFA_SP SP+0
        CFI (cfiCond159) CFA_XSP16 add(XSP16, 19)
        CFI Block cfiCond160 Using cfiCommon0
        CFI (cfiCond160) NoFunction
        CFI (cfiCond160) Conditional ??CrossCallReturnLabel_93
        CFI (cfiCond160) R6 load(1, XDATA, add(CFA_XSP16, literal(-22)))
        CFI (cfiCond160) VB load(1, XDATA, add(CFA_XSP16, literal(-21)))
        CFI (cfiCond160) V0 load(1, XDATA, add(CFA_XSP16, literal(-20)))
        CFI (cfiCond160) V1 load(1, XDATA, add(CFA_XSP16, literal(-19)))
        CFI (cfiCond160) V2 load(1, XDATA, add(CFA_XSP16, literal(-18)))
        CFI (cfiCond160) V3 load(1, XDATA, add(CFA_XSP16, literal(-17)))
        CFI (cfiCond160) V4 load(1, XDATA, add(CFA_XSP16, literal(-16)))
        CFI (cfiCond160) V5 load(1, XDATA, add(CFA_XSP16, literal(-15)))
        CFI (cfiCond160) V6 load(1, XDATA, add(CFA_XSP16, literal(-14)))
        CFI (cfiCond160) V7 load(1, XDATA, add(CFA_XSP16, literal(-13)))
        CFI (cfiCond160) V8 load(1, XDATA, add(CFA_XSP16, literal(-12)))
        CFI (cfiCond160) V9 load(1, XDATA, add(CFA_XSP16, literal(-11)))
        CFI (cfiCond160) V10 load(1, XDATA, add(CFA_XSP16, literal(-10)))
        CFI (cfiCond160) V11 load(1, XDATA, add(CFA_XSP16, literal(-9)))
        CFI (cfiCond160) V12 load(1, XDATA, add(CFA_XSP16, literal(-8)))
        CFI (cfiCond160) V13 load(1, XDATA, add(CFA_XSP16, literal(-7)))
        CFI (cfiCond160) R7 load(1, XDATA, add(CFA_XSP16, literal(-6)))
        CFI (cfiCond160) ?RET_LOW load(1, XDATA, add(CFA_XSP16, literal(-5)))
        CFI (cfiCond160) ?RET_HIGH load(1, XDATA, add(CFA_XSP16, literal(-4)))
        CFI (cfiCond160) ?BRET_EXT load(1, XDATA, add(CFA_XSP16, literal(-3)))
        CFI (cfiCond160) DPL0 load(1, XDATA, add(CFA_XSP16, literal(-2)))
        CFI (cfiCond160) DPH0 load(1, XDATA, add(CFA_XSP16, literal(-1)))
        CFI (cfiCond160) CFA_SP SP+0
        CFI (cfiCond160) CFA_XSP16 add(XSP16, 29)
        CFI Block cfiCond161 Using cfiCommon0
        CFI (cfiCond161) NoFunction
        CFI (cfiCond161) Conditional ??CrossCallReturnLabel_98, ??CrossCallReturnLabel_90
        CFI (cfiCond161) R6 load(1, XDATA, add(CFA_XSP16, literal(-14)))
        CFI (cfiCond161) VB load(1, XDATA, add(CFA_XSP16, literal(-13)))
        CFI (cfiCond161) V0 load(1, XDATA, add(CFA_XSP16, literal(-12)))
        CFI (cfiCond161) V1 load(1, XDATA, add(CFA_XSP16, literal(-11)))
        CFI (cfiCond161) V2 load(1, XDATA, add(CFA_XSP16, literal(-10)))
        CFI (cfiCond161) V3 load(1, XDATA, add(CFA_XSP16, literal(-9)))
        CFI (cfiCond161) V4 load(1, XDATA, add(CFA_XSP16, literal(-8)))
        CFI (cfiCond161) V5 load(1, XDATA, add(CFA_XSP16, literal(-7)))
        CFI (cfiCond161) R7 load(1, XDATA, add(CFA_XSP16, literal(-6)))
        CFI (cfiCond161) ?RET_LOW load(1, XDATA, add(CFA_XSP16, literal(-5)))
        CFI (cfiCond161) ?RET_HIGH load(1, XDATA, add(CFA_XSP16, literal(-4)))
        CFI (cfiCond161) ?BRET_EXT load(1, XDATA, add(CFA_XSP16, literal(-3)))
        CFI (cfiCond161) DPL0 load(1, XDATA, add(CFA_XSP16, literal(-2)))
        CFI (cfiCond161) DPH0 load(1, XDATA, add(CFA_XSP16, literal(-1)))
        CFI (cfiCond161) CFA_SP SP+0
        CFI (cfiCond161) CFA_XSP16 add(XSP16, 19)
        CFI Block cfiCond162 Using cfiCommon0
        CFI (cfiCond162) NoFunction
        CFI (cfiCond162) Conditional ??CrossCallReturnLabel_98, ??CrossCallReturnLabel_91
        CFI (cfiCond162) R6 load(1, XDATA, add(CFA_XSP16, literal(-14)))
        CFI (cfiCond162) VB load(1, XDATA, add(CFA_XSP16, literal(-13)))
        CFI (cfiCond162) V0 load(1, XDATA, add(CFA_XSP16, literal(-12)))
        CFI (cfiCond162) V1 load(1, XDATA, add(CFA_XSP16, literal(-11)))
        CFI (cfiCond162) V2 load(1, XDATA, add(CFA_XSP16, literal(-10)))
        CFI (cfiCond162) V3 load(1, XDATA, add(CFA_XSP16, literal(-9)))
        CFI (cfiCond162) V4 load(1, XDATA, add(CFA_XSP16, literal(-8)))
        CFI (cfiCond162) V5 load(1, XDATA, add(CFA_XSP16, literal(-7)))
        CFI (cfiCond162) R7 load(1, XDATA, add(CFA_XSP16, literal(-6)))
        CFI (cfiCond162) ?RET_LOW load(1, XDATA, add(CFA_XSP16, literal(-5)))
        CFI (cfiCond162) ?RET_HIGH load(1, XDATA, add(CFA_XSP16, literal(-4)))
        CFI (cfiCond162) ?BRET_EXT load(1, XDATA, add(CFA_XSP16, literal(-3)))
        CFI (cfiCond162) DPL0 load(1, XDATA, add(CFA_XSP16, literal(-2)))
        CFI (cfiCond162) DPH0 load(1, XDATA, add(CFA_XSP16, literal(-1)))
        CFI (cfiCond162) CFA_SP SP+0
        CFI (cfiCond162) CFA_XSP16 add(XSP16, 21)
        CFI Block cfiCond163 Using cfiCommon0
        CFI (cfiCond163) NoFunction
        CFI (cfiCond163) Conditional ??CrossCallReturnLabel_98, ??CrossCallReturnLabel_87
        CFI (cfiCond163) R6 load(1, XDATA, add(CFA_XSP16, literal(-14)))
        CFI (cfiCond163) VB load(1, XDATA, add(CFA_XSP16, literal(-13)))
        CFI (cfiCond163) V0 load(1, XDATA, add(CFA_XSP16, literal(-12)))
        CFI (cfiCond163) V1 load(1, XDATA, add(CFA_XSP16, literal(-11)))
        CFI (cfiCond163) V2 load(1, XDATA, add(CFA_XSP16, literal(-10)))
        CFI (cfiCond163) V3 load(1, XDATA, add(CFA_XSP16, literal(-9)))
        CFI (cfiCond163) V4 load(1, XDATA, add(CFA_XSP16, literal(-8)))
        CFI (cfiCond163) V5 load(1, XDATA, add(CFA_XSP16, literal(-7)))
        CFI (cfiCond163) R7 load(1, XDATA, add(CFA_XSP16, literal(-6)))
        CFI (cfiCond163) ?RET_LOW load(1, XDATA, add(CFA_XSP16, literal(-5)))
        CFI (cfiCond163) ?RET_HIGH load(1, XDATA, add(CFA_XSP16, literal(-4)))
        CFI (cfiCond163) ?BRET_EXT load(1, XDATA, add(CFA_XSP16, literal(-3)))
        CFI (cfiCond163) DPL0 load(1, XDATA, add(CFA_XSP16, literal(-2)))
        CFI (cfiCond163) DPH0 load(1, XDATA, add(CFA_XSP16, literal(-1)))
        CFI (cfiCond163) CFA_SP SP+0
        CFI (cfiCond163) CFA_XSP16 add(XSP16, 19)
        CFI Block cfiCond164 Using cfiCommon0
        CFI (cfiCond164) NoFunction
        CFI (cfiCond164) Conditional ??CrossCallReturnLabel_98, ??CrossCallReturnLabel_88
        CFI (cfiCond164) R6 load(1, XDATA, add(CFA_XSP16, literal(-14)))
        CFI (cfiCond164) VB load(1, XDATA, add(CFA_XSP16, literal(-13)))
        CFI (cfiCond164) V0 load(1, XDATA, add(CFA_XSP16, literal(-12)))
        CFI (cfiCond164) V1 load(1, XDATA, add(CFA_XSP16, literal(-11)))
        CFI (cfiCond164) V2 load(1, XDATA, add(CFA_XSP16, literal(-10)))
        CFI (cfiCond164) V3 load(1, XDATA, add(CFA_XSP16, literal(-9)))
        CFI (cfiCond164) V4 load(1, XDATA, add(CFA_XSP16, literal(-8)))
        CFI (cfiCond164) V5 load(1, XDATA, add(CFA_XSP16, literal(-7)))
        CFI (cfiCond164) R7 load(1, XDATA, add(CFA_XSP16, literal(-6)))
        CFI (cfiCond164) ?RET_LOW load(1, XDATA, add(CFA_XSP16, literal(-5)))
        CFI (cfiCond164) ?RET_HIGH load(1, XDATA, add(CFA_XSP16, literal(-4)))
        CFI (cfiCond164) ?BRET_EXT load(1, XDATA, add(CFA_XSP16, literal(-3)))
        CFI (cfiCond164) DPL0 load(1, XDATA, add(CFA_XSP16, literal(-2)))
        CFI (cfiCond164) DPH0 load(1, XDATA, add(CFA_XSP16, literal(-1)))
        CFI (cfiCond164) CFA_SP SP+0
        CFI (cfiCond164) CFA_XSP16 add(XSP16, 19)
        CFI Block cfiCond165 Using cfiCommon0
        CFI (cfiCond165) NoFunction
        CFI (cfiCond165) Conditional ??CrossCallReturnLabel_98, ??CrossCallReturnLabel_89
        CFI (cfiCond165) R6 load(1, XDATA, add(CFA_XSP16, literal(-14)))
        CFI (cfiCond165) VB load(1, XDATA, add(CFA_XSP16, literal(-13)))
        CFI (cfiCond165) V0 load(1, XDATA, add(CFA_XSP16, literal(-12)))
        CFI (cfiCond165) V1 load(1, XDATA, add(CFA_XSP16, literal(-11)))
        CFI (cfiCond165) V2 load(1, XDATA, add(CFA_XSP16, literal(-10)))
        CFI (cfiCond165) V3 load(1, XDATA, add(CFA_XSP16, literal(-9)))
        CFI (cfiCond165) V4 load(1, XDATA, add(CFA_XSP16, literal(-8)))
        CFI (cfiCond165) V5 load(1, XDATA, add(CFA_XSP16, literal(-7)))
        CFI (cfiCond165) R7 load(1, XDATA, add(CFA_XSP16, literal(-6)))
        CFI (cfiCond165) ?RET_LOW load(1, XDATA, add(CFA_XSP16, literal(-5)))
        CFI (cfiCond165) ?RET_HIGH load(1, XDATA, add(CFA_XSP16, literal(-4)))
        CFI (cfiCond165) ?BRET_EXT load(1, XDATA, add(CFA_XSP16, literal(-3)))
        CFI (cfiCond165) DPL0 load(1, XDATA, add(CFA_XSP16, literal(-2)))
        CFI (cfiCond165) DPH0 load(1, XDATA, add(CFA_XSP16, literal(-1)))
        CFI (cfiCond165) CFA_SP SP+0
        CFI (cfiCond165) CFA_XSP16 add(XSP16, 19)
        CFI Block cfiCond166 Using cfiCommon0
        CFI (cfiCond166) NoFunction
        CFI (cfiCond166) Conditional ??CrossCallReturnLabel_98, ??CrossCallReturnLabel_82
        CFI (cfiCond166) R6 load(1, XDATA, add(CFA_XSP16, literal(-14)))
        CFI (cfiCond166) VB load(1, XDATA, add(CFA_XSP16, literal(-13)))
        CFI (cfiCond166) V0 load(1, XDATA, add(CFA_XSP16, literal(-12)))
        CFI (cfiCond166) V1 load(1, XDATA, add(CFA_XSP16, literal(-11)))
        CFI (cfiCond166) V2 load(1, XDATA, add(CFA_XSP16, literal(-10)))
        CFI (cfiCond166) V3 load(1, XDATA, add(CFA_XSP16, literal(-9)))
        CFI (cfiCond166) V4 load(1, XDATA, add(CFA_XSP16, literal(-8)))
        CFI (cfiCond166) V5 load(1, XDATA, add(CFA_XSP16, literal(-7)))
        CFI (cfiCond166) R7 load(1, XDATA, add(CFA_XSP16, literal(-6)))
        CFI (cfiCond166) ?RET_LOW load(1, XDATA, add(CFA_XSP16, literal(-5)))
        CFI (cfiCond166) ?RET_HIGH load(1, XDATA, add(CFA_XSP16, literal(-4)))
        CFI (cfiCond166) ?BRET_EXT load(1, XDATA, add(CFA_XSP16, literal(-3)))
        CFI (cfiCond166) DPL0 load(1, XDATA, add(CFA_XSP16, literal(-2)))
        CFI (cfiCond166) DPH0 load(1, XDATA, add(CFA_XSP16, literal(-1)))
        CFI (cfiCond166) CFA_SP SP+0
        CFI (cfiCond166) CFA_XSP16 add(XSP16, 19)
        CFI Block cfiCond167 Using cfiCommon0
        CFI (cfiCond167) NoFunction
        CFI (cfiCond167) Conditional ??CrossCallReturnLabel_98, ??CrossCallReturnLabel_83
        CFI (cfiCond167) R6 load(1, XDATA, add(CFA_XSP16, literal(-14)))
        CFI (cfiCond167) VB load(1, XDATA, add(CFA_XSP16, literal(-13)))
        CFI (cfiCond167) V0 load(1, XDATA, add(CFA_XSP16, literal(-12)))
        CFI (cfiCond167) V1 load(1, XDATA, add(CFA_XSP16, literal(-11)))
        CFI (cfiCond167) V2 load(1, XDATA, add(CFA_XSP16, literal(-10)))
        CFI (cfiCond167) V3 load(1, XDATA, add(CFA_XSP16, literal(-9)))
        CFI (cfiCond167) V4 load(1, XDATA, add(CFA_XSP16, literal(-8)))
        CFI (cfiCond167) V5 load(1, XDATA, add(CFA_XSP16, literal(-7)))
        CFI (cfiCond167) R7 load(1, XDATA, add(CFA_XSP16, literal(-6)))
        CFI (cfiCond167) ?RET_LOW load(1, XDATA, add(CFA_XSP16, literal(-5)))
        CFI (cfiCond167) ?RET_HIGH load(1, XDATA, add(CFA_XSP16, literal(-4)))
        CFI (cfiCond167) ?BRET_EXT load(1, XDATA, add(CFA_XSP16, literal(-3)))
        CFI (cfiCond167) DPL0 load(1, XDATA, add(CFA_XSP16, literal(-2)))
        CFI (cfiCond167) DPH0 load(1, XDATA, add(CFA_XSP16, literal(-1)))
        CFI (cfiCond167) CFA_SP SP+0
        CFI (cfiCond167) CFA_XSP16 add(XSP16, 19)
        CFI Block cfiCond168 Using cfiCommon0
        CFI (cfiCond168) NoFunction
        CFI (cfiCond168) Conditional ??CrossCallReturnLabel_98, ??CrossCallReturnLabel_84
        CFI (cfiCond168) R6 load(1, XDATA, add(CFA_XSP16, literal(-14)))
        CFI (cfiCond168) VB load(1, XDATA, add(CFA_XSP16, literal(-13)))
        CFI (cfiCond168) V0 load(1, XDATA, add(CFA_XSP16, literal(-12)))
        CFI (cfiCond168) V1 load(1, XDATA, add(CFA_XSP16, literal(-11)))
        CFI (cfiCond168) V2 load(1, XDATA, add(CFA_XSP16, literal(-10)))
        CFI (cfiCond168) V3 load(1, XDATA, add(CFA_XSP16, literal(-9)))
        CFI (cfiCond168) V4 load(1, XDATA, add(CFA_XSP16, literal(-8)))
        CFI (cfiCond168) V5 load(1, XDATA, add(CFA_XSP16, literal(-7)))
        CFI (cfiCond168) R7 load(1, XDATA, add(CFA_XSP16, literal(-6)))
        CFI (cfiCond168) ?RET_LOW load(1, XDATA, add(CFA_XSP16, literal(-5)))
        CFI (cfiCond168) ?RET_HIGH load(1, XDATA, add(CFA_XSP16, literal(-4)))
        CFI (cfiCond168) ?BRET_EXT load(1, XDATA, add(CFA_XSP16, literal(-3)))
        CFI (cfiCond168) DPL0 load(1, XDATA, add(CFA_XSP16, literal(-2)))
        CFI (cfiCond168) DPH0 load(1, XDATA, add(CFA_XSP16, literal(-1)))
        CFI (cfiCond168) CFA_SP SP+0
        CFI (cfiCond168) CFA_XSP16 add(XSP16, 19)
        CFI Block cfiCond169 Using cfiCommon0
        CFI (cfiCond169) NoFunction
        CFI (cfiCond169) Conditional ??CrossCallReturnLabel_98, ??CrossCallReturnLabel_85
        CFI (cfiCond169) R6 load(1, XDATA, add(CFA_XSP16, literal(-12)))
        CFI (cfiCond169) VB load(1, XDATA, add(CFA_XSP16, literal(-11)))
        CFI (cfiCond169) V0 load(1, XDATA, add(CFA_XSP16, literal(-10)))
        CFI (cfiCond169) V1 load(1, XDATA, add(CFA_XSP16, literal(-9)))
        CFI (cfiCond169) V2 load(1, XDATA, add(CFA_XSP16, literal(-8)))
        CFI (cfiCond169) V3 load(1, XDATA, add(CFA_XSP16, literal(-7)))
        CFI (cfiCond169) R7 load(1, XDATA, add(CFA_XSP16, literal(-6)))
        CFI (cfiCond169) ?RET_LOW load(1, XDATA, add(CFA_XSP16, literal(-5)))
        CFI (cfiCond169) ?RET_HIGH load(1, XDATA, add(CFA_XSP16, literal(-4)))
        CFI (cfiCond169) ?BRET_EXT load(1, XDATA, add(CFA_XSP16, literal(-3)))
        CFI (cfiCond169) DPL0 load(1, XDATA, add(CFA_XSP16, literal(-2)))
        CFI (cfiCond169) DPH0 load(1, XDATA, add(CFA_XSP16, literal(-1)))
        CFI (cfiCond169) CFA_SP SP+0
        CFI (cfiCond169) CFA_XSP16 add(XSP16, 12)
        CFI Block cfiCond170 Using cfiCommon0
        CFI (cfiCond170) NoFunction
        CFI (cfiCond170) Conditional ??CrossCallReturnLabel_98, ??CrossCallReturnLabel_86
        CFI (cfiCond170) DPL0 Frame(CFA_SP, 4)
        CFI (cfiCond170) DPH0 Frame(CFA_SP, 5)
        CFI (cfiCond170) CFA_SP SP+-5
        CFI Block cfiCond171 Using cfiCommon0
        CFI (cfiCond171) NoFunction
        CFI (cfiCond171) Conditional ??CrossCallReturnLabel_95, ??CrossCallReturnLabel_67
        CFI (cfiCond171) R6 load(1, XDATA, add(CFA_XSP16, literal(-16)))
        CFI (cfiCond171) VB load(1, XDATA, add(CFA_XSP16, literal(-15)))
        CFI (cfiCond171) V0 load(1, XDATA, add(CFA_XSP16, literal(-14)))
        CFI (cfiCond171) V1 load(1, XDATA, add(CFA_XSP16, literal(-13)))
        CFI (cfiCond171) V2 load(1, XDATA, add(CFA_XSP16, literal(-12)))
        CFI (cfiCond171) V3 load(1, XDATA, add(CFA_XSP16, literal(-11)))
        CFI (cfiCond171) V4 load(1, XDATA, add(CFA_XSP16, literal(-10)))
        CFI (cfiCond171) V5 load(1, XDATA, add(CFA_XSP16, literal(-9)))
        CFI (cfiCond171) V6 load(1, XDATA, add(CFA_XSP16, literal(-8)))
        CFI (cfiCond171) V7 load(1, XDATA, add(CFA_XSP16, literal(-7)))
        CFI (cfiCond171) R7 load(1, XDATA, add(CFA_XSP16, literal(-6)))
        CFI (cfiCond171) ?RET_LOW load(1, XDATA, add(CFA_XSP16, literal(-5)))
        CFI (cfiCond171) ?RET_HIGH load(1, XDATA, add(CFA_XSP16, literal(-4)))
        CFI (cfiCond171) ?BRET_EXT load(1, XDATA, add(CFA_XSP16, literal(-3)))
        CFI (cfiCond171) DPL0 load(1, XDATA, add(CFA_XSP16, literal(-2)))
        CFI (cfiCond171) DPH0 load(1, XDATA, add(CFA_XSP16, literal(-1)))
        CFI (cfiCond171) CFA_SP SP+0
        CFI (cfiCond171) CFA_XSP16 add(XSP16, 16)
        CFI Block cfiCond172 Using cfiCommon0
        CFI (cfiCond172) NoFunction
        CFI (cfiCond172) Conditional ??CrossCallReturnLabel_95, ??CrossCallReturnLabel_68
        CFI (cfiCond172) R6 load(1, XDATA, add(CFA_XSP16, literal(-14)))
        CFI (cfiCond172) VB load(1, XDATA, add(CFA_XSP16, literal(-13)))
        CFI (cfiCond172) V0 load(1, XDATA, add(CFA_XSP16, literal(-12)))
        CFI (cfiCond172) V1 load(1, XDATA, add(CFA_XSP16, literal(-11)))
        CFI (cfiCond172) V2 load(1, XDATA, add(CFA_XSP16, literal(-10)))
        CFI (cfiCond172) V3 load(1, XDATA, add(CFA_XSP16, literal(-9)))
        CFI (cfiCond172) V4 load(1, XDATA, add(CFA_XSP16, literal(-8)))
        CFI (cfiCond172) V5 load(1, XDATA, add(CFA_XSP16, literal(-7)))
        CFI (cfiCond172) R7 load(1, XDATA, add(CFA_XSP16, literal(-6)))
        CFI (cfiCond172) ?RET_LOW load(1, XDATA, add(CFA_XSP16, literal(-5)))
        CFI (cfiCond172) ?RET_HIGH load(1, XDATA, add(CFA_XSP16, literal(-4)))
        CFI (cfiCond172) ?BRET_EXT load(1, XDATA, add(CFA_XSP16, literal(-3)))
        CFI (cfiCond172) DPL0 load(1, XDATA, add(CFA_XSP16, literal(-2)))
        CFI (cfiCond172) DPH0 load(1, XDATA, add(CFA_XSP16, literal(-1)))
        CFI (cfiCond172) CFA_SP SP+0
        CFI (cfiCond172) CFA_XSP16 add(XSP16, 19)
        CFI Block cfiCond173 Using cfiCommon0
        CFI (cfiCond173) NoFunction
        CFI (cfiCond173) Conditional ??CrossCallReturnLabel_94
        CFI (cfiCond173) R6 load(1, XDATA, add(CFA_XSP16, literal(-14)))
        CFI (cfiCond173) VB load(1, XDATA, add(CFA_XSP16, literal(-13)))
        CFI (cfiCond173) V0 load(1, XDATA, add(CFA_XSP16, literal(-12)))
        CFI (cfiCond173) V1 load(1, XDATA, add(CFA_XSP16, literal(-11)))
        CFI (cfiCond173) V2 load(1, XDATA, add(CFA_XSP16, literal(-10)))
        CFI (cfiCond173) V3 load(1, XDATA, add(CFA_XSP16, literal(-9)))
        CFI (cfiCond173) V4 load(1, XDATA, add(CFA_XSP16, literal(-8)))
        CFI (cfiCond173) V5 load(1, XDATA, add(CFA_XSP16, literal(-7)))
        CFI (cfiCond173) R7 load(1, XDATA, add(CFA_XSP16, literal(-6)))
        CFI (cfiCond173) ?RET_LOW load(1, XDATA, add(CFA_XSP16, literal(-5)))
        CFI (cfiCond173) ?RET_HIGH load(1, XDATA, add(CFA_XSP16, literal(-4)))
        CFI (cfiCond173) ?BRET_EXT load(1, XDATA, add(CFA_XSP16, literal(-3)))
        CFI (cfiCond173) DPL0 load(1, XDATA, add(CFA_XSP16, literal(-2)))
        CFI (cfiCond173) DPH0 load(1, XDATA, add(CFA_XSP16, literal(-1)))
        CFI (cfiCond173) CFA_SP SP+0
        CFI (cfiCond173) CFA_XSP16 add(XSP16, 23)
        CFI Block cfiPicker174 Using cfiCommon1
        CFI (cfiPicker174) NoFunction
        CFI (cfiPicker174) Picker
        ADDC    A,#0x0
        MOV     DPH,A
        RET
        CFI EndBlock cfiCond147
        CFI EndBlock cfiCond148
        CFI EndBlock cfiCond149
        CFI EndBlock cfiCond150
        CFI EndBlock cfiCond151
        CFI EndBlock cfiCond152
        CFI EndBlock cfiCond153
        CFI EndBlock cfiCond154
        CFI EndBlock cfiCond155
        CFI EndBlock cfiCond156
        CFI EndBlock cfiCond157
        CFI EndBlock cfiCond158
        CFI EndBlock cfiCond159
        CFI EndBlock cfiCond160
        CFI EndBlock cfiCond161
        CFI EndBlock cfiCond162
        CFI EndBlock cfiCond163
        CFI EndBlock cfiCond164
        CFI EndBlock cfiCond165
        CFI EndBlock cfiCond166
        CFI EndBlock cfiCond167
        CFI EndBlock cfiCond168
        CFI EndBlock cfiCond169
        CFI EndBlock cfiCond170
        CFI EndBlock cfiCond171
        CFI EndBlock cfiCond172
        CFI EndBlock cfiCond173
        CFI EndBlock cfiPicker174

        RSEG BANKED_CODE:CODE:NOROOT(0)
?Subroutine24:
        CFI Block cfiCond175 Using cfiCommon0
        CFI NoFunction
        CFI Conditional ??CrossCallReturnLabel_30
        CFI R6 load(1, XDATA, add(CFA_XSP16, literal(-22)))
        CFI VB load(1, XDATA, add(CFA_XSP16, literal(-21)))
        CFI V0 load(1, XDATA, add(CFA_XSP16, literal(-20)))
        CFI V1 load(1, XDATA, add(CFA_XSP16, literal(-19)))
        CFI V2 load(1, XDATA, add(CFA_XSP16, literal(-18)))
        CFI V3 load(1, XDATA, add(CFA_XSP16, literal(-17)))
        CFI V4 load(1, XDATA, add(CFA_XSP16, literal(-16)))
        CFI V5 load(1, XDATA, add(CFA_XSP16, literal(-15)))
        CFI V6 load(1, XDATA, add(CFA_XSP16, literal(-14)))
        CFI V7 load(1, XDATA, add(CFA_XSP16, literal(-13)))
        CFI V8 load(1, XDATA, add(CFA_XSP16, literal(-12)))
        CFI V9 load(1, XDATA, add(CFA_XSP16, literal(-11)))
        CFI V10 load(1, XDATA, add(CFA_XSP16, literal(-10)))
        CFI V11 load(1, XDATA, add(CFA_XSP16, literal(-9)))
        CFI V12 load(1, XDATA, add(CFA_XSP16, literal(-8)))
        CFI V13 load(1, XDATA, add(CFA_XSP16, literal(-7)))
        CFI R7 load(1, XDATA, add(CFA_XSP16, literal(-6)))
        CFI ?RET_LOW load(1, XDATA, add(CFA_XSP16, literal(-5)))
        CFI ?RET_HIGH load(1, XDATA, add(CFA_XSP16, literal(-4)))
        CFI ?BRET_EXT load(1, XDATA, add(CFA_XSP16, literal(-3)))
        CFI DPL0 load(1, XDATA, add(CFA_XSP16, literal(-2)))
        CFI DPH0 load(1, XDATA, add(CFA_XSP16, literal(-1)))
        CFI CFA_SP SP+0
        CFI CFA_XSP16 add(XSP16, 32)
        CFI Block cfiCond176 Using cfiCommon0
        CFI (cfiCond176) NoFunction
        CFI (cfiCond176) Conditional ??CrossCallReturnLabel_31
        CFI (cfiCond176) R6 load(1, XDATA, add(CFA_XSP16, literal(-22)))
        CFI (cfiCond176) VB load(1, XDATA, add(CFA_XSP16, literal(-21)))
        CFI (cfiCond176) V0 load(1, XDATA, add(CFA_XSP16, literal(-20)))
        CFI (cfiCond176) V1 load(1, XDATA, add(CFA_XSP16, literal(-19)))
        CFI (cfiCond176) V2 load(1, XDATA, add(CFA_XSP16, literal(-18)))
        CFI (cfiCond176) V3 load(1, XDATA, add(CFA_XSP16, literal(-17)))
        CFI (cfiCond176) V4 load(1, XDATA, add(CFA_XSP16, literal(-16)))
        CFI (cfiCond176) V5 load(1, XDATA, add(CFA_XSP16, literal(-15)))
        CFI (cfiCond176) V6 load(1, XDATA, add(CFA_XSP16, literal(-14)))
        CFI (cfiCond176) V7 load(1, XDATA, add(CFA_XSP16, literal(-13)))
        CFI (cfiCond176) V8 load(1, XDATA, add(CFA_XSP16, literal(-12)))
        CFI (cfiCond176) V9 load(1, XDATA, add(CFA_XSP16, literal(-11)))
        CFI (cfiCond176) V10 load(1, XDATA, add(CFA_XSP16, literal(-10)))
        CFI (cfiCond176) V11 load(1, XDATA, add(CFA_XSP16, literal(-9)))
        CFI (cfiCond176) V12 load(1, XDATA, add(CFA_XSP16, literal(-8)))
        CFI (cfiCond176) V13 load(1, XDATA, add(CFA_XSP16, literal(-7)))
        CFI (cfiCond176) R7 load(1, XDATA, add(CFA_XSP16, literal(-6)))
        CFI (cfiCond176) ?RET_LOW load(1, XDATA, add(CFA_XSP16, literal(-5)))
        CFI (cfiCond176) ?RET_HIGH load(1, XDATA, add(CFA_XSP16, literal(-4)))
        CFI (cfiCond176) ?BRET_EXT load(1, XDATA, add(CFA_XSP16, literal(-3)))
        CFI (cfiCond176) DPL0 load(1, XDATA, add(CFA_XSP16, literal(-2)))
        CFI (cfiCond176) DPH0 load(1, XDATA, add(CFA_XSP16, literal(-1)))
        CFI (cfiCond176) CFA_SP SP+0
        CFI (cfiCond176) CFA_XSP16 add(XSP16, 32)
        CFI Block cfiPicker177 Using cfiCommon1
        CFI (cfiPicker177) NoFunction
        CFI (cfiPicker177) Picker
        ADDC    A,#0x0
        MOV     R3,A
        LCALL   ??osal_memcpy?relay
        MOV     A,#0x3
        RET
        CFI EndBlock cfiCond175
        CFI EndBlock cfiCond176
        CFI EndBlock cfiPicker177

        RSEG BANKED_CODE:CODE:NOROOT(0)
?Subroutine15:
        CFI Block cfiCond178 Using cfiCommon0
        CFI NoFunction
        CFI Conditional ??CrossCallReturnLabel_70
        CFI R6 load(1, XDATA, add(CFA_XSP16, literal(-22)))
        CFI VB load(1, XDATA, add(CFA_XSP16, literal(-21)))
        CFI V0 load(1, XDATA, add(CFA_XSP16, literal(-20)))
        CFI V1 load(1, XDATA, add(CFA_XSP16, literal(-19)))
        CFI V2 load(1, XDATA, add(CFA_XSP16, literal(-18)))
        CFI V3 load(1, XDATA, add(CFA_XSP16, literal(-17)))
        CFI V4 load(1, XDATA, add(CFA_XSP16, literal(-16)))
        CFI V5 load(1, XDATA, add(CFA_XSP16, literal(-15)))
        CFI V6 load(1, XDATA, add(CFA_XSP16, literal(-14)))
        CFI V7 load(1, XDATA, add(CFA_XSP16, literal(-13)))
        CFI V8 load(1, XDATA, add(CFA_XSP16, literal(-12)))
        CFI V9 load(1, XDATA, add(CFA_XSP16, literal(-11)))
        CFI V10 load(1, XDATA, add(CFA_XSP16, literal(-10)))
        CFI V11 load(1, XDATA, add(CFA_XSP16, literal(-9)))
        CFI V12 load(1, XDATA, add(CFA_XSP16, literal(-8)))
        CFI V13 load(1, XDATA, add(CFA_XSP16, literal(-7)))
        CFI R7 load(1, XDATA, add(CFA_XSP16, literal(-6)))
        CFI ?RET_LOW load(1, XDATA, add(CFA_XSP16, literal(-5)))
        CFI ?RET_HIGH load(1, XDATA, add(CFA_XSP16, literal(-4)))
        CFI ?BRET_EXT load(1, XDATA, add(CFA_XSP16, literal(-3)))
        CFI DPL0 load(1, XDATA, add(CFA_XSP16, literal(-2)))
        CFI DPH0 load(1, XDATA, add(CFA_XSP16, literal(-1)))
        CFI CFA_SP SP+0
        CFI CFA_XSP16 add(XSP16, 29)
        CFI Block cfiCond179 Using cfiCommon0
        CFI (cfiCond179) NoFunction
        CFI (cfiCond179) Conditional ??CrossCallReturnLabel_71
        CFI (cfiCond179) R6 load(1, XDATA, add(CFA_XSP16, literal(-22)))
        CFI (cfiCond179) VB load(1, XDATA, add(CFA_XSP16, literal(-21)))
        CFI (cfiCond179) V0 load(1, XDATA, add(CFA_XSP16, literal(-20)))
        CFI (cfiCond179) V1 load(1, XDATA, add(CFA_XSP16, literal(-19)))
        CFI (cfiCond179) V2 load(1, XDATA, add(CFA_XSP16, literal(-18)))
        CFI (cfiCond179) V3 load(1, XDATA, add(CFA_XSP16, literal(-17)))
        CFI (cfiCond179) V4 load(1, XDATA, add(CFA_XSP16, literal(-16)))
        CFI (cfiCond179) V5 load(1, XDATA, add(CFA_XSP16, literal(-15)))
        CFI (cfiCond179) V6 load(1, XDATA, add(CFA_XSP16, literal(-14)))
        CFI (cfiCond179) V7 load(1, XDATA, add(CFA_XSP16, literal(-13)))
        CFI (cfiCond179) V8 load(1, XDATA, add(CFA_XSP16, literal(-12)))
        CFI (cfiCond179) V9 load(1, XDATA, add(CFA_XSP16, literal(-11)))
        CFI (cfiCond179) V10 load(1, XDATA, add(CFA_XSP16, literal(-10)))
        CFI (cfiCond179) V11 load(1, XDATA, add(CFA_XSP16, literal(-9)))
        CFI (cfiCond179) V12 load(1, XDATA, add(CFA_XSP16, literal(-8)))
        CFI (cfiCond179) V13 load(1, XDATA, add(CFA_XSP16, literal(-7)))
        CFI (cfiCond179) R7 load(1, XDATA, add(CFA_XSP16, literal(-6)))
        CFI (cfiCond179) ?RET_LOW load(1, XDATA, add(CFA_XSP16, literal(-5)))
        CFI (cfiCond179) ?RET_HIGH load(1, XDATA, add(CFA_XSP16, literal(-4)))
        CFI (cfiCond179) ?BRET_EXT load(1, XDATA, add(CFA_XSP16, literal(-3)))
        CFI (cfiCond179) DPL0 load(1, XDATA, add(CFA_XSP16, literal(-2)))
        CFI (cfiCond179) DPH0 load(1, XDATA, add(CFA_XSP16, literal(-1)))
        CFI (cfiCond179) CFA_SP SP+0
        CFI (cfiCond179) CFA_XSP16 add(XSP16, 29)
        CFI Block cfiPicker180 Using cfiCommon1
        CFI (cfiPicker180) NoFunction
        CFI (cfiPicker180) Picker
        INC     DPTR
        CFI EndBlock cfiCond178
        CFI EndBlock cfiCond179
        CFI EndBlock cfiPicker180
        REQUIRE ??Subroutine47_0
        ; // Fall through to label ??Subroutine47_0

        RSEG BANKED_CODE:CODE:NOROOT(0)
??Subroutine47_0:
        CFI Block cfiCond181 Using cfiCommon0
        CFI NoFunction
        CFI Conditional ??CrossCallReturnLabel_69
        CFI R6 load(1, XDATA, add(CFA_XSP16, literal(-22)))
        CFI VB load(1, XDATA, add(CFA_XSP16, literal(-21)))
        CFI V0 load(1, XDATA, add(CFA_XSP16, literal(-20)))
        CFI V1 load(1, XDATA, add(CFA_XSP16, literal(-19)))
        CFI V2 load(1, XDATA, add(CFA_XSP16, literal(-18)))
        CFI V3 load(1, XDATA, add(CFA_XSP16, literal(-17)))
        CFI V4 load(1, XDATA, add(CFA_XSP16, literal(-16)))
        CFI V5 load(1, XDATA, add(CFA_XSP16, literal(-15)))
        CFI V6 load(1, XDATA, add(CFA_XSP16, literal(-14)))
        CFI V7 load(1, XDATA, add(CFA_XSP16, literal(-13)))
        CFI V8 load(1, XDATA, add(CFA_XSP16, literal(-12)))
        CFI V9 load(1, XDATA, add(CFA_XSP16, literal(-11)))
        CFI V10 load(1, XDATA, add(CFA_XSP16, literal(-10)))
        CFI V11 load(1, XDATA, add(CFA_XSP16, literal(-9)))
        CFI V12 load(1, XDATA, add(CFA_XSP16, literal(-8)))
        CFI V13 load(1, XDATA, add(CFA_XSP16, literal(-7)))
        CFI R7 load(1, XDATA, add(CFA_XSP16, literal(-6)))
        CFI ?RET_LOW load(1, XDATA, add(CFA_XSP16, literal(-5)))
        CFI ?RET_HIGH load(1, XDATA, add(CFA_XSP16, literal(-4)))
        CFI ?BRET_EXT load(1, XDATA, add(CFA_XSP16, literal(-3)))
        CFI DPL0 load(1, XDATA, add(CFA_XSP16, literal(-2)))
        CFI DPH0 load(1, XDATA, add(CFA_XSP16, literal(-1)))
        CFI CFA_SP SP+0
        CFI CFA_XSP16 add(XSP16, 29)
        CFI Block cfiCond182 Using cfiCommon0
        CFI (cfiCond182) NoFunction
        CFI (cfiCond182) Conditional ??CrossCallReturnLabel_70
        CFI (cfiCond182) R6 load(1, XDATA, add(CFA_XSP16, literal(-22)))
        CFI (cfiCond182) VB load(1, XDATA, add(CFA_XSP16, literal(-21)))
        CFI (cfiCond182) V0 load(1, XDATA, add(CFA_XSP16, literal(-20)))
        CFI (cfiCond182) V1 load(1, XDATA, add(CFA_XSP16, literal(-19)))
        CFI (cfiCond182) V2 load(1, XDATA, add(CFA_XSP16, literal(-18)))
        CFI (cfiCond182) V3 load(1, XDATA, add(CFA_XSP16, literal(-17)))
        CFI (cfiCond182) V4 load(1, XDATA, add(CFA_XSP16, literal(-16)))
        CFI (cfiCond182) V5 load(1, XDATA, add(CFA_XSP16, literal(-15)))
        CFI (cfiCond182) V6 load(1, XDATA, add(CFA_XSP16, literal(-14)))
        CFI (cfiCond182) V7 load(1, XDATA, add(CFA_XSP16, literal(-13)))
        CFI (cfiCond182) V8 load(1, XDATA, add(CFA_XSP16, literal(-12)))
        CFI (cfiCond182) V9 load(1, XDATA, add(CFA_XSP16, literal(-11)))
        CFI (cfiCond182) V10 load(1, XDATA, add(CFA_XSP16, literal(-10)))
        CFI (cfiCond182) V11 load(1, XDATA, add(CFA_XSP16, literal(-9)))
        CFI (cfiCond182) V12 load(1, XDATA, add(CFA_XSP16, literal(-8)))
        CFI (cfiCond182) V13 load(1, XDATA, add(CFA_XSP16, literal(-7)))
        CFI (cfiCond182) R7 load(1, XDATA, add(CFA_XSP16, literal(-6)))
        CFI (cfiCond182) ?RET_LOW load(1, XDATA, add(CFA_XSP16, literal(-5)))
        CFI (cfiCond182) ?RET_HIGH load(1, XDATA, add(CFA_XSP16, literal(-4)))
        CFI (cfiCond182) ?BRET_EXT load(1, XDATA, add(CFA_XSP16, literal(-3)))
        CFI (cfiCond182) DPL0 load(1, XDATA, add(CFA_XSP16, literal(-2)))
        CFI (cfiCond182) DPH0 load(1, XDATA, add(CFA_XSP16, literal(-1)))
        CFI (cfiCond182) CFA_SP SP+0
        CFI (cfiCond182) CFA_XSP16 add(XSP16, 29)
        CFI Block cfiCond183 Using cfiCommon0
        CFI (cfiCond183) NoFunction
        CFI (cfiCond183) Conditional ??CrossCallReturnLabel_71
        CFI (cfiCond183) R6 load(1, XDATA, add(CFA_XSP16, literal(-22)))
        CFI (cfiCond183) VB load(1, XDATA, add(CFA_XSP16, literal(-21)))
        CFI (cfiCond183) V0 load(1, XDATA, add(CFA_XSP16, literal(-20)))
        CFI (cfiCond183) V1 load(1, XDATA, add(CFA_XSP16, literal(-19)))
        CFI (cfiCond183) V2 load(1, XDATA, add(CFA_XSP16, literal(-18)))
        CFI (cfiCond183) V3 load(1, XDATA, add(CFA_XSP16, literal(-17)))
        CFI (cfiCond183) V4 load(1, XDATA, add(CFA_XSP16, literal(-16)))
        CFI (cfiCond183) V5 load(1, XDATA, add(CFA_XSP16, literal(-15)))
        CFI (cfiCond183) V6 load(1, XDATA, add(CFA_XSP16, literal(-14)))
        CFI (cfiCond183) V7 load(1, XDATA, add(CFA_XSP16, literal(-13)))
        CFI (cfiCond183) V8 load(1, XDATA, add(CFA_XSP16, literal(-12)))
        CFI (cfiCond183) V9 load(1, XDATA, add(CFA_XSP16, literal(-11)))
        CFI (cfiCond183) V10 load(1, XDATA, add(CFA_XSP16, literal(-10)))
        CFI (cfiCond183) V11 load(1, XDATA, add(CFA_XSP16, literal(-9)))
        CFI (cfiCond183) V12 load(1, XDATA, add(CFA_XSP16, literal(-8)))
        CFI (cfiCond183) V13 load(1, XDATA, add(CFA_XSP16, literal(-7)))
        CFI (cfiCond183) R7 load(1, XDATA, add(CFA_XSP16, literal(-6)))
        CFI (cfiCond183) ?RET_LOW load(1, XDATA, add(CFA_XSP16, literal(-5)))
        CFI (cfiCond183) ?RET_HIGH load(1, XDATA, add(CFA_XSP16, literal(-4)))
        CFI (cfiCond183) ?BRET_EXT load(1, XDATA, add(CFA_XSP16, literal(-3)))
        CFI (cfiCond183) DPL0 load(1, XDATA, add(CFA_XSP16, literal(-2)))
        CFI (cfiCond183) DPH0 load(1, XDATA, add(CFA_XSP16, literal(-1)))
        CFI (cfiCond183) CFA_SP SP+0
        CFI (cfiCond183) CFA_XSP16 add(XSP16, 29)
        CFI Block cfiPicker184 Using cfiCommon1
        CFI (cfiPicker184) NoFunction
        CFI (cfiPicker184) Picker
        MOVX    A,@DPTR
        MOV     ?V0 + 4,A
        INC     DPTR
        MOVX    A,@DPTR
        MOV     ?V0 + 5,A
        RET
        CFI EndBlock cfiCond181
        CFI EndBlock cfiCond182
        CFI EndBlock cfiCond183
        CFI EndBlock cfiPicker184

        RSEG BANKED_CODE:CODE:NOROOT(0)
?Subroutine13:
        CFI Block cfiCond185 Using cfiCommon0
        CFI NoFunction
        CFI Conditional ??CrossCallReturnLabel_16
        CFI R6 load(1, XDATA, add(CFA_XSP16, literal(-22)))
        CFI VB load(1, XDATA, add(CFA_XSP16, literal(-21)))
        CFI V0 load(1, XDATA, add(CFA_XSP16, literal(-20)))
        CFI V1 load(1, XDATA, add(CFA_XSP16, literal(-19)))
        CFI V2 load(1, XDATA, add(CFA_XSP16, literal(-18)))
        CFI V3 load(1, XDATA, add(CFA_XSP16, literal(-17)))
        CFI V4 load(1, XDATA, add(CFA_XSP16, literal(-16)))
        CFI V5 load(1, XDATA, add(CFA_XSP16, literal(-15)))
        CFI V6 load(1, XDATA, add(CFA_XSP16, literal(-14)))
        CFI V7 load(1, XDATA, add(CFA_XSP16, literal(-13)))
        CFI V8 load(1, XDATA, add(CFA_XSP16, literal(-12)))
        CFI V9 load(1, XDATA, add(CFA_XSP16, literal(-11)))
        CFI V10 load(1, XDATA, add(CFA_XSP16, literal(-10)))
        CFI V11 load(1, XDATA, add(CFA_XSP16, literal(-9)))
        CFI V12 load(1, XDATA, add(CFA_XSP16, literal(-8)))
        CFI V13 load(1, XDATA, add(CFA_XSP16, literal(-7)))
        CFI R7 load(1, XDATA, add(CFA_XSP16, literal(-6)))
        CFI ?RET_LOW load(1, XDATA, add(CFA_XSP16, literal(-5)))
        CFI ?RET_HIGH load(1, XDATA, add(CFA_XSP16, literal(-4)))
        CFI ?BRET_EXT load(1, XDATA, add(CFA_XSP16, literal(-3)))
        CFI DPL0 load(1, XDATA, add(CFA_XSP16, literal(-2)))
        CFI DPH0 load(1, XDATA, add(CFA_XSP16, literal(-1)))
        CFI CFA_SP SP+0
        CFI CFA_XSP16 add(XSP16, 29)
        CFI Block cfiCond186 Using cfiCommon0
        CFI (cfiCond186) NoFunction
        CFI (cfiCond186) Conditional ??CrossCallReturnLabel_17
        CFI (cfiCond186) R6 load(1, XDATA, add(CFA_XSP16, literal(-22)))
        CFI (cfiCond186) VB load(1, XDATA, add(CFA_XSP16, literal(-21)))
        CFI (cfiCond186) V0 load(1, XDATA, add(CFA_XSP16, literal(-20)))
        CFI (cfiCond186) V1 load(1, XDATA, add(CFA_XSP16, literal(-19)))
        CFI (cfiCond186) V2 load(1, XDATA, add(CFA_XSP16, literal(-18)))
        CFI (cfiCond186) V3 load(1, XDATA, add(CFA_XSP16, literal(-17)))
        CFI (cfiCond186) V4 load(1, XDATA, add(CFA_XSP16, literal(-16)))
        CFI (cfiCond186) V5 load(1, XDATA, add(CFA_XSP16, literal(-15)))
        CFI (cfiCond186) V6 load(1, XDATA, add(CFA_XSP16, literal(-14)))
        CFI (cfiCond186) V7 load(1, XDATA, add(CFA_XSP16, literal(-13)))
        CFI (cfiCond186) V8 load(1, XDATA, add(CFA_XSP16, literal(-12)))
        CFI (cfiCond186) V9 load(1, XDATA, add(CFA_XSP16, literal(-11)))
        CFI (cfiCond186) V10 load(1, XDATA, add(CFA_XSP16, literal(-10)))
        CFI (cfiCond186) V11 load(1, XDATA, add(CFA_XSP16, literal(-9)))
        CFI (cfiCond186) V12 load(1, XDATA, add(CFA_XSP16, literal(-8)))
        CFI (cfiCond186) V13 load(1, XDATA, add(CFA_XSP16, literal(-7)))
        CFI (cfiCond186) R7 load(1, XDATA, add(CFA_XSP16, literal(-6)))
        CFI (cfiCond186) ?RET_LOW load(1, XDATA, add(CFA_XSP16, literal(-5)))
        CFI (cfiCond186) ?RET_HIGH load(1, XDATA, add(CFA_XSP16, literal(-4)))
        CFI (cfiCond186) ?BRET_EXT load(1, XDATA, add(CFA_XSP16, literal(-3)))
        CFI (cfiCond186) DPL0 load(1, XDATA, add(CFA_XSP16, literal(-2)))
        CFI (cfiCond186) DPH0 load(1, XDATA, add(CFA_XSP16, literal(-1)))
        CFI (cfiCond186) CFA_SP SP+0
        CFI (cfiCond186) CFA_XSP16 add(XSP16, 29)
        CFI Block cfiPicker187 Using cfiCommon1
        CFI (cfiPicker187) NoFunction
        CFI (cfiPicker187) Picker
        LCALL   ?Subroutine32 & 0xFFFF
??CrossCallReturnLabel_74:
        MOVX    A,@DPTR
        RET
        CFI EndBlock cfiCond185
        CFI EndBlock cfiCond186
        CFI EndBlock cfiPicker187

        RSEG BANKED_CODE:CODE:NOROOT(0)
?Subroutine32:
        CFI Block cfiCond188 Using cfiCommon0
        CFI NoFunction
        CFI Conditional ??CrossCallReturnLabel_74, ??CrossCallReturnLabel_16
        CFI R6 load(1, XDATA, add(CFA_XSP16, literal(-22)))
        CFI VB load(1, XDATA, add(CFA_XSP16, literal(-21)))
        CFI V0 load(1, XDATA, add(CFA_XSP16, literal(-20)))
        CFI V1 load(1, XDATA, add(CFA_XSP16, literal(-19)))
        CFI V2 load(1, XDATA, add(CFA_XSP16, literal(-18)))
        CFI V3 load(1, XDATA, add(CFA_XSP16, literal(-17)))
        CFI V4 load(1, XDATA, add(CFA_XSP16, literal(-16)))
        CFI V5 load(1, XDATA, add(CFA_XSP16, literal(-15)))
        CFI V6 load(1, XDATA, add(CFA_XSP16, literal(-14)))
        CFI V7 load(1, XDATA, add(CFA_XSP16, literal(-13)))
        CFI V8 load(1, XDATA, add(CFA_XSP16, literal(-12)))
        CFI V9 load(1, XDATA, add(CFA_XSP16, literal(-11)))
        CFI V10 load(1, XDATA, add(CFA_XSP16, literal(-10)))
        CFI V11 load(1, XDATA, add(CFA_XSP16, literal(-9)))
        CFI V12 load(1, XDATA, add(CFA_XSP16, literal(-8)))
        CFI V13 load(1, XDATA, add(CFA_XSP16, literal(-7)))
        CFI R7 load(1, XDATA, add(CFA_XSP16, literal(-6)))
        CFI ?RET_LOW load(1, XDATA, add(CFA_XSP16, literal(-5)))
        CFI ?RET_HIGH load(1, XDATA, add(CFA_XSP16, literal(-4)))
        CFI ?BRET_EXT load(1, XDATA, add(CFA_XSP16, literal(-3)))
        CFI DPL0 load(1, XDATA, add(CFA_XSP16, literal(-2)))
        CFI DPH0 load(1, XDATA, add(CFA_XSP16, literal(-1)))
        CFI CFA_SP SP+0
        CFI CFA_XSP16 add(XSP16, 29)
        CFI Block cfiCond189 Using cfiCommon0
        CFI (cfiCond189) NoFunction
        CFI (cfiCond189) Conditional ??CrossCallReturnLabel_74, ??CrossCallReturnLabel_17
        CFI (cfiCond189) R6 load(1, XDATA, add(CFA_XSP16, literal(-22)))
        CFI (cfiCond189) VB load(1, XDATA, add(CFA_XSP16, literal(-21)))
        CFI (cfiCond189) V0 load(1, XDATA, add(CFA_XSP16, literal(-20)))
        CFI (cfiCond189) V1 load(1, XDATA, add(CFA_XSP16, literal(-19)))
        CFI (cfiCond189) V2 load(1, XDATA, add(CFA_XSP16, literal(-18)))
        CFI (cfiCond189) V3 load(1, XDATA, add(CFA_XSP16, literal(-17)))
        CFI (cfiCond189) V4 load(1, XDATA, add(CFA_XSP16, literal(-16)))
        CFI (cfiCond189) V5 load(1, XDATA, add(CFA_XSP16, literal(-15)))
        CFI (cfiCond189) V6 load(1, XDATA, add(CFA_XSP16, literal(-14)))
        CFI (cfiCond189) V7 load(1, XDATA, add(CFA_XSP16, literal(-13)))
        CFI (cfiCond189) V8 load(1, XDATA, add(CFA_XSP16, literal(-12)))
        CFI (cfiCond189) V9 load(1, XDATA, add(CFA_XSP16, literal(-11)))
        CFI (cfiCond189) V10 load(1, XDATA, add(CFA_XSP16, literal(-10)))
        CFI (cfiCond189) V11 load(1, XDATA, add(CFA_XSP16, literal(-9)))
        CFI (cfiCond189) V12 load(1, XDATA, add(CFA_XSP16, literal(-8)))
        CFI (cfiCond189) V13 load(1, XDATA, add(CFA_XSP16, literal(-7)))
        CFI (cfiCond189) R7 load(1, XDATA, add(CFA_XSP16, literal(-6)))
        CFI (cfiCond189) ?RET_LOW load(1, XDATA, add(CFA_XSP16, literal(-5)))
        CFI (cfiCond189) ?RET_HIGH load(1, XDATA, add(CFA_XSP16, literal(-4)))
        CFI (cfiCond189) ?BRET_EXT load(1, XDATA, add(CFA_XSP16, literal(-3)))
        CFI (cfiCond189) DPL0 load(1, XDATA, add(CFA_XSP16, literal(-2)))
        CFI (cfiCond189) DPH0 load(1, XDATA, add(CFA_XSP16, literal(-1)))
        CFI (cfiCond189) CFA_SP SP+0
        CFI (cfiCond189) CFA_XSP16 add(XSP16, 29)
        CFI Block cfiCond190 Using cfiCommon0
        CFI (cfiCond190) NoFunction
        CFI (cfiCond190) Conditional ??CrossCallReturnLabel_73, ??CrossCallReturnLabel_14
        CFI (cfiCond190) R6 load(1, XDATA, add(CFA_XSP16, literal(-22)))
        CFI (cfiCond190) VB load(1, XDATA, add(CFA_XSP16, literal(-21)))
        CFI (cfiCond190) V0 load(1, XDATA, add(CFA_XSP16, literal(-20)))
        CFI (cfiCond190) V1 load(1, XDATA, add(CFA_XSP16, literal(-19)))
        CFI (cfiCond190) V2 load(1, XDATA, add(CFA_XSP16, literal(-18)))
        CFI (cfiCond190) V3 load(1, XDATA, add(CFA_XSP16, literal(-17)))
        CFI (cfiCond190) V4 load(1, XDATA, add(CFA_XSP16, literal(-16)))
        CFI (cfiCond190) V5 load(1, XDATA, add(CFA_XSP16, literal(-15)))
        CFI (cfiCond190) V6 load(1, XDATA, add(CFA_XSP16, literal(-14)))
        CFI (cfiCond190) V7 load(1, XDATA, add(CFA_XSP16, literal(-13)))
        CFI (cfiCond190) V8 load(1, XDATA, add(CFA_XSP16, literal(-12)))
        CFI (cfiCond190) V9 load(1, XDATA, add(CFA_XSP16, literal(-11)))
        CFI (cfiCond190) V10 load(1, XDATA, add(CFA_XSP16, literal(-10)))
        CFI (cfiCond190) V11 load(1, XDATA, add(CFA_XSP16, literal(-9)))
        CFI (cfiCond190) V12 load(1, XDATA, add(CFA_XSP16, literal(-8)))
        CFI (cfiCond190) V13 load(1, XDATA, add(CFA_XSP16, literal(-7)))
        CFI (cfiCond190) R7 load(1, XDATA, add(CFA_XSP16, literal(-6)))
        CFI (cfiCond190) ?RET_LOW load(1, XDATA, add(CFA_XSP16, literal(-5)))
        CFI (cfiCond190) ?RET_HIGH load(1, XDATA, add(CFA_XSP16, literal(-4)))
        CFI (cfiCond190) ?BRET_EXT load(1, XDATA, add(CFA_XSP16, literal(-3)))
        CFI (cfiCond190) DPL0 load(1, XDATA, add(CFA_XSP16, literal(-2)))
        CFI (cfiCond190) DPH0 load(1, XDATA, add(CFA_XSP16, literal(-1)))
        CFI (cfiCond190) CFA_SP SP+0
        CFI (cfiCond190) CFA_XSP16 add(XSP16, 29)
        CFI Block cfiCond191 Using cfiCommon0
        CFI (cfiCond191) NoFunction
        CFI (cfiCond191) Conditional ??CrossCallReturnLabel_73, ??CrossCallReturnLabel_15
        CFI (cfiCond191) R6 load(1, XDATA, add(CFA_XSP16, literal(-22)))
        CFI (cfiCond191) VB load(1, XDATA, add(CFA_XSP16, literal(-21)))
        CFI (cfiCond191) V0 load(1, XDATA, add(CFA_XSP16, literal(-20)))
        CFI (cfiCond191) V1 load(1, XDATA, add(CFA_XSP16, literal(-19)))
        CFI (cfiCond191) V2 load(1, XDATA, add(CFA_XSP16, literal(-18)))
        CFI (cfiCond191) V3 load(1, XDATA, add(CFA_XSP16, literal(-17)))
        CFI (cfiCond191) V4 load(1, XDATA, add(CFA_XSP16, literal(-16)))
        CFI (cfiCond191) V5 load(1, XDATA, add(CFA_XSP16, literal(-15)))
        CFI (cfiCond191) V6 load(1, XDATA, add(CFA_XSP16, literal(-14)))
        CFI (cfiCond191) V7 load(1, XDATA, add(CFA_XSP16, literal(-13)))
        CFI (cfiCond191) V8 load(1, XDATA, add(CFA_XSP16, literal(-12)))
        CFI (cfiCond191) V9 load(1, XDATA, add(CFA_XSP16, literal(-11)))
        CFI (cfiCond191) V10 load(1, XDATA, add(CFA_XSP16, literal(-10)))
        CFI (cfiCond191) V11 load(1, XDATA, add(CFA_XSP16, literal(-9)))
        CFI (cfiCond191) V12 load(1, XDATA, add(CFA_XSP16, literal(-8)))
        CFI (cfiCond191) V13 load(1, XDATA, add(CFA_XSP16, literal(-7)))
        CFI (cfiCond191) R7 load(1, XDATA, add(CFA_XSP16, literal(-6)))
        CFI (cfiCond191) ?RET_LOW load(1, XDATA, add(CFA_XSP16, literal(-5)))
        CFI (cfiCond191) ?RET_HIGH load(1, XDATA, add(CFA_XSP16, literal(-4)))
        CFI (cfiCond191) ?BRET_EXT load(1, XDATA, add(CFA_XSP16, literal(-3)))
        CFI (cfiCond191) DPL0 load(1, XDATA, add(CFA_XSP16, literal(-2)))
        CFI (cfiCond191) DPH0 load(1, XDATA, add(CFA_XSP16, literal(-1)))
        CFI (cfiCond191) CFA_SP SP+0
        CFI (cfiCond191) CFA_XSP16 add(XSP16, 29)
        CFI Block cfiPicker192 Using cfiCommon1
        CFI (cfiPicker192) NoFunction
        CFI (cfiPicker192) Picker
        MOV     DPL,?XSP + 0
        MOV     DPH,?XSP + 1
        MOVX    A,@DPTR
        CFI EndBlock cfiCond188
        CFI EndBlock cfiCond189
        CFI EndBlock cfiCond190
        CFI EndBlock cfiCond191
        CFI EndBlock cfiPicker192
        REQUIRE ??Subroutine48_0
        ; // Fall through to label ??Subroutine48_0

        RSEG BANKED_CODE:CODE:NOROOT(0)
??Subroutine48_0:
        CFI Block cfiCond193 Using cfiCommon0
        CFI NoFunction
        CFI Conditional ??CrossCallReturnLabel_72
        CFI R6 load(1, XDATA, add(CFA_XSP16, literal(-22)))
        CFI VB load(1, XDATA, add(CFA_XSP16, literal(-21)))
        CFI V0 load(1, XDATA, add(CFA_XSP16, literal(-20)))
        CFI V1 load(1, XDATA, add(CFA_XSP16, literal(-19)))
        CFI V2 load(1, XDATA, add(CFA_XSP16, literal(-18)))
        CFI V3 load(1, XDATA, add(CFA_XSP16, literal(-17)))
        CFI V4 load(1, XDATA, add(CFA_XSP16, literal(-16)))
        CFI V5 load(1, XDATA, add(CFA_XSP16, literal(-15)))
        CFI V6 load(1, XDATA, add(CFA_XSP16, literal(-14)))
        CFI V7 load(1, XDATA, add(CFA_XSP16, literal(-13)))
        CFI V8 load(1, XDATA, add(CFA_XSP16, literal(-12)))
        CFI V9 load(1, XDATA, add(CFA_XSP16, literal(-11)))
        CFI V10 load(1, XDATA, add(CFA_XSP16, literal(-10)))
        CFI V11 load(1, XDATA, add(CFA_XSP16, literal(-9)))
        CFI V12 load(1, XDATA, add(CFA_XSP16, literal(-8)))
        CFI V13 load(1, XDATA, add(CFA_XSP16, literal(-7)))
        CFI R7 load(1, XDATA, add(CFA_XSP16, literal(-6)))
        CFI ?RET_LOW load(1, XDATA, add(CFA_XSP16, literal(-5)))
        CFI ?RET_HIGH load(1, XDATA, add(CFA_XSP16, literal(-4)))
        CFI ?BRET_EXT load(1, XDATA, add(CFA_XSP16, literal(-3)))
        CFI DPL0 load(1, XDATA, add(CFA_XSP16, literal(-2)))
        CFI DPH0 load(1, XDATA, add(CFA_XSP16, literal(-1)))
        CFI CFA_SP SP+0
        CFI CFA_XSP16 add(XSP16, 29)
        CFI Block cfiCond194 Using cfiCommon0
        CFI (cfiCond194) NoFunction
        CFI (cfiCond194) Conditional ??CrossCallReturnLabel_74, ??CrossCallReturnLabel_16
        CFI (cfiCond194) R6 load(1, XDATA, add(CFA_XSP16, literal(-22)))
        CFI (cfiCond194) VB load(1, XDATA, add(CFA_XSP16, literal(-21)))
        CFI (cfiCond194) V0 load(1, XDATA, add(CFA_XSP16, literal(-20)))
        CFI (cfiCond194) V1 load(1, XDATA, add(CFA_XSP16, literal(-19)))
        CFI (cfiCond194) V2 load(1, XDATA, add(CFA_XSP16, literal(-18)))
        CFI (cfiCond194) V3 load(1, XDATA, add(CFA_XSP16, literal(-17)))
        CFI (cfiCond194) V4 load(1, XDATA, add(CFA_XSP16, literal(-16)))
        CFI (cfiCond194) V5 load(1, XDATA, add(CFA_XSP16, literal(-15)))
        CFI (cfiCond194) V6 load(1, XDATA, add(CFA_XSP16, literal(-14)))
        CFI (cfiCond194) V7 load(1, XDATA, add(CFA_XSP16, literal(-13)))
        CFI (cfiCond194) V8 load(1, XDATA, add(CFA_XSP16, literal(-12)))
        CFI (cfiCond194) V9 load(1, XDATA, add(CFA_XSP16, literal(-11)))
        CFI (cfiCond194) V10 load(1, XDATA, add(CFA_XSP16, literal(-10)))
        CFI (cfiCond194) V11 load(1, XDATA, add(CFA_XSP16, literal(-9)))
        CFI (cfiCond194) V12 load(1, XDATA, add(CFA_XSP16, literal(-8)))
        CFI (cfiCond194) V13 load(1, XDATA, add(CFA_XSP16, literal(-7)))
        CFI (cfiCond194) R7 load(1, XDATA, add(CFA_XSP16, literal(-6)))
        CFI (cfiCond194) ?RET_LOW load(1, XDATA, add(CFA_XSP16, literal(-5)))
        CFI (cfiCond194) ?RET_HIGH load(1, XDATA, add(CFA_XSP16, literal(-4)))
        CFI (cfiCond194) ?BRET_EXT load(1, XDATA, add(CFA_XSP16, literal(-3)))
        CFI (cfiCond194) DPL0 load(1, XDATA, add(CFA_XSP16, literal(-2)))
        CFI (cfiCond194) DPH0 load(1, XDATA, add(CFA_XSP16, literal(-1)))
        CFI (cfiCond194) CFA_SP SP+0
        CFI (cfiCond194) CFA_XSP16 add(XSP16, 29)
        CFI Block cfiCond195 Using cfiCommon0
        CFI (cfiCond195) NoFunction
        CFI (cfiCond195) Conditional ??CrossCallReturnLabel_74, ??CrossCallReturnLabel_17
        CFI (cfiCond195) R6 load(1, XDATA, add(CFA_XSP16, literal(-22)))
        CFI (cfiCond195) VB load(1, XDATA, add(CFA_XSP16, literal(-21)))
        CFI (cfiCond195) V0 load(1, XDATA, add(CFA_XSP16, literal(-20)))
        CFI (cfiCond195) V1 load(1, XDATA, add(CFA_XSP16, literal(-19)))
        CFI (cfiCond195) V2 load(1, XDATA, add(CFA_XSP16, literal(-18)))
        CFI (cfiCond195) V3 load(1, XDATA, add(CFA_XSP16, literal(-17)))
        CFI (cfiCond195) V4 load(1, XDATA, add(CFA_XSP16, literal(-16)))
        CFI (cfiCond195) V5 load(1, XDATA, add(CFA_XSP16, literal(-15)))
        CFI (cfiCond195) V6 load(1, XDATA, add(CFA_XSP16, literal(-14)))
        CFI (cfiCond195) V7 load(1, XDATA, add(CFA_XSP16, literal(-13)))
        CFI (cfiCond195) V8 load(1, XDATA, add(CFA_XSP16, literal(-12)))
        CFI (cfiCond195) V9 load(1, XDATA, add(CFA_XSP16, literal(-11)))
        CFI (cfiCond195) V10 load(1, XDATA, add(CFA_XSP16, literal(-10)))
        CFI (cfiCond195) V11 load(1, XDATA, add(CFA_XSP16, literal(-9)))
        CFI (cfiCond195) V12 load(1, XDATA, add(CFA_XSP16, literal(-8)))
        CFI (cfiCond195) V13 load(1, XDATA, add(CFA_XSP16, literal(-7)))
        CFI (cfiCond195) R7 load(1, XDATA, add(CFA_XSP16, literal(-6)))
        CFI (cfiCond195) ?RET_LOW load(1, XDATA, add(CFA_XSP16, literal(-5)))
        CFI (cfiCond195) ?RET_HIGH load(1, XDATA, add(CFA_XSP16, literal(-4)))
        CFI (cfiCond195) ?BRET_EXT load(1, XDATA, add(CFA_XSP16, literal(-3)))
        CFI (cfiCond195) DPL0 load(1, XDATA, add(CFA_XSP16, literal(-2)))
        CFI (cfiCond195) DPH0 load(1, XDATA, add(CFA_XSP16, literal(-1)))
        CFI (cfiCond195) CFA_SP SP+0
        CFI (cfiCond195) CFA_XSP16 add(XSP16, 29)
        CFI Block cfiCond196 Using cfiCommon0
        CFI (cfiCond196) NoFunction
        CFI (cfiCond196) Conditional ??CrossCallReturnLabel_73, ??CrossCallReturnLabel_14
        CFI (cfiCond196) R6 load(1, XDATA, add(CFA_XSP16, literal(-22)))
        CFI (cfiCond196) VB load(1, XDATA, add(CFA_XSP16, literal(-21)))
        CFI (cfiCond196) V0 load(1, XDATA, add(CFA_XSP16, literal(-20)))
        CFI (cfiCond196) V1 load(1, XDATA, add(CFA_XSP16, literal(-19)))
        CFI (cfiCond196) V2 load(1, XDATA, add(CFA_XSP16, literal(-18)))
        CFI (cfiCond196) V3 load(1, XDATA, add(CFA_XSP16, literal(-17)))
        CFI (cfiCond196) V4 load(1, XDATA, add(CFA_XSP16, literal(-16)))
        CFI (cfiCond196) V5 load(1, XDATA, add(CFA_XSP16, literal(-15)))
        CFI (cfiCond196) V6 load(1, XDATA, add(CFA_XSP16, literal(-14)))
        CFI (cfiCond196) V7 load(1, XDATA, add(CFA_XSP16, literal(-13)))
        CFI (cfiCond196) V8 load(1, XDATA, add(CFA_XSP16, literal(-12)))
        CFI (cfiCond196) V9 load(1, XDATA, add(CFA_XSP16, literal(-11)))
        CFI (cfiCond196) V10 load(1, XDATA, add(CFA_XSP16, literal(-10)))
        CFI (cfiCond196) V11 load(1, XDATA, add(CFA_XSP16, literal(-9)))
        CFI (cfiCond196) V12 load(1, XDATA, add(CFA_XSP16, literal(-8)))
        CFI (cfiCond196) V13 load(1, XDATA, add(CFA_XSP16, literal(-7)))
        CFI (cfiCond196) R7 load(1, XDATA, add(CFA_XSP16, literal(-6)))
        CFI (cfiCond196) ?RET_LOW load(1, XDATA, add(CFA_XSP16, literal(-5)))
        CFI (cfiCond196) ?RET_HIGH load(1, XDATA, add(CFA_XSP16, literal(-4)))
        CFI (cfiCond196) ?BRET_EXT load(1, XDATA, add(CFA_XSP16, literal(-3)))
        CFI (cfiCond196) DPL0 load(1, XDATA, add(CFA_XSP16, literal(-2)))
        CFI (cfiCond196) DPH0 load(1, XDATA, add(CFA_XSP16, literal(-1)))
        CFI (cfiCond196) CFA_SP SP+0
        CFI (cfiCond196) CFA_XSP16 add(XSP16, 29)
        CFI Block cfiCond197 Using cfiCommon0
        CFI (cfiCond197) NoFunction
        CFI (cfiCond197) Conditional ??CrossCallReturnLabel_73, ??CrossCallReturnLabel_15
        CFI (cfiCond197) R6 load(1, XDATA, add(CFA_XSP16, literal(-22)))
        CFI (cfiCond197) VB load(1, XDATA, add(CFA_XSP16, literal(-21)))
        CFI (cfiCond197) V0 load(1, XDATA, add(CFA_XSP16, literal(-20)))
        CFI (cfiCond197) V1 load(1, XDATA, add(CFA_XSP16, literal(-19)))
        CFI (cfiCond197) V2 load(1, XDATA, add(CFA_XSP16, literal(-18)))
        CFI (cfiCond197) V3 load(1, XDATA, add(CFA_XSP16, literal(-17)))
        CFI (cfiCond197) V4 load(1, XDATA, add(CFA_XSP16, literal(-16)))
        CFI (cfiCond197) V5 load(1, XDATA, add(CFA_XSP16, literal(-15)))
        CFI (cfiCond197) V6 load(1, XDATA, add(CFA_XSP16, literal(-14)))
        CFI (cfiCond197) V7 load(1, XDATA, add(CFA_XSP16, literal(-13)))
        CFI (cfiCond197) V8 load(1, XDATA, add(CFA_XSP16, literal(-12)))
        CFI (cfiCond197) V9 load(1, XDATA, add(CFA_XSP16, literal(-11)))
        CFI (cfiCond197) V10 load(1, XDATA, add(CFA_XSP16, literal(-10)))
        CFI (cfiCond197) V11 load(1, XDATA, add(CFA_XSP16, literal(-9)))
        CFI (cfiCond197) V12 load(1, XDATA, add(CFA_XSP16, literal(-8)))
        CFI (cfiCond197) V13 load(1, XDATA, add(CFA_XSP16, literal(-7)))
        CFI (cfiCond197) R7 load(1, XDATA, add(CFA_XSP16, literal(-6)))
        CFI (cfiCond197) ?RET_LOW load(1, XDATA, add(CFA_XSP16, literal(-5)))
        CFI (cfiCond197) ?RET_HIGH load(1, XDATA, add(CFA_XSP16, literal(-4)))
        CFI (cfiCond197) ?BRET_EXT load(1, XDATA, add(CFA_XSP16, literal(-3)))
        CFI (cfiCond197) DPL0 load(1, XDATA, add(CFA_XSP16, literal(-2)))
        CFI (cfiCond197) DPH0 load(1, XDATA, add(CFA_XSP16, literal(-1)))
        CFI (cfiCond197) CFA_SP SP+0
        CFI (cfiCond197) CFA_XSP16 add(XSP16, 29)
        CFI Block cfiPicker198 Using cfiCommon1
        CFI (cfiPicker198) NoFunction
        CFI (cfiPicker198) Picker
        MOV     R0,A
        INC     DPTR
        MOVX    A,@DPTR
        MOV     DPH,A
        MOV     DPL,R0
        INC     DPTR
        INC     DPTR
        INC     DPTR
        INC     DPTR
        INC     DPTR
        INC     DPTR
        RET
        CFI EndBlock cfiCond193
        CFI EndBlock cfiCond194
        CFI EndBlock cfiCond195
        CFI EndBlock cfiCond196
        CFI EndBlock cfiCond197
        CFI EndBlock cfiPicker198

        RSEG BANKED_CODE:CODE:NOROOT(0)
?Subroutine11:
        CFI Block cfiCond199 Using cfiCommon0
        CFI NoFunction
        CFI Conditional ??CrossCallReturnLabel_14
        CFI R6 load(1, XDATA, add(CFA_XSP16, literal(-22)))
        CFI VB load(1, XDATA, add(CFA_XSP16, literal(-21)))
        CFI V0 load(1, XDATA, add(CFA_XSP16, literal(-20)))
        CFI V1 load(1, XDATA, add(CFA_XSP16, literal(-19)))
        CFI V2 load(1, XDATA, add(CFA_XSP16, literal(-18)))
        CFI V3 load(1, XDATA, add(CFA_XSP16, literal(-17)))
        CFI V4 load(1, XDATA, add(CFA_XSP16, literal(-16)))
        CFI V5 load(1, XDATA, add(CFA_XSP16, literal(-15)))
        CFI V6 load(1, XDATA, add(CFA_XSP16, literal(-14)))
        CFI V7 load(1, XDATA, add(CFA_XSP16, literal(-13)))
        CFI V8 load(1, XDATA, add(CFA_XSP16, literal(-12)))
        CFI V9 load(1, XDATA, add(CFA_XSP16, literal(-11)))
        CFI V10 load(1, XDATA, add(CFA_XSP16, literal(-10)))
        CFI V11 load(1, XDATA, add(CFA_XSP16, literal(-9)))
        CFI V12 load(1, XDATA, add(CFA_XSP16, literal(-8)))
        CFI V13 load(1, XDATA, add(CFA_XSP16, literal(-7)))
        CFI R7 load(1, XDATA, add(CFA_XSP16, literal(-6)))
        CFI ?RET_LOW load(1, XDATA, add(CFA_XSP16, literal(-5)))
        CFI ?RET_HIGH load(1, XDATA, add(CFA_XSP16, literal(-4)))
        CFI ?BRET_EXT load(1, XDATA, add(CFA_XSP16, literal(-3)))
        CFI DPL0 load(1, XDATA, add(CFA_XSP16, literal(-2)))
        CFI DPH0 load(1, XDATA, add(CFA_XSP16, literal(-1)))
        CFI CFA_SP SP+0
        CFI CFA_XSP16 add(XSP16, 29)
        CFI Block cfiCond200 Using cfiCommon0
        CFI (cfiCond200) NoFunction
        CFI (cfiCond200) Conditional ??CrossCallReturnLabel_15
        CFI (cfiCond200) R6 load(1, XDATA, add(CFA_XSP16, literal(-22)))
        CFI (cfiCond200) VB load(1, XDATA, add(CFA_XSP16, literal(-21)))
        CFI (cfiCond200) V0 load(1, XDATA, add(CFA_XSP16, literal(-20)))
        CFI (cfiCond200) V1 load(1, XDATA, add(CFA_XSP16, literal(-19)))
        CFI (cfiCond200) V2 load(1, XDATA, add(CFA_XSP16, literal(-18)))
        CFI (cfiCond200) V3 load(1, XDATA, add(CFA_XSP16, literal(-17)))
        CFI (cfiCond200) V4 load(1, XDATA, add(CFA_XSP16, literal(-16)))
        CFI (cfiCond200) V5 load(1, XDATA, add(CFA_XSP16, literal(-15)))
        CFI (cfiCond200) V6 load(1, XDATA, add(CFA_XSP16, literal(-14)))
        CFI (cfiCond200) V7 load(1, XDATA, add(CFA_XSP16, literal(-13)))
        CFI (cfiCond200) V8 load(1, XDATA, add(CFA_XSP16, literal(-12)))
        CFI (cfiCond200) V9 load(1, XDATA, add(CFA_XSP16, literal(-11)))
        CFI (cfiCond200) V10 load(1, XDATA, add(CFA_XSP16, literal(-10)))
        CFI (cfiCond200) V11 load(1, XDATA, add(CFA_XSP16, literal(-9)))
        CFI (cfiCond200) V12 load(1, XDATA, add(CFA_XSP16, literal(-8)))
        CFI (cfiCond200) V13 load(1, XDATA, add(CFA_XSP16, literal(-7)))
        CFI (cfiCond200) R7 load(1, XDATA, add(CFA_XSP16, literal(-6)))
        CFI (cfiCond200) ?RET_LOW load(1, XDATA, add(CFA_XSP16, literal(-5)))
        CFI (cfiCond200) ?RET_HIGH load(1, XDATA, add(CFA_XSP16, literal(-4)))
        CFI (cfiCond200) ?BRET_EXT load(1, XDATA, add(CFA_XSP16, literal(-3)))
        CFI (cfiCond200) DPL0 load(1, XDATA, add(CFA_XSP16, literal(-2)))
        CFI (cfiCond200) DPH0 load(1, XDATA, add(CFA_XSP16, literal(-1)))
        CFI (cfiCond200) CFA_SP SP+0
        CFI (cfiCond200) CFA_XSP16 add(XSP16, 29)
        CFI Block cfiPicker201 Using cfiCommon1
        CFI (cfiPicker201) NoFunction
        CFI (cfiPicker201) Picker
        LCALL   ?Subroutine32 & 0xFFFF
??CrossCallReturnLabel_73:
        INC     DPTR
        INC     DPTR
        INC     DPTR
        RET
        CFI EndBlock cfiCond199
        CFI EndBlock cfiCond200
        CFI EndBlock cfiPicker201

        RSEG BANKED_CODE:CODE:NOROOT(0)
?Subroutine6:
        CFI Block cfiCond202 Using cfiCommon0
        CFI NoFunction
        CFI Conditional ??CrossCallReturnLabel_6
        CFI R6 load(1, XDATA, add(CFA_XSP16, literal(-22)))
        CFI VB load(1, XDATA, add(CFA_XSP16, literal(-21)))
        CFI V0 load(1, XDATA, add(CFA_XSP16, literal(-20)))
        CFI V1 load(1, XDATA, add(CFA_XSP16, literal(-19)))
        CFI V2 load(1, XDATA, add(CFA_XSP16, literal(-18)))
        CFI V3 load(1, XDATA, add(CFA_XSP16, literal(-17)))
        CFI V4 load(1, XDATA, add(CFA_XSP16, literal(-16)))
        CFI V5 load(1, XDATA, add(CFA_XSP16, literal(-15)))
        CFI V6 load(1, XDATA, add(CFA_XSP16, literal(-14)))
        CFI V7 load(1, XDATA, add(CFA_XSP16, literal(-13)))
        CFI V8 load(1, XDATA, add(CFA_XSP16, literal(-12)))
        CFI V9 load(1, XDATA, add(CFA_XSP16, literal(-11)))
        CFI V10 load(1, XDATA, add(CFA_XSP16, literal(-10)))
        CFI V11 load(1, XDATA, add(CFA_XSP16, literal(-9)))
        CFI V12 load(1, XDATA, add(CFA_XSP16, literal(-8)))
        CFI V13 load(1, XDATA, add(CFA_XSP16, literal(-7)))
        CFI R7 load(1, XDATA, add(CFA_XSP16, literal(-6)))
        CFI ?RET_LOW load(1, XDATA, add(CFA_XSP16, literal(-5)))
        CFI ?RET_HIGH load(1, XDATA, add(CFA_XSP16, literal(-4)))
        CFI ?BRET_EXT load(1, XDATA, add(CFA_XSP16, literal(-3)))
        CFI DPL0 load(1, XDATA, add(CFA_XSP16, literal(-2)))
        CFI DPH0 load(1, XDATA, add(CFA_XSP16, literal(-1)))
        CFI CFA_SP SP+0
        CFI CFA_XSP16 add(XSP16, 29)
        CFI Block cfiCond203 Using cfiCommon0
        CFI (cfiCond203) NoFunction
        CFI (cfiCond203) Conditional ??CrossCallReturnLabel_7
        CFI (cfiCond203) R6 load(1, XDATA, add(CFA_XSP16, literal(-22)))
        CFI (cfiCond203) VB load(1, XDATA, add(CFA_XSP16, literal(-21)))
        CFI (cfiCond203) V0 load(1, XDATA, add(CFA_XSP16, literal(-20)))
        CFI (cfiCond203) V1 load(1, XDATA, add(CFA_XSP16, literal(-19)))
        CFI (cfiCond203) V2 load(1, XDATA, add(CFA_XSP16, literal(-18)))
        CFI (cfiCond203) V3 load(1, XDATA, add(CFA_XSP16, literal(-17)))
        CFI (cfiCond203) V4 load(1, XDATA, add(CFA_XSP16, literal(-16)))
        CFI (cfiCond203) V5 load(1, XDATA, add(CFA_XSP16, literal(-15)))
        CFI (cfiCond203) V6 load(1, XDATA, add(CFA_XSP16, literal(-14)))
        CFI (cfiCond203) V7 load(1, XDATA, add(CFA_XSP16, literal(-13)))
        CFI (cfiCond203) V8 load(1, XDATA, add(CFA_XSP16, literal(-12)))
        CFI (cfiCond203) V9 load(1, XDATA, add(CFA_XSP16, literal(-11)))
        CFI (cfiCond203) V10 load(1, XDATA, add(CFA_XSP16, literal(-10)))
        CFI (cfiCond203) V11 load(1, XDATA, add(CFA_XSP16, literal(-9)))
        CFI (cfiCond203) V12 load(1, XDATA, add(CFA_XSP16, literal(-8)))
        CFI (cfiCond203) V13 load(1, XDATA, add(CFA_XSP16, literal(-7)))
        CFI (cfiCond203) R7 load(1, XDATA, add(CFA_XSP16, literal(-6)))
        CFI (cfiCond203) ?RET_LOW load(1, XDATA, add(CFA_XSP16, literal(-5)))
        CFI (cfiCond203) ?RET_HIGH load(1, XDATA, add(CFA_XSP16, literal(-4)))
        CFI (cfiCond203) ?BRET_EXT load(1, XDATA, add(CFA_XSP16, literal(-3)))
        CFI (cfiCond203) DPL0 load(1, XDATA, add(CFA_XSP16, literal(-2)))
        CFI (cfiCond203) DPH0 load(1, XDATA, add(CFA_XSP16, literal(-1)))
        CFI (cfiCond203) CFA_SP SP+0
        CFI (cfiCond203) CFA_XSP16 add(XSP16, 29)
        CFI Block cfiPicker204 Using cfiCommon1
        CFI (cfiPicker204) NoFunction
        CFI (cfiPicker204) Picker
        MOVX    @DPTR,A
        MOV     DPL,?V0 + 4
        MOV     DPH,?V0 + 5
        INC     DPTR
        MOVX    A,@DPTR
        RET
        CFI EndBlock cfiCond202
        CFI EndBlock cfiCond203
        CFI EndBlock cfiPicker204

        RSEG BANKED_CODE:CODE:NOROOT(0)
?Subroutine5:
        CFI Block cfiCond205 Using cfiCommon0
        CFI NoFunction
        CFI Conditional ??CrossCallReturnLabel_3
        CFI R6 load(1, XDATA, add(CFA_XSP16, literal(-14)))
        CFI VB load(1, XDATA, add(CFA_XSP16, literal(-13)))
        CFI V0 load(1, XDATA, add(CFA_XSP16, literal(-12)))
        CFI V1 load(1, XDATA, add(CFA_XSP16, literal(-11)))
        CFI V2 load(1, XDATA, add(CFA_XSP16, literal(-10)))
        CFI V3 load(1, XDATA, add(CFA_XSP16, literal(-9)))
        CFI V4 load(1, XDATA, add(CFA_XSP16, literal(-8)))
        CFI V5 load(1, XDATA, add(CFA_XSP16, literal(-7)))
        CFI R7 load(1, XDATA, add(CFA_XSP16, literal(-6)))
        CFI ?RET_LOW load(1, XDATA, add(CFA_XSP16, literal(-5)))
        CFI ?RET_HIGH load(1, XDATA, add(CFA_XSP16, literal(-4)))
        CFI ?BRET_EXT load(1, XDATA, add(CFA_XSP16, literal(-3)))
        CFI DPL0 load(1, XDATA, add(CFA_XSP16, literal(-2)))
        CFI DPH0 load(1, XDATA, add(CFA_XSP16, literal(-1)))
        CFI CFA_SP SP+0
        CFI CFA_XSP16 add(XSP16, 19)
        CFI Block cfiCond206 Using cfiCommon0
        CFI (cfiCond206) NoFunction
        CFI (cfiCond206) Conditional ??CrossCallReturnLabel_4
        CFI (cfiCond206) R6 load(1, XDATA, add(CFA_XSP16, literal(-22)))
        CFI (cfiCond206) VB load(1, XDATA, add(CFA_XSP16, literal(-21)))
        CFI (cfiCond206) V0 load(1, XDATA, add(CFA_XSP16, literal(-20)))
        CFI (cfiCond206) V1 load(1, XDATA, add(CFA_XSP16, literal(-19)))
        CFI (cfiCond206) V2 load(1, XDATA, add(CFA_XSP16, literal(-18)))
        CFI (cfiCond206) V3 load(1, XDATA, add(CFA_XSP16, literal(-17)))
        CFI (cfiCond206) V4 load(1, XDATA, add(CFA_XSP16, literal(-16)))
        CFI (cfiCond206) V5 load(1, XDATA, add(CFA_XSP16, literal(-15)))
        CFI (cfiCond206) V6 load(1, XDATA, add(CFA_XSP16, literal(-14)))
        CFI (cfiCond206) V7 load(1, XDATA, add(CFA_XSP16, literal(-13)))
        CFI (cfiCond206) V8 load(1, XDATA, add(CFA_XSP16, literal(-12)))
        CFI (cfiCond206) V9 load(1, XDATA, add(CFA_XSP16, literal(-11)))
        CFI (cfiCond206) V10 load(1, XDATA, add(CFA_XSP16, literal(-10)))
        CFI (cfiCond206) V11 load(1, XDATA, add(CFA_XSP16, literal(-9)))
        CFI (cfiCond206) V12 load(1, XDATA, add(CFA_XSP16, literal(-8)))
        CFI (cfiCond206) V13 load(1, XDATA, add(CFA_XSP16, literal(-7)))
        CFI (cfiCond206) R7 load(1, XDATA, add(CFA_XSP16, literal(-6)))
        CFI (cfiCond206) ?RET_LOW load(1, XDATA, add(CFA_XSP16, literal(-5)))
        CFI (cfiCond206) ?RET_HIGH load(1, XDATA, add(CFA_XSP16, literal(-4)))
        CFI (cfiCond206) ?BRET_EXT load(1, XDATA, add(CFA_XSP16, literal(-3)))
        CFI (cfiCond206) DPL0 load(1, XDATA, add(CFA_XSP16, literal(-2)))
        CFI (cfiCond206) DPH0 load(1, XDATA, add(CFA_XSP16, literal(-1)))
        CFI (cfiCond206) CFA_SP SP+0
        CFI (cfiCond206) CFA_XSP16 add(XSP16, 29)
        CFI Block cfiCond207 Using cfiCommon0
        CFI (cfiCond207) NoFunction
        CFI (cfiCond207) Conditional ??CrossCallReturnLabel_5
        CFI (cfiCond207) R6 load(1, XDATA, add(CFA_XSP16, literal(-14)))
        CFI (cfiCond207) VB load(1, XDATA, add(CFA_XSP16, literal(-13)))
        CFI (cfiCond207) V0 load(1, XDATA, add(CFA_XSP16, literal(-12)))
        CFI (cfiCond207) V1 load(1, XDATA, add(CFA_XSP16, literal(-11)))
        CFI (cfiCond207) V2 load(1, XDATA, add(CFA_XSP16, literal(-10)))
        CFI (cfiCond207) V3 load(1, XDATA, add(CFA_XSP16, literal(-9)))
        CFI (cfiCond207) V4 load(1, XDATA, add(CFA_XSP16, literal(-8)))
        CFI (cfiCond207) V5 load(1, XDATA, add(CFA_XSP16, literal(-7)))
        CFI (cfiCond207) R7 load(1, XDATA, add(CFA_XSP16, literal(-6)))
        CFI (cfiCond207) ?RET_LOW load(1, XDATA, add(CFA_XSP16, literal(-5)))
        CFI (cfiCond207) ?RET_HIGH load(1, XDATA, add(CFA_XSP16, literal(-4)))
        CFI (cfiCond207) ?BRET_EXT load(1, XDATA, add(CFA_XSP16, literal(-3)))
        CFI (cfiCond207) DPL0 load(1, XDATA, add(CFA_XSP16, literal(-2)))
        CFI (cfiCond207) DPH0 load(1, XDATA, add(CFA_XSP16, literal(-1)))
        CFI (cfiCond207) CFA_SP SP+0
        CFI (cfiCond207) CFA_XSP16 add(XSP16, 19)
        CFI Block cfiPicker208 Using cfiCommon1
        CFI (cfiPicker208) NoFunction
        CFI (cfiPicker208) Picker
        MOVX    @DPTR,A
        ; Setup parameters for call to function AF_DataRequest
        ; Setup parameters for call to function AF_DataRequest
        ; Setup parameters for call to function AF_DataRequest
        MOV     ?V0 + 0,#0x1e
        MOV     R0,#?V0 + 0
        RET
        CFI EndBlock cfiCond205
        CFI EndBlock cfiCond206
        CFI EndBlock cfiCond207
        CFI EndBlock cfiPicker208
//  496 
//  497 /********************************************************
//  498 process response funtin of the CLUSDISC command
//  499 
//  500 DISCCLUS:<Node ID>,<EndPoint>,<Status>
//  501 Prompt (will show, if <Status> is 00) 
//  502             SERVER:<ClusterID>,<ClusterID>,<ClusterID> 
//  503             CLIENT:<ClusterID>,<ClusterID>,< ClusterI
//  504 *************************************************************/

        RSEG BANKED_CODE:CODE:NOROOT(0)
//  505 void AT_AF_Cmd_HA_CIDDISC_rsp(afIncomingMSGPacket_t *pkt ){
AT_AF_Cmd_HA_CIDDISC_rsp:
        CFI Block cfiBlock209 Using cfiCommon0
        CFI Function AT_AF_Cmd_HA_CIDDISC_rsp
        CODE
        FUNCALL AT_AF_Cmd_HA_CIDDISC_rsp, AT_HalUARTWrite
        LOCFRAME ISTACK, 0, STACK
        LOCFRAME PSTACK, 0, STACK
        LOCFRAME XSTACK, 12, STACK
        LOCFRAME IOVERLAY, 0, STATIC
        LOCFRAME DOVERLAY, 0, STATIC
        ARGFRAME ISTACK, 0, STACK
        ARGFRAME PSTACK, 0, STACK
        ARGFRAME XSTACK, 12, STACK
        ARGFRAME IOVERLAY, 0, STATIC
        ARGFRAME DOVERLAY, 0, STATIC
        FUNCALL AT_AF_Cmd_HA_CIDDISC_rsp, AT_HalUARTWrite
        LOCFRAME ISTACK, 0, STACK
        LOCFRAME PSTACK, 0, STACK
        LOCFRAME XSTACK, 12, STACK
        LOCFRAME IOVERLAY, 0, STATIC
        LOCFRAME DOVERLAY, 0, STATIC
        ARGFRAME ISTACK, 0, STACK
        ARGFRAME PSTACK, 0, STACK
        ARGFRAME XSTACK, 12, STACK
        ARGFRAME IOVERLAY, 0, STATIC
        ARGFRAME DOVERLAY, 0, STATIC
        FUNCALL AT_AF_Cmd_HA_CIDDISC_rsp, AT_HalUARTWrite
        LOCFRAME ISTACK, 0, STACK
        LOCFRAME PSTACK, 0, STACK
        LOCFRAME XSTACK, 12, STACK
        LOCFRAME IOVERLAY, 0, STATIC
        LOCFRAME DOVERLAY, 0, STATIC
        ARGFRAME ISTACK, 0, STACK
        ARGFRAME PSTACK, 0, STACK
        ARGFRAME XSTACK, 12, STACK
        ARGFRAME IOVERLAY, 0, STATIC
        ARGFRAME DOVERLAY, 0, STATIC
        FUNCALL AT_AF_Cmd_HA_CIDDISC_rsp, printf
        LOCFRAME ISTACK, 0, STACK
        LOCFRAME PSTACK, 0, STACK
        LOCFRAME XSTACK, 14, STACK
        LOCFRAME IOVERLAY, 0, STATIC
        LOCFRAME DOVERLAY, 0, STATIC
        ARGFRAME ISTACK, 0, STACK
        ARGFRAME PSTACK, 0, STACK
        ARGFRAME XSTACK, 14, STACK
        ARGFRAME IOVERLAY, 0, STATIC
        ARGFRAME DOVERLAY, 0, STATIC
        FUNCALL AT_AF_Cmd_HA_CIDDISC_rsp, printf
        LOCFRAME ISTACK, 0, STACK
        LOCFRAME PSTACK, 0, STACK
        LOCFRAME XSTACK, 12, STACK
        LOCFRAME IOVERLAY, 0, STATIC
        LOCFRAME DOVERLAY, 0, STATIC
        ARGFRAME ISTACK, 0, STACK
        ARGFRAME PSTACK, 0, STACK
        ARGFRAME XSTACK, 12, STACK
        ARGFRAME IOVERLAY, 0, STATIC
        ARGFRAME DOVERLAY, 0, STATIC
        FUNCALL AT_AF_Cmd_HA_CIDDISC_rsp, printf
        LOCFRAME ISTACK, 0, STACK
        LOCFRAME PSTACK, 0, STACK
        LOCFRAME XSTACK, 16, STACK
        LOCFRAME IOVERLAY, 0, STATIC
        LOCFRAME DOVERLAY, 0, STATIC
        ARGFRAME ISTACK, 0, STACK
        ARGFRAME PSTACK, 0, STACK
        ARGFRAME XSTACK, 16, STACK
        ARGFRAME IOVERLAY, 0, STATIC
        ARGFRAME DOVERLAY, 0, STATIC
        FUNCALL AT_AF_Cmd_HA_CIDDISC_rsp, AT_HalUARTWrite
        LOCFRAME ISTACK, 0, STACK
        LOCFRAME PSTACK, 0, STACK
        LOCFRAME XSTACK, 12, STACK
        LOCFRAME IOVERLAY, 0, STATIC
        LOCFRAME DOVERLAY, 0, STATIC
        ARGFRAME ISTACK, 0, STACK
        ARGFRAME PSTACK, 0, STACK
        ARGFRAME XSTACK, 12, STACK
        ARGFRAME IOVERLAY, 0, STATIC
        ARGFRAME DOVERLAY, 0, STATIC
        FUNCALL AT_AF_Cmd_HA_CIDDISC_rsp, printf
        LOCFRAME ISTACK, 0, STACK
        LOCFRAME PSTACK, 0, STACK
        LOCFRAME XSTACK, 12, STACK
        LOCFRAME IOVERLAY, 0, STATIC
        LOCFRAME DOVERLAY, 0, STATIC
        ARGFRAME ISTACK, 0, STACK
        ARGFRAME PSTACK, 0, STACK
        ARGFRAME XSTACK, 12, STACK
        ARGFRAME IOVERLAY, 0, STATIC
        ARGFRAME DOVERLAY, 0, STATIC
        FUNCALL AT_AF_Cmd_HA_CIDDISC_rsp, printf
        LOCFRAME ISTACK, 0, STACK
        LOCFRAME PSTACK, 0, STACK
        LOCFRAME XSTACK, 14, STACK
        LOCFRAME IOVERLAY, 0, STATIC
        LOCFRAME DOVERLAY, 0, STATIC
        ARGFRAME ISTACK, 0, STACK
        ARGFRAME PSTACK, 0, STACK
        ARGFRAME XSTACK, 14, STACK
        ARGFRAME IOVERLAY, 0, STATIC
        ARGFRAME DOVERLAY, 0, STATIC
        FUNCALL AT_AF_Cmd_HA_CIDDISC_rsp, AT_HalUARTWrite
        LOCFRAME ISTACK, 0, STACK
        LOCFRAME PSTACK, 0, STACK
        LOCFRAME XSTACK, 12, STACK
        LOCFRAME IOVERLAY, 0, STATIC
        LOCFRAME DOVERLAY, 0, STATIC
        ARGFRAME ISTACK, 0, STACK
        ARGFRAME PSTACK, 0, STACK
        ARGFRAME XSTACK, 12, STACK
        ARGFRAME IOVERLAY, 0, STATIC
        ARGFRAME DOVERLAY, 0, STATIC
        FUNCALL AT_AF_Cmd_HA_CIDDISC_rsp, printf
        LOCFRAME ISTACK, 0, STACK
        LOCFRAME PSTACK, 0, STACK
        LOCFRAME XSTACK, 12, STACK
        LOCFRAME IOVERLAY, 0, STATIC
        LOCFRAME DOVERLAY, 0, STATIC
        ARGFRAME ISTACK, 0, STACK
        ARGFRAME PSTACK, 0, STACK
        ARGFRAME XSTACK, 12, STACK
        ARGFRAME IOVERLAY, 0, STATIC
        ARGFRAME DOVERLAY, 0, STATIC
        FUNCALL AT_AF_Cmd_HA_CIDDISC_rsp, printf
        LOCFRAME ISTACK, 0, STACK
        LOCFRAME PSTACK, 0, STACK
        LOCFRAME XSTACK, 14, STACK
        LOCFRAME IOVERLAY, 0, STATIC
        LOCFRAME DOVERLAY, 0, STATIC
        ARGFRAME ISTACK, 0, STACK
        ARGFRAME PSTACK, 0, STACK
        ARGFRAME XSTACK, 14, STACK
        ARGFRAME IOVERLAY, 0, STATIC
        ARGFRAME DOVERLAY, 0, STATIC
        FUNCALL AT_AF_Cmd_HA_CIDDISC_rsp, AT_HalUARTWrite
        LOCFRAME ISTACK, 0, STACK
        LOCFRAME PSTACK, 0, STACK
        LOCFRAME XSTACK, 12, STACK
        LOCFRAME IOVERLAY, 0, STATIC
        LOCFRAME DOVERLAY, 0, STATIC
        ARGFRAME ISTACK, 0, STACK
        ARGFRAME PSTACK, 0, STACK
        ARGFRAME XSTACK, 12, STACK
        ARGFRAME IOVERLAY, 0, STATIC
        ARGFRAME DOVERLAY, 0, STATIC
        MOV     A,#-0xc
        LCALL   ?BANKED_ENTER_XDATA
        CFI DPH0 load(1, XDATA, add(CFA_XSP16, literal(-1)))
        CFI DPL0 load(1, XDATA, add(CFA_XSP16, literal(-2)))
        CFI ?BRET_EXT load(1, XDATA, add(CFA_XSP16, literal(-3)))
        CFI ?RET_HIGH load(1, XDATA, add(CFA_XSP16, literal(-4)))
        CFI ?RET_LOW load(1, XDATA, add(CFA_XSP16, literal(-5)))
        CFI R7 load(1, XDATA, add(CFA_XSP16, literal(-6)))
        CFI V3 load(1, XDATA, add(CFA_XSP16, literal(-7)))
        CFI V2 load(1, XDATA, add(CFA_XSP16, literal(-8)))
        CFI V1 load(1, XDATA, add(CFA_XSP16, literal(-9)))
        CFI V0 load(1, XDATA, add(CFA_XSP16, literal(-10)))
        CFI VB load(1, XDATA, add(CFA_XSP16, literal(-11)))
        CFI R6 load(1, XDATA, add(CFA_XSP16, literal(-12)))
        CFI CFA_SP SP+0
        CFI CFA_XSP16 add(XSP16, 12)
        ; Saved register size: 12
        ; Auto size: 0
        LCALL   ?Subroutine26 & 0xFFFF
//  506     AT_AF_Cmd_HA_CIDDISC_rsp_t *rsp = (AT_AF_Cmd_HA_CIDDISC_rsp_t *) pkt->cmd.Data;
??CrossCallReturnLabel_100:
        LCALL   ??Subroutine51_0 & 0xFFFF
??CrossCallReturnLabel_85:
        MOV     R6,A
        INC     DPTR
        MOVX    A,@DPTR
        MOV     R7,A
//  507     AT_RESP_START();
        ; Setup parameters for call to function AT_HalUARTWrite
        MOV     R4,#0x2
        MOV     R5,#0x0
        MOV     R2,#`?<Constant "\\r\\n">` & 0xff
        MOV     R3,#(`?<Constant "\\r\\n">` >> 8) & 0xff
        MOV     R1,#0x0
        LCALL   ??AT_HalUARTWrite?relay
//  508     AT_DEBUG("DISCCLUS:<Node ID>,<EndPoint>,<Status>",sizeof("       <Node ID>,<EndPoint>,<Status>"));
        ; Setup parameters for call to function AT_HalUARTWrite
        MOV     R4,#0x25
        MOV     R5,#0x0
        MOV     R2,#`?<Constant "DISCCLUS:<Node ID>,<E...">` & 0xff
        MOV     R3,#(`?<Constant "DISCCLUS:<Node ID>,<E...">` >> 8) & 0xff
        MOV     R1,#0x0
        LCALL   ??AT_HalUARTWrite?relay
//  509     AT_NEXT_LINE();
        ; Setup parameters for call to function AT_HalUARTWrite
        MOV     R4,#0x2
        MOV     R5,#0x0
        MOV     R2,#`?<Constant "\\n\\r">` & 0xff
        MOV     R3,#(`?<Constant "\\n\\r">` >> 8) & 0xff
        MOV     R1,#0x0
        LCALL   ??AT_HalUARTWrite?relay
//  510     if(pkt->srcAddr.addrMode==(afAddrMode_t)Addr16Bit){
        MOV     A,?V0 + 0
        ADD     A,#0xe
        MOV     DPL,A
        MOV     A,?V0 + 1
        LCALL   ??Subroutine41_0 & 0xFFFF
??CrossCallReturnLabel_50:
        JNZ     ??AT_AF_Cmd_HA_CIDDISC_rsp_0
//  511       printf("DISCCLUS:%04X",pkt->srcAddr.addr.shortAddr);
        ; Setup parameters for call to function printf
        MOV     DPL,?V0 + 0
        MOV     DPH,?V0 + 1
        INC     DPTR
        INC     DPTR
        INC     DPTR
        INC     DPTR
        INC     DPTR
        INC     DPTR
        LCALL   ?PUSH_XSTACK8_X_TWO
        CFI CFA_XSP16 add(XSP16, 14)
        MOV     R2,#`?<Constant "DISCCLUS:%04X">` & 0xff
        MOV     R3,#(`?<Constant "DISCCLUS:%04X">` >> 8) & 0xff
        LCALL   ??Subroutine49_0 & 0xFFFF
//  512     }else printf("DISCCLUS:UNKNOWN");
??CrossCallReturnLabel_79:
        LCALL   ?DEALLOC_XSTACK8
        CFI CFA_XSP16 add(XSP16, 12)
        SJMP    ??AT_AF_Cmd_HA_CIDDISC_rsp_1
??AT_AF_Cmd_HA_CIDDISC_rsp_0:
        ; Setup parameters for call to function printf
        MOV     R2,#`?<Constant "DISCCLUS:UNKNOWN">` & 0xff
        MOV     R3,#(`?<Constant "DISCCLUS:UNKNOWN">` >> 8) & 0xff
        LCALL   ??printf?relay
//  513     
//  514     printf(",%02X,%02X",rsp->hdr.ep,rsp->status);
??AT_AF_Cmd_HA_CIDDISC_rsp_1:
        MOV     A,R6
        ADD     A,#0x2
        MOV     R0,A
        MOV     A,R7
        ADDC    A,#0x0
        MOV     R1,A
        MOV     ?V0 + 0,R0
        MOV     ?V0 + 1,R1
        ; Setup parameters for call to function printf
        MOV     DPL,R0
        MOV     DPH,A
        MOVX    A,@DPTR
        MOV     ?V0 + 2,A
        MOV     ?V0 + 3,#0x0
        MOV     R0,#?V0 + 2
        LCALL   ?PUSH_XSTACK_I_TWO
        CFI CFA_XSP16 add(XSP16, 14)
        MOV     DPL,R6
        MOV     DPH,R7
        INC     DPTR
        MOVX    A,@DPTR
        MOV     ?V0 + 2,A
        MOV     R0,#?V0 + 2
        LCALL   ?PUSH_XSTACK_I_TWO
        CFI CFA_XSP16 add(XSP16, 16)
        MOV     R2,#`?<Constant ",%02X,%02X">` & 0xff
        MOV     R3,#(`?<Constant ",%02X,%02X">` >> 8) & 0xff
        LCALL   ??printf?relay
        MOV     A,#0x4
        LCALL   ?DEALLOC_XSTACK8
        CFI CFA_XSP16 add(XSP16, 12)
//  515     
//  516     if(rsp->status==SUCCESS){
        MOV     DPL,?V0 + 0
        MOV     DPH,?V0 + 1
        MOVX    A,@DPTR
        JZ      $+5
        LJMP    ??AT_AF_Cmd_HA_CIDDISC_rsp_2 & 0xFFFF
//  517       AT_NEXT_LINE();
        ; Setup parameters for call to function AT_HalUARTWrite
        MOV     R4,#0x2
        MOV     R5,#0x0
        MOV     R2,#`?<Constant "\\n\\r">` & 0xff
        MOV     R3,#(`?<Constant "\\n\\r">` >> 8) & 0xff
        MOV     R1,#0x0
        LCALL   ??AT_HalUARTWrite?relay
//  518       printf("SERVER:");
        ; Setup parameters for call to function printf
        MOV     R2,#`?<Constant "SERVER:">` & 0xff
        MOV     R3,#(`?<Constant "SERVER:">` >> 8) & 0xff
        LCALL   ??printf?relay
//  519       uint8 i;
//  520       for(i=0;i<rsp->serverNum;i++) printf(",%04X",rsp->list[i]);
        MOV     ?V0 + 2,#0x0
        SJMP    ??AT_AF_Cmd_HA_CIDDISC_rsp_3
??AT_AF_Cmd_HA_CIDDISC_rsp_4:
        ; Setup parameters for call to function printf
        MOV     A,?V0 + 2
        CLR     C
        RLC     A
        MOV     R0,A
        CLR     A
        LCALL   ?Subroutine22 & 0xFFFF
??CrossCallReturnLabel_26:
        LCALL   ?PUSH_XSTACK8_X_TWO
        CFI CFA_XSP16 add(XSP16, 14)
        LCALL   ?Subroutine30 & 0xFFFF
??CrossCallReturnLabel_75:
        LCALL   ?DEALLOC_XSTACK8
        CFI CFA_XSP16 add(XSP16, 12)
        INC     ?V0 + 2
??AT_AF_Cmd_HA_CIDDISC_rsp_3:
        MOV     DPL,R6
        MOV     DPH,R7
        INC     DPTR
        INC     DPTR
        INC     DPTR
        MOVX    A,@DPTR
        MOV     R0,A
        MOV     A,?V0 + 2
        CLR     C
        SUBB    A,R0
        JC      ??AT_AF_Cmd_HA_CIDDISC_rsp_4
//  521       AT_NEXT_LINE();
        ; Setup parameters for call to function AT_HalUARTWrite
        MOV     R4,#0x2
        MOV     R5,#0x0
        MOV     R2,#`?<Constant "\\n\\r">` & 0xff
        MOV     R3,#(`?<Constant "\\n\\r">` >> 8) & 0xff
        MOV     R1,#0x0
        LCALL   ??AT_HalUARTWrite?relay
//  522       printf("CLIENT:");
        ; Setup parameters for call to function printf
        MOV     R2,#`?<Constant "CLIENT:">` & 0xff
        MOV     R3,#(`?<Constant "CLIENT:">` >> 8) & 0xff
        LCALL   ??printf?relay
//  523       for(i=0;i<rsp->clientNum;i++) printf(",%04X",rsp->list[i+rsp->serverNum]);
        MOV     ?V0 + 2,#0x0
        SJMP    ??AT_AF_Cmd_HA_CIDDISC_rsp_5
??AT_AF_Cmd_HA_CIDDISC_rsp_6:
        ; Setup parameters for call to function printf
        MOV     ?V0 + 0,?V0 + 2
        MOV     DPL,R6
        MOV     DPH,R7
        INC     DPTR
        INC     DPTR
        INC     DPTR
        MOVX    A,@DPTR
        MOV     R0,A
        MOV     A,?V0 + 0
        ADD     A,R0
        MOV     R0,A
        CLR     A
        ADDC    A,#0x0
        MOV     R1,A
        MOV     A,R0
        RLC     A
        MOV     R0,A
        MOV     A,R1
        LCALL   ?Subroutine22 & 0xFFFF
??CrossCallReturnLabel_27:
        LCALL   ?PUSH_XSTACK8_X_TWO
        CFI CFA_XSP16 add(XSP16, 14)
        LCALL   ?Subroutine30 & 0xFFFF
??CrossCallReturnLabel_76:
        LCALL   ?DEALLOC_XSTACK8
        CFI CFA_XSP16 add(XSP16, 12)
        INC     ?V0 + 2
??AT_AF_Cmd_HA_CIDDISC_rsp_5:
        MOV     DPL,R6
        MOV     DPH,R7
        INC     DPTR
        INC     DPTR
        INC     DPTR
        INC     DPTR
        MOVX    A,@DPTR
        MOV     R0,A
        MOV     A,?V0 + 2
        CLR     C
        SUBB    A,R0
        JC      ??AT_AF_Cmd_HA_CIDDISC_rsp_6
//  524     }
//  525     AT_RESP_END();
??AT_AF_Cmd_HA_CIDDISC_rsp_2:
        ; Setup parameters for call to function AT_HalUARTWrite
        MOV     R4,#0x2
        MOV     R5,#0x0
        MOV     R2,#`?<Constant "\\r\\n">` & 0xff
        MOV     R3,#(`?<Constant "\\r\\n">` >> 8) & 0xff
        MOV     R1,#0x0
        LCALL   ??AT_HalUARTWrite?relay
//  526 }
        LJMP    ?Subroutine2 & 0xFFFF
        CFI EndBlock cfiBlock209

        RSEG BANKED_CODE:CODE:NOROOT(0)
?Subroutine30:
        CFI Block cfiCond210 Using cfiCommon0
        CFI NoFunction
        CFI Conditional ??CrossCallReturnLabel_75
        CFI R6 load(1, XDATA, add(CFA_XSP16, literal(-12)))
        CFI VB load(1, XDATA, add(CFA_XSP16, literal(-11)))
        CFI V0 load(1, XDATA, add(CFA_XSP16, literal(-10)))
        CFI V1 load(1, XDATA, add(CFA_XSP16, literal(-9)))
        CFI V2 load(1, XDATA, add(CFA_XSP16, literal(-8)))
        CFI V3 load(1, XDATA, add(CFA_XSP16, literal(-7)))
        CFI R7 load(1, XDATA, add(CFA_XSP16, literal(-6)))
        CFI ?RET_LOW load(1, XDATA, add(CFA_XSP16, literal(-5)))
        CFI ?RET_HIGH load(1, XDATA, add(CFA_XSP16, literal(-4)))
        CFI ?BRET_EXT load(1, XDATA, add(CFA_XSP16, literal(-3)))
        CFI DPL0 load(1, XDATA, add(CFA_XSP16, literal(-2)))
        CFI DPH0 load(1, XDATA, add(CFA_XSP16, literal(-1)))
        CFI CFA_SP SP+0
        CFI CFA_XSP16 add(XSP16, 14)
        CFI Block cfiCond211 Using cfiCommon0
        CFI (cfiCond211) NoFunction
        CFI (cfiCond211) Conditional ??CrossCallReturnLabel_76
        CFI (cfiCond211) R6 load(1, XDATA, add(CFA_XSP16, literal(-12)))
        CFI (cfiCond211) VB load(1, XDATA, add(CFA_XSP16, literal(-11)))
        CFI (cfiCond211) V0 load(1, XDATA, add(CFA_XSP16, literal(-10)))
        CFI (cfiCond211) V1 load(1, XDATA, add(CFA_XSP16, literal(-9)))
        CFI (cfiCond211) V2 load(1, XDATA, add(CFA_XSP16, literal(-8)))
        CFI (cfiCond211) V3 load(1, XDATA, add(CFA_XSP16, literal(-7)))
        CFI (cfiCond211) R7 load(1, XDATA, add(CFA_XSP16, literal(-6)))
        CFI (cfiCond211) ?RET_LOW load(1, XDATA, add(CFA_XSP16, literal(-5)))
        CFI (cfiCond211) ?RET_HIGH load(1, XDATA, add(CFA_XSP16, literal(-4)))
        CFI (cfiCond211) ?BRET_EXT load(1, XDATA, add(CFA_XSP16, literal(-3)))
        CFI (cfiCond211) DPL0 load(1, XDATA, add(CFA_XSP16, literal(-2)))
        CFI (cfiCond211) DPH0 load(1, XDATA, add(CFA_XSP16, literal(-1)))
        CFI (cfiCond211) CFA_SP SP+0
        CFI (cfiCond211) CFA_XSP16 add(XSP16, 14)
        CFI Block cfiPicker212 Using cfiCommon1
        CFI (cfiPicker212) NoFunction
        CFI (cfiPicker212) Picker
        MOV     R2,#`?<Constant ",%04X">` & 0xff
        MOV     R3,#(`?<Constant ",%04X">` >> 8) & 0xff
        CFI EndBlock cfiCond210
        CFI EndBlock cfiCond211
        CFI EndBlock cfiPicker212
        REQUIRE ??Subroutine49_0
        ; // Fall through to label ??Subroutine49_0

        RSEG BANKED_CODE:CODE:NOROOT(0)
??Subroutine49_0:
        CFI Block cfiCond213 Using cfiCommon0
        CFI NoFunction
        CFI Conditional ??CrossCallReturnLabel_77
        CFI R6 load(1, XDATA, add(CFA_XSP16, literal(-16)))
        CFI VB load(1, XDATA, add(CFA_XSP16, literal(-15)))
        CFI V0 load(1, XDATA, add(CFA_XSP16, literal(-14)))
        CFI V1 load(1, XDATA, add(CFA_XSP16, literal(-13)))
        CFI V2 load(1, XDATA, add(CFA_XSP16, literal(-12)))
        CFI V3 load(1, XDATA, add(CFA_XSP16, literal(-11)))
        CFI V4 load(1, XDATA, add(CFA_XSP16, literal(-10)))
        CFI V5 load(1, XDATA, add(CFA_XSP16, literal(-9)))
        CFI V6 load(1, XDATA, add(CFA_XSP16, literal(-8)))
        CFI V7 load(1, XDATA, add(CFA_XSP16, literal(-7)))
        CFI R7 load(1, XDATA, add(CFA_XSP16, literal(-6)))
        CFI ?RET_LOW load(1, XDATA, add(CFA_XSP16, literal(-5)))
        CFI ?RET_HIGH load(1, XDATA, add(CFA_XSP16, literal(-4)))
        CFI ?BRET_EXT load(1, XDATA, add(CFA_XSP16, literal(-3)))
        CFI DPL0 load(1, XDATA, add(CFA_XSP16, literal(-2)))
        CFI DPH0 load(1, XDATA, add(CFA_XSP16, literal(-1)))
        CFI CFA_SP SP+0
        CFI CFA_XSP16 add(XSP16, 18)
        CFI Block cfiCond214 Using cfiCommon0
        CFI (cfiCond214) NoFunction
        CFI (cfiCond214) Conditional ??CrossCallReturnLabel_78
        CFI (cfiCond214) R6 load(1, XDATA, add(CFA_XSP16, literal(-16)))
        CFI (cfiCond214) VB load(1, XDATA, add(CFA_XSP16, literal(-15)))
        CFI (cfiCond214) V0 load(1, XDATA, add(CFA_XSP16, literal(-14)))
        CFI (cfiCond214) V1 load(1, XDATA, add(CFA_XSP16, literal(-13)))
        CFI (cfiCond214) V2 load(1, XDATA, add(CFA_XSP16, literal(-12)))
        CFI (cfiCond214) V3 load(1, XDATA, add(CFA_XSP16, literal(-11)))
        CFI (cfiCond214) V4 load(1, XDATA, add(CFA_XSP16, literal(-10)))
        CFI (cfiCond214) V5 load(1, XDATA, add(CFA_XSP16, literal(-9)))
        CFI (cfiCond214) V6 load(1, XDATA, add(CFA_XSP16, literal(-8)))
        CFI (cfiCond214) V7 load(1, XDATA, add(CFA_XSP16, literal(-7)))
        CFI (cfiCond214) R7 load(1, XDATA, add(CFA_XSP16, literal(-6)))
        CFI (cfiCond214) ?RET_LOW load(1, XDATA, add(CFA_XSP16, literal(-5)))
        CFI (cfiCond214) ?RET_HIGH load(1, XDATA, add(CFA_XSP16, literal(-4)))
        CFI (cfiCond214) ?BRET_EXT load(1, XDATA, add(CFA_XSP16, literal(-3)))
        CFI (cfiCond214) DPL0 load(1, XDATA, add(CFA_XSP16, literal(-2)))
        CFI (cfiCond214) DPH0 load(1, XDATA, add(CFA_XSP16, literal(-1)))
        CFI (cfiCond214) CFA_SP SP+0
        CFI (cfiCond214) CFA_XSP16 add(XSP16, 18)
        CFI Block cfiCond215 Using cfiCommon0
        CFI (cfiCond215) NoFunction
        CFI (cfiCond215) Conditional ??CrossCallReturnLabel_79
        CFI (cfiCond215) R6 load(1, XDATA, add(CFA_XSP16, literal(-12)))
        CFI (cfiCond215) VB load(1, XDATA, add(CFA_XSP16, literal(-11)))
        CFI (cfiCond215) V0 load(1, XDATA, add(CFA_XSP16, literal(-10)))
        CFI (cfiCond215) V1 load(1, XDATA, add(CFA_XSP16, literal(-9)))
        CFI (cfiCond215) V2 load(1, XDATA, add(CFA_XSP16, literal(-8)))
        CFI (cfiCond215) V3 load(1, XDATA, add(CFA_XSP16, literal(-7)))
        CFI (cfiCond215) R7 load(1, XDATA, add(CFA_XSP16, literal(-6)))
        CFI (cfiCond215) ?RET_LOW load(1, XDATA, add(CFA_XSP16, literal(-5)))
        CFI (cfiCond215) ?RET_HIGH load(1, XDATA, add(CFA_XSP16, literal(-4)))
        CFI (cfiCond215) ?BRET_EXT load(1, XDATA, add(CFA_XSP16, literal(-3)))
        CFI (cfiCond215) DPL0 load(1, XDATA, add(CFA_XSP16, literal(-2)))
        CFI (cfiCond215) DPH0 load(1, XDATA, add(CFA_XSP16, literal(-1)))
        CFI (cfiCond215) CFA_SP SP+0
        CFI (cfiCond215) CFA_XSP16 add(XSP16, 14)
        CFI Block cfiCond216 Using cfiCommon0
        CFI (cfiCond216) NoFunction
        CFI (cfiCond216) Conditional ??CrossCallReturnLabel_80
        CFI (cfiCond216) R6 load(1, XDATA, add(CFA_XSP16, literal(-10)))
        CFI (cfiCond216) VB load(1, XDATA, add(CFA_XSP16, literal(-9)))
        CFI (cfiCond216) V0 load(1, XDATA, add(CFA_XSP16, literal(-8)))
        CFI (cfiCond216) V1 load(1, XDATA, add(CFA_XSP16, literal(-7)))
        CFI (cfiCond216) R7 load(1, XDATA, add(CFA_XSP16, literal(-6)))
        CFI (cfiCond216) ?RET_LOW load(1, XDATA, add(CFA_XSP16, literal(-5)))
        CFI (cfiCond216) ?RET_HIGH load(1, XDATA, add(CFA_XSP16, literal(-4)))
        CFI (cfiCond216) ?BRET_EXT load(1, XDATA, add(CFA_XSP16, literal(-3)))
        CFI (cfiCond216) DPL0 load(1, XDATA, add(CFA_XSP16, literal(-2)))
        CFI (cfiCond216) DPH0 load(1, XDATA, add(CFA_XSP16, literal(-1)))
        CFI (cfiCond216) CFA_SP SP+0
        CFI (cfiCond216) CFA_XSP16 add(XSP16, 12)
        CFI Block cfiCond217 Using cfiCommon0
        CFI (cfiCond217) NoFunction
        CFI (cfiCond217) Conditional ??CrossCallReturnLabel_81
        CFI (cfiCond217) R6 load(1, XDATA, add(CFA_XSP16, literal(-10)))
        CFI (cfiCond217) VB load(1, XDATA, add(CFA_XSP16, literal(-9)))
        CFI (cfiCond217) V0 load(1, XDATA, add(CFA_XSP16, literal(-8)))
        CFI (cfiCond217) V1 load(1, XDATA, add(CFA_XSP16, literal(-7)))
        CFI (cfiCond217) R7 load(1, XDATA, add(CFA_XSP16, literal(-6)))
        CFI (cfiCond217) ?RET_LOW load(1, XDATA, add(CFA_XSP16, literal(-5)))
        CFI (cfiCond217) ?RET_HIGH load(1, XDATA, add(CFA_XSP16, literal(-4)))
        CFI (cfiCond217) ?BRET_EXT load(1, XDATA, add(CFA_XSP16, literal(-3)))
        CFI (cfiCond217) DPL0 load(1, XDATA, add(CFA_XSP16, literal(-2)))
        CFI (cfiCond217) DPH0 load(1, XDATA, add(CFA_XSP16, literal(-1)))
        CFI (cfiCond217) CFA_SP SP+0
        CFI (cfiCond217) CFA_XSP16 add(XSP16, 12)
        CFI Block cfiCond218 Using cfiCommon0
        CFI (cfiCond218) NoFunction
        CFI (cfiCond218) Conditional ??CrossCallReturnLabel_75
        CFI (cfiCond218) R6 load(1, XDATA, add(CFA_XSP16, literal(-12)))
        CFI (cfiCond218) VB load(1, XDATA, add(CFA_XSP16, literal(-11)))
        CFI (cfiCond218) V0 load(1, XDATA, add(CFA_XSP16, literal(-10)))
        CFI (cfiCond218) V1 load(1, XDATA, add(CFA_XSP16, literal(-9)))
        CFI (cfiCond218) V2 load(1, XDATA, add(CFA_XSP16, literal(-8)))
        CFI (cfiCond218) V3 load(1, XDATA, add(CFA_XSP16, literal(-7)))
        CFI (cfiCond218) R7 load(1, XDATA, add(CFA_XSP16, literal(-6)))
        CFI (cfiCond218) ?RET_LOW load(1, XDATA, add(CFA_XSP16, literal(-5)))
        CFI (cfiCond218) ?RET_HIGH load(1, XDATA, add(CFA_XSP16, literal(-4)))
        CFI (cfiCond218) ?BRET_EXT load(1, XDATA, add(CFA_XSP16, literal(-3)))
        CFI (cfiCond218) DPL0 load(1, XDATA, add(CFA_XSP16, literal(-2)))
        CFI (cfiCond218) DPH0 load(1, XDATA, add(CFA_XSP16, literal(-1)))
        CFI (cfiCond218) CFA_SP SP+0
        CFI (cfiCond218) CFA_XSP16 add(XSP16, 14)
        CFI Block cfiCond219 Using cfiCommon0
        CFI (cfiCond219) NoFunction
        CFI (cfiCond219) Conditional ??CrossCallReturnLabel_76
        CFI (cfiCond219) R6 load(1, XDATA, add(CFA_XSP16, literal(-12)))
        CFI (cfiCond219) VB load(1, XDATA, add(CFA_XSP16, literal(-11)))
        CFI (cfiCond219) V0 load(1, XDATA, add(CFA_XSP16, literal(-10)))
        CFI (cfiCond219) V1 load(1, XDATA, add(CFA_XSP16, literal(-9)))
        CFI (cfiCond219) V2 load(1, XDATA, add(CFA_XSP16, literal(-8)))
        CFI (cfiCond219) V3 load(1, XDATA, add(CFA_XSP16, literal(-7)))
        CFI (cfiCond219) R7 load(1, XDATA, add(CFA_XSP16, literal(-6)))
        CFI (cfiCond219) ?RET_LOW load(1, XDATA, add(CFA_XSP16, literal(-5)))
        CFI (cfiCond219) ?RET_HIGH load(1, XDATA, add(CFA_XSP16, literal(-4)))
        CFI (cfiCond219) ?BRET_EXT load(1, XDATA, add(CFA_XSP16, literal(-3)))
        CFI (cfiCond219) DPL0 load(1, XDATA, add(CFA_XSP16, literal(-2)))
        CFI (cfiCond219) DPH0 load(1, XDATA, add(CFA_XSP16, literal(-1)))
        CFI (cfiCond219) CFA_SP SP+0
        CFI (cfiCond219) CFA_XSP16 add(XSP16, 14)
        CFI Block cfiPicker220 Using cfiCommon1
        CFI (cfiPicker220) NoFunction
        CFI (cfiPicker220) Picker
        LCALL   ??printf?relay
        MOV     A,#0x2
        RET
        CFI EndBlock cfiCond213
        CFI EndBlock cfiCond214
        CFI EndBlock cfiCond215
        CFI EndBlock cfiCond216
        CFI EndBlock cfiCond217
        CFI EndBlock cfiCond218
        CFI EndBlock cfiCond219
        CFI EndBlock cfiPicker220

        RSEG BANKED_CODE:CODE:NOROOT(0)
?Subroutine22:
        CFI Block cfiCond221 Using cfiCommon0
        CFI NoFunction
        CFI Conditional ??CrossCallReturnLabel_26
        CFI R6 load(1, XDATA, add(CFA_XSP16, literal(-12)))
        CFI VB load(1, XDATA, add(CFA_XSP16, literal(-11)))
        CFI V0 load(1, XDATA, add(CFA_XSP16, literal(-10)))
        CFI V1 load(1, XDATA, add(CFA_XSP16, literal(-9)))
        CFI V2 load(1, XDATA, add(CFA_XSP16, literal(-8)))
        CFI V3 load(1, XDATA, add(CFA_XSP16, literal(-7)))
        CFI R7 load(1, XDATA, add(CFA_XSP16, literal(-6)))
        CFI ?RET_LOW load(1, XDATA, add(CFA_XSP16, literal(-5)))
        CFI ?RET_HIGH load(1, XDATA, add(CFA_XSP16, literal(-4)))
        CFI ?BRET_EXT load(1, XDATA, add(CFA_XSP16, literal(-3)))
        CFI DPL0 load(1, XDATA, add(CFA_XSP16, literal(-2)))
        CFI DPH0 load(1, XDATA, add(CFA_XSP16, literal(-1)))
        CFI CFA_SP SP+0
        CFI CFA_XSP16 add(XSP16, 12)
        CFI Block cfiCond222 Using cfiCommon0
        CFI (cfiCond222) NoFunction
        CFI (cfiCond222) Conditional ??CrossCallReturnLabel_27
        CFI (cfiCond222) R6 load(1, XDATA, add(CFA_XSP16, literal(-12)))
        CFI (cfiCond222) VB load(1, XDATA, add(CFA_XSP16, literal(-11)))
        CFI (cfiCond222) V0 load(1, XDATA, add(CFA_XSP16, literal(-10)))
        CFI (cfiCond222) V1 load(1, XDATA, add(CFA_XSP16, literal(-9)))
        CFI (cfiCond222) V2 load(1, XDATA, add(CFA_XSP16, literal(-8)))
        CFI (cfiCond222) V3 load(1, XDATA, add(CFA_XSP16, literal(-7)))
        CFI (cfiCond222) R7 load(1, XDATA, add(CFA_XSP16, literal(-6)))
        CFI (cfiCond222) ?RET_LOW load(1, XDATA, add(CFA_XSP16, literal(-5)))
        CFI (cfiCond222) ?RET_HIGH load(1, XDATA, add(CFA_XSP16, literal(-4)))
        CFI (cfiCond222) ?BRET_EXT load(1, XDATA, add(CFA_XSP16, literal(-3)))
        CFI (cfiCond222) DPL0 load(1, XDATA, add(CFA_XSP16, literal(-2)))
        CFI (cfiCond222) DPH0 load(1, XDATA, add(CFA_XSP16, literal(-1)))
        CFI (cfiCond222) CFA_SP SP+0
        CFI (cfiCond222) CFA_XSP16 add(XSP16, 12)
        CFI Block cfiPicker223 Using cfiCommon1
        CFI (cfiPicker223) NoFunction
        CFI (cfiPicker223) Picker
        RLC     A
        MOV     R1,A
        MOV     A,R6
        ADD     A,R0
        MOV     DPL,A
        MOV     A,R7
        ADDC    A,R1
        MOV     DPH,A
        INC     DPTR
        INC     DPTR
        INC     DPTR
        INC     DPTR
        INC     DPTR
        RET
        CFI EndBlock cfiCond221
        CFI EndBlock cfiCond222
        CFI EndBlock cfiPicker223
//  527 
//  528 
//  529 /*******************************************************************
//  530 for AT+R command
//  531 **************************************************************************/
//  532 

        RSEG BANKED_CODE:CODE:NOROOT(0)
//  533 void AT_AF_Cmd_R_CIDDISC_CB(afIncomingMSGPacket_t *pkt ){
AT_AF_Cmd_R_CIDDISC_CB:
        CFI Block cfiBlock224 Using cfiCommon0
        CFI Function AT_AF_Cmd_R_CIDDISC_CB
        CODE
        FUNCALL AT_AF_Cmd_R_CIDDISC_CB, AT_AF_Cmd_R_CIDDISC_req
        LOCFRAME ISTACK, 2, STACK
        LOCFRAME PSTACK, 0, STACK
        LOCFRAME XSTACK, 0, STACK
        LOCFRAME IOVERLAY, 0, STATIC
        LOCFRAME DOVERLAY, 0, STATIC
        ARGFRAME ISTACK, 2, STACK
        ARGFRAME PSTACK, 0, STACK
        ARGFRAME XSTACK, 0, STACK
        ARGFRAME IOVERLAY, 0, STATIC
        ARGFRAME DOVERLAY, 0, STATIC
        PUSH    DPL
        CFI DPL0 Frame(CFA_SP, 4)
        CFI CFA_SP SP+-4
        PUSH    DPH
        CFI DPH0 Frame(CFA_SP, 5)
        CFI CFA_SP SP+-5
        ; Saved register size: 2
        ; Auto size: 0
//  534   AT_AF_hdr *req = (AT_AF_hdr *)pkt->cmd.Data;
//  535   if(req->cmd==AT_AF_Cmd_req){
        LCALL   ?Subroutine7 & 0xFFFF
??CrossCallReturnLabel_62:
        JNZ     ??AT_AF_Cmd_R_CIDDISC_CB_0
//  536     AT_AF_Cmd_R_CIDDISC_req(pkt);
        ; Setup parameters for call to function AT_AF_Cmd_R_CIDDISC_req
        LCALL   ??AT_AF_Cmd_R_CIDDISC_req?relay
//  537   }else{
//  538     AT_AF_Cmd_R_CIDDISC_rsp(pkt);
//  539   }
//  540 }
??AT_AF_Cmd_R_CIDDISC_CB_0:
        LJMP    ?Subroutine0 & 0xFFFF
        CFI EndBlock cfiBlock224

        RSEG BANKED_CODE:CODE:NOROOT(0)
//  541 void AT_AF_Cmd_R_CIDDISC_req(afIncomingMSGPacket_t *pkt  ){
AT_AF_Cmd_R_CIDDISC_req:
        CFI Block cfiBlock225 Using cfiCommon0
        CFI Function AT_AF_Cmd_R_CIDDISC_req
        CODE
        FUNCALL AT_AF_Cmd_R_CIDDISC_req, AT_HandleCMD
        LOCFRAME ISTACK, 2, STACK
        LOCFRAME PSTACK, 0, STACK
        LOCFRAME XSTACK, 0, STACK
        LOCFRAME IOVERLAY, 0, STATIC
        LOCFRAME DOVERLAY, 0, STATIC
        ARGFRAME ISTACK, 2, STACK
        ARGFRAME PSTACK, 0, STACK
        ARGFRAME XSTACK, 0, STACK
        ARGFRAME IOVERLAY, 0, STATIC
        ARGFRAME DOVERLAY, 0, STATIC
        PUSH    DPL
        CFI DPL0 Frame(CFA_SP, 4)
        CFI CFA_SP SP+-4
        PUSH    DPH
        CFI DPH0 Frame(CFA_SP, 5)
        CFI CFA_SP SP+-5
        ; Saved register size: 2
        ; Auto size: 0
//  542   
//  543   AT_AF_Cmd_RCIDDISC_req_t *req = (AT_AF_Cmd_RCIDDISC_req_t *) pkt->cmd.Data;
//  544   AT_HandleCMD(req->list);
        ; Setup parameters for call to function AT_HandleCMD
        LCALL   ??Subroutine52_0 & 0xFFFF
??CrossCallReturnLabel_103:
        LCALL   ??Subroutine51_0 & 0xFFFF
??CrossCallReturnLabel_86:
        ADD     A,#0x2
        MOV     R2,A
        INC     DPTR
        MOVX    A,@DPTR
        ADDC    A,#0x0
        MOV     R3,A
        LCALL   ??AT_HandleCMD?relay
//  545 }
        LJMP    ?Subroutine0 & 0xFFFF
        CFI EndBlock cfiBlock225

        RSEG BANKED_CODE:CODE:NOROOT(0)
?Subroutine21:
        CFI Block cfiCond226 Using cfiCommon0
        CFI NoFunction
        CFI Conditional ??CrossCallReturnLabel_90
        CFI R6 load(1, XDATA, add(CFA_XSP16, literal(-14)))
        CFI VB load(1, XDATA, add(CFA_XSP16, literal(-13)))
        CFI V0 load(1, XDATA, add(CFA_XSP16, literal(-12)))
        CFI V1 load(1, XDATA, add(CFA_XSP16, literal(-11)))
        CFI V2 load(1, XDATA, add(CFA_XSP16, literal(-10)))
        CFI V3 load(1, XDATA, add(CFA_XSP16, literal(-9)))
        CFI V4 load(1, XDATA, add(CFA_XSP16, literal(-8)))
        CFI V5 load(1, XDATA, add(CFA_XSP16, literal(-7)))
        CFI R7 load(1, XDATA, add(CFA_XSP16, literal(-6)))
        CFI ?RET_LOW load(1, XDATA, add(CFA_XSP16, literal(-5)))
        CFI ?RET_HIGH load(1, XDATA, add(CFA_XSP16, literal(-4)))
        CFI ?BRET_EXT load(1, XDATA, add(CFA_XSP16, literal(-3)))
        CFI DPL0 load(1, XDATA, add(CFA_XSP16, literal(-2)))
        CFI DPH0 load(1, XDATA, add(CFA_XSP16, literal(-1)))
        CFI CFA_SP SP+0
        CFI CFA_XSP16 add(XSP16, 19)
        CFI Block cfiCond227 Using cfiCommon0
        CFI (cfiCond227) NoFunction
        CFI (cfiCond227) Conditional ??CrossCallReturnLabel_91
        CFI (cfiCond227) R6 load(1, XDATA, add(CFA_XSP16, literal(-14)))
        CFI (cfiCond227) VB load(1, XDATA, add(CFA_XSP16, literal(-13)))
        CFI (cfiCond227) V0 load(1, XDATA, add(CFA_XSP16, literal(-12)))
        CFI (cfiCond227) V1 load(1, XDATA, add(CFA_XSP16, literal(-11)))
        CFI (cfiCond227) V2 load(1, XDATA, add(CFA_XSP16, literal(-10)))
        CFI (cfiCond227) V3 load(1, XDATA, add(CFA_XSP16, literal(-9)))
        CFI (cfiCond227) V4 load(1, XDATA, add(CFA_XSP16, literal(-8)))
        CFI (cfiCond227) V5 load(1, XDATA, add(CFA_XSP16, literal(-7)))
        CFI (cfiCond227) R7 load(1, XDATA, add(CFA_XSP16, literal(-6)))
        CFI (cfiCond227) ?RET_LOW load(1, XDATA, add(CFA_XSP16, literal(-5)))
        CFI (cfiCond227) ?RET_HIGH load(1, XDATA, add(CFA_XSP16, literal(-4)))
        CFI (cfiCond227) ?BRET_EXT load(1, XDATA, add(CFA_XSP16, literal(-3)))
        CFI (cfiCond227) DPL0 load(1, XDATA, add(CFA_XSP16, literal(-2)))
        CFI (cfiCond227) DPH0 load(1, XDATA, add(CFA_XSP16, literal(-1)))
        CFI (cfiCond227) CFA_SP SP+0
        CFI (cfiCond227) CFA_XSP16 add(XSP16, 21)
        CFI Block cfiPicker228 Using cfiCommon1
        CFI (cfiPicker228) NoFunction
        CFI (cfiPicker228) Picker
        MOV     A,R6
        ADD     A,#0x18
        CFI EndBlock cfiCond226
        CFI EndBlock cfiCond227
        CFI EndBlock cfiPicker228
        REQUIRE ??Subroutine50_0
        ; // Fall through to label ??Subroutine50_0

        RSEG BANKED_CODE:CODE:NOROOT(0)
??Subroutine50_0:
        CFI Block cfiCond229 Using cfiCommon0
        CFI NoFunction
        CFI Conditional ??CrossCallReturnLabel_87
        CFI R6 load(1, XDATA, add(CFA_XSP16, literal(-14)))
        CFI VB load(1, XDATA, add(CFA_XSP16, literal(-13)))
        CFI V0 load(1, XDATA, add(CFA_XSP16, literal(-12)))
        CFI V1 load(1, XDATA, add(CFA_XSP16, literal(-11)))
        CFI V2 load(1, XDATA, add(CFA_XSP16, literal(-10)))
        CFI V3 load(1, XDATA, add(CFA_XSP16, literal(-9)))
        CFI V4 load(1, XDATA, add(CFA_XSP16, literal(-8)))
        CFI V5 load(1, XDATA, add(CFA_XSP16, literal(-7)))
        CFI R7 load(1, XDATA, add(CFA_XSP16, literal(-6)))
        CFI ?RET_LOW load(1, XDATA, add(CFA_XSP16, literal(-5)))
        CFI ?RET_HIGH load(1, XDATA, add(CFA_XSP16, literal(-4)))
        CFI ?BRET_EXT load(1, XDATA, add(CFA_XSP16, literal(-3)))
        CFI DPL0 load(1, XDATA, add(CFA_XSP16, literal(-2)))
        CFI DPH0 load(1, XDATA, add(CFA_XSP16, literal(-1)))
        CFI CFA_SP SP+0
        CFI CFA_XSP16 add(XSP16, 19)
        CFI Block cfiCond230 Using cfiCommon0
        CFI (cfiCond230) NoFunction
        CFI (cfiCond230) Conditional ??CrossCallReturnLabel_88
        CFI (cfiCond230) R6 load(1, XDATA, add(CFA_XSP16, literal(-14)))
        CFI (cfiCond230) VB load(1, XDATA, add(CFA_XSP16, literal(-13)))
        CFI (cfiCond230) V0 load(1, XDATA, add(CFA_XSP16, literal(-12)))
        CFI (cfiCond230) V1 load(1, XDATA, add(CFA_XSP16, literal(-11)))
        CFI (cfiCond230) V2 load(1, XDATA, add(CFA_XSP16, literal(-10)))
        CFI (cfiCond230) V3 load(1, XDATA, add(CFA_XSP16, literal(-9)))
        CFI (cfiCond230) V4 load(1, XDATA, add(CFA_XSP16, literal(-8)))
        CFI (cfiCond230) V5 load(1, XDATA, add(CFA_XSP16, literal(-7)))
        CFI (cfiCond230) R7 load(1, XDATA, add(CFA_XSP16, literal(-6)))
        CFI (cfiCond230) ?RET_LOW load(1, XDATA, add(CFA_XSP16, literal(-5)))
        CFI (cfiCond230) ?RET_HIGH load(1, XDATA, add(CFA_XSP16, literal(-4)))
        CFI (cfiCond230) ?BRET_EXT load(1, XDATA, add(CFA_XSP16, literal(-3)))
        CFI (cfiCond230) DPL0 load(1, XDATA, add(CFA_XSP16, literal(-2)))
        CFI (cfiCond230) DPH0 load(1, XDATA, add(CFA_XSP16, literal(-1)))
        CFI (cfiCond230) CFA_SP SP+0
        CFI (cfiCond230) CFA_XSP16 add(XSP16, 19)
        CFI Block cfiCond231 Using cfiCommon0
        CFI (cfiCond231) NoFunction
        CFI (cfiCond231) Conditional ??CrossCallReturnLabel_89
        CFI (cfiCond231) R6 load(1, XDATA, add(CFA_XSP16, literal(-14)))
        CFI (cfiCond231) VB load(1, XDATA, add(CFA_XSP16, literal(-13)))
        CFI (cfiCond231) V0 load(1, XDATA, add(CFA_XSP16, literal(-12)))
        CFI (cfiCond231) V1 load(1, XDATA, add(CFA_XSP16, literal(-11)))
        CFI (cfiCond231) V2 load(1, XDATA, add(CFA_XSP16, literal(-10)))
        CFI (cfiCond231) V3 load(1, XDATA, add(CFA_XSP16, literal(-9)))
        CFI (cfiCond231) V4 load(1, XDATA, add(CFA_XSP16, literal(-8)))
        CFI (cfiCond231) V5 load(1, XDATA, add(CFA_XSP16, literal(-7)))
        CFI (cfiCond231) R7 load(1, XDATA, add(CFA_XSP16, literal(-6)))
        CFI (cfiCond231) ?RET_LOW load(1, XDATA, add(CFA_XSP16, literal(-5)))
        CFI (cfiCond231) ?RET_HIGH load(1, XDATA, add(CFA_XSP16, literal(-4)))
        CFI (cfiCond231) ?BRET_EXT load(1, XDATA, add(CFA_XSP16, literal(-3)))
        CFI (cfiCond231) DPL0 load(1, XDATA, add(CFA_XSP16, literal(-2)))
        CFI (cfiCond231) DPH0 load(1, XDATA, add(CFA_XSP16, literal(-1)))
        CFI (cfiCond231) CFA_SP SP+0
        CFI (cfiCond231) CFA_XSP16 add(XSP16, 19)
        CFI Block cfiCond232 Using cfiCommon0
        CFI (cfiCond232) NoFunction
        CFI (cfiCond232) Conditional ??CrossCallReturnLabel_90
        CFI (cfiCond232) R6 load(1, XDATA, add(CFA_XSP16, literal(-14)))
        CFI (cfiCond232) VB load(1, XDATA, add(CFA_XSP16, literal(-13)))
        CFI (cfiCond232) V0 load(1, XDATA, add(CFA_XSP16, literal(-12)))
        CFI (cfiCond232) V1 load(1, XDATA, add(CFA_XSP16, literal(-11)))
        CFI (cfiCond232) V2 load(1, XDATA, add(CFA_XSP16, literal(-10)))
        CFI (cfiCond232) V3 load(1, XDATA, add(CFA_XSP16, literal(-9)))
        CFI (cfiCond232) V4 load(1, XDATA, add(CFA_XSP16, literal(-8)))
        CFI (cfiCond232) V5 load(1, XDATA, add(CFA_XSP16, literal(-7)))
        CFI (cfiCond232) R7 load(1, XDATA, add(CFA_XSP16, literal(-6)))
        CFI (cfiCond232) ?RET_LOW load(1, XDATA, add(CFA_XSP16, literal(-5)))
        CFI (cfiCond232) ?RET_HIGH load(1, XDATA, add(CFA_XSP16, literal(-4)))
        CFI (cfiCond232) ?BRET_EXT load(1, XDATA, add(CFA_XSP16, literal(-3)))
        CFI (cfiCond232) DPL0 load(1, XDATA, add(CFA_XSP16, literal(-2)))
        CFI (cfiCond232) DPH0 load(1, XDATA, add(CFA_XSP16, literal(-1)))
        CFI (cfiCond232) CFA_SP SP+0
        CFI (cfiCond232) CFA_XSP16 add(XSP16, 19)
        CFI Block cfiCond233 Using cfiCommon0
        CFI (cfiCond233) NoFunction
        CFI (cfiCond233) Conditional ??CrossCallReturnLabel_91
        CFI (cfiCond233) R6 load(1, XDATA, add(CFA_XSP16, literal(-14)))
        CFI (cfiCond233) VB load(1, XDATA, add(CFA_XSP16, literal(-13)))
        CFI (cfiCond233) V0 load(1, XDATA, add(CFA_XSP16, literal(-12)))
        CFI (cfiCond233) V1 load(1, XDATA, add(CFA_XSP16, literal(-11)))
        CFI (cfiCond233) V2 load(1, XDATA, add(CFA_XSP16, literal(-10)))
        CFI (cfiCond233) V3 load(1, XDATA, add(CFA_XSP16, literal(-9)))
        CFI (cfiCond233) V4 load(1, XDATA, add(CFA_XSP16, literal(-8)))
        CFI (cfiCond233) V5 load(1, XDATA, add(CFA_XSP16, literal(-7)))
        CFI (cfiCond233) R7 load(1, XDATA, add(CFA_XSP16, literal(-6)))
        CFI (cfiCond233) ?RET_LOW load(1, XDATA, add(CFA_XSP16, literal(-5)))
        CFI (cfiCond233) ?RET_HIGH load(1, XDATA, add(CFA_XSP16, literal(-4)))
        CFI (cfiCond233) ?BRET_EXT load(1, XDATA, add(CFA_XSP16, literal(-3)))
        CFI (cfiCond233) DPL0 load(1, XDATA, add(CFA_XSP16, literal(-2)))
        CFI (cfiCond233) DPH0 load(1, XDATA, add(CFA_XSP16, literal(-1)))
        CFI (cfiCond233) CFA_SP SP+0
        CFI (cfiCond233) CFA_XSP16 add(XSP16, 21)
        CFI Block cfiPicker234 Using cfiCommon1
        CFI (cfiPicker234) NoFunction
        CFI (cfiPicker234) Picker
        MOV     DPL,A
        MOV     A,R7
        CFI EndBlock cfiCond229
        CFI EndBlock cfiCond230
        CFI EndBlock cfiCond231
        CFI EndBlock cfiCond232
        CFI EndBlock cfiCond233
        CFI EndBlock cfiPicker234
        REQUIRE ??Subroutine51_0
        ; // Fall through to label ??Subroutine51_0

        RSEG BANKED_CODE:CODE:NOROOT(0)
??Subroutine51_0:
        CFI Block cfiCond235 Using cfiCommon0
        CFI NoFunction
        CFI Conditional ??CrossCallReturnLabel_82
        CFI R6 load(1, XDATA, add(CFA_XSP16, literal(-14)))
        CFI VB load(1, XDATA, add(CFA_XSP16, literal(-13)))
        CFI V0 load(1, XDATA, add(CFA_XSP16, literal(-12)))
        CFI V1 load(1, XDATA, add(CFA_XSP16, literal(-11)))
        CFI V2 load(1, XDATA, add(CFA_XSP16, literal(-10)))
        CFI V3 load(1, XDATA, add(CFA_XSP16, literal(-9)))
        CFI V4 load(1, XDATA, add(CFA_XSP16, literal(-8)))
        CFI V5 load(1, XDATA, add(CFA_XSP16, literal(-7)))
        CFI R7 load(1, XDATA, add(CFA_XSP16, literal(-6)))
        CFI ?RET_LOW load(1, XDATA, add(CFA_XSP16, literal(-5)))
        CFI ?RET_HIGH load(1, XDATA, add(CFA_XSP16, literal(-4)))
        CFI ?BRET_EXT load(1, XDATA, add(CFA_XSP16, literal(-3)))
        CFI DPL0 load(1, XDATA, add(CFA_XSP16, literal(-2)))
        CFI DPH0 load(1, XDATA, add(CFA_XSP16, literal(-1)))
        CFI CFA_SP SP+0
        CFI CFA_XSP16 add(XSP16, 19)
        CFI Block cfiCond236 Using cfiCommon0
        CFI (cfiCond236) NoFunction
        CFI (cfiCond236) Conditional ??CrossCallReturnLabel_83
        CFI (cfiCond236) R6 load(1, XDATA, add(CFA_XSP16, literal(-14)))
        CFI (cfiCond236) VB load(1, XDATA, add(CFA_XSP16, literal(-13)))
        CFI (cfiCond236) V0 load(1, XDATA, add(CFA_XSP16, literal(-12)))
        CFI (cfiCond236) V1 load(1, XDATA, add(CFA_XSP16, literal(-11)))
        CFI (cfiCond236) V2 load(1, XDATA, add(CFA_XSP16, literal(-10)))
        CFI (cfiCond236) V3 load(1, XDATA, add(CFA_XSP16, literal(-9)))
        CFI (cfiCond236) V4 load(1, XDATA, add(CFA_XSP16, literal(-8)))
        CFI (cfiCond236) V5 load(1, XDATA, add(CFA_XSP16, literal(-7)))
        CFI (cfiCond236) R7 load(1, XDATA, add(CFA_XSP16, literal(-6)))
        CFI (cfiCond236) ?RET_LOW load(1, XDATA, add(CFA_XSP16, literal(-5)))
        CFI (cfiCond236) ?RET_HIGH load(1, XDATA, add(CFA_XSP16, literal(-4)))
        CFI (cfiCond236) ?BRET_EXT load(1, XDATA, add(CFA_XSP16, literal(-3)))
        CFI (cfiCond236) DPL0 load(1, XDATA, add(CFA_XSP16, literal(-2)))
        CFI (cfiCond236) DPH0 load(1, XDATA, add(CFA_XSP16, literal(-1)))
        CFI (cfiCond236) CFA_SP SP+0
        CFI (cfiCond236) CFA_XSP16 add(XSP16, 19)
        CFI Block cfiCond237 Using cfiCommon0
        CFI (cfiCond237) NoFunction
        CFI (cfiCond237) Conditional ??CrossCallReturnLabel_84
        CFI (cfiCond237) R6 load(1, XDATA, add(CFA_XSP16, literal(-14)))
        CFI (cfiCond237) VB load(1, XDATA, add(CFA_XSP16, literal(-13)))
        CFI (cfiCond237) V0 load(1, XDATA, add(CFA_XSP16, literal(-12)))
        CFI (cfiCond237) V1 load(1, XDATA, add(CFA_XSP16, literal(-11)))
        CFI (cfiCond237) V2 load(1, XDATA, add(CFA_XSP16, literal(-10)))
        CFI (cfiCond237) V3 load(1, XDATA, add(CFA_XSP16, literal(-9)))
        CFI (cfiCond237) V4 load(1, XDATA, add(CFA_XSP16, literal(-8)))
        CFI (cfiCond237) V5 load(1, XDATA, add(CFA_XSP16, literal(-7)))
        CFI (cfiCond237) R7 load(1, XDATA, add(CFA_XSP16, literal(-6)))
        CFI (cfiCond237) ?RET_LOW load(1, XDATA, add(CFA_XSP16, literal(-5)))
        CFI (cfiCond237) ?RET_HIGH load(1, XDATA, add(CFA_XSP16, literal(-4)))
        CFI (cfiCond237) ?BRET_EXT load(1, XDATA, add(CFA_XSP16, literal(-3)))
        CFI (cfiCond237) DPL0 load(1, XDATA, add(CFA_XSP16, literal(-2)))
        CFI (cfiCond237) DPH0 load(1, XDATA, add(CFA_XSP16, literal(-1)))
        CFI (cfiCond237) CFA_SP SP+0
        CFI (cfiCond237) CFA_XSP16 add(XSP16, 19)
        CFI Block cfiCond238 Using cfiCommon0
        CFI (cfiCond238) NoFunction
        CFI (cfiCond238) Conditional ??CrossCallReturnLabel_85
        CFI (cfiCond238) R6 load(1, XDATA, add(CFA_XSP16, literal(-12)))
        CFI (cfiCond238) VB load(1, XDATA, add(CFA_XSP16, literal(-11)))
        CFI (cfiCond238) V0 load(1, XDATA, add(CFA_XSP16, literal(-10)))
        CFI (cfiCond238) V1 load(1, XDATA, add(CFA_XSP16, literal(-9)))
        CFI (cfiCond238) V2 load(1, XDATA, add(CFA_XSP16, literal(-8)))
        CFI (cfiCond238) V3 load(1, XDATA, add(CFA_XSP16, literal(-7)))
        CFI (cfiCond238) R7 load(1, XDATA, add(CFA_XSP16, literal(-6)))
        CFI (cfiCond238) ?RET_LOW load(1, XDATA, add(CFA_XSP16, literal(-5)))
        CFI (cfiCond238) ?RET_HIGH load(1, XDATA, add(CFA_XSP16, literal(-4)))
        CFI (cfiCond238) ?BRET_EXT load(1, XDATA, add(CFA_XSP16, literal(-3)))
        CFI (cfiCond238) DPL0 load(1, XDATA, add(CFA_XSP16, literal(-2)))
        CFI (cfiCond238) DPH0 load(1, XDATA, add(CFA_XSP16, literal(-1)))
        CFI (cfiCond238) CFA_SP SP+0
        CFI (cfiCond238) CFA_XSP16 add(XSP16, 12)
        CFI Block cfiCond239 Using cfiCommon0
        CFI (cfiCond239) NoFunction
        CFI (cfiCond239) Conditional ??CrossCallReturnLabel_86
        CFI (cfiCond239) DPL0 Frame(CFA_SP, 4)
        CFI (cfiCond239) DPH0 Frame(CFA_SP, 5)
        CFI (cfiCond239) CFA_SP SP+-5
        CFI Block cfiCond240 Using cfiCommon0
        CFI (cfiCond240) NoFunction
        CFI (cfiCond240) Conditional ??CrossCallReturnLabel_87
        CFI (cfiCond240) R6 load(1, XDATA, add(CFA_XSP16, literal(-14)))
        CFI (cfiCond240) VB load(1, XDATA, add(CFA_XSP16, literal(-13)))
        CFI (cfiCond240) V0 load(1, XDATA, add(CFA_XSP16, literal(-12)))
        CFI (cfiCond240) V1 load(1, XDATA, add(CFA_XSP16, literal(-11)))
        CFI (cfiCond240) V2 load(1, XDATA, add(CFA_XSP16, literal(-10)))
        CFI (cfiCond240) V3 load(1, XDATA, add(CFA_XSP16, literal(-9)))
        CFI (cfiCond240) V4 load(1, XDATA, add(CFA_XSP16, literal(-8)))
        CFI (cfiCond240) V5 load(1, XDATA, add(CFA_XSP16, literal(-7)))
        CFI (cfiCond240) R7 load(1, XDATA, add(CFA_XSP16, literal(-6)))
        CFI (cfiCond240) ?RET_LOW load(1, XDATA, add(CFA_XSP16, literal(-5)))
        CFI (cfiCond240) ?RET_HIGH load(1, XDATA, add(CFA_XSP16, literal(-4)))
        CFI (cfiCond240) ?BRET_EXT load(1, XDATA, add(CFA_XSP16, literal(-3)))
        CFI (cfiCond240) DPL0 load(1, XDATA, add(CFA_XSP16, literal(-2)))
        CFI (cfiCond240) DPH0 load(1, XDATA, add(CFA_XSP16, literal(-1)))
        CFI (cfiCond240) CFA_SP SP+0
        CFI (cfiCond240) CFA_XSP16 add(XSP16, 19)
        CFI Block cfiCond241 Using cfiCommon0
        CFI (cfiCond241) NoFunction
        CFI (cfiCond241) Conditional ??CrossCallReturnLabel_88
        CFI (cfiCond241) R6 load(1, XDATA, add(CFA_XSP16, literal(-14)))
        CFI (cfiCond241) VB load(1, XDATA, add(CFA_XSP16, literal(-13)))
        CFI (cfiCond241) V0 load(1, XDATA, add(CFA_XSP16, literal(-12)))
        CFI (cfiCond241) V1 load(1, XDATA, add(CFA_XSP16, literal(-11)))
        CFI (cfiCond241) V2 load(1, XDATA, add(CFA_XSP16, literal(-10)))
        CFI (cfiCond241) V3 load(1, XDATA, add(CFA_XSP16, literal(-9)))
        CFI (cfiCond241) V4 load(1, XDATA, add(CFA_XSP16, literal(-8)))
        CFI (cfiCond241) V5 load(1, XDATA, add(CFA_XSP16, literal(-7)))
        CFI (cfiCond241) R7 load(1, XDATA, add(CFA_XSP16, literal(-6)))
        CFI (cfiCond241) ?RET_LOW load(1, XDATA, add(CFA_XSP16, literal(-5)))
        CFI (cfiCond241) ?RET_HIGH load(1, XDATA, add(CFA_XSP16, literal(-4)))
        CFI (cfiCond241) ?BRET_EXT load(1, XDATA, add(CFA_XSP16, literal(-3)))
        CFI (cfiCond241) DPL0 load(1, XDATA, add(CFA_XSP16, literal(-2)))
        CFI (cfiCond241) DPH0 load(1, XDATA, add(CFA_XSP16, literal(-1)))
        CFI (cfiCond241) CFA_SP SP+0
        CFI (cfiCond241) CFA_XSP16 add(XSP16, 19)
        CFI Block cfiCond242 Using cfiCommon0
        CFI (cfiCond242) NoFunction
        CFI (cfiCond242) Conditional ??CrossCallReturnLabel_89
        CFI (cfiCond242) R6 load(1, XDATA, add(CFA_XSP16, literal(-14)))
        CFI (cfiCond242) VB load(1, XDATA, add(CFA_XSP16, literal(-13)))
        CFI (cfiCond242) V0 load(1, XDATA, add(CFA_XSP16, literal(-12)))
        CFI (cfiCond242) V1 load(1, XDATA, add(CFA_XSP16, literal(-11)))
        CFI (cfiCond242) V2 load(1, XDATA, add(CFA_XSP16, literal(-10)))
        CFI (cfiCond242) V3 load(1, XDATA, add(CFA_XSP16, literal(-9)))
        CFI (cfiCond242) V4 load(1, XDATA, add(CFA_XSP16, literal(-8)))
        CFI (cfiCond242) V5 load(1, XDATA, add(CFA_XSP16, literal(-7)))
        CFI (cfiCond242) R7 load(1, XDATA, add(CFA_XSP16, literal(-6)))
        CFI (cfiCond242) ?RET_LOW load(1, XDATA, add(CFA_XSP16, literal(-5)))
        CFI (cfiCond242) ?RET_HIGH load(1, XDATA, add(CFA_XSP16, literal(-4)))
        CFI (cfiCond242) ?BRET_EXT load(1, XDATA, add(CFA_XSP16, literal(-3)))
        CFI (cfiCond242) DPL0 load(1, XDATA, add(CFA_XSP16, literal(-2)))
        CFI (cfiCond242) DPH0 load(1, XDATA, add(CFA_XSP16, literal(-1)))
        CFI (cfiCond242) CFA_SP SP+0
        CFI (cfiCond242) CFA_XSP16 add(XSP16, 19)
        CFI Block cfiCond243 Using cfiCommon0
        CFI (cfiCond243) NoFunction
        CFI (cfiCond243) Conditional ??CrossCallReturnLabel_90
        CFI (cfiCond243) R6 load(1, XDATA, add(CFA_XSP16, literal(-14)))
        CFI (cfiCond243) VB load(1, XDATA, add(CFA_XSP16, literal(-13)))
        CFI (cfiCond243) V0 load(1, XDATA, add(CFA_XSP16, literal(-12)))
        CFI (cfiCond243) V1 load(1, XDATA, add(CFA_XSP16, literal(-11)))
        CFI (cfiCond243) V2 load(1, XDATA, add(CFA_XSP16, literal(-10)))
        CFI (cfiCond243) V3 load(1, XDATA, add(CFA_XSP16, literal(-9)))
        CFI (cfiCond243) V4 load(1, XDATA, add(CFA_XSP16, literal(-8)))
        CFI (cfiCond243) V5 load(1, XDATA, add(CFA_XSP16, literal(-7)))
        CFI (cfiCond243) R7 load(1, XDATA, add(CFA_XSP16, literal(-6)))
        CFI (cfiCond243) ?RET_LOW load(1, XDATA, add(CFA_XSP16, literal(-5)))
        CFI (cfiCond243) ?RET_HIGH load(1, XDATA, add(CFA_XSP16, literal(-4)))
        CFI (cfiCond243) ?BRET_EXT load(1, XDATA, add(CFA_XSP16, literal(-3)))
        CFI (cfiCond243) DPL0 load(1, XDATA, add(CFA_XSP16, literal(-2)))
        CFI (cfiCond243) DPH0 load(1, XDATA, add(CFA_XSP16, literal(-1)))
        CFI (cfiCond243) CFA_SP SP+0
        CFI (cfiCond243) CFA_XSP16 add(XSP16, 19)
        CFI Block cfiCond244 Using cfiCommon0
        CFI (cfiCond244) NoFunction
        CFI (cfiCond244) Conditional ??CrossCallReturnLabel_91
        CFI (cfiCond244) R6 load(1, XDATA, add(CFA_XSP16, literal(-14)))
        CFI (cfiCond244) VB load(1, XDATA, add(CFA_XSP16, literal(-13)))
        CFI (cfiCond244) V0 load(1, XDATA, add(CFA_XSP16, literal(-12)))
        CFI (cfiCond244) V1 load(1, XDATA, add(CFA_XSP16, literal(-11)))
        CFI (cfiCond244) V2 load(1, XDATA, add(CFA_XSP16, literal(-10)))
        CFI (cfiCond244) V3 load(1, XDATA, add(CFA_XSP16, literal(-9)))
        CFI (cfiCond244) V4 load(1, XDATA, add(CFA_XSP16, literal(-8)))
        CFI (cfiCond244) V5 load(1, XDATA, add(CFA_XSP16, literal(-7)))
        CFI (cfiCond244) R7 load(1, XDATA, add(CFA_XSP16, literal(-6)))
        CFI (cfiCond244) ?RET_LOW load(1, XDATA, add(CFA_XSP16, literal(-5)))
        CFI (cfiCond244) ?RET_HIGH load(1, XDATA, add(CFA_XSP16, literal(-4)))
        CFI (cfiCond244) ?BRET_EXT load(1, XDATA, add(CFA_XSP16, literal(-3)))
        CFI (cfiCond244) DPL0 load(1, XDATA, add(CFA_XSP16, literal(-2)))
        CFI (cfiCond244) DPH0 load(1, XDATA, add(CFA_XSP16, literal(-1)))
        CFI (cfiCond244) CFA_SP SP+0
        CFI (cfiCond244) CFA_XSP16 add(XSP16, 21)
        CFI Block cfiPicker245 Using cfiCommon1
        CFI (cfiPicker245) NoFunction
        CFI (cfiPicker245) Picker
        LCALL   ??Subroutine46_0 & 0xFFFF
??CrossCallReturnLabel_98:
        MOVX    A,@DPTR
        RET
        CFI EndBlock cfiCond235
        CFI EndBlock cfiCond236
        CFI EndBlock cfiCond237
        CFI EndBlock cfiCond238
        CFI EndBlock cfiCond239
        CFI EndBlock cfiCond240
        CFI EndBlock cfiCond241
        CFI EndBlock cfiCond242
        CFI EndBlock cfiCond243
        CFI EndBlock cfiCond244
        CFI EndBlock cfiPicker245
//  546 

        RSEG BANKED_CODE:CODE:NOROOT(0)
//  547 void AT_AF_Cmd_R_CIDDISC_rsp(afIncomingMSGPacket_t *pkt ){
AT_AF_Cmd_R_CIDDISC_rsp:
        CFI Block cfiBlock246 Using cfiCommon0
        CFI Function AT_AF_Cmd_R_CIDDISC_rsp
        CODE
        ; Saved register size: 0
        ; Auto size: 0
//  548 }
        LJMP    ?BRET
        CFI EndBlock cfiBlock246
//  549 
//  550 /**********************************************************************
//  551 flashing the led_2 to indication which device in the PAN
//  552 ***********************************************************************/

        RSEG BANKED_CODE:CODE:NOROOT(0)
//  553 void AT_AF_TEST_KEY_CB(afIncomingMSGPacket_t *pkt ){
AT_AF_TEST_KEY_CB:
        CFI Block cfiBlock247 Using cfiCommon0
        CFI Function AT_AF_TEST_KEY_CB
        CODE
        FUNCALL AT_AF_TEST_KEY_CB, HalLedBlink
        LOCFRAME ISTACK, 2, STACK
        LOCFRAME PSTACK, 0, STACK
        LOCFRAME XSTACK, 0, STACK
        LOCFRAME IOVERLAY, 0, STATIC
        LOCFRAME DOVERLAY, 0, STATIC
        ARGFRAME ISTACK, 2, STACK
        ARGFRAME PSTACK, 0, STACK
        ARGFRAME XSTACK, 0, STACK
        ARGFRAME IOVERLAY, 0, STATIC
        ARGFRAME DOVERLAY, 0, STATIC
        PUSH    DPL
        CFI DPL0 Frame(CFA_SP, 4)
        CFI CFA_SP SP+-4
        PUSH    DPH
        CFI DPH0 Frame(CFA_SP, 5)
        CFI CFA_SP SP+-5
        ; Saved register size: 2
        ; Auto size: 0
//  554   HalLedBlink( HAL_LED_2, 4, 50, 250 );
        ; Setup parameters for call to function HalLedBlink
        MOV     R4,#-0x6
        MOV     R5,#0x0
        MOV     R3,#0x32
        MOV     R2,#0x4
        MOV     R1,#0x2
        LCALL   ??HalLedBlink?relay
//  555 }
        LJMP    ?Subroutine0 & 0xFFFF
        CFI EndBlock cfiBlock247
//  556 
//  557 
//  558 /**************************************************************************
//  559 Power saving experiment for the Papper of power efficiency in ZigBee
//  560 ******************************************************************************/
//  561 static void AT_AF_Cmd_RSSI_req(afIncomingMSGPacket_t *pkt  );
//  562 static void AT_AF_Cmd_RSSI_rsp(afIncomingMSGPacket_t *pkt );
//  563 static void AT_AF_Cmd_PSE_req(afIncomingMSGPacket_t *pkt);
//  564 
//  565 static void AT_AF_Cmd_RSSI_req(afIncomingMSGPacket_t *pkt  ){
//  566   AT_AF_Cmd_POWER_SAVING_rssi_t buf;
//  567   buf.hdr.cmd =AT_AT_PSE_RSSI_rsp;
//  568   buf.rssi = pkt->rssi;
//  569   buf.lqi = pkt->LinkQuality;
//  570   buf.correlation =pkt->correlation;
//  571   AF_DataRequest( & (pkt->srcAddr), & AT_AF_epDesc,
//  572                          AT_AF_POWER_SVING_EXP_CLUSTERID,
//  573                          sizeof(buf),
//  574                          (uint8*)&buf,
//  575                          &AT_AF_TransID,
//  576                          AF_DISCV_ROUTE,
//  577                          AF_DEFAULT_RADIUS );
//  578 }
//  579 
//  580 static void AT_AF_Cmd_RSSI_rsp(afIncomingMSGPacket_t *pkt ){
//  581   AT_AF_Cmd_POWER_SAVING_rssi_t* rsp = (AT_AF_Cmd_POWER_SAVING_rssi_t*)pkt->cmd.Data;
//  582   AT_RESP_START();
//  583   printf("RSSIRESP:LQI_send=%d,RSSI_send=%d,correlation_send=%d",
//  584          rsp->lqi,
//  585          rsp->rssi,
//  586          rsp->correlation);
//  587   AT_NEXT_LINE();
//  588   printf("RSSIRESP:LQI_receive=%d,RSSI_receive=%d,correlation_receive=%d",
//  589          pkt->LinkQuality,
//  590          pkt->rssi,
//  591          pkt->correlation);
//  592   AT_RESP_END();
//  593 }

        RSEG BANKED_CODE:CODE:NOROOT(0)
//  594 static void AT_AF_Cmd_PSE_req(afIncomingMSGPacket_t *pkt){
AT_AF_Cmd_PSE_req:
        CFI Block cfiBlock248 Using cfiCommon0
        CFI Function AT_AF_Cmd_PSE_req
        CODE
        FUNCALL AT_AF_Cmd_PSE_req, AT_HalUARTWrite
        LOCFRAME ISTACK, 0, STACK
        LOCFRAME PSTACK, 0, STACK
        LOCFRAME XSTACK, 10, STACK
        LOCFRAME IOVERLAY, 0, STATIC
        LOCFRAME DOVERLAY, 0, STATIC
        ARGFRAME ISTACK, 0, STACK
        ARGFRAME PSTACK, 0, STACK
        ARGFRAME XSTACK, 10, STACK
        ARGFRAME IOVERLAY, 0, STATIC
        ARGFRAME DOVERLAY, 0, STATIC
        FUNCALL AT_AF_Cmd_PSE_req, printf
        LOCFRAME ISTACK, 0, STACK
        LOCFRAME PSTACK, 0, STACK
        LOCFRAME XSTACK, 14, STACK
        LOCFRAME IOVERLAY, 0, STATIC
        LOCFRAME DOVERLAY, 0, STATIC
        ARGFRAME ISTACK, 0, STACK
        ARGFRAME PSTACK, 0, STACK
        ARGFRAME XSTACK, 14, STACK
        ARGFRAME IOVERLAY, 0, STATIC
        ARGFRAME DOVERLAY, 0, STATIC
        FUNCALL AT_AF_Cmd_PSE_req, AT_HalUARTWrite
        LOCFRAME ISTACK, 0, STACK
        LOCFRAME PSTACK, 0, STACK
        LOCFRAME XSTACK, 10, STACK
        LOCFRAME IOVERLAY, 0, STATIC
        LOCFRAME DOVERLAY, 0, STATIC
        ARGFRAME ISTACK, 0, STACK
        ARGFRAME PSTACK, 0, STACK
        ARGFRAME XSTACK, 10, STACK
        ARGFRAME IOVERLAY, 0, STATIC
        ARGFRAME DOVERLAY, 0, STATIC
        FUNCALL AT_AF_Cmd_PSE_req, printf
        LOCFRAME ISTACK, 0, STACK
        LOCFRAME PSTACK, 0, STACK
        LOCFRAME XSTACK, 10, STACK
        LOCFRAME IOVERLAY, 0, STATIC
        LOCFRAME DOVERLAY, 0, STATIC
        ARGFRAME ISTACK, 0, STACK
        ARGFRAME PSTACK, 0, STACK
        ARGFRAME XSTACK, 10, STACK
        ARGFRAME IOVERLAY, 0, STATIC
        ARGFRAME DOVERLAY, 0, STATIC
        FUNCALL AT_AF_Cmd_PSE_req, AT_HalUARTWrite
        LOCFRAME ISTACK, 0, STACK
        LOCFRAME PSTACK, 0, STACK
        LOCFRAME XSTACK, 10, STACK
        LOCFRAME IOVERLAY, 0, STATIC
        LOCFRAME DOVERLAY, 0, STATIC
        ARGFRAME ISTACK, 0, STACK
        ARGFRAME PSTACK, 0, STACK
        ARGFRAME XSTACK, 10, STACK
        ARGFRAME IOVERLAY, 0, STATIC
        ARGFRAME DOVERLAY, 0, STATIC
        FUNCALL AT_AF_Cmd_PSE_req, HalLedSet
        LOCFRAME ISTACK, 0, STACK
        LOCFRAME PSTACK, 0, STACK
        LOCFRAME XSTACK, 10, STACK
        LOCFRAME IOVERLAY, 0, STATIC
        LOCFRAME DOVERLAY, 0, STATIC
        ARGFRAME ISTACK, 0, STACK
        ARGFRAME PSTACK, 0, STACK
        ARGFRAME XSTACK, 10, STACK
        ARGFRAME IOVERLAY, 0, STATIC
        ARGFRAME DOVERLAY, 0, STATIC
        FUNCALL AT_AF_Cmd_PSE_req, printf
        LOCFRAME ISTACK, 0, STACK
        LOCFRAME PSTACK, 0, STACK
        LOCFRAME XSTACK, 12, STACK
        LOCFRAME IOVERLAY, 0, STATIC
        LOCFRAME DOVERLAY, 0, STATIC
        ARGFRAME ISTACK, 0, STACK
        ARGFRAME PSTACK, 0, STACK
        ARGFRAME XSTACK, 12, STACK
        ARGFRAME IOVERLAY, 0, STATIC
        ARGFRAME DOVERLAY, 0, STATIC
        FUNCALL AT_AF_Cmd_PSE_req, printf
        LOCFRAME ISTACK, 0, STACK
        LOCFRAME PSTACK, 0, STACK
        LOCFRAME XSTACK, 12, STACK
        LOCFRAME IOVERLAY, 0, STATIC
        LOCFRAME DOVERLAY, 0, STATIC
        ARGFRAME ISTACK, 0, STACK
        ARGFRAME PSTACK, 0, STACK
        ARGFRAME XSTACK, 12, STACK
        ARGFRAME IOVERLAY, 0, STATIC
        ARGFRAME DOVERLAY, 0, STATIC
        FUNCALL AT_AF_Cmd_PSE_req, HalLedSet
        LOCFRAME ISTACK, 0, STACK
        LOCFRAME PSTACK, 0, STACK
        LOCFRAME XSTACK, 10, STACK
        LOCFRAME IOVERLAY, 0, STATIC
        LOCFRAME DOVERLAY, 0, STATIC
        ARGFRAME ISTACK, 0, STACK
        ARGFRAME PSTACK, 0, STACK
        ARGFRAME XSTACK, 10, STACK
        ARGFRAME IOVERLAY, 0, STATIC
        ARGFRAME DOVERLAY, 0, STATIC
        FUNCALL AT_AF_Cmd_PSE_req, AT_HalUARTWrite
        LOCFRAME ISTACK, 0, STACK
        LOCFRAME PSTACK, 0, STACK
        LOCFRAME XSTACK, 10, STACK
        LOCFRAME IOVERLAY, 0, STATIC
        LOCFRAME DOVERLAY, 0, STATIC
        ARGFRAME ISTACK, 0, STACK
        ARGFRAME PSTACK, 0, STACK
        ARGFRAME XSTACK, 10, STACK
        ARGFRAME IOVERLAY, 0, STATIC
        ARGFRAME DOVERLAY, 0, STATIC
        FUNCALL AT_AF_Cmd_PSE_req, printf
        LOCFRAME ISTACK, 0, STACK
        LOCFRAME PSTACK, 0, STACK
        LOCFRAME XSTACK, 10, STACK
        LOCFRAME IOVERLAY, 0, STATIC
        LOCFRAME DOVERLAY, 0, STATIC
        ARGFRAME ISTACK, 0, STACK
        ARGFRAME PSTACK, 0, STACK
        ARGFRAME XSTACK, 10, STACK
        ARGFRAME IOVERLAY, 0, STATIC
        ARGFRAME DOVERLAY, 0, STATIC
        FUNCALL AT_AF_Cmd_PSE_req, AT_HalUARTWrite
        LOCFRAME ISTACK, 0, STACK
        LOCFRAME PSTACK, 0, STACK
        LOCFRAME XSTACK, 10, STACK
        LOCFRAME IOVERLAY, 0, STATIC
        LOCFRAME DOVERLAY, 0, STATIC
        ARGFRAME ISTACK, 0, STACK
        ARGFRAME PSTACK, 0, STACK
        ARGFRAME XSTACK, 10, STACK
        ARGFRAME IOVERLAY, 0, STATIC
        ARGFRAME DOVERLAY, 0, STATIC
        MOV     A,#-0xa
        LCALL   ?BANKED_ENTER_XDATA
        CFI DPH0 load(1, XDATA, add(CFA_XSP16, literal(-1)))
        CFI DPL0 load(1, XDATA, add(CFA_XSP16, literal(-2)))
        CFI ?BRET_EXT load(1, XDATA, add(CFA_XSP16, literal(-3)))
        CFI ?RET_HIGH load(1, XDATA, add(CFA_XSP16, literal(-4)))
        CFI ?RET_LOW load(1, XDATA, add(CFA_XSP16, literal(-5)))
        CFI R7 load(1, XDATA, add(CFA_XSP16, literal(-6)))
        CFI V1 load(1, XDATA, add(CFA_XSP16, literal(-7)))
        CFI V0 load(1, XDATA, add(CFA_XSP16, literal(-8)))
        CFI VB load(1, XDATA, add(CFA_XSP16, literal(-9)))
        CFI R6 load(1, XDATA, add(CFA_XSP16, literal(-10)))
        CFI CFA_SP SP+0
        CFI CFA_XSP16 add(XSP16, 10)
        ; Saved register size: 10
        ; Auto size: 0
//  595   AT_AF_Cmd_POWER_SAVING_EXP_t *req = (AT_AF_Cmd_POWER_SAVING_EXP_t *)pkt->cmd.Data;
        LCALL   ??Subroutine52_0 & 0xFFFF
??CrossCallReturnLabel_104:
        LCALL   ?Subroutine17 & 0xFFFF
//  596   static uint16 package_count=0;
//  597   switch(req->hdr.info){
??CrossCallReturnLabel_23:
        MOV     DPL,R0
        MOV     DPH,A
        INC     DPTR
        MOVX    A,@DPTR
        DEC     A
        JZ      ??AT_AF_Cmd_PSE_req_0
        ADD     A,#-0x2
        JZ      ??AT_AF_Cmd_PSE_req_1
        DEC     A
        JZ      ??AT_AF_Cmd_PSE_req_2
        LJMP    ??CrossCallReturnLabel_40 & 0xFFFF
//  598   case AT_AF_PSE_info_pre:
//  599     package_count=0;
??AT_AF_Cmd_PSE_req_0:
        MOV     DPTR,#??package_count
        CLR     A
        MOVX    @DPTR,A
        INC     DPTR
        MOVX    @DPTR,A
//  600     AT_RESP_START();
        ; Setup parameters for call to function AT_HalUARTWrite
        MOV     R4,#0x2
        MOV     R5,A
        MOV     R2,#`?<Constant "\\r\\n">` & 0xff
        MOV     R3,#(`?<Constant "\\r\\n">` >> 8) & 0xff
        MOV     R1,A
        LCALL   ?Subroutine27 & 0xFFFF
//  601     printf("%d packages are coming with interval %dms...",
//  602            req->count,
//  603            req->interval);
??CrossCallReturnLabel_35:
        LCALL   ?PUSH_XSTACK8_X_TWO
        CFI CFA_XSP16 add(XSP16, 12)
        MOV     DPL,?V0 + 0
        MOV     DPH,?V0 + 1
        INC     DPTR
        INC     DPTR
        LCALL   ?PUSH_XSTACK8_X_TWO
        CFI CFA_XSP16 add(XSP16, 14)
        MOV     R2,#`?<Constant "%d packages are comin...">` & 0xff
        MOV     R3,#(`?<Constant "%d packages are comin...">` >> 8) & 0xff
        LCALL   ??printf?relay
        MOV     A,#0x4
        LCALL   ?DEALLOC_XSTACK8
        CFI CFA_XSP16 add(XSP16, 10)
//  604     AT_RESP_END();
        ; Setup parameters for call to function AT_HalUARTWrite
        MOV     R4,#0x2
        MOV     R5,#0x0
        MOV     R2,#`?<Constant "\\r\\n">` & 0xff
        MOV     R3,#(`?<Constant "\\r\\n">` >> 8) & 0xff
        MOV     R1,#0x0
        LCALL   ??AT_HalUARTWrite?relay
//  605     
//  606     printf("Package Received:");
        ; Setup parameters for call to function printf
        MOV     R2,#`?<Constant "Package Received:">` & 0xff
        MOV     R3,#(`?<Constant "Package Received:">` >> 8) & 0xff
        SJMP    ??AT_AF_Cmd_PSE_req_3
//  607     AT_NEXT_LINE();
//  608     break;
//  609   case AT_AF_PSE_info_start:
//  610     break;
//  611   case AT_AF_PSE_info_ing:
//  612     package_count++;
??AT_AF_Cmd_PSE_req_1:
        MOV     DPTR,#??package_count
        MOVX    A,@DPTR
        ADD     A,#0x1
        MOVX    @DPTR,A
        INC     DPTR
        MOVX    A,@DPTR
        ADDC    A,#0x0
        MOVX    @DPTR,A
//  613     
//  614     HalLedSet ( HAL_LED_1, HAL_LED_MODE_TOGGLE );
        ; Setup parameters for call to function HalLedSet
        MOV     R2,#0x8
        MOV     R1,#0x1
        LCALL   ??HalLedSet?relay
//  615     printf("\r%d",package_count);
        ; Setup parameters for call to function printf
        MOV     DPTR,#??package_count
        LCALL   ?PUSH_XSTACK8_X_TWO
        CFI CFA_XSP16 add(XSP16, 12)
        MOV     R2,#`?<Constant "\\r%d">` & 0xff
        MOV     R3,#(`?<Constant "\\r%d">` >> 8) & 0xff
        LCALL   ??Subroutine49_0 & 0xFFFF
??CrossCallReturnLabel_80:
        LCALL   ?DEALLOC_XSTACK8
        CFI CFA_XSP16 add(XSP16, 10)
//  616     break;
        SJMP    ??CrossCallReturnLabel_40
//  617   case AT_AF_PSE_info_end:
//  618     printf("\r%d",package_count);
??AT_AF_Cmd_PSE_req_2:
        ; Setup parameters for call to function printf
        MOV     DPTR,#??package_count
        LCALL   ?PUSH_XSTACK8_X_TWO
        CFI CFA_XSP16 add(XSP16, 12)
        MOV     R2,#`?<Constant "\\r%d">` & 0xff
        MOV     R3,#(`?<Constant "\\r%d">` >> 8) & 0xff
        LCALL   ??Subroutine49_0 & 0xFFFF
??CrossCallReturnLabel_81:
        LCALL   ?DEALLOC_XSTACK8
        CFI CFA_XSP16 add(XSP16, 10)
//  619     
//  620     HalLedSet ( HAL_LED_1, HAL_LED_MODE_OFF );
        ; Setup parameters for call to function HalLedSet
        MOV     R2,#0x0
        MOV     R1,#0x1
        LCALL   ??HalLedSet?relay
//  621     AT_NEXT_LINE();
        ; Setup parameters for call to function AT_HalUARTWrite
        MOV     R4,#0x2
        MOV     R5,#0x0
        MOV     R2,#`?<Constant "\\n\\r">` & 0xff
        MOV     R3,#(`?<Constant "\\n\\r">` >> 8) & 0xff
        MOV     R1,#0x0
        LCALL   ??AT_HalUARTWrite?relay
//  622     printf("Receive finished!");
        ; Setup parameters for call to function printf
        MOV     R2,#`?<Constant "Receive finished!">` & 0xff
        MOV     R3,#(`?<Constant "Receive finished!">` >> 8) & 0xff
??AT_AF_Cmd_PSE_req_3:
        LCALL   ?Subroutine29 & 0xFFFF
//  623     AT_NEXT_LINE();
//  624     break;
//  625   }
//  626 }
??CrossCallReturnLabel_40:
        LJMP    ?Subroutine1 & 0xFFFF
        CFI EndBlock cfiBlock248

        RSEG BANKED_CODE:CODE:NOROOT(0)
?Subroutine29:
        CFI Block cfiCond249 Using cfiCommon0
        CFI NoFunction
        CFI Conditional ??CrossCallReturnLabel_39
        CFI R6 load(1, XDATA, add(CFA_XSP16, literal(-16)))
        CFI VB load(1, XDATA, add(CFA_XSP16, literal(-15)))
        CFI V0 load(1, XDATA, add(CFA_XSP16, literal(-14)))
        CFI V1 load(1, XDATA, add(CFA_XSP16, literal(-13)))
        CFI V2 load(1, XDATA, add(CFA_XSP16, literal(-12)))
        CFI V3 load(1, XDATA, add(CFA_XSP16, literal(-11)))
        CFI V4 load(1, XDATA, add(CFA_XSP16, literal(-10)))
        CFI V5 load(1, XDATA, add(CFA_XSP16, literal(-9)))
        CFI V6 load(1, XDATA, add(CFA_XSP16, literal(-8)))
        CFI V7 load(1, XDATA, add(CFA_XSP16, literal(-7)))
        CFI R7 load(1, XDATA, add(CFA_XSP16, literal(-6)))
        CFI ?RET_LOW load(1, XDATA, add(CFA_XSP16, literal(-5)))
        CFI ?RET_HIGH load(1, XDATA, add(CFA_XSP16, literal(-4)))
        CFI ?BRET_EXT load(1, XDATA, add(CFA_XSP16, literal(-3)))
        CFI DPL0 load(1, XDATA, add(CFA_XSP16, literal(-2)))
        CFI DPH0 load(1, XDATA, add(CFA_XSP16, literal(-1)))
        CFI CFA_SP SP+0
        CFI CFA_XSP16 add(XSP16, 16)
        CFI Block cfiCond250 Using cfiCommon0
        CFI (cfiCond250) NoFunction
        CFI (cfiCond250) Conditional ??CrossCallReturnLabel_40
        CFI (cfiCond250) R6 load(1, XDATA, add(CFA_XSP16, literal(-10)))
        CFI (cfiCond250) VB load(1, XDATA, add(CFA_XSP16, literal(-9)))
        CFI (cfiCond250) V0 load(1, XDATA, add(CFA_XSP16, literal(-8)))
        CFI (cfiCond250) V1 load(1, XDATA, add(CFA_XSP16, literal(-7)))
        CFI (cfiCond250) R7 load(1, XDATA, add(CFA_XSP16, literal(-6)))
        CFI (cfiCond250) ?RET_LOW load(1, XDATA, add(CFA_XSP16, literal(-5)))
        CFI (cfiCond250) ?RET_HIGH load(1, XDATA, add(CFA_XSP16, literal(-4)))
        CFI (cfiCond250) ?BRET_EXT load(1, XDATA, add(CFA_XSP16, literal(-3)))
        CFI (cfiCond250) DPL0 load(1, XDATA, add(CFA_XSP16, literal(-2)))
        CFI (cfiCond250) DPH0 load(1, XDATA, add(CFA_XSP16, literal(-1)))
        CFI (cfiCond250) CFA_SP SP+0
        CFI (cfiCond250) CFA_XSP16 add(XSP16, 10)
        CFI Block cfiPicker251 Using cfiCommon1
        CFI (cfiPicker251) NoFunction
        CFI (cfiPicker251) Picker
        LCALL   ??printf?relay
        ; Setup parameters for call to function AT_HalUARTWrite
        ; Setup parameters for call to function AT_HalUARTWrite
        MOV     R4,#0x2
        MOV     R5,#0x0
        MOV     R2,#`?<Constant "\\n\\r">` & 0xff
        MOV     R3,#(`?<Constant "\\n\\r">` >> 8) & 0xff
        MOV     R1,#0x0
        LCALL   ??AT_HalUARTWrite?relay
        RET
        CFI EndBlock cfiCond249
        CFI EndBlock cfiCond250
        CFI EndBlock cfiPicker251

        RSEG BANKED_CODE:CODE:NOROOT(0)
?Subroutine26:
        CFI Block cfiCond252 Using cfiCommon0
        CFI NoFunction
        CFI Conditional ??CrossCallReturnLabel_99
        CFI R6 load(1, XDATA, add(CFA_XSP16, literal(-14)))
        CFI VB load(1, XDATA, add(CFA_XSP16, literal(-13)))
        CFI V0 load(1, XDATA, add(CFA_XSP16, literal(-12)))
        CFI V1 load(1, XDATA, add(CFA_XSP16, literal(-11)))
        CFI V2 load(1, XDATA, add(CFA_XSP16, literal(-10)))
        CFI V3 load(1, XDATA, add(CFA_XSP16, literal(-9)))
        CFI V4 load(1, XDATA, add(CFA_XSP16, literal(-8)))
        CFI V5 load(1, XDATA, add(CFA_XSP16, literal(-7)))
        CFI R7 load(1, XDATA, add(CFA_XSP16, literal(-6)))
        CFI ?RET_LOW load(1, XDATA, add(CFA_XSP16, literal(-5)))
        CFI ?RET_HIGH load(1, XDATA, add(CFA_XSP16, literal(-4)))
        CFI ?BRET_EXT load(1, XDATA, add(CFA_XSP16, literal(-3)))
        CFI DPL0 load(1, XDATA, add(CFA_XSP16, literal(-2)))
        CFI DPH0 load(1, XDATA, add(CFA_XSP16, literal(-1)))
        CFI CFA_SP SP+0
        CFI CFA_XSP16 add(XSP16, 19)
        CFI Block cfiCond253 Using cfiCommon0
        CFI (cfiCond253) NoFunction
        CFI (cfiCond253) Conditional ??CrossCallReturnLabel_100
        CFI (cfiCond253) R6 load(1, XDATA, add(CFA_XSP16, literal(-12)))
        CFI (cfiCond253) VB load(1, XDATA, add(CFA_XSP16, literal(-11)))
        CFI (cfiCond253) V0 load(1, XDATA, add(CFA_XSP16, literal(-10)))
        CFI (cfiCond253) V1 load(1, XDATA, add(CFA_XSP16, literal(-9)))
        CFI (cfiCond253) V2 load(1, XDATA, add(CFA_XSP16, literal(-8)))
        CFI (cfiCond253) V3 load(1, XDATA, add(CFA_XSP16, literal(-7)))
        CFI (cfiCond253) R7 load(1, XDATA, add(CFA_XSP16, literal(-6)))
        CFI (cfiCond253) ?RET_LOW load(1, XDATA, add(CFA_XSP16, literal(-5)))
        CFI (cfiCond253) ?RET_HIGH load(1, XDATA, add(CFA_XSP16, literal(-4)))
        CFI (cfiCond253) ?BRET_EXT load(1, XDATA, add(CFA_XSP16, literal(-3)))
        CFI (cfiCond253) DPL0 load(1, XDATA, add(CFA_XSP16, literal(-2)))
        CFI (cfiCond253) DPH0 load(1, XDATA, add(CFA_XSP16, literal(-1)))
        CFI (cfiCond253) CFA_SP SP+0
        CFI (cfiCond253) CFA_XSP16 add(XSP16, 12)
        CFI Block cfiPicker254 Using cfiCommon1
        CFI (cfiPicker254) NoFunction
        CFI (cfiPicker254) Picker
        MOV     ?V0 + 0,R2
        MOV     ?V0 + 1,R3
        CFI EndBlock cfiCond252
        CFI EndBlock cfiCond253
        CFI EndBlock cfiPicker254
        REQUIRE ??Subroutine52_0
        ; // Fall through to label ??Subroutine52_0

        RSEG BANKED_CODE:CODE:NOROOT(0)
??Subroutine52_0:
        CFI Block cfiCond255 Using cfiCommon0
        CFI NoFunction
        CFI Conditional ??CrossCallReturnLabel_101
        CFI R6 load(1, XDATA, add(CFA_XSP16, literal(-14)))
        CFI VB load(1, XDATA, add(CFA_XSP16, literal(-13)))
        CFI V0 load(1, XDATA, add(CFA_XSP16, literal(-12)))
        CFI V1 load(1, XDATA, add(CFA_XSP16, literal(-11)))
        CFI V2 load(1, XDATA, add(CFA_XSP16, literal(-10)))
        CFI V3 load(1, XDATA, add(CFA_XSP16, literal(-9)))
        CFI V4 load(1, XDATA, add(CFA_XSP16, literal(-8)))
        CFI V5 load(1, XDATA, add(CFA_XSP16, literal(-7)))
        CFI R7 load(1, XDATA, add(CFA_XSP16, literal(-6)))
        CFI ?RET_LOW load(1, XDATA, add(CFA_XSP16, literal(-5)))
        CFI ?RET_HIGH load(1, XDATA, add(CFA_XSP16, literal(-4)))
        CFI ?BRET_EXT load(1, XDATA, add(CFA_XSP16, literal(-3)))
        CFI DPL0 load(1, XDATA, add(CFA_XSP16, literal(-2)))
        CFI DPH0 load(1, XDATA, add(CFA_XSP16, literal(-1)))
        CFI CFA_SP SP+0
        CFI CFA_XSP16 add(XSP16, 19)
        CFI Block cfiCond256 Using cfiCommon0
        CFI (cfiCond256) NoFunction
        CFI (cfiCond256) Conditional ??CrossCallReturnLabel_102
        CFI (cfiCond256) R6 load(1, XDATA, add(CFA_XSP16, literal(-22)))
        CFI (cfiCond256) VB load(1, XDATA, add(CFA_XSP16, literal(-21)))
        CFI (cfiCond256) V0 load(1, XDATA, add(CFA_XSP16, literal(-20)))
        CFI (cfiCond256) V1 load(1, XDATA, add(CFA_XSP16, literal(-19)))
        CFI (cfiCond256) V2 load(1, XDATA, add(CFA_XSP16, literal(-18)))
        CFI (cfiCond256) V3 load(1, XDATA, add(CFA_XSP16, literal(-17)))
        CFI (cfiCond256) V4 load(1, XDATA, add(CFA_XSP16, literal(-16)))
        CFI (cfiCond256) V5 load(1, XDATA, add(CFA_XSP16, literal(-15)))
        CFI (cfiCond256) V6 load(1, XDATA, add(CFA_XSP16, literal(-14)))
        CFI (cfiCond256) V7 load(1, XDATA, add(CFA_XSP16, literal(-13)))
        CFI (cfiCond256) V8 load(1, XDATA, add(CFA_XSP16, literal(-12)))
        CFI (cfiCond256) V9 load(1, XDATA, add(CFA_XSP16, literal(-11)))
        CFI (cfiCond256) V10 load(1, XDATA, add(CFA_XSP16, literal(-10)))
        CFI (cfiCond256) V11 load(1, XDATA, add(CFA_XSP16, literal(-9)))
        CFI (cfiCond256) V12 load(1, XDATA, add(CFA_XSP16, literal(-8)))
        CFI (cfiCond256) V13 load(1, XDATA, add(CFA_XSP16, literal(-7)))
        CFI (cfiCond256) R7 load(1, XDATA, add(CFA_XSP16, literal(-6)))
        CFI (cfiCond256) ?RET_LOW load(1, XDATA, add(CFA_XSP16, literal(-5)))
        CFI (cfiCond256) ?RET_HIGH load(1, XDATA, add(CFA_XSP16, literal(-4)))
        CFI (cfiCond256) ?BRET_EXT load(1, XDATA, add(CFA_XSP16, literal(-3)))
        CFI (cfiCond256) DPL0 load(1, XDATA, add(CFA_XSP16, literal(-2)))
        CFI (cfiCond256) DPH0 load(1, XDATA, add(CFA_XSP16, literal(-1)))
        CFI (cfiCond256) CFA_SP SP+0
        CFI (cfiCond256) CFA_XSP16 add(XSP16, 29)
        CFI Block cfiCond257 Using cfiCommon0
        CFI (cfiCond257) NoFunction
        CFI (cfiCond257) Conditional ??CrossCallReturnLabel_103
        CFI (cfiCond257) DPL0 Frame(CFA_SP, 4)
        CFI (cfiCond257) DPH0 Frame(CFA_SP, 5)
        CFI (cfiCond257) CFA_SP SP+-5
        CFI Block cfiCond258 Using cfiCommon0
        CFI (cfiCond258) NoFunction
        CFI (cfiCond258) Conditional ??CrossCallReturnLabel_104
        CFI (cfiCond258) R6 load(1, XDATA, add(CFA_XSP16, literal(-10)))
        CFI (cfiCond258) VB load(1, XDATA, add(CFA_XSP16, literal(-9)))
        CFI (cfiCond258) V0 load(1, XDATA, add(CFA_XSP16, literal(-8)))
        CFI (cfiCond258) V1 load(1, XDATA, add(CFA_XSP16, literal(-7)))
        CFI (cfiCond258) R7 load(1, XDATA, add(CFA_XSP16, literal(-6)))
        CFI (cfiCond258) ?RET_LOW load(1, XDATA, add(CFA_XSP16, literal(-5)))
        CFI (cfiCond258) ?RET_HIGH load(1, XDATA, add(CFA_XSP16, literal(-4)))
        CFI (cfiCond258) ?BRET_EXT load(1, XDATA, add(CFA_XSP16, literal(-3)))
        CFI (cfiCond258) DPL0 load(1, XDATA, add(CFA_XSP16, literal(-2)))
        CFI (cfiCond258) DPH0 load(1, XDATA, add(CFA_XSP16, literal(-1)))
        CFI (cfiCond258) CFA_SP SP+0
        CFI (cfiCond258) CFA_XSP16 add(XSP16, 10)
        CFI Block cfiCond259 Using cfiCommon0
        CFI (cfiCond259) NoFunction
        CFI (cfiCond259) Conditional ??CrossCallReturnLabel_99
        CFI (cfiCond259) R6 load(1, XDATA, add(CFA_XSP16, literal(-14)))
        CFI (cfiCond259) VB load(1, XDATA, add(CFA_XSP16, literal(-13)))
        CFI (cfiCond259) V0 load(1, XDATA, add(CFA_XSP16, literal(-12)))
        CFI (cfiCond259) V1 load(1, XDATA, add(CFA_XSP16, literal(-11)))
        CFI (cfiCond259) V2 load(1, XDATA, add(CFA_XSP16, literal(-10)))
        CFI (cfiCond259) V3 load(1, XDATA, add(CFA_XSP16, literal(-9)))
        CFI (cfiCond259) V4 load(1, XDATA, add(CFA_XSP16, literal(-8)))
        CFI (cfiCond259) V5 load(1, XDATA, add(CFA_XSP16, literal(-7)))
        CFI (cfiCond259) R7 load(1, XDATA, add(CFA_XSP16, literal(-6)))
        CFI (cfiCond259) ?RET_LOW load(1, XDATA, add(CFA_XSP16, literal(-5)))
        CFI (cfiCond259) ?RET_HIGH load(1, XDATA, add(CFA_XSP16, literal(-4)))
        CFI (cfiCond259) ?BRET_EXT load(1, XDATA, add(CFA_XSP16, literal(-3)))
        CFI (cfiCond259) DPL0 load(1, XDATA, add(CFA_XSP16, literal(-2)))
        CFI (cfiCond259) DPH0 load(1, XDATA, add(CFA_XSP16, literal(-1)))
        CFI (cfiCond259) CFA_SP SP+0
        CFI (cfiCond259) CFA_XSP16 add(XSP16, 19)
        CFI Block cfiCond260 Using cfiCommon0
        CFI (cfiCond260) NoFunction
        CFI (cfiCond260) Conditional ??CrossCallReturnLabel_100
        CFI (cfiCond260) R6 load(1, XDATA, add(CFA_XSP16, literal(-12)))
        CFI (cfiCond260) VB load(1, XDATA, add(CFA_XSP16, literal(-11)))
        CFI (cfiCond260) V0 load(1, XDATA, add(CFA_XSP16, literal(-10)))
        CFI (cfiCond260) V1 load(1, XDATA, add(CFA_XSP16, literal(-9)))
        CFI (cfiCond260) V2 load(1, XDATA, add(CFA_XSP16, literal(-8)))
        CFI (cfiCond260) V3 load(1, XDATA, add(CFA_XSP16, literal(-7)))
        CFI (cfiCond260) R7 load(1, XDATA, add(CFA_XSP16, literal(-6)))
        CFI (cfiCond260) ?RET_LOW load(1, XDATA, add(CFA_XSP16, literal(-5)))
        CFI (cfiCond260) ?RET_HIGH load(1, XDATA, add(CFA_XSP16, literal(-4)))
        CFI (cfiCond260) ?BRET_EXT load(1, XDATA, add(CFA_XSP16, literal(-3)))
        CFI (cfiCond260) DPL0 load(1, XDATA, add(CFA_XSP16, literal(-2)))
        CFI (cfiCond260) DPH0 load(1, XDATA, add(CFA_XSP16, literal(-1)))
        CFI (cfiCond260) CFA_SP SP+0
        CFI (cfiCond260) CFA_XSP16 add(XSP16, 12)
        CFI Block cfiPicker261 Using cfiCommon1
        CFI (cfiPicker261) NoFunction
        CFI (cfiPicker261) Picker
        MOV     A,R2
        LCALL   ??Subroutine39_0 & 0xFFFF
??CrossCallReturnLabel_110:
        MOV     A,R3
        RET
        CFI EndBlock cfiCond255
        CFI EndBlock cfiCond256
        CFI EndBlock cfiCond257
        CFI EndBlock cfiCond258
        CFI EndBlock cfiCond259
        CFI EndBlock cfiCond260
        CFI EndBlock cfiPicker261

        RSEG BANKED_CODE:CODE:NOROOT(0)
?Subroutine17:
        CFI Block cfiCond262 Using cfiCommon0
        CFI NoFunction
        CFI Conditional ??CrossCallReturnLabel_22
        CFI R6 load(1, XDATA, add(CFA_XSP16, literal(-14)))
        CFI VB load(1, XDATA, add(CFA_XSP16, literal(-13)))
        CFI V0 load(1, XDATA, add(CFA_XSP16, literal(-12)))
        CFI V1 load(1, XDATA, add(CFA_XSP16, literal(-11)))
        CFI V2 load(1, XDATA, add(CFA_XSP16, literal(-10)))
        CFI V3 load(1, XDATA, add(CFA_XSP16, literal(-9)))
        CFI V4 load(1, XDATA, add(CFA_XSP16, literal(-8)))
        CFI V5 load(1, XDATA, add(CFA_XSP16, literal(-7)))
        CFI R7 load(1, XDATA, add(CFA_XSP16, literal(-6)))
        CFI ?RET_LOW load(1, XDATA, add(CFA_XSP16, literal(-5)))
        CFI ?RET_HIGH load(1, XDATA, add(CFA_XSP16, literal(-4)))
        CFI ?BRET_EXT load(1, XDATA, add(CFA_XSP16, literal(-3)))
        CFI DPL0 load(1, XDATA, add(CFA_XSP16, literal(-2)))
        CFI DPH0 load(1, XDATA, add(CFA_XSP16, literal(-1)))
        CFI CFA_SP SP+0
        CFI CFA_XSP16 add(XSP16, 19)
        CFI Block cfiCond263 Using cfiCommon0
        CFI (cfiCond263) NoFunction
        CFI (cfiCond263) Conditional ??CrossCallReturnLabel_23
        CFI (cfiCond263) R6 load(1, XDATA, add(CFA_XSP16, literal(-10)))
        CFI (cfiCond263) VB load(1, XDATA, add(CFA_XSP16, literal(-9)))
        CFI (cfiCond263) V0 load(1, XDATA, add(CFA_XSP16, literal(-8)))
        CFI (cfiCond263) V1 load(1, XDATA, add(CFA_XSP16, literal(-7)))
        CFI (cfiCond263) R7 load(1, XDATA, add(CFA_XSP16, literal(-6)))
        CFI (cfiCond263) ?RET_LOW load(1, XDATA, add(CFA_XSP16, literal(-5)))
        CFI (cfiCond263) ?RET_HIGH load(1, XDATA, add(CFA_XSP16, literal(-4)))
        CFI (cfiCond263) ?BRET_EXT load(1, XDATA, add(CFA_XSP16, literal(-3)))
        CFI (cfiCond263) DPL0 load(1, XDATA, add(CFA_XSP16, literal(-2)))
        CFI (cfiCond263) DPH0 load(1, XDATA, add(CFA_XSP16, literal(-1)))
        CFI (cfiCond263) CFA_SP SP+0
        CFI (cfiCond263) CFA_XSP16 add(XSP16, 10)
        CFI Block cfiPicker264 Using cfiCommon1
        CFI (cfiPicker264) NoFunction
        CFI (cfiPicker264) Picker
        LCALL   ?Subroutine34 & 0xFFFF
??CrossCallReturnLabel_56:
        MOV     ?V0 + 0,R0
        MOV     ?V0 + 1,R1
        RET
        CFI EndBlock cfiCond262
        CFI EndBlock cfiCond263
        CFI EndBlock cfiPicker264

        RSEG XDATA_Z:XDATA:NOROOT(0)
        DATA16
??package_count:
        DS 2
        REQUIRE __INIT_XDATA_Z
//  627 

        RSEG BANKED_CODE:CODE:NOROOT(0)
//  628 void AT_AF_Cmd_POWER_SVING_EXP_CB(afIncomingMSGPacket_t *pkt ){
AT_AF_Cmd_POWER_SVING_EXP_CB:
        CFI Block cfiBlock265 Using cfiCommon0
        CFI Function AT_AF_Cmd_POWER_SVING_EXP_CB
        CODE
        FUNCALL AT_AF_Cmd_POWER_SVING_EXP_CB, AF_DataRequest
        LOCFRAME ISTACK, 0, STACK
        LOCFRAME PSTACK, 0, STACK
        LOCFRAME XSTACK, 28, STACK
        LOCFRAME IOVERLAY, 0, STATIC
        LOCFRAME DOVERLAY, 0, STATIC
        ARGFRAME ISTACK, 0, STACK
        ARGFRAME PSTACK, 0, STACK
        ARGFRAME XSTACK, 28, STACK
        ARGFRAME IOVERLAY, 0, STATIC
        ARGFRAME DOVERLAY, 0, STATIC
        FUNCALL AT_AF_Cmd_POWER_SVING_EXP_CB, AT_HalUARTWrite
        LOCFRAME ISTACK, 0, STACK
        LOCFRAME PSTACK, 0, STACK
        LOCFRAME XSTACK, 19, STACK
        LOCFRAME IOVERLAY, 0, STATIC
        LOCFRAME DOVERLAY, 0, STATIC
        ARGFRAME ISTACK, 0, STACK
        ARGFRAME PSTACK, 0, STACK
        ARGFRAME XSTACK, 19, STACK
        ARGFRAME IOVERLAY, 0, STATIC
        ARGFRAME DOVERLAY, 0, STATIC
        FUNCALL AT_AF_Cmd_POWER_SVING_EXP_CB, printf
        LOCFRAME ISTACK, 0, STACK
        LOCFRAME PSTACK, 0, STACK
        LOCFRAME XSTACK, 25, STACK
        LOCFRAME IOVERLAY, 0, STATIC
        LOCFRAME DOVERLAY, 0, STATIC
        ARGFRAME ISTACK, 0, STACK
        ARGFRAME PSTACK, 0, STACK
        ARGFRAME XSTACK, 25, STACK
        ARGFRAME IOVERLAY, 0, STATIC
        ARGFRAME DOVERLAY, 0, STATIC
        FUNCALL AT_AF_Cmd_POWER_SVING_EXP_CB, AT_HalUARTWrite
        LOCFRAME ISTACK, 0, STACK
        LOCFRAME PSTACK, 0, STACK
        LOCFRAME XSTACK, 19, STACK
        LOCFRAME IOVERLAY, 0, STATIC
        LOCFRAME DOVERLAY, 0, STATIC
        ARGFRAME ISTACK, 0, STACK
        ARGFRAME PSTACK, 0, STACK
        ARGFRAME XSTACK, 19, STACK
        ARGFRAME IOVERLAY, 0, STATIC
        ARGFRAME DOVERLAY, 0, STATIC
        FUNCALL AT_AF_Cmd_POWER_SVING_EXP_CB, printf
        LOCFRAME ISTACK, 0, STACK
        LOCFRAME PSTACK, 0, STACK
        LOCFRAME XSTACK, 25, STACK
        LOCFRAME IOVERLAY, 0, STATIC
        LOCFRAME DOVERLAY, 0, STATIC
        ARGFRAME ISTACK, 0, STACK
        ARGFRAME PSTACK, 0, STACK
        ARGFRAME XSTACK, 25, STACK
        ARGFRAME IOVERLAY, 0, STATIC
        ARGFRAME DOVERLAY, 0, STATIC
        FUNCALL AT_AF_Cmd_POWER_SVING_EXP_CB, AT_HalUARTWrite
        LOCFRAME ISTACK, 0, STACK
        LOCFRAME PSTACK, 0, STACK
        LOCFRAME XSTACK, 19, STACK
        LOCFRAME IOVERLAY, 0, STATIC
        LOCFRAME DOVERLAY, 0, STATIC
        ARGFRAME ISTACK, 0, STACK
        ARGFRAME PSTACK, 0, STACK
        ARGFRAME XSTACK, 19, STACK
        ARGFRAME IOVERLAY, 0, STATIC
        ARGFRAME DOVERLAY, 0, STATIC
        FUNCALL AT_AF_Cmd_POWER_SVING_EXP_CB, AT_AF_Cmd_PSE_req
        LOCFRAME ISTACK, 0, STACK
        LOCFRAME PSTACK, 0, STACK
        LOCFRAME XSTACK, 19, STACK
        LOCFRAME IOVERLAY, 0, STATIC
        LOCFRAME DOVERLAY, 0, STATIC
        ARGFRAME ISTACK, 0, STACK
        ARGFRAME PSTACK, 0, STACK
        ARGFRAME XSTACK, 19, STACK
        ARGFRAME IOVERLAY, 0, STATIC
        ARGFRAME DOVERLAY, 0, STATIC
        MOV     A,#-0xe
        LCALL   ?BANKED_ENTER_XDATA
        CFI DPH0 load(1, XDATA, add(CFA_XSP16, literal(-1)))
        CFI DPL0 load(1, XDATA, add(CFA_XSP16, literal(-2)))
        CFI ?BRET_EXT load(1, XDATA, add(CFA_XSP16, literal(-3)))
        CFI ?RET_HIGH load(1, XDATA, add(CFA_XSP16, literal(-4)))
        CFI ?RET_LOW load(1, XDATA, add(CFA_XSP16, literal(-5)))
        CFI R7 load(1, XDATA, add(CFA_XSP16, literal(-6)))
        CFI V5 load(1, XDATA, add(CFA_XSP16, literal(-7)))
        CFI V4 load(1, XDATA, add(CFA_XSP16, literal(-8)))
        CFI V3 load(1, XDATA, add(CFA_XSP16, literal(-9)))
        CFI V2 load(1, XDATA, add(CFA_XSP16, literal(-10)))
        CFI V1 load(1, XDATA, add(CFA_XSP16, literal(-11)))
        CFI V0 load(1, XDATA, add(CFA_XSP16, literal(-12)))
        CFI VB load(1, XDATA, add(CFA_XSP16, literal(-13)))
        CFI R6 load(1, XDATA, add(CFA_XSP16, literal(-14)))
        CFI CFA_SP SP+0
        CFI CFA_XSP16 add(XSP16, 14)
        ; Saved register size: 14
        ; Auto size: 5
        MOV     A,#-0x5
        LCALL   ?ALLOC_XSTACK8
        CFI CFA_XSP16 add(XSP16, 19)
        LCALL   ?Subroutine38 & 0xFFFF
//  629    AT_AF_hdr *req = (AT_AF_hdr *)pkt->cmd.Data;
//  630   switch (req->cmd){
??CrossCallReturnLabel_107:
        MOV     A,R7
        LCALL   ??Subroutine44_0 & 0xFFFF
??CrossCallReturnLabel_57:
        DEC     A
        JZ      ??AT_AF_Cmd_POWER_SVING_EXP_CB_0
        DEC     A
        JNZ     $+5
        LJMP    ??AT_AF_Cmd_POWER_SVING_EXP_CB_1 & 0xFFFF
        ADD     A,#-0x7f
        JNZ     $+5
        LJMP    ??AT_AF_Cmd_POWER_SVING_EXP_CB_2 & 0xFFFF
        LJMP    ??AT_AF_Cmd_POWER_SVING_EXP_CB_3 & 0xFFFF
//  631   case AT_AT_PSE_RSSI_req:
//  632     AT_AF_Cmd_RSSI_req(pkt);
??AT_AF_Cmd_POWER_SVING_EXP_CB_0:
        MOV     DPL,?XSP + 0
        MOV     DPH,?XSP + 1
        MOV     A,#-0x7f
        MOVX    @DPTR,A
        LCALL   ?Subroutine21 & 0xFFFF
??CrossCallReturnLabel_90:
        PUSH    A
        CFI CFA_SP SP+-1
        MOV     A,#0x3
        LCALL   ?XSTACK_DISP0_8
        POP     A
        CFI CFA_SP SP+0
        MOVX    @DPTR,A
        MOV     A,R6
        ADD     A,#0x16
        LCALL   ??Subroutine50_0 & 0xFFFF
??CrossCallReturnLabel_87:
        PUSH    A
        CFI CFA_SP SP+-1
        MOV     A,#0x2
        LCALL   ?XSTACK_DISP0_8
        POP     A
        CFI CFA_SP SP+0
        MOVX    @DPTR,A
        MOV     A,R6
        ADD     A,#0x17
        LCALL   ??Subroutine50_0 & 0xFFFF
??CrossCallReturnLabel_88:
        PUSH    A
        CFI CFA_SP SP+-1
        MOV     A,#0x4
        LCALL   ?XSTACK_DISP0_8
        POP     A
        CFI CFA_SP SP+0
        LCALL   ?Subroutine5 & 0xFFFF
??CrossCallReturnLabel_5:
        LCALL   ?PUSH_XSTACK_I_ONE
        CFI CFA_XSP16 add(XSP16, 20)
        MOV     ?V0 + 0,#AT_AF_TransID & 0xff
        MOV     ?V0 + 1,#(AT_AF_TransID >> 8) & 0xff
        MOV     R0,#?V0 + 0
        LCALL   ?PUSH_XSTACK_I_TWO
        CFI CFA_XSP16 add(XSP16, 22)
        MOV     A,#0x3
        LCALL   ?XSTACK_DISP0_8
        MOV     ?V0 + 0,DPL
        MOV     ?V0 + 1,DPH
        MOV     R0,#?V0 + 0
        LCALL   ?PUSH_XSTACK_I_TWO
        CFI CFA_XSP16 add(XSP16, 24)
        MOV     ?V0 + 0,#0x5
        MOV     ?V0 + 1,#0x0
        MOV     R0,#?V0 + 0
        LCALL   ?PUSH_XSTACK_I_TWO
        CFI CFA_XSP16 add(XSP16, 26)
        MOV     ?V0 + 0,#0x6
        MOV     R0,#?V0 + 0
        LCALL   ?PUSH_XSTACK_I_TWO
        CFI CFA_XSP16 add(XSP16, 28)
        MOV     R1,#0x20
        MOV     R4,#AT_AF_epDesc & 0xff
        MOV     R5,#(AT_AF_epDesc >> 8) & 0xff
        MOV     A,R6
        ADD     A,#0x6
        MOV     R2,A
        MOV     A,R7
        LCALL   ??Subroutine53_0 & 0xFFFF
??CrossCallReturnLabel_116:
        LCALL   ?DEALLOC_XSTACK8
        CFI CFA_XSP16 add(XSP16, 19)
//  633     break;
        LJMP    ??AT_AF_Cmd_POWER_SVING_EXP_CB_3 & 0xFFFF
//  634   case AT_AT_PSE_RSSI_rsp:
//  635     AT_AF_Cmd_RSSI_rsp(pkt);
??AT_AF_Cmd_POWER_SVING_EXP_CB_2:
        LCALL   ?Subroutine12 & 0xFFFF
??CrossCallReturnLabel_68:
        MOV     ?V0 + 2,#`?<Constant "\\r\\n">` & 0xff
        MOV     ?V0 + 3,#(`?<Constant "\\r\\n">` >> 8) & 0xff
        ; Setup parameters for call to function AT_HalUARTWrite
        MOV     R4,#0x2
        MOV     R5,#0x0
        MOV     R2,?V0 + 2
        MOV     R3,?V0 + 3
        MOV     R1,#0x0
        LCALL   ?Subroutine27 & 0xFFFF
??CrossCallReturnLabel_36:
        MOVX    A,@DPTR
        MOV     ?V0 + 4,A
        MOV     ?V0 + 5,#0x0
        MOV     R0,#?V0 + 4
        LCALL   ?PUSH_XSTACK_I_TWO
        CFI CFA_XSP16 add(XSP16, 21)
        MOV     DPL,?V0 + 0
        MOV     DPH,?V0 + 1
        INC     DPTR
        INC     DPTR
        INC     DPTR
        MOVX    A,@DPTR
        MOV     ?V0 + 4,A
        RLC     A
        SUBB    A,0xE0 /* A   */
        MOV     ?V0 + 5,A
        MOV     R0,#?V0 + 4
        LCALL   ?PUSH_XSTACK_I_TWO
        CFI CFA_XSP16 add(XSP16, 23)
        MOV     DPL,?V0 + 0
        MOV     DPH,?V0 + 1
        INC     DPTR
        INC     DPTR
        LCALL   ?Subroutine18 & 0xFFFF
??CrossCallReturnLabel_24:
        LCALL   ?PUSH_XSTACK_I_TWO
        CFI CFA_XSP16 add(XSP16, 25)
        MOV     R2,#`?<Constant "RSSIRESP:LQI_send=%d,...">` & 0xff
        MOV     R3,#(`?<Constant "RSSIRESP:LQI_send=%d,...">` >> 8) & 0xff
        LCALL   ??printf?relay
        MOV     A,#0x6
        LCALL   ?DEALLOC_XSTACK8
        CFI CFA_XSP16 add(XSP16, 19)
        ; Setup parameters for call to function AT_HalUARTWrite
        MOV     R4,#0x2
        MOV     R5,#0x0
        MOV     R2,#`?<Constant "\\n\\r">` & 0xff
        MOV     R3,#(`?<Constant "\\n\\r">` >> 8) & 0xff
        MOV     R1,#0x0
        LCALL   ??AT_HalUARTWrite?relay
        ; Setup parameters for call to function printf
        MOV     A,R6
        ADD     A,#0x17
        LCALL   ??Subroutine50_0 & 0xFFFF
??CrossCallReturnLabel_89:
        MOV     ?V0 + 0,A
        MOV     R0,#?V0 + 0
        LCALL   ?PUSH_XSTACK_I_TWO
        CFI CFA_XSP16 add(XSP16, 21)
        LCALL   ?Subroutine21 & 0xFFFF
??CrossCallReturnLabel_91:
        MOV     ?V0 + 0,A
        RLC     A
        SUBB    A,0xE0 /* A   */
        MOV     ?V0 + 1,A
        MOV     R0,#?V0 + 0
        LCALL   ?PUSH_XSTACK_I_TWO
        CFI CFA_XSP16 add(XSP16, 23)
        MOV     A,R6
        ADD     A,#0x16
        LCALL   ?Subroutine36 & 0xFFFF
??CrossCallReturnLabel_94:
        LCALL   ?Subroutine18 & 0xFFFF
??CrossCallReturnLabel_25:
        LCALL   ?PUSH_XSTACK_I_TWO
        CFI CFA_XSP16 add(XSP16, 25)
        MOV     R2,#`?<Constant "RSSIRESP:LQI_receive=...">` & 0xff
        MOV     R3,#(`?<Constant "RSSIRESP:LQI_receive=...">` >> 8) & 0xff
        LCALL   ??printf?relay
        MOV     A,#0x6
        LCALL   ?DEALLOC_XSTACK8
        CFI CFA_XSP16 add(XSP16, 19)
        ; Setup parameters for call to function AT_HalUARTWrite
        MOV     R4,#0x2
        MOV     R5,#0x0
        MOV     R2,?V0 + 2
        MOV     R3,?V0 + 3
        MOV     R1,#0x0
        LCALL   ??AT_HalUARTWrite?relay
//  636     break;
        SJMP    ??AT_AF_Cmd_POWER_SVING_EXP_CB_3
//  637   case AT_AT_PSE_EXP_req:
//  638     AT_AF_Cmd_PSE_req(pkt);
??AT_AF_Cmd_POWER_SVING_EXP_CB_1:
        ; Setup parameters for call to function AT_AF_Cmd_PSE_req
        LCALL   ??AT_AF_Cmd_PSE_req?relay
//  639     break;
//  640   }
//  641 }
??AT_AF_Cmd_POWER_SVING_EXP_CB_3:
        LJMP    ?Subroutine3 & 0xFFFF
        CFI EndBlock cfiBlock265

        RSEG BANKED_CODE:CODE:NOROOT(0)
?Subroutine27:
        CFI Block cfiCond266 Using cfiCommon0
        CFI NoFunction
        CFI Conditional ??CrossCallReturnLabel_35
        CFI R6 load(1, XDATA, add(CFA_XSP16, literal(-10)))
        CFI VB load(1, XDATA, add(CFA_XSP16, literal(-9)))
        CFI V0 load(1, XDATA, add(CFA_XSP16, literal(-8)))
        CFI V1 load(1, XDATA, add(CFA_XSP16, literal(-7)))
        CFI R7 load(1, XDATA, add(CFA_XSP16, literal(-6)))
        CFI ?RET_LOW load(1, XDATA, add(CFA_XSP16, literal(-5)))
        CFI ?RET_HIGH load(1, XDATA, add(CFA_XSP16, literal(-4)))
        CFI ?BRET_EXT load(1, XDATA, add(CFA_XSP16, literal(-3)))
        CFI DPL0 load(1, XDATA, add(CFA_XSP16, literal(-2)))
        CFI DPH0 load(1, XDATA, add(CFA_XSP16, literal(-1)))
        CFI CFA_SP SP+0
        CFI CFA_XSP16 add(XSP16, 10)
        CFI Block cfiCond267 Using cfiCommon0
        CFI (cfiCond267) NoFunction
        CFI (cfiCond267) Conditional ??CrossCallReturnLabel_36
        CFI (cfiCond267) R6 load(1, XDATA, add(CFA_XSP16, literal(-14)))
        CFI (cfiCond267) VB load(1, XDATA, add(CFA_XSP16, literal(-13)))
        CFI (cfiCond267) V0 load(1, XDATA, add(CFA_XSP16, literal(-12)))
        CFI (cfiCond267) V1 load(1, XDATA, add(CFA_XSP16, literal(-11)))
        CFI (cfiCond267) V2 load(1, XDATA, add(CFA_XSP16, literal(-10)))
        CFI (cfiCond267) V3 load(1, XDATA, add(CFA_XSP16, literal(-9)))
        CFI (cfiCond267) V4 load(1, XDATA, add(CFA_XSP16, literal(-8)))
        CFI (cfiCond267) V5 load(1, XDATA, add(CFA_XSP16, literal(-7)))
        CFI (cfiCond267) R7 load(1, XDATA, add(CFA_XSP16, literal(-6)))
        CFI (cfiCond267) ?RET_LOW load(1, XDATA, add(CFA_XSP16, literal(-5)))
        CFI (cfiCond267) ?RET_HIGH load(1, XDATA, add(CFA_XSP16, literal(-4)))
        CFI (cfiCond267) ?BRET_EXT load(1, XDATA, add(CFA_XSP16, literal(-3)))
        CFI (cfiCond267) DPL0 load(1, XDATA, add(CFA_XSP16, literal(-2)))
        CFI (cfiCond267) DPH0 load(1, XDATA, add(CFA_XSP16, literal(-1)))
        CFI (cfiCond267) CFA_SP SP+0
        CFI (cfiCond267) CFA_XSP16 add(XSP16, 19)
        CFI Block cfiPicker268 Using cfiCommon1
        CFI (cfiPicker268) NoFunction
        CFI (cfiPicker268) Picker
        LCALL   ??AT_HalUARTWrite?relay
        ; Setup parameters for call to function printf
        ; Setup parameters for call to function printf
        MOV     DPL,?V0 + 0
        MOV     DPH,?V0 + 1
        INC     DPTR
        INC     DPTR
        INC     DPTR
        INC     DPTR
        RET
        CFI EndBlock cfiCond266
        CFI EndBlock cfiCond267
        CFI EndBlock cfiPicker268

        RSEG BANKED_CODE:CODE:NOROOT(0)
?Subroutine19:
        CFI Block cfiCond269 Using cfiCommon0
        CFI NoFunction
        CFI Conditional ??CrossCallReturnLabel_111
        CFI R6 load(1, XDATA, add(CFA_XSP16, literal(-13)))
        CFI VB load(1, XDATA, add(CFA_XSP16, literal(-12)))
        CFI V0 load(1, XDATA, add(CFA_XSP16, literal(-11)))
        CFI V1 load(1, XDATA, add(CFA_XSP16, literal(-10)))
        CFI V2 load(1, XDATA, add(CFA_XSP16, literal(-9)))
        CFI V3 load(1, XDATA, add(CFA_XSP16, literal(-8)))
        CFI V4 load(1, XDATA, add(CFA_XSP16, literal(-7)))
        CFI R7 load(1, XDATA, add(CFA_XSP16, literal(-6)))
        CFI ?RET_LOW load(1, XDATA, add(CFA_XSP16, literal(-5)))
        CFI ?RET_HIGH load(1, XDATA, add(CFA_XSP16, literal(-4)))
        CFI ?BRET_EXT load(1, XDATA, add(CFA_XSP16, literal(-3)))
        CFI DPL0 load(1, XDATA, add(CFA_XSP16, literal(-2)))
        CFI DPH0 load(1, XDATA, add(CFA_XSP16, literal(-1)))
        CFI CFA_SP SP+0
        CFI CFA_XSP16 add(XSP16, 26)
        CFI Block cfiCond270 Using cfiCommon0
        CFI (cfiCond270) NoFunction
        CFI (cfiCond270) Conditional ??CrossCallReturnLabel_112
        CFI (cfiCond270) R6 load(1, XDATA, add(CFA_XSP16, literal(-14)))
        CFI (cfiCond270) VB load(1, XDATA, add(CFA_XSP16, literal(-13)))
        CFI (cfiCond270) V0 load(1, XDATA, add(CFA_XSP16, literal(-12)))
        CFI (cfiCond270) V1 load(1, XDATA, add(CFA_XSP16, literal(-11)))
        CFI (cfiCond270) V2 load(1, XDATA, add(CFA_XSP16, literal(-10)))
        CFI (cfiCond270) V3 load(1, XDATA, add(CFA_XSP16, literal(-9)))
        CFI (cfiCond270) V4 load(1, XDATA, add(CFA_XSP16, literal(-8)))
        CFI (cfiCond270) V5 load(1, XDATA, add(CFA_XSP16, literal(-7)))
        CFI (cfiCond270) R7 load(1, XDATA, add(CFA_XSP16, literal(-6)))
        CFI (cfiCond270) ?RET_LOW load(1, XDATA, add(CFA_XSP16, literal(-5)))
        CFI (cfiCond270) ?RET_HIGH load(1, XDATA, add(CFA_XSP16, literal(-4)))
        CFI (cfiCond270) ?BRET_EXT load(1, XDATA, add(CFA_XSP16, literal(-3)))
        CFI (cfiCond270) DPL0 load(1, XDATA, add(CFA_XSP16, literal(-2)))
        CFI (cfiCond270) DPH0 load(1, XDATA, add(CFA_XSP16, literal(-1)))
        CFI (cfiCond270) CFA_SP SP+0
        CFI (cfiCond270) CFA_XSP16 add(XSP16, 28)
        CFI Block cfiPicker271 Using cfiCommon1
        CFI (cfiPicker271) NoFunction
        CFI (cfiPicker271) Picker
        MOV     R1,#0x20
        MOV     R4,#AT_AF_epDesc & 0xff
        MOV     R5,#(AT_AF_epDesc >> 8) & 0xff
        MOV     A,?V0 + 0
        ADD     A,#0x6
        MOV     R2,A
        MOV     A,?V0 + 1
        CFI EndBlock cfiCond269
        CFI EndBlock cfiCond270
        CFI EndBlock cfiPicker271
        REQUIRE ??Subroutine53_0
        ; // Fall through to label ??Subroutine53_0

        RSEG BANKED_CODE:CODE:NOROOT(0)
??Subroutine53_0:
        CFI Block cfiCond272 Using cfiCommon0
        CFI NoFunction
        CFI Conditional ??CrossCallReturnLabel_113
        CFI R6 load(1, XDATA, add(CFA_XSP16, literal(-14)))
        CFI VB load(1, XDATA, add(CFA_XSP16, literal(-13)))
        CFI V0 load(1, XDATA, add(CFA_XSP16, literal(-12)))
        CFI V1 load(1, XDATA, add(CFA_XSP16, literal(-11)))
        CFI V2 load(1, XDATA, add(CFA_XSP16, literal(-10)))
        CFI V3 load(1, XDATA, add(CFA_XSP16, literal(-9)))
        CFI V4 load(1, XDATA, add(CFA_XSP16, literal(-8)))
        CFI V5 load(1, XDATA, add(CFA_XSP16, literal(-7)))
        CFI R7 load(1, XDATA, add(CFA_XSP16, literal(-6)))
        CFI ?RET_LOW load(1, XDATA, add(CFA_XSP16, literal(-5)))
        CFI ?RET_HIGH load(1, XDATA, add(CFA_XSP16, literal(-4)))
        CFI ?BRET_EXT load(1, XDATA, add(CFA_XSP16, literal(-3)))
        CFI DPL0 load(1, XDATA, add(CFA_XSP16, literal(-2)))
        CFI DPH0 load(1, XDATA, add(CFA_XSP16, literal(-1)))
        CFI CFA_SP SP+0
        CFI CFA_XSP16 add(XSP16, 28)
        CFI Block cfiCond273 Using cfiCommon0
        CFI (cfiCond273) NoFunction
        CFI (cfiCond273) Conditional ??CrossCallReturnLabel_114
        CFI (cfiCond273) R6 load(1, XDATA, add(CFA_XSP16, literal(-22)))
        CFI (cfiCond273) VB load(1, XDATA, add(CFA_XSP16, literal(-21)))
        CFI (cfiCond273) V0 load(1, XDATA, add(CFA_XSP16, literal(-20)))
        CFI (cfiCond273) V1 load(1, XDATA, add(CFA_XSP16, literal(-19)))
        CFI (cfiCond273) V2 load(1, XDATA, add(CFA_XSP16, literal(-18)))
        CFI (cfiCond273) V3 load(1, XDATA, add(CFA_XSP16, literal(-17)))
        CFI (cfiCond273) V4 load(1, XDATA, add(CFA_XSP16, literal(-16)))
        CFI (cfiCond273) V5 load(1, XDATA, add(CFA_XSP16, literal(-15)))
        CFI (cfiCond273) V6 load(1, XDATA, add(CFA_XSP16, literal(-14)))
        CFI (cfiCond273) V7 load(1, XDATA, add(CFA_XSP16, literal(-13)))
        CFI (cfiCond273) V8 load(1, XDATA, add(CFA_XSP16, literal(-12)))
        CFI (cfiCond273) V9 load(1, XDATA, add(CFA_XSP16, literal(-11)))
        CFI (cfiCond273) V10 load(1, XDATA, add(CFA_XSP16, literal(-10)))
        CFI (cfiCond273) V11 load(1, XDATA, add(CFA_XSP16, literal(-9)))
        CFI (cfiCond273) V12 load(1, XDATA, add(CFA_XSP16, literal(-8)))
        CFI (cfiCond273) V13 load(1, XDATA, add(CFA_XSP16, literal(-7)))
        CFI (cfiCond273) R7 load(1, XDATA, add(CFA_XSP16, literal(-6)))
        CFI (cfiCond273) ?RET_LOW load(1, XDATA, add(CFA_XSP16, literal(-5)))
        CFI (cfiCond273) ?RET_HIGH load(1, XDATA, add(CFA_XSP16, literal(-4)))
        CFI (cfiCond273) ?BRET_EXT load(1, XDATA, add(CFA_XSP16, literal(-3)))
        CFI (cfiCond273) DPL0 load(1, XDATA, add(CFA_XSP16, literal(-2)))
        CFI (cfiCond273) DPH0 load(1, XDATA, add(CFA_XSP16, literal(-1)))
        CFI (cfiCond273) CFA_SP SP+0
        CFI (cfiCond273) CFA_XSP16 add(XSP16, 38)
        CFI Block cfiCond274 Using cfiCommon0
        CFI (cfiCond274) NoFunction
        CFI (cfiCond274) Conditional ??CrossCallReturnLabel_115
        CFI (cfiCond274) R6 load(1, XDATA, add(CFA_XSP16, literal(-22)))
        CFI (cfiCond274) VB load(1, XDATA, add(CFA_XSP16, literal(-21)))
        CFI (cfiCond274) V0 load(1, XDATA, add(CFA_XSP16, literal(-20)))
        CFI (cfiCond274) V1 load(1, XDATA, add(CFA_XSP16, literal(-19)))
        CFI (cfiCond274) V2 load(1, XDATA, add(CFA_XSP16, literal(-18)))
        CFI (cfiCond274) V3 load(1, XDATA, add(CFA_XSP16, literal(-17)))
        CFI (cfiCond274) V4 load(1, XDATA, add(CFA_XSP16, literal(-16)))
        CFI (cfiCond274) V5 load(1, XDATA, add(CFA_XSP16, literal(-15)))
        CFI (cfiCond274) V6 load(1, XDATA, add(CFA_XSP16, literal(-14)))
        CFI (cfiCond274) V7 load(1, XDATA, add(CFA_XSP16, literal(-13)))
        CFI (cfiCond274) V8 load(1, XDATA, add(CFA_XSP16, literal(-12)))
        CFI (cfiCond274) V9 load(1, XDATA, add(CFA_XSP16, literal(-11)))
        CFI (cfiCond274) V10 load(1, XDATA, add(CFA_XSP16, literal(-10)))
        CFI (cfiCond274) V11 load(1, XDATA, add(CFA_XSP16, literal(-9)))
        CFI (cfiCond274) V12 load(1, XDATA, add(CFA_XSP16, literal(-8)))
        CFI (cfiCond274) V13 load(1, XDATA, add(CFA_XSP16, literal(-7)))
        CFI (cfiCond274) R7 load(1, XDATA, add(CFA_XSP16, literal(-6)))
        CFI (cfiCond274) ?RET_LOW load(1, XDATA, add(CFA_XSP16, literal(-5)))
        CFI (cfiCond274) ?RET_HIGH load(1, XDATA, add(CFA_XSP16, literal(-4)))
        CFI (cfiCond274) ?BRET_EXT load(1, XDATA, add(CFA_XSP16, literal(-3)))
        CFI (cfiCond274) DPL0 load(1, XDATA, add(CFA_XSP16, literal(-2)))
        CFI (cfiCond274) DPH0 load(1, XDATA, add(CFA_XSP16, literal(-1)))
        CFI (cfiCond274) CFA_SP SP+0
        CFI (cfiCond274) CFA_XSP16 add(XSP16, 38)
        CFI Block cfiCond275 Using cfiCommon0
        CFI (cfiCond275) NoFunction
        CFI (cfiCond275) Conditional ??CrossCallReturnLabel_116
        CFI (cfiCond275) R6 load(1, XDATA, add(CFA_XSP16, literal(-14)))
        CFI (cfiCond275) VB load(1, XDATA, add(CFA_XSP16, literal(-13)))
        CFI (cfiCond275) V0 load(1, XDATA, add(CFA_XSP16, literal(-12)))
        CFI (cfiCond275) V1 load(1, XDATA, add(CFA_XSP16, literal(-11)))
        CFI (cfiCond275) V2 load(1, XDATA, add(CFA_XSP16, literal(-10)))
        CFI (cfiCond275) V3 load(1, XDATA, add(CFA_XSP16, literal(-9)))
        CFI (cfiCond275) V4 load(1, XDATA, add(CFA_XSP16, literal(-8)))
        CFI (cfiCond275) V5 load(1, XDATA, add(CFA_XSP16, literal(-7)))
        CFI (cfiCond275) R7 load(1, XDATA, add(CFA_XSP16, literal(-6)))
        CFI (cfiCond275) ?RET_LOW load(1, XDATA, add(CFA_XSP16, literal(-5)))
        CFI (cfiCond275) ?RET_HIGH load(1, XDATA, add(CFA_XSP16, literal(-4)))
        CFI (cfiCond275) ?BRET_EXT load(1, XDATA, add(CFA_XSP16, literal(-3)))
        CFI (cfiCond275) DPL0 load(1, XDATA, add(CFA_XSP16, literal(-2)))
        CFI (cfiCond275) DPH0 load(1, XDATA, add(CFA_XSP16, literal(-1)))
        CFI (cfiCond275) CFA_SP SP+0
        CFI (cfiCond275) CFA_XSP16 add(XSP16, 28)
        CFI Block cfiCond276 Using cfiCommon0
        CFI (cfiCond276) NoFunction
        CFI (cfiCond276) Conditional ??CrossCallReturnLabel_111
        CFI (cfiCond276) R6 load(1, XDATA, add(CFA_XSP16, literal(-13)))
        CFI (cfiCond276) VB load(1, XDATA, add(CFA_XSP16, literal(-12)))
        CFI (cfiCond276) V0 load(1, XDATA, add(CFA_XSP16, literal(-11)))
        CFI (cfiCond276) V1 load(1, XDATA, add(CFA_XSP16, literal(-10)))
        CFI (cfiCond276) V2 load(1, XDATA, add(CFA_XSP16, literal(-9)))
        CFI (cfiCond276) V3 load(1, XDATA, add(CFA_XSP16, literal(-8)))
        CFI (cfiCond276) V4 load(1, XDATA, add(CFA_XSP16, literal(-7)))
        CFI (cfiCond276) R7 load(1, XDATA, add(CFA_XSP16, literal(-6)))
        CFI (cfiCond276) ?RET_LOW load(1, XDATA, add(CFA_XSP16, literal(-5)))
        CFI (cfiCond276) ?RET_HIGH load(1, XDATA, add(CFA_XSP16, literal(-4)))
        CFI (cfiCond276) ?BRET_EXT load(1, XDATA, add(CFA_XSP16, literal(-3)))
        CFI (cfiCond276) DPL0 load(1, XDATA, add(CFA_XSP16, literal(-2)))
        CFI (cfiCond276) DPH0 load(1, XDATA, add(CFA_XSP16, literal(-1)))
        CFI (cfiCond276) CFA_SP SP+0
        CFI (cfiCond276) CFA_XSP16 add(XSP16, 26)
        CFI Block cfiCond277 Using cfiCommon0
        CFI (cfiCond277) NoFunction
        CFI (cfiCond277) Conditional ??CrossCallReturnLabel_112
        CFI (cfiCond277) R6 load(1, XDATA, add(CFA_XSP16, literal(-14)))
        CFI (cfiCond277) VB load(1, XDATA, add(CFA_XSP16, literal(-13)))
        CFI (cfiCond277) V0 load(1, XDATA, add(CFA_XSP16, literal(-12)))
        CFI (cfiCond277) V1 load(1, XDATA, add(CFA_XSP16, literal(-11)))
        CFI (cfiCond277) V2 load(1, XDATA, add(CFA_XSP16, literal(-10)))
        CFI (cfiCond277) V3 load(1, XDATA, add(CFA_XSP16, literal(-9)))
        CFI (cfiCond277) V4 load(1, XDATA, add(CFA_XSP16, literal(-8)))
        CFI (cfiCond277) V5 load(1, XDATA, add(CFA_XSP16, literal(-7)))
        CFI (cfiCond277) R7 load(1, XDATA, add(CFA_XSP16, literal(-6)))
        CFI (cfiCond277) ?RET_LOW load(1, XDATA, add(CFA_XSP16, literal(-5)))
        CFI (cfiCond277) ?RET_HIGH load(1, XDATA, add(CFA_XSP16, literal(-4)))
        CFI (cfiCond277) ?BRET_EXT load(1, XDATA, add(CFA_XSP16, literal(-3)))
        CFI (cfiCond277) DPL0 load(1, XDATA, add(CFA_XSP16, literal(-2)))
        CFI (cfiCond277) DPH0 load(1, XDATA, add(CFA_XSP16, literal(-1)))
        CFI (cfiCond277) CFA_SP SP+0
        CFI (cfiCond277) CFA_XSP16 add(XSP16, 28)
        CFI Block cfiPicker278 Using cfiCommon1
        CFI (cfiPicker278) NoFunction
        CFI (cfiPicker278) Picker
        ADDC    A,#0x0
        MOV     R3,A
        LCALL   ??AF_DataRequest?relay
        MOV     A,#0x9
        RET
        CFI EndBlock cfiCond272
        CFI EndBlock cfiCond273
        CFI EndBlock cfiCond274
        CFI EndBlock cfiCond275
        CFI EndBlock cfiCond276
        CFI EndBlock cfiCond277
        CFI EndBlock cfiPicker278

        RSEG BANKED_CODE:CODE:NOROOT(0)
?Subroutine18:
        CFI Block cfiCond279 Using cfiCommon0
        CFI NoFunction
        CFI Conditional ??CrossCallReturnLabel_24
        CFI R6 load(1, XDATA, add(CFA_XSP16, literal(-14)))
        CFI VB load(1, XDATA, add(CFA_XSP16, literal(-13)))
        CFI V0 load(1, XDATA, add(CFA_XSP16, literal(-12)))
        CFI V1 load(1, XDATA, add(CFA_XSP16, literal(-11)))
        CFI V2 load(1, XDATA, add(CFA_XSP16, literal(-10)))
        CFI V3 load(1, XDATA, add(CFA_XSP16, literal(-9)))
        CFI V4 load(1, XDATA, add(CFA_XSP16, literal(-8)))
        CFI V5 load(1, XDATA, add(CFA_XSP16, literal(-7)))
        CFI R7 load(1, XDATA, add(CFA_XSP16, literal(-6)))
        CFI ?RET_LOW load(1, XDATA, add(CFA_XSP16, literal(-5)))
        CFI ?RET_HIGH load(1, XDATA, add(CFA_XSP16, literal(-4)))
        CFI ?BRET_EXT load(1, XDATA, add(CFA_XSP16, literal(-3)))
        CFI DPL0 load(1, XDATA, add(CFA_XSP16, literal(-2)))
        CFI DPH0 load(1, XDATA, add(CFA_XSP16, literal(-1)))
        CFI CFA_SP SP+0
        CFI CFA_XSP16 add(XSP16, 23)
        CFI Block cfiCond280 Using cfiCommon0
        CFI (cfiCond280) NoFunction
        CFI (cfiCond280) Conditional ??CrossCallReturnLabel_25
        CFI (cfiCond280) R6 load(1, XDATA, add(CFA_XSP16, literal(-14)))
        CFI (cfiCond280) VB load(1, XDATA, add(CFA_XSP16, literal(-13)))
        CFI (cfiCond280) V0 load(1, XDATA, add(CFA_XSP16, literal(-12)))
        CFI (cfiCond280) V1 load(1, XDATA, add(CFA_XSP16, literal(-11)))
        CFI (cfiCond280) V2 load(1, XDATA, add(CFA_XSP16, literal(-10)))
        CFI (cfiCond280) V3 load(1, XDATA, add(CFA_XSP16, literal(-9)))
        CFI (cfiCond280) V4 load(1, XDATA, add(CFA_XSP16, literal(-8)))
        CFI (cfiCond280) V5 load(1, XDATA, add(CFA_XSP16, literal(-7)))
        CFI (cfiCond280) R7 load(1, XDATA, add(CFA_XSP16, literal(-6)))
        CFI (cfiCond280) ?RET_LOW load(1, XDATA, add(CFA_XSP16, literal(-5)))
        CFI (cfiCond280) ?RET_HIGH load(1, XDATA, add(CFA_XSP16, literal(-4)))
        CFI (cfiCond280) ?BRET_EXT load(1, XDATA, add(CFA_XSP16, literal(-3)))
        CFI (cfiCond280) DPL0 load(1, XDATA, add(CFA_XSP16, literal(-2)))
        CFI (cfiCond280) DPH0 load(1, XDATA, add(CFA_XSP16, literal(-1)))
        CFI (cfiCond280) CFA_SP SP+0
        CFI (cfiCond280) CFA_XSP16 add(XSP16, 23)
        CFI Block cfiPicker281 Using cfiCommon1
        CFI (cfiPicker281) NoFunction
        CFI (cfiPicker281) Picker
        MOVX    A,@DPTR
        MOV     ?V0 + 0,A
        MOV     ?V0 + 1,#0x0
        MOV     R0,#?V0 + 0
        RET
        CFI EndBlock cfiCond279
        CFI EndBlock cfiCond280
        CFI EndBlock cfiPicker281

        RSEG XDATA_ID:CODE:NOROOT(0)
`?<Initializer for AT_AF_Group>`:
        DATA16
        DW 32768
        DATA8
        DB 65
        DB 84
        DB 95
        DB 65
        DB 70
        DB 95
        DB 103
        DB 114
        DB 111
        DB 117
        DB 112
        DB 0
        DB 0
        DB 0
        DB 0
        DB 0

        RSEG BANK_RELAYS:CODE:REORDER:NOROOT(0)
??AT_AF_Register?relay:
        LCALL   ?BDISPATCH
        DATA
        DC24    AT_AF_Register

        RSEG BANK_RELAYS:CODE:REORDER:NOROOT(0)
??AT_AF_MessageMSGCB?relay:
        LCALL   ?BDISPATCH
        DATA
        DC24    AT_AF_MessageMSGCB

        RSEG BANK_RELAYS:CODE:REORDER:NOROOT(0)
??AT_AF_Cmd_send_simple_?relay:
        LCALL   ?BDISPATCH
        DATA
        DC24    AT_AF_Cmd_send_simple_

        RSEG BANK_RELAYS:CODE:REORDER:NOROOT(0)
??AT_AF_Cmd_REPPRINT_req?relay:
        LCALL   ?BDISPATCH
        DATA
        DC24    AT_AF_Cmd_REPPRINT_req

        RSEG BANK_RELAYS:CODE:REORDER:NOROOT(0)
??AT_AF_Cmd_REPPRINT_rsp?relay:
        LCALL   ?BDISPATCH
        DATA
        DC24    AT_AF_Cmd_REPPRINT_rsp

        RSEG BANK_RELAYS:CODE:REORDER:NOROOT(0)
??AT_AF_Cmd_REPPRINT_CB?relay:
        LCALL   ?BDISPATCH
        DATA
        DC24    AT_AF_Cmd_REPPRINT_CB

        RSEG BANK_RELAYS:CODE:REORDER:NOROOT(0)
??AT_AF_Cmd_REPENABLE_req?relay:
        LCALL   ?BDISPATCH
        DATA
        DC24    AT_AF_Cmd_REPENABLE_req

        RSEG BANK_RELAYS:CODE:REORDER:NOROOT(0)
??AT_AF_Cmd_REPENABLE_rsp?relay:
        LCALL   ?BDISPATCH
        DATA
        DC24    AT_AF_Cmd_REPENABLE_rsp

        RSEG BANK_RELAYS:CODE:REORDER:NOROOT(0)
??AT_AF_Cmd_REPENABLE_CB?relay:
        LCALL   ?BDISPATCH
        DATA
        DC24    AT_AF_Cmd_REPENABLE_CB

        RSEG BANK_RELAYS:CODE:REORDER:NOROOT(0)
??AT_AF_Cmd_HA_DISC_CB?relay:
        LCALL   ?BDISPATCH
        DATA
        DC24    AT_AF_Cmd_HA_DISC_CB

        RSEG BANK_RELAYS:CODE:REORDER:NOROOT(0)
??AT_AF_Cmd_HA_DISC_req?relay:
        LCALL   ?BDISPATCH
        DATA
        DC24    AT_AF_Cmd_HA_DISC_req

        RSEG BANK_RELAYS:CODE:REORDER:NOROOT(0)
??AT_AF_Cmd_HA_DISC_rsp?relay:
        LCALL   ?BDISPATCH
        DATA
        DC24    AT_AF_Cmd_HA_DISC_rsp

        RSEG BANK_RELAYS:CODE:REORDER:NOROOT(0)
??AT_AF_Cmd_HA_CIDDISC_CB?relay:
        LCALL   ?BDISPATCH
        DATA
        DC24    AT_AF_Cmd_HA_CIDDISC_CB

        RSEG BANK_RELAYS:CODE:REORDER:NOROOT(0)
??AT_AF_Cmd_HA_CIDDISC_req?relay:
        LCALL   ?BDISPATCH
        DATA
        DC24    AT_AF_Cmd_HA_CIDDISC_req

        RSEG BANK_RELAYS:CODE:REORDER:NOROOT(0)
??AT_AF_Cmd_HA_CIDDISC_rsp?relay:
        LCALL   ?BDISPATCH
        DATA
        DC24    AT_AF_Cmd_HA_CIDDISC_rsp

        RSEG BANK_RELAYS:CODE:REORDER:NOROOT(0)
??AT_AF_Cmd_R_CIDDISC_CB?relay:
        LCALL   ?BDISPATCH
        DATA
        DC24    AT_AF_Cmd_R_CIDDISC_CB

        RSEG BANK_RELAYS:CODE:REORDER:NOROOT(0)
??AT_AF_Cmd_R_CIDDISC_req?relay:
        LCALL   ?BDISPATCH
        DATA
        DC24    AT_AF_Cmd_R_CIDDISC_req

        RSEG BANK_RELAYS:CODE:REORDER:NOROOT(0)
??AT_AF_Cmd_R_CIDDISC_rsp?relay:
        LCALL   ?BDISPATCH
        DATA
        DC24    AT_AF_Cmd_R_CIDDISC_rsp

        RSEG BANK_RELAYS:CODE:REORDER:NOROOT(0)
??AT_AF_TEST_KEY_CB?relay:
        LCALL   ?BDISPATCH
        DATA
        DC24    AT_AF_TEST_KEY_CB

        RSEG BANK_RELAYS:CODE:REORDER:NOROOT(0)
??AT_AF_Cmd_PSE_req?relay:
        LCALL   ?BDISPATCH
        DATA
        DC24    AT_AF_Cmd_PSE_req

        RSEG BANK_RELAYS:CODE:REORDER:NOROOT(0)
??AT_AF_Cmd_POWER_SVING_EXP_CB?relay:
        LCALL   ?BDISPATCH
        DATA
        DC24    AT_AF_Cmd_POWER_SVING_EXP_CB

        RSEG XDATA_ROM_C:CONST:REORDER:NOROOT(0)
        DATA8
`?<Constant {7}>`:
        DB 7

        RSEG XDATA_ROM_C:CONST:REORDER:NOROOT(0)
        DATA8
`?<Constant {7}>_1`:
        DB 7

        RSEG XDATA_ROM_C:CONST:REORDER:NOROOT(0)
        DATA8
`?<Constant "\\r\\n">`:
        DB "\015\012"

        RSEG XDATA_ROM_C:CONST:REORDER:NOROOT(0)
        DATA8
`?<Constant "<nodeID>,<EndPoint>:<...">`:
        DB "<nodeID>,<EndPoint>:<Status>"

        RSEG XDATA_ROM_C:CONST:REORDER:NOROOT(0)
        DATA8
`?<Constant "\\n\\r">`:
        DB "\012\015"

        RSEG XDATA_ROM_C:CONST:REORDER:NOROOT(0)
        DATA8
`?<Constant "UNKNOWN">`:
        DB "UNKNOWN"

        RSEG XDATA_ROM_C:CONST:REORDER:NOROOT(0)
        DATA16
`?<Constant ",">`:
        DB ","

        RSEG XDATA_ROM_C:CONST:REORDER:NOROOT(0)
        DATA8
`?<Constant ":ENABLED">`:
        DB ":ENABLED"

        RSEG XDATA_ROM_C:CONST:REORDER:NOROOT(0)
        DATA8
`?<Constant ":DISABLED">`:
        DB ":DISABLED"

        RSEG XDATA_ROM_C:CONST:REORDER:NOROOT(0)
        DATA8
`?<Constant "ENABLED:">`:
        DB "ENABLED:"

        RSEG XDATA_ROM_C:CONST:REORDER:NOROOT(0)
        DATA8
`?<Constant "DISABLED:">`:
        DB "DISABLED:"

        RSEG XDATA_ROM_C:CONST:REORDER:NOROOT(0)
        DATA8
`?<Constant "UNKNOWNEP">`:
        DB "UNKNOWNEP"

        RSEG XDATA_ROM_C:CONST:REORDER:NOROOT(0)
        DATA8
`?<Constant {7}>_2`:
        DB 7

        RSEG XDATA_ROM_C:CONST:REORDER:NOROOT(0)
        DATA8
`?<Constant "DEV:%04X,">`:
        DB "DEV:%04X,"

        RSEG XDATA_ROM_C:CONST:REORDER:NOROOT(0)
        DATA8
`?<Constant "%02X,">`:
        DB "%02X,"

        RSEG XDATA_ROM_C:CONST:REORDER:NOROOT(0)
        DATA8
`?<Constant "ENABLED">`:
        DB "ENABLED"

        RSEG XDATA_ROM_C:CONST:REORDER:NOROOT(0)
        DATA8
`?<Constant "DISABLED">`:
        DB "DISABLED"

        RSEG XDATA_ROM_C:CONST:REORDER:NOROOT(0)
        DATA8
`?<Constant "DISCCLUS:<Node ID>,<E...">`:
        DB "DISCCLUS:<Node ID>,<EndPoint>,<Status>"

        RSEG XDATA_ROM_C:CONST:REORDER:NOROOT(0)
        DATA8
`?<Constant "DISCCLUS:%04X">`:
        DB "DISCCLUS:%04X"

        RSEG XDATA_ROM_C:CONST:REORDER:NOROOT(0)
        DATA8
`?<Constant "DISCCLUS:UNKNOWN">`:
        DB "DISCCLUS:UNKNOWN"

        RSEG XDATA_ROM_C:CONST:REORDER:NOROOT(0)
        DATA8
`?<Constant ",%02X,%02X">`:
        DB ",%02X,%02X"

        RSEG XDATA_ROM_C:CONST:REORDER:NOROOT(0)
        DATA8
`?<Constant "SERVER:">`:
        DB "SERVER:"

        RSEG XDATA_ROM_C:CONST:REORDER:NOROOT(0)
        DATA8
`?<Constant ",%04X">`:
        DB ",%04X"

        RSEG XDATA_ROM_C:CONST:REORDER:NOROOT(0)
        DATA8
`?<Constant "CLIENT:">`:
        DB "CLIENT:"

        RSEG XDATA_ROM_C:CONST:REORDER:NOROOT(0)
        DATA8
`?<Constant "RSSIRESP:LQI_send=%d,...">`:
        DB 52H, 53H, 53H, 49H, 52H, 45H, 53H, 50H
        DB 3AH, 4CH, 51H, 49H, 5FH, 73H, 65H, 6EH
        DB 64H, 3DH, 25H, 64H, 2CH, 52H, 53H, 53H
        DB 49H, 5FH, 73H, 65H, 6EH, 64H, 3DH, 25H
        DB 64H, 2CH, 63H, 6FH, 72H, 72H, 65H, 6CH
        DB 61H, 74H, 69H, 6FH, 6EH, 5FH, 73H, 65H
        DB 6EH, 64H, 3DH, 25H, 64H, 0

        RSEG XDATA_ROM_C:CONST:REORDER:NOROOT(0)
        DATA8
`?<Constant "RSSIRESP:LQI_receive=...">`:
        DB 52H, 53H, 53H, 49H, 52H, 45H, 53H, 50H
        DB 3AH, 4CH, 51H, 49H, 5FH, 72H, 65H, 63H
        DB 65H, 69H, 76H, 65H, 3DH, 25H, 64H, 2CH
        DB 52H, 53H, 53H, 49H, 5FH, 72H, 65H, 63H
        DB 65H, 69H, 76H, 65H, 3DH, 25H, 64H, 2CH
        DB 63H, 6FH, 72H, 72H, 65H, 6CH, 61H, 74H
        DB 69H, 6FH, 6EH, 5FH, 72H, 65H, 63H, 65H
        DB 69H, 76H, 65H, 3DH, 25H, 64H, 0

        RSEG XDATA_ROM_C:CONST:REORDER:NOROOT(0)
        DATA8
`?<Constant "%d packages are comin...">`:
        DB "%d packages are coming with interval %dms..."

        RSEG XDATA_ROM_C:CONST:REORDER:NOROOT(0)
        DATA8
`?<Constant "Package Received:">`:
        DB "Package Received:"

        RSEG XDATA_ROM_C:CONST:REORDER:NOROOT(0)
        DATA32
`?<Constant "\\r%d">`:
        DB "\015%d"

        RSEG XDATA_ROM_C:CONST:REORDER:NOROOT(0)
        DATA8
`?<Constant "Receive finished!">`:
        DB "Receive finished!"

        END
// 
// 3 588 bytes in segment BANKED_CODE
//   126 bytes in segment BANK_RELAYS
//    18 bytes in segment XDATA_I
//    18 bytes in segment XDATA_ID
//   460 bytes in segment XDATA_ROM_C
//     9 bytes in segment XDATA_Z
// 
// 3 732 bytes of CODE  memory
//   460 bytes of CONST memory
//    27 bytes of XDATA memory
//
//Errors: none
//Warnings: none
