###############################################################################
#                                                                             #
# IAR C/C++ Compiler V8.10.3.10338/W32 for 8051         26/Aug/2015  19:20:57 #
# Copyright 2004-2011 IAR Systems AB.                                         #
#                                                                             #
#    Core               =  plain                                              #
#    Code model         =  banked                                             #
#    Data model         =  large                                              #
#    Calling convention =  xdata reentrant                                    #
#    Constant location  =  data_rom                                           #
#    Dptr setup         =  1,16                                               #
#    Source file        =  S:\zigbee\Myzigbe\version 3.0 for                  #
#                          test\Projects\zstack\AT commands\AT command 3.2    #
#                          -Body Sensor\Source\hal\hal_drivers.c              #
#    Command line       =  -f "S:\zigbee\Myzigbe\version 3.0 for              #
#                          test\Projects\zstack\AT commands\AT command 3.2    #
#                          -Body Sensor\CC2530DB\..\..\..\Tools\CC2530DB\f8wE #
#                          ndev.cfg" (-DCPU32MHZ -DROOT=__near_func           #
#                          -DMAC_CFG_TX_DATA_MAX=3 -DMAC_CFG_TX_MAX=6         #
#                          -DMAC_CFG_RX_MAX=3) -f "S:\zigbee\Myzigbe\version  #
#                          3.0 for test\Projects\zstack\AT commands\AT        #
#                          command 3.2 -Body Sensor\CC2530DB\..\..\..\Tools\C #
#                          C2530DB\f8wConfig.cfg" (-DZIGBEEPRO -DSECURE=0     #
#                          -DZG_SECURE_DYNAMIC=0 -DREFLECTOR                  #
#                          -DDEFAULT_CHANLIST=0x00000800                      #
#                          -DZDAPP_CONFIG_PAN_ID=0xFFFF                       #
#                          -DNWK_START_DELAY=100 -DEXTENDED_JOINING_RANDOM_MA #
#                          SK=0x007F -DBEACON_REQUEST_DELAY=100               #
#                          -DBEACON_REQ_DELAY_MASK=0x00FF                     #
#                          -DLINK_STATUS_JITTER_MASK=0x007F                   #
#                          -DROUTE_EXPIRY_TIME=30 -DAPSC_ACK_WAIT_DURATION_PO #
#                          LLED=3000 -DNWK_INDIRECT_MSG_TIMEOUT=7             #
#                          -DMAX_RREQ_ENTRIES=8 -DAPSC_MAX_FRAME_RETRIES=3    #
#                          -DNWK_MAX_DATA_RETRIES=2                           #
#                          -DMAX_POLL_FAILURE_RETRIES=2 -DMAX_BCAST=9         #
#                          -DAPS_MAX_GROUPS=16 -DMAX_RTG_ENTRIES=40           #
#                          -DNWK_MAX_BINDING_ENTRIES=4                        #
#                          -DMAX_BINDING_CLUSTER_IDS=4 "-DDEFAULT_KEY={0x01,  #
#                          0x03, 0x05, 0x07, 0x09, 0x0B, 0x0D, 0x0F, 0x00,    #
#                          0x02, 0x04, 0x06, 0x08, 0x0A, 0x0C, 0x0D}"         #
#                          -DMAC_MAX_FRAME_SIZE=116                           #
#                          -DZDNWKMGR_MIN_TRANSMISSIONS=20 "-DCONST=const     #
#                          __code" -DGENERIC=__generic                        #
#                          -DRFD_RCVC_ALWAYS_ON=FALSE -DPOLL_RATE=1000        #
#                          -DQUEUED_POLL_RATE=100 -DRESPONSE_POLL_RATE=100)   #
#                          -DREJOIN_POLL_RATE=440 "S:\zigbee\Myzigbe\version  #
#                          3.0 for test\Projects\zstack\AT commands\AT        #
#                          command 3.2 -Body Sensor\Source\hal\hal_drivers.c" #
#                           -D ZIGBEEPRO -D NWK_AUTO_POLL -D HAL_UART=TRUE    #
#                          -D HOLD_AUTO_START -D NV_RESTORE -D REFLECTOR -D   #
#                          HAL_UART_ISR=1 -D HAL_UART_DMA=0 -D                #
#                          xHAL_UART_ISR_TX_MAX=200 -D xPOWER_SAVING -D       #
#                          ZCL_READ -D ZCL_WRITE -D ZCL_IDENTIFY -D           #
#                          ZCL_ON_OFF -D ZCL_DISCOVER -D xZTOOL_P1 -D         #
#                          xMT_TASK -D xMT_SYS_FUNC -D xMT_ZDO_FUNC -D        #
#                          xLCD_SUPPORTED=DEBUG -D xMT_UART_DEFAULT_OVERFLOW= #
#                          FALSE -lC "S:\zigbee\Myzigbe\version 3.0 for       #
#                          test\Projects\zstack\AT commands\AT command 3.2    #
#                          -Body Sensor\CC2530DB\EndDeviceEB\List\" -lA       #
#                          "S:\zigbee\Myzigbe\version 3.0 for                 #
#                          test\Projects\zstack\AT commands\AT command 3.2    #
#                          -Body Sensor\CC2530DB\EndDeviceEB\List\"           #
#                          --diag_suppress Pe001,Pa010 -o                     #
#                          "S:\zigbee\Myzigbe\version 3.0 for                 #
#                          test\Projects\zstack\AT commands\AT command 3.2    #
#                          -Body Sensor\CC2530DB\EndDeviceEB\Obj\" -e         #
#                          --no_code_motion --debug --core=plain --dptr=16,1  #
#                          --data_model=large --code_model=banked             #
#                          --calling_convention=xdata_reentrant               #
#                          --place_constants=data_rom --nr_virtual_regs 16    #
#                          -I "S:\zigbee\Myzigbe\version 3.0 for              #
#                          test\Projects\zstack\AT commands\AT command 3.2    #
#                          -Body Sensor\CC2530DB\" -I                         #
#                          "S:\zigbee\Myzigbe\version 3.0 for                 #
#                          test\Projects\zstack\AT commands\AT command 3.2    #
#                          -Body Sensor\CC2530DB\..\Source\" -I               #
#                          "S:\zigbee\Myzigbe\version 3.0 for                 #
#                          test\Projects\zstack\AT commands\AT command 3.2    #
#                          -Body Sensor\CC2530DB\..\Source\hal\" -I           #
#                          "S:\zigbee\Myzigbe\version 3.0 for                 #
#                          test\Projects\zstack\AT commands\AT command 3.2    #
#                          -Body Sensor\CC2530DB\..\Source\Modified\" -I      #
#                          "S:\zigbee\Myzigbe\version 3.0 for                 #
#                          test\Projects\zstack\AT commands\AT command 3.2    #
#                          -Body Sensor\CC2530DB\..\..\..\ZMain\TI2530DB\"    #
#                          -I "S:\zigbee\Myzigbe\version 3.0 for              #
#                          test\Projects\zstack\AT commands\AT command 3.2    #
#                          -Body Sensor\CC2530DB\..\..\..\..\..\Components\ha #
#                          l\include\" -I "S:\zigbee\Myzigbe\version 3.0 for  #
#                          test\Projects\zstack\AT commands\AT command 3.2    #
#                          -Body Sensor\CC2530DB\..\..\..\..\..\Components\ha #
#                          l\target\CC2530EB\" -I "S:\zigbee\Myzigbe\version  #
#                          3.0 for test\Projects\zstack\AT commands\AT        #
#                          command 3.2 -Body Sensor\CC2530DB\..\..\..\..\..\C #
#                          omponents\mac\include\" -I                         #
#                          "S:\zigbee\Myzigbe\version 3.0 for                 #
#                          test\Projects\zstack\AT commands\AT command 3.2    #
#                          -Body Sensor\CC2530DB\..\..\..\..\..\Components\ma #
#                          c\high_level\" -I "S:\zigbee\Myzigbe\version 3.0   #
#                          for test\Projects\zstack\AT commands\AT command    #
#                          3.2 -Body Sensor\CC2530DB\..\..\..\..\..\Component #
#                          s\mac\low_level\srf04\" -I                         #
#                          "S:\zigbee\Myzigbe\version 3.0 for                 #
#                          test\Projects\zstack\AT commands\AT command 3.2    #
#                          -Body Sensor\CC2530DB\..\..\..\..\..\Components\ma #
#                          c\low_level\srf04\single_chip\" -I                 #
#                          "S:\zigbee\Myzigbe\version 3.0 for                 #
#                          test\Projects\zstack\AT commands\AT command 3.2    #
#                          -Body Sensor\CC2530DB\..\..\..\..\..\Components\mt #
#                          \" -I "S:\zigbee\Myzigbe\version 3.0 for           #
#                          test\Projects\zstack\AT commands\AT command 3.2    #
#                          -Body Sensor\CC2530DB\..\..\..\..\..\Components\os #
#                          al\include\" -I "S:\zigbee\Myzigbe\version 3.0     #
#                          for test\Projects\zstack\AT commands\AT command    #
#                          3.2 -Body Sensor\CC2530DB\..\..\..\..\..\Component #
#                          s\services\saddr\" -I "S:\zigbee\Myzigbe\version   #
#                          3.0 for test\Projects\zstack\AT commands\AT        #
#                          command 3.2 -Body Sensor\CC2530DB\..\..\..\..\..\C #
#                          omponents\services\sdata\" -I                      #
#                          "S:\zigbee\Myzigbe\version 3.0 for                 #
#                          test\Projects\zstack\AT commands\AT command 3.2    #
#                          -Body Sensor\CC2530DB\..\..\..\..\..\Components\st #
#                          ack\af\" -I "S:\zigbee\Myzigbe\version 3.0 for     #
#                          test\Projects\zstack\AT commands\AT command 3.2    #
#                          -Body Sensor\CC2530DB\..\..\..\..\..\Components\st #
#                          ack\nwk\" -I "S:\zigbee\Myzigbe\version 3.0 for    #
#                          test\Projects\zstack\AT commands\AT command 3.2    #
#                          -Body Sensor\CC2530DB\..\..\..\..\..\Components\st #
#                          ack\sapi\" -I "S:\zigbee\Myzigbe\version 3.0 for   #
#                          test\Projects\zstack\AT commands\AT command 3.2    #
#                          -Body Sensor\CC2530DB\..\..\..\..\..\Components\st #
#                          ack\sec\" -I "S:\zigbee\Myzigbe\version 3.0 for    #
#                          test\Projects\zstack\AT commands\AT command 3.2    #
#                          -Body Sensor\CC2530DB\..\..\..\..\..\Components\st #
#                          ack\sys\" -I "S:\zigbee\Myzigbe\version 3.0 for    #
#                          test\Projects\zstack\AT commands\AT command 3.2    #
#                          -Body Sensor\CC2530DB\..\..\..\..\..\Components\st #
#                          ack\zdo\" -I "S:\zigbee\Myzigbe\version 3.0 for    #
#                          test\Projects\zstack\AT commands\AT command 3.2    #
#                          -Body Sensor\CC2530DB\..\..\..\..\..\Components\st #
#                          ack\zcl\" -I "S:\zigbee\Myzigbe\version 3.0 for    #
#                          test\Projects\zstack\AT commands\AT command 3.2    #
#                          -Body Sensor\CC2530DB\..\..\..\..\..\Components\zm #
#                          ac\" -I "S:\zigbee\Myzigbe\version 3.0 for         #
#                          test\Projects\zstack\AT commands\AT command 3.2    #
#                          -Body Sensor\CC2530DB\..\..\..\..\..\Components\zm #
#                          ac\f8w\" -Ohz --require_prototypes                 #
#    List file          =  S:\zigbee\Myzigbe\version 3.0 for                  #
#                          test\Projects\zstack\AT commands\AT command 3.2    #
#                          -Body Sensor\CC2530DB\EndDeviceEB\List\hal_drivers #
#                          .lst                                               #
#    Object file        =  S:\zigbee\Myzigbe\version 3.0 for                  #
#                          test\Projects\zstack\AT commands\AT command 3.2    #
#                          -Body Sensor\CC2530DB\EndDeviceEB\Obj\hal_drivers. #
#                          r51                                                #
#                                                                             #
#                                                                             #
###############################################################################

S:\zigbee\Myzigbe\version 3.0 for test\Projects\zstack\AT commands\AT command 3.2 -Body Sensor\Source\hal\hal_drivers.c
      1          /**************************************************************************************************
      2            Filename:       hal_drivers.c
      3            Revised:        $Date: 2007-07-06 10:42:24 -0700 (Fri, 06 Jul 2007) $
      4            Revision:       $Revision: 13579 $
      5          
      6            Description:    This file contains the interface to the Drivers Service.
      7          
      8          
      9            Copyright 2005-2010 Texas Instruments Incorporated. All rights reserved.
     10          
     11            IMPORTANT: Your use of this Software is limited to those specific rights
     12            granted under the terms of a software license agreement between the user
     13            who downloaded the software, his/her employer (which must be your employer)
     14            and Texas Instruments Incorporated (the "License").  You may not use this
     15            Software unless you agree to abide by the terms of the License. The License
     16            limits your use, and you acknowledge, that the Software may not be modified,
     17            copied or distributed unless embedded on a Texas Instruments microcontroller
     18            or used solely and exclusively in conjunction with a Texas Instruments radio
     19            frequency transceiver, which is integrated into your product.  Other than for
     20            the foregoing purpose, you may not use, reproduce, copy, prepare derivative
     21            works of, modify, distribute, perform, display or sell this Software and/or
     22            its documentation for any purpose.
     23          
     24            YOU FURTHER ACKNOWLEDGE AND AGREE THAT THE SOFTWARE AND DOCUMENTATION ARE
     25            PROVIDED “AS IS?WITHOUT WARRANTY OF ANY KIND, EITHER EXPRESS OR IMPLIED,
     26            INCLUDING WITHOUT LIMITATION, ANY WARRANTY OF MERCHANTABILITY, TITLE,
     27            NON-INFRINGEMENT AND FITNESS FOR A PARTICULAR PURPOSE. IN NO EVENT SHALL
     28            TEXAS INSTRUMENTS OR ITS LICENSORS BE LIABLE OR OBLIGATED UNDER CONTRACT,
     29            NEGLIGENCE, STRICT LIABILITY, CONTRIBUTION, BREACH OF WARRANTY, OR OTHER
     30            LEGAL EQUITABLE THEORY ANY DIRECT OR INDIRECT DAMAGES OR EXPENSES
     31            INCLUDING BUT NOT LIMITED TO ANY INCIDENTAL, SPECIAL, INDIRECT, PUNITIVE
     32            OR CONSEQUENTIAL DAMAGES, LOST PROFITS OR LOST DATA, COST OF PROCUREMENT
     33            OF SUBSTITUTE GOODS, TECHNOLOGY, SERVICES, OR ANY CLAIMS BY THIRD PARTIES
     34            (INCLUDING BUT NOT LIMITED TO ANY DEFENSE THEREOF), OR OTHER SIMILAR COSTS.
     35          
     36            Should you have any questions regarding your right to use this Software,
     37            contact Texas Instruments Incorporated at www.TI.com.
     38          **************************************************************************************************/
     39          
     40          
     41          /**************************************************************************************************
     42           *                                            INCLUDES
     43           **************************************************************************************************/
     44          #include "hal_types.h"
     45          #include "OSAL.h"
     46          #include "hal_drivers.h"
     47          #include "hal_adc.h"

   \                                 In  segment SFR_AN, at 0x8c
   \   unsigned char volatile __sfr PICTL
   \                     PICTL:
   \   000000                DS 1

   \                                 In  segment SFR_AN, at 0xa0
   \   union <unnamed> volatile __sfr _A_P2
   \                     _A_P2:
   \   000000                DS 1
     48          #if (defined HAL_DMA) && (HAL_DMA == TRUE)
     49            #include "hal_dma.h"
     50          #endif
     51          #include "hal_key.h"
     52          #include "hal_lcd.h"
     53          #include "hal_led.h"
     54          #include "hal_timer.h"
     55          #include "hal_uart.h"
     56          #include "hal_sleep.h"
     57          #if (defined HAL_AES) && (HAL_AES == TRUE)
     58            #include "hal_aes.h"
     59          #endif
     60          
     61          #if (defined HAL_SPI) && (HAL_SPI == TRUE)
     62            #include "hal_spi.h"
     63          #endif
     64          #if (defined HAL_HID) && (HAL_HID == TRUE)
     65            #include "usb_hid.h"
     66          #endif
     67          
     68          #ifdef CC2591_COMPRESSION_WORKAROUND
     69            #include "mac_rx.h"
     70          #endif
     71          
     72          /**************************************************************************************************
     73           *                                            MACROS
     74           **************************************************************************************************/
     75          
     76          
     77          
     78          /**************************************************************************************************
     79           *                                          CONSTANTS
     80           **************************************************************************************************/
     81          
     82          
     83          /**************************************************************************************************
     84           *                                          TYPEDEFS
     85           **************************************************************************************************/
     86          
     87          
     88          /**************************************************************************************************
     89           *                                      GLOBAL VARIABLES
     90           **************************************************************************************************/

   \                                 In  segment XDATA_Z, align 1, keep-with-next
     91          uint8 Hal_TaskID;
   \                     Hal_TaskID:
   \   000000                DS 1
   \   000001                REQUIRE __INIT_XDATA_Z
     92          
     93          extern void HalLedUpdate( void ); /* Notes: This for internal only so it shouldn't be in hal_led.h */
     94          
     95          /**************************************************************************************************
     96           *                                      FUNCTIONS - API
     97           **************************************************************************************************/
     98          static void processHalKeyTimeEvt(void);
     99          /**************************************************************************************************
    100           * @fn      Hal_Init
    101           *
    102           * @brief   Hal Initialization function.
    103           *
    104           * @param   task_id - Hal TaskId
    105           *
    106           * @return  None
    107           **************************************************************************************************/

   \                                 In  segment BANKED_CODE, align 1, keep-with-next
    108          void Hal_Init( uint8 task_id )
   \                     Hal_Init:
    109          {
   \   000000   C082         PUSH    DPL
   \   000002   C083         PUSH    DPH
   \   000004                ; Saved register size: 2
   \   000004                ; Auto size: 0
    110            /* Register task ID */
    111            Hal_TaskID = task_id;
   \   000004   E9           MOV     A,R1
   \   000005   90....       MOV     DPTR,#Hal_TaskID
   \   000008   F0           MOVX    @DPTR,A
    112            
    113          #ifdef CC2591_COMPRESSION_WORKAROUND  
    114            osal_start_reload_timer( Hal_TaskID, PERIOD_RSSI_RESET_EVT, PERIOD_RSSI_RESET_TIMEOUT );
    115          #endif  
    116          }
   \   000009                REQUIRE ?Subroutine0
   \   000009                ; // Fall through to label ?Subroutine0

   \                                 In  segment BANKED_CODE, align 1, keep-with-next
   \                     ?Subroutine0:
   \   000000   D083         POP     DPH
   \   000002   D082         POP     DPL
   \   000004   02....       LJMP    ?BRET
    117          
    118          /**************************************************************************************************
    119           * @fn      Hal_DriverInit
    120           *
    121           * @brief   Initialize HW - These need to be initialized before anyone.
    122           *
    123           * @param   task_id - Hal TaskId
    124           *
    125           * @return  None
    126           **************************************************************************************************/

   \                                 In  segment BANKED_CODE, align 1, keep-with-next
    127          void HalDriverInit (void)
   \                     HalDriverInit:
    128          {
   \   000000   C082         PUSH    DPL
   \   000002   C083         PUSH    DPH
   \   000004                ; Saved register size: 2
   \   000004                ; Auto size: 0
    129            /* TIMER */
    130          #if (defined HAL_TIMER) && (HAL_TIMER == TRUE)
    131            #error "The hal timer driver module is removed."
    132          #endif
    133          
    134            /* ADC */
    135          #if (defined HAL_ADC) && (HAL_ADC == TRUE)
    136            HalAdcInit();
   \   000004                ; Setup parameters for call to function HalAdcInit
   \   000004   12....       LCALL   ??HalAdcInit?relay
    137          #endif
    138          
    139            /* DMA */
    140          #if (defined HAL_DMA) && (HAL_DMA == TRUE)
    141            // Must be called before the init call to any module that uses DMA.
    142            HalDmaInit();
   \   000007                ; Setup parameters for call to function HalDmaInit
   \   000007   12....       LCALL   ??HalDmaInit?relay
    143          #endif
    144          
    145            /* AES */
    146          #if (defined HAL_AES) && (HAL_AES == TRUE)
    147            HalAesInit();
   \   00000A                ; Setup parameters for call to function HalAesInit
   \   00000A   12....       LCALL   ??HalAesInit?relay
    148          #endif
    149          
    150            /* LCD */
    151          #if (defined HAL_LCD) && (HAL_LCD == TRUE)
    152            HalLcdInit();
    153          #endif
    154          
    155            /* LED */
    156          #if (defined HAL_LED) && (HAL_LED == TRUE)
    157            HalLedInit();
   \   00000D                ; Setup parameters for call to function HalLedInit
   \   00000D   12....       LCALL   ??HalLedInit?relay
    158          #endif
    159          
    160            /* UART */
    161          #if (defined HAL_UART) && (HAL_UART == TRUE)
    162            HalUARTInit();
   \   000010                ; Setup parameters for call to function HalUARTInit
   \   000010   12....       LCALL   ??HalUARTInit?relay
    163          #endif
    164          
    165            /* KEY */
    166          #if (defined HAL_KEY) && (HAL_KEY == TRUE)
    167            HalKeyInit();
   \   000013                ; Setup parameters for call to function HalKeyInit
   \   000013   12....       LCALL   ??HalKeyInit?relay
    168          #endif
    169          
    170            /* SPI */
    171          #if (defined HAL_SPI) && (HAL_SPI == TRUE)
    172            HalSpiInit();
    173          #endif
    174          
    175            /* HID */
    176          #if (defined HAL_HID) && (HAL_HID == TRUE)
    177            usbHidInit();
    178          #endif
    179          }
   \   000016   80..         SJMP    ?Subroutine0
    180          
    181          
    182          /**************************************************************************************************
    183           * @fn      Hal_ProcessEvent
    184           *
    185           * @brief   Hal Process Event
    186           *
    187           * @param   task_id - Hal TaskId
    188           *          events - events
    189           *
    190           * @return  None
    191           **************************************************************************************************/

   \                                 In  segment BANKED_CODE, align 1, keep-with-next
    192          uint16 Hal_ProcessEvent( uint8 task_id, uint16 events )
   \                     Hal_ProcessEvent:
    193          {
   \   000000   74F4         MOV     A,#-0xc
   \   000002   12....       LCALL   ?BANKED_ENTER_XDATA
   \   000005                ; Saved register size: 12
   \   000005                ; Auto size: 0
   \   000005   EA           MOV     A,R2
   \   000006   FE           MOV     R6,A
   \   000007   EB           MOV     A,R3
   \   000008   FF           MOV     R7,A
    194            uint8 *msgPtr;
    195            
    196            (void)task_id;  // Intentionally unreferenced parameter
    197          
    198            if ( events & SYS_EVENT_MSG )
   \   000009   5480         ANL     A,#0x80
   \   00000B   601A         JZ      ??Hal_ProcessEvent_0
    199            {
    200              msgPtr = osal_msg_receive(Hal_TaskID);
   \   00000D                ; Setup parameters for call to function osal_msg_receive
   \   00000D   8003         SJMP    ??Hal_ProcessEvent_1
    201          
    202              while (msgPtr)
    203              {
    204                /* Do something here - for now, just deallocate the msg and move on */
    205          
    206                /* De-allocate */
    207                osal_msg_deallocate( msgPtr );
   \                     ??Hal_ProcessEvent_2:
   \   00000F                ; Setup parameters for call to function osal_msg_deallocate
   \   00000F   12....       LCALL   ??osal_msg_deallocate?relay
    208                /* Next */
    209                msgPtr = osal_msg_receive( Hal_TaskID );
   \   000012                ; Setup parameters for call to function osal_msg_receive
   \                     ??Hal_ProcessEvent_1:
   \   000012   90....       MOV     DPTR,#Hal_TaskID
   \   000015   E0           MOVX    A,@DPTR
   \   000016   F9           MOV     R1,A
   \   000017   12....       LCALL   ??osal_msg_receive?relay
    210              }
   \   00001A   EA           MOV     A,R2
   \   00001B   4B           ORL     A,R3
   \   00001C   70F1         JNZ     ??Hal_ProcessEvent_2
    211              return events ^ SYS_EVENT_MSG;
   \   00001E   EE           MOV     A,R6
   \   00001F   FA           MOV     R2,A
   \   000020   EF           MOV     A,R7
   \   000021   6480         XRL     A,#0x80
   \                     ??Hal_ProcessEvent_3:
   \   000023   FB           MOV     R3,A
   \   000024   02....       LJMP    ??Hal_ProcessEvent_4 & 0xFFFF
    212            }
    213          
    214            if ( events & HAL_LED_BLINK_EVENT )
   \                     ??Hal_ProcessEvent_0:
   \   000027   EE           MOV     A,R6
   \   000028   5402         ANL     A,#0x2
   \   00002A   600A         JZ      ??Hal_ProcessEvent_5
    215            {
    216          #if (defined (BLINK_LEDS)) && (HAL_LED == TRUE)
    217              HalLedUpdate();
   \   00002C                ; Setup parameters for call to function HalLedUpdate
   \   00002C   12....       LCALL   ??HalLedUpdate?relay
    218          #endif /* BLINK_LEDS && HAL_LED */
    219              return events ^ HAL_LED_BLINK_EVENT;
   \   00002F   EE           MOV     A,R6
   \   000030   6402         XRL     A,#0x2
   \                     ??Hal_ProcessEvent_6:
   \   000032   FA           MOV     R2,A
   \   000033   EF           MOV     A,R7
   \   000034   80ED         SJMP    ??Hal_ProcessEvent_3
    220            }
    221          
    222            if (events & HAL_KEY_EVENT)
   \                     ??Hal_ProcessEvent_5:
   \   000036   EE           MOV     A,R6
   \   000037   A2E0         MOV     C,0xE0 /* A   */.0
   \   000039   501E         JNC     ??Hal_ProcessEvent_7
    223            {
    224          
    225          #if (defined HAL_KEY) && (HAL_KEY == TRUE)
    226              /* Check for keys */
    227              HalKeyPoll();
   \   00003B                ; Setup parameters for call to function HalKeyPoll
   \   00003B   12....       LCALL   ??HalKeyPoll?relay
    228          
    229              /* if interrupt disabled, do next polling */
    230              if (!Hal_KeyIntEnable)
   \   00003E   90....       MOV     DPTR,#Hal_KeyIntEnable
   \   000041   E0           MOVX    A,@DPTR
   \   000042   7010         JNZ     ??Hal_ProcessEvent_8
    231              {
    232                osal_start_timerEx( Hal_TaskID, HAL_KEY_EVENT, 100);
   \   000044                ; Setup parameters for call to function osal_start_timerEx
   \   000044   7C64         MOV     R4,#0x64
   \   000046   7D00         MOV     R5,#0x0
   \   000048   7A01         MOV     R2,#0x1
   \   00004A   7B00         MOV     R3,#0x0
   \   00004C   90....       MOV     DPTR,#Hal_TaskID
   \   00004F   E0           MOVX    A,@DPTR
   \   000050   F9           MOV     R1,A
   \   000051   12....       LCALL   ??osal_start_timerEx?relay
    233              }
    234          #endif // HAL_KEY
    235          
    236              return events ^ HAL_KEY_EVENT;
   \                     ??Hal_ProcessEvent_8:
   \   000054   EE           MOV     A,R6
   \   000055   6401         XRL     A,#0x1
   \   000057   80D9         SJMP    ??Hal_ProcessEvent_6
    237            }
    238          
    239          #ifdef POWER_SAVING
    240            if ( events & HAL_SLEEP_TIMER_EVENT )
    241            {
    242              halRestoreSleepLevel();
    243              return events ^ HAL_SLEEP_TIMER_EVENT;
    244            }
    245          #endif
    246          
    247          #ifdef CC2591_COMPRESSION_WORKAROUND
    248            if ( events & PERIOD_RSSI_RESET_EVT )
    249            {
    250              macRxResetRssi();
    251              return (events ^ PERIOD_RSSI_RESET_EVT);
    252            }
    253          #endif 
    254            //ninglvfeihong modified 
    255              if ( events & HAL_KEY_TIME_EVT )
   \                     ??Hal_ProcessEvent_7:
   \   000059   5410         ANL     A,#0x10
   \   00005B   6067         JZ      ??Hal_ProcessEvent_9
    256            {
    257              processHalKeyTimeEvt();
   \   00005D   A2A0         MOV     C,0xa0.0
   \   00005F   405D         JC      ??Hal_ProcessEvent_10
   \   000061                ; Setup parameters for call to function osal_GetSystemClock
   \   000061   12....       LCALL   ??osal_GetSystemClock?relay
   \   000064   8A..         MOV     ?V0 + 0,R2
   \   000066   8B..         MOV     ?V0 + 1,R3
   \   000068   8C..         MOV     ?V0 + 2,R4
   \   00006A   8D..         MOV     ?V0 + 3,R5
   \   00006C   90....       MOV     DPTR,#hal_key_pre_faliing_time
   \   00006F   78..         MOV     R0,#?V0 + 0
   \   000071   12....       LCALL   ?L_SUB_X
   \   000074   90....       MOV     DPTR,#__Constant_3a98
   \   000077   78..         MOV     R0,#?V0 + 0
   \   000079   12....       LCALL   ?UL_GE_X
   \   00007C   4040         JC      ??Hal_ProcessEvent_10
   \   00007E   90....       MOV     DPTR,#__Constant_2710
   \   000081   78..         MOV     R0,#?V0 + 0
   \   000083   12....       LCALL   ?UL_GE_X
   \   000086   501F         JNC     ??Hal_ProcessEvent_11
   \   000088                ; Setup parameters for call to function HalLedBlink
   \   000088   7C58         MOV     R4,#0x58
   \   00008A   7D02         MOV     R5,#0x2
   \   00008C   7B32         MOV     R3,#0x32
   \   00008E   7A0A         MOV     R2,#0xa
   \                     ??Hal_ProcessEvent_12:
   \   000090   7902         MOV     R1,#0x2
   \   000092   12....       LCALL   ??HalLedBlink?relay
   \   000095                ; Setup parameters for call to function osal_start_timerEx
   \   000095   7C88         MOV     R4,#-0x78
   \   000097   7D13         MOV     R5,#0x13
   \   000099   7A10         MOV     R2,#0x10
   \   00009B   7B00         MOV     R3,#0x0
   \   00009D   90....       MOV     DPTR,#Hal_TaskID
   \   0000A0   E0           MOVX    A,@DPTR
   \   0000A1   F9           MOV     R1,A
   \   0000A2   12....       LCALL   ??osal_start_timerEx?relay
   \   0000A5   8017         SJMP    ??Hal_ProcessEvent_10
   \                     ??Hal_ProcessEvent_11:
   \   0000A7   90....       MOV     DPTR,#__Constant_1388
   \   0000AA   78..         MOV     R0,#?V0 + 0
   \   0000AC   12....       LCALL   ?UL_GE_X
   \   0000AF   500A         JNC     ??Hal_ProcessEvent_13
   \   0000B1                ; Setup parameters for call to function HalLedBlink
   \   0000B1   7C96         MOV     R4,#-0x6a
   \   0000B3   7D00         MOV     R5,#0x0
   \   0000B5   7B32         MOV     R3,#0x32
   \   0000B7   7A23         MOV     R2,#0x23
   \   0000B9   80D5         SJMP    ??Hal_ProcessEvent_12
   \                     ??Hal_ProcessEvent_13:
   \   0000BB   438C08       ORL     0x8c,#0x8
    258              return (events ^ HAL_KEY_TIME_EVT);
   \                     ??Hal_ProcessEvent_10:
   \   0000BE   EE           MOV     A,R6
   \   0000BF   6410         XRL     A,#0x10
   \   0000C1   02....       LJMP    ??Hal_ProcessEvent_6 & 0xFFFF
    259            }
    260            /* Nothing interested, discard the message */
    261            return 0;
   \                     ??Hal_ProcessEvent_9:
   \   0000C4   7A00         MOV     R2,#0x0
   \   0000C6   7B00         MOV     R3,#0x0
   \                     ??Hal_ProcessEvent_4:
   \   0000C8   7F04         MOV     R7,#0x4
   \   0000CA   02....       LJMP    ?BANKED_LEAVE_XDATA
   \   0000CD                REQUIRE _A_P2
   \   0000CD                REQUIRE PICTL
    262          
    263          }
    264          static void processHalKeyTimeEvt(void ){
    265            if(! PUSH1_SBIT){//ensure the key pin is pressed (low)
    266              uint32 interval = osal_GetSystemClock()-hal_key_pre_faliing_time;
    267              if(interval >14999){
    268                
    269              }else if(interval >9999){//stage 2
    270                HalLedBlink( HAL_LED_2, 10, 50, 600 ); //slow flashing
    271                osal_start_timerEx( Hal_TaskID, HAL_KEY_TIME_EVT, 5000);
    272              }else if(interval >4999){//stage 1
    273                HalLedBlink( HAL_LED_2, 35, 50, 150 ); //fast flashing
    274                osal_start_timerEx( Hal_TaskID, HAL_KEY_TIME_EVT, 5000);
    275              }else{
    276                //ERROR
    277                PICTL |= (0x01<<3);  //set to falling edge to wait next press //for robust
    278              }
    279            }
    280          }
    281          /**************************************************************************************************
    282           * @fn      Hal_ProcessPoll
    283           *
    284           * @brief   This routine will be called by OSAL to poll UART, TIMER...
    285           *
    286           * @param   task_id - Hal TaskId
    287           *
    288           * @return  None
    289           **************************************************************************************************/

   \                                 In  segment BANKED_CODE, align 1, keep-with-next
    290          void Hal_ProcessPoll ()
   \                     Hal_ProcessPoll:
    291          {
   \   000000   C082         PUSH    DPL
   \   000002   C083         PUSH    DPH
   \   000004                ; Saved register size: 2
   \   000004                ; Auto size: 0
    292          
    293            /* Timer Poll */
    294          #if (defined HAL_TIMER) && (HAL_TIMER == TRUE)
    295            #error "The hal timer driver module is removed."
    296          #endif
    297          
    298            /* UART Poll */
    299          #if (defined HAL_UART) && (HAL_UART == TRUE)
    300            HalUARTPoll();
   \   000004                ; Setup parameters for call to function HalUARTPoll
   \   000004   12....       LCALL   ??HalUARTPoll?relay
    301          #endif  
    302          
    303            /* SPI Poll */
    304          #if (defined HAL_SPI) && (HAL_SPI == TRUE)
    305            HalSpiPoll();
    306          #endif
    307          
    308            /* HID poll */
    309          #if (defined HAL_HID) && (HAL_HID == TRUE)
    310            usbHidProcessEvents();
    311          #endif
    312            
    313          #if defined( POWER_SAVING )
    314            /* Allow sleep before the next OSAL event loop */
    315            ALLOW_SLEEP_MODE();
    316          #endif
    317          
    318          }
   \   000007   02....       LJMP    ?Subroutine0 & 0xFFFF

   \                                 In  segment XDATA_ROM_C, align 1
   \                     __Constant_3a98:
   \   000000   983A0000     DD 15000

   \                                 In  segment XDATA_ROM_C, align 1
   \                     __Constant_2710:
   \   000000   10270000     DD 10000

   \                                 In  segment XDATA_ROM_C, align 1
   \                     __Constant_1388:
   \   000000   88130000     DD 5000

   \                                 In  segment BANK_RELAYS, align 1
   \                     ??Hal_Init?relay:
   \   000000   12....       LCALL   ?BDISPATCH
   \   000003   ......       DC24    Hal_Init

   \                                 In  segment BANK_RELAYS, align 1
   \                     ??HalDriverInit?relay:
   \   000000   12....       LCALL   ?BDISPATCH
   \   000003   ......       DC24    HalDriverInit

   \                                 In  segment BANK_RELAYS, align 1
   \                     ??Hal_ProcessEvent?relay:
   \   000000   12....       LCALL   ?BDISPATCH
   \   000003   ......       DC24    Hal_ProcessEvent

   \                                 In  segment BANK_RELAYS, align 1
   \                     ??Hal_ProcessPoll?relay:
   \   000000   12....       LCALL   ?BDISPATCH
   \   000003   ......       DC24    Hal_ProcessPoll
    319          
    320          
    321          /**************************************************************************************************
    322          **************************************************************************************************/
    323          

   Maximum stack usage in bytes:

     Function                 ISTACK PSTACK XSTACK
     --------                 ------ ------ ------
     HalDriverInit                2      0      0
       -> HalAdcInit              4      0      0
       -> HalDmaInit              4      0      0
       -> HalAesInit              4      0      0
       -> HalLedInit              4      0      0
       -> HalUARTInit             4      0      0
       -> HalKeyInit              4      0      0
     Hal_Init                     2      0      0
     Hal_ProcessEvent             0      0     12
       -> osal_msg_receive        0      0     24
       -> osal_msg_deallocate     0      0     24
       -> osal_msg_receive        0      0     24
       -> HalLedUpdate            0      0     24
       -> HalKeyPoll              0      0     24
       -> osal_start_timerEx      0      0     24
       -> osal_GetSystemClock     0      0     24
       -> HalLedBlink             0      0     24
       -> osal_start_timerEx      0      0     24
       -> HalLedBlink             0      0     24
       -> osal_start_timerEx      0      0     24
     Hal_ProcessPoll              2      0      0
       -> HalUARTPoll             4      0      0


   Segment part sizes:

     Function/Label           Bytes
     --------------           -----
     PICTL                       1
     _A_P2                       1
     Hal_TaskID                  1
     Hal_Init                    9
     ?Subroutine0                7
     HalDriverInit              24
     Hal_ProcessEvent          205
     Hal_ProcessPoll            10
     __Constant_3a98             4
     __Constant_2710             4
     __Constant_1388             4
     ??Hal_Init?relay            6
     ??HalDriverInit?relay       6
     ??Hal_ProcessEvent?relay    6
     ??Hal_ProcessPoll?relay     6

 
 255 bytes in segment BANKED_CODE
  24 bytes in segment BANK_RELAYS
   2 bytes in segment SFR_AN
  12 bytes in segment XDATA_ROM_C
   1 byte  in segment XDATA_Z
 
 279 bytes of CODE  memory
   0 bytes of CONST memory (+ 12 bytes shared)
   0 bytes of DATA  memory (+  2 bytes shared)
   1 byte  of XDATA memory

Errors: none
Warnings: none
