///////////////////////////////////////////////////////////////////////////////
//                                                                            /
// IAR C/C++ Compiler V8.10.3.10338/W32 for 8051        26/Aug/2015  19:21:13 /
// Copyright 2004-2011 IAR Systems AB.                                        /
//                                                                            /
//    Core               =  plain                                             /
//    Code model         =  banked                                            /
//    Data model         =  large                                             /
//    Calling convention =  xdata reentrant                                   /
//    Constant location  =  data_rom                                          /
//    Dptr setup         =  1,16                                              /
//    Source file        =  S:\zigbee\Myzigbe\version 3.0 for                 /
//                          test\Components\stack\zcl\zcl_hvac.c              /
//    Command line       =  -f "S:\zigbee\Myzigbe\version 3.0 for             /
//                          test\Projects\zstack\AT commands\AT command 3.2   /
//                          -Body Sensor\CC2530DB\..\..\..\Tools\CC2530DB\f8w /
//                          Endev.cfg" (-DCPU32MHZ -DROOT=__near_func         /
//                          -DMAC_CFG_TX_DATA_MAX=3 -DMAC_CFG_TX_MAX=6        /
//                          -DMAC_CFG_RX_MAX=3) -f "S:\zigbee\Myzigbe\version /
//                           3.0 for test\Projects\zstack\AT commands\AT      /
//                          command 3.2 -Body Sensor\CC2530DB\..\..\..\Tools\ /
//                          CC2530DB\f8wConfig.cfg" (-DZIGBEEPRO -DSECURE=0   /
//                          -DZG_SECURE_DYNAMIC=0 -DREFLECTOR                 /
//                          -DDEFAULT_CHANLIST=0x00000800                     /
//                          -DZDAPP_CONFIG_PAN_ID=0xFFFF                      /
//                          -DNWK_START_DELAY=100 -DEXTENDED_JOINING_RANDOM_M /
//                          ASK=0x007F -DBEACON_REQUEST_DELAY=100             /
//                          -DBEACON_REQ_DELAY_MASK=0x00FF                    /
//                          -DLINK_STATUS_JITTER_MASK=0x007F                  /
//                          -DROUTE_EXPIRY_TIME=30 -DAPSC_ACK_WAIT_DURATION_P /
//                          OLLED=3000 -DNWK_INDIRECT_MSG_TIMEOUT=7           /
//                          -DMAX_RREQ_ENTRIES=8 -DAPSC_MAX_FRAME_RETRIES=3   /
//                          -DNWK_MAX_DATA_RETRIES=2                          /
//                          -DMAX_POLL_FAILURE_RETRIES=2 -DMAX_BCAST=9        /
//                          -DAPS_MAX_GROUPS=16 -DMAX_RTG_ENTRIES=40          /
//                          -DNWK_MAX_BINDING_ENTRIES=4                       /
//                          -DMAX_BINDING_CLUSTER_IDS=4                       /
//                          "-DDEFAULT_KEY={0x01, 0x03, 0x05, 0x07, 0x09,     /
//                          0x0B, 0x0D, 0x0F, 0x00, 0x02, 0x04, 0x06, 0x08,   /
//                          0x0A, 0x0C, 0x0D}" -DMAC_MAX_FRAME_SIZE=116       /
//                          -DZDNWKMGR_MIN_TRANSMISSIONS=20 "-DCONST=const    /
//                          __code" -DGENERIC=__generic                       /
//                          -DRFD_RCVC_ALWAYS_ON=FALSE -DPOLL_RATE=1000       /
//                          -DQUEUED_POLL_RATE=100 -DRESPONSE_POLL_RATE=100)  /
//                          -DREJOIN_POLL_RATE=440 "S:\zigbee\Myzigbe\version /
//                           3.0 for test\Components\stack\zcl\zcl_hvac.c"    /
//                          -D ZIGBEEPRO -D NWK_AUTO_POLL -D HAL_UART=TRUE    /
//                          -D HOLD_AUTO_START -D NV_RESTORE -D REFLECTOR -D  /
//                          HAL_UART_ISR=1 -D HAL_UART_DMA=0 -D               /
//                          xHAL_UART_ISR_TX_MAX=200 -D xPOWER_SAVING -D      /
//                          ZCL_READ -D ZCL_WRITE -D ZCL_IDENTIFY -D          /
//                          ZCL_ON_OFF -D ZCL_DISCOVER -D xZTOOL_P1 -D        /
//                          xMT_TASK -D xMT_SYS_FUNC -D xMT_ZDO_FUNC -D       /
//                          xLCD_SUPPORTED=DEBUG -D                           /
//                          xMT_UART_DEFAULT_OVERFLOW=FALSE -lC               /
//                          "S:\zigbee\Myzigbe\version 3.0 for                /
//                          test\Projects\zstack\AT commands\AT command 3.2   /
//                          -Body Sensor\CC2530DB\EndDeviceEB\List\" -lA      /
//                          "S:\zigbee\Myzigbe\version 3.0 for                /
//                          test\Projects\zstack\AT commands\AT command 3.2   /
//                          -Body Sensor\CC2530DB\EndDeviceEB\List\"          /
//                          --diag_suppress Pe001,Pa010 -o                    /
//                          "S:\zigbee\Myzigbe\version 3.0 for                /
//                          test\Projects\zstack\AT commands\AT command 3.2   /
//                          -Body Sensor\CC2530DB\EndDeviceEB\Obj\" -e        /
//                          --no_code_motion --debug --core=plain             /
//                          --dptr=16,1 --data_model=large                    /
//                          --code_model=banked --calling_convention=xdata_re /
//                          entrant --place_constants=data_rom                /
//                          --nr_virtual_regs 16 -I                           /
//                          "S:\zigbee\Myzigbe\version 3.0 for                /
//                          test\Projects\zstack\AT commands\AT command 3.2   /
//                          -Body Sensor\CC2530DB\" -I                        /
//                          "S:\zigbee\Myzigbe\version 3.0 for                /
//                          test\Projects\zstack\AT commands\AT command 3.2   /
//                          -Body Sensor\CC2530DB\..\Source\" -I              /
//                          "S:\zigbee\Myzigbe\version 3.0 for                /
//                          test\Projects\zstack\AT commands\AT command 3.2   /
//                          -Body Sensor\CC2530DB\..\Source\hal\" -I          /
//                          "S:\zigbee\Myzigbe\version 3.0 for                /
//                          test\Projects\zstack\AT commands\AT command 3.2   /
//                          -Body Sensor\CC2530DB\..\Source\Modified\" -I     /
//                          "S:\zigbee\Myzigbe\version 3.0 for                /
//                          test\Projects\zstack\AT commands\AT command 3.2   /
//                          -Body Sensor\CC2530DB\..\..\..\ZMain\TI2530DB\"   /
//                          -I "S:\zigbee\Myzigbe\version 3.0 for             /
//                          test\Projects\zstack\AT commands\AT command 3.2   /
//                          -Body Sensor\CC2530DB\..\..\..\..\..\Components\h /
//                          al\include\" -I "S:\zigbee\Myzigbe\version 3.0    /
//                          for test\Projects\zstack\AT commands\AT command   /
//                          3.2 -Body Sensor\CC2530DB\..\..\..\..\..\Componen /
//                          ts\hal\target\CC2530EB\" -I                       /
//                          "S:\zigbee\Myzigbe\version 3.0 for                /
//                          test\Projects\zstack\AT commands\AT command 3.2   /
//                          -Body Sensor\CC2530DB\..\..\..\..\..\Components\m /
//                          ac\include\" -I "S:\zigbee\Myzigbe\version 3.0    /
//                          for test\Projects\zstack\AT commands\AT command   /
//                          3.2 -Body Sensor\CC2530DB\..\..\..\..\..\Componen /
//                          ts\mac\high_level\" -I "S:\zigbee\Myzigbe\version /
//                           3.0 for test\Projects\zstack\AT commands\AT      /
//                          command 3.2 -Body Sensor\CC2530DB\..\..\..\..\..\ /
//                          Components\mac\low_level\srf04\" -I               /
//                          "S:\zigbee\Myzigbe\version 3.0 for                /
//                          test\Projects\zstack\AT commands\AT command 3.2   /
//                          -Body Sensor\CC2530DB\..\..\..\..\..\Components\m /
//                          ac\low_level\srf04\single_chip\" -I               /
//                          "S:\zigbee\Myzigbe\version 3.0 for                /
//                          test\Projects\zstack\AT commands\AT command 3.2   /
//                          -Body Sensor\CC2530DB\..\..\..\..\..\Components\m /
//                          t\" -I "S:\zigbee\Myzigbe\version 3.0 for         /
//                          test\Projects\zstack\AT commands\AT command 3.2   /
//                          -Body Sensor\CC2530DB\..\..\..\..\..\Components\o /
//                          sal\include\" -I "S:\zigbee\Myzigbe\version 3.0   /
//                          for test\Projects\zstack\AT commands\AT command   /
//                          3.2 -Body Sensor\CC2530DB\..\..\..\..\..\Componen /
//                          ts\services\saddr\" -I "S:\zigbee\Myzigbe\version /
//                           3.0 for test\Projects\zstack\AT commands\AT      /
//                          command 3.2 -Body Sensor\CC2530DB\..\..\..\..\..\ /
//                          Components\services\sdata\" -I                    /
//                          "S:\zigbee\Myzigbe\version 3.0 for                /
//                          test\Projects\zstack\AT commands\AT command 3.2   /
//                          -Body Sensor\CC2530DB\..\..\..\..\..\Components\s /
//                          tack\af\" -I "S:\zigbee\Myzigbe\version 3.0 for   /
//                          test\Projects\zstack\AT commands\AT command 3.2   /
//                          -Body Sensor\CC2530DB\..\..\..\..\..\Components\s /
//                          tack\nwk\" -I "S:\zigbee\Myzigbe\version 3.0 for  /
//                          test\Projects\zstack\AT commands\AT command 3.2   /
//                          -Body Sensor\CC2530DB\..\..\..\..\..\Components\s /
//                          tack\sapi\" -I "S:\zigbee\Myzigbe\version 3.0     /
//                          for test\Projects\zstack\AT commands\AT command   /
//                          3.2 -Body Sensor\CC2530DB\..\..\..\..\..\Componen /
//                          ts\stack\sec\" -I "S:\zigbee\Myzigbe\version 3.0  /
//                          for test\Projects\zstack\AT commands\AT command   /
//                          3.2 -Body Sensor\CC2530DB\..\..\..\..\..\Componen /
//                          ts\stack\sys\" -I "S:\zigbee\Myzigbe\version 3.0  /
//                          for test\Projects\zstack\AT commands\AT command   /
//                          3.2 -Body Sensor\CC2530DB\..\..\..\..\..\Componen /
//                          ts\stack\zdo\" -I "S:\zigbee\Myzigbe\version 3.0  /
//                          for test\Projects\zstack\AT commands\AT command   /
//                          3.2 -Body Sensor\CC2530DB\..\..\..\..\..\Componen /
//                          ts\stack\zcl\" -I "S:\zigbee\Myzigbe\version 3.0  /
//                          for test\Projects\zstack\AT commands\AT command   /
//                          3.2 -Body Sensor\CC2530DB\..\..\..\..\..\Componen /
//                          ts\zmac\" -I "S:\zigbee\Myzigbe\version 3.0 for   /
//                          test\Projects\zstack\AT commands\AT command 3.2   /
//                          -Body Sensor\CC2530DB\..\..\..\..\..\Components\z /
//                          mac\f8w\" -Ohz --require_prototypes               /
//    List file          =  S:\zigbee\Myzigbe\version 3.0 for                 /
//                          test\Projects\zstack\AT commands\AT command 3.2   /
//                          -Body Sensor\CC2530DB\EndDeviceEB\List\zcl_hvac.s /
//                          51                                                /
//                                                                            /
//                                                                            /
///////////////////////////////////////////////////////////////////////////////

        NAME zcl_hvac

        RTMODEL "__SystemLibrary", "CLib"
        RTMODEL "__calling_convention", "xdata_reentrant"
        RTMODEL "__code_model", "banked"
        RTMODEL "__core", "plain"
        RTMODEL "__data_model", "large"
        RTMODEL "__dptr_size", "16"
        RTMODEL "__extended_stack", "disabled"
        RTMODEL "__location_for_constants", "data"
        RTMODEL "__number_of_dptrs", "1"
        RTMODEL "__rt_version", "1"

        RSEG DOVERLAY:DATA:NOROOT(0)
        RSEG IOVERLAY:IDATA:NOROOT(0)
        RSEG ISTACK:IDATA:NOROOT(0)
        RSEG PSTACK:XDATA:NOROOT(0)
        RSEG XSTACK:XDATA:NOROOT(0)

        EXTERN ?ALLOC_XSTACK8
        EXTERN ?BANKED_ENTER_XDATA
        EXTERN ?BANKED_LEAVE_XDATA
        EXTERN ?BDISPATCH
        EXTERN ?BRET
        EXTERN ?CALL_IND
        EXTERN ?DEALLOC_XSTACK8
        EXTERN ?PUSH_XSTACK_I_ONE
        EXTERN ?PUSH_XSTACK_I_TWO
        EXTERN ?V0
        EXTERN ?XSP
        EXTERN ?XSTACK_DISP0_8
        EXTERN __INIT_XDATA_Z

        FUNCTION ??zclHVAC_FindCallbacks?relay,0203H
        FUNCTION ??zclHVAC_HdlIncoming?relay,0203H
        PUBLIC ??zclHVAC_RegisterCmdCallbacks?relay
        FUNCTION ??zclHVAC_RegisterCmdCallbacks?relay,0203H
        PUBLIC ??zclHVAC_SendSetpointRaiseLower?relay
        FUNCTION ??zclHVAC_SendSetpointRaiseLower?relay,0203H
        FUNCTION zclHVAC_FindCallbacks,0203H
        ARGFRAME XSTACK, 12, STACK
        ARGFRAME IOVERLAY, 0, STATIC
        ARGFRAME DOVERLAY, 0, STATIC
        LOCFRAME ISTACK, 2, STACK
        FUNCTION zclHVAC_HdlIncoming,021603H
        ARGFRAME XSTACK, 0, STACK
        LOCFRAME ISTACK, 1, STACK
        LOCFRAME XSTACK, 12, STACK
        PUBLIC zclHVAC_RegisterCmdCallbacks
        FUNCTION zclHVAC_RegisterCmdCallbacks,021203H
        ARGFRAME XSTACK, 0, STACK
        LOCFRAME ISTACK, 1, STACK
        LOCFRAME XSTACK, 14, STACK
        PUBLIC zclHVAC_SendSetpointRaiseLower
        FUNCTION zclHVAC_SendSetpointRaiseLower,021203H
        ARGFRAME XSTACK, 2, STACK
        LOCFRAME ISTACK, 1, STACK
        LOCFRAME XSTACK, 24, STACK
        
        CFI Names cfiNames0
        CFI StackFrame CFA_SP SP IDATA
        CFI StackFrame CFA_PSP16 PSP16 XDATA
        CFI StackFrame CFA_XSP16 XSP16 XDATA
        CFI StaticOverlayFrame CFA_IOVERLAY IOVERLAY
        CFI StaticOverlayFrame CFA_DOVERLAY DOVERLAY
        CFI Resource `PSW.CY`:1, `B.BR0`:1, `B.BR1`:1, `B.BR2`:1, `B.BR3`:1
        CFI Resource `B.BR4`:1, `B.BR5`:1, `B.BR6`:1, `B.BR7`:1, `VB.BR8`:1
        CFI Resource `VB.BR9`:1, `VB.BR10`:1, `VB.BR11`:1, `VB.BR12`:1
        CFI Resource `VB.BR13`:1, `VB.BR14`:1, `VB.BR15`:1, VB:8, B:8, A:8
        CFI Resource PSW:8, DPL0:8, DPH0:8, R0:8, R1:8, R2:8, R3:8, R4:8, R5:8
        CFI Resource R6:8, R7:8, V0:8, V1:8, V2:8, V3:8, V4:8, V5:8, V6:8, V7:8
        CFI Resource V8:8, V9:8, V10:8, V11:8, V12:8, V13:8, V14:8, V15:8, SP:8
        CFI Resource PSPH:8, PSPL:8, PSP16:16, XSPH:8, XSPL:8, XSP16:16
        CFI VirtualResource ?RET:24
        CFI Resource ?BRET_EXT:8
        CFI VirtualResource ?RET_HIGH:8, ?RET_LOW:8
        CFI ResourceParts PSP16 PSPH, PSPL
        CFI ResourceParts XSP16 XSPH, XSPL
        CFI ResourceParts ?RET ?BRET_EXT, ?RET_HIGH, ?RET_LOW
        CFI EndNames cfiNames0
        
        CFI Common cfiCommon0 Using cfiNames0
        CFI CodeAlign 1
        CFI DataAlign -1
        CFI ReturnAddress ?RET CODE
        CFI CFA_DOVERLAY Used
        CFI CFA_IOVERLAY Used
        CFI CFA_SP SP+-3
        CFI CFA_PSP16 PSP16+0
        CFI CFA_XSP16 XSP16+0
        CFI `PSW.CY` SameValue
        CFI `B.BR0` SameValue
        CFI `B.BR1` SameValue
        CFI `B.BR2` SameValue
        CFI `B.BR3` SameValue
        CFI `B.BR4` SameValue
        CFI `B.BR5` SameValue
        CFI `B.BR6` SameValue
        CFI `B.BR7` SameValue
        CFI `VB.BR8` SameValue
        CFI `VB.BR9` SameValue
        CFI `VB.BR10` SameValue
        CFI `VB.BR11` SameValue
        CFI `VB.BR12` SameValue
        CFI `VB.BR13` SameValue
        CFI `VB.BR14` SameValue
        CFI `VB.BR15` SameValue
        CFI VB SameValue
        CFI B Undefined
        CFI A Undefined
        CFI PSW SameValue
        CFI DPL0 SameValue
        CFI DPH0 SameValue
        CFI R0 Undefined
        CFI R1 Undefined
        CFI R2 Undefined
        CFI R3 Undefined
        CFI R4 Undefined
        CFI R5 Undefined
        CFI R6 SameValue
        CFI R7 SameValue
        CFI V0 SameValue
        CFI V1 SameValue
        CFI V2 SameValue
        CFI V3 SameValue
        CFI V4 SameValue
        CFI V5 SameValue
        CFI V6 SameValue
        CFI V7 SameValue
        CFI V8 SameValue
        CFI V9 SameValue
        CFI V10 SameValue
        CFI V11 SameValue
        CFI V12 SameValue
        CFI V13 SameValue
        CFI V14 SameValue
        CFI V15 SameValue
        CFI PSPH Undefined
        CFI PSPL Undefined
        CFI XSPH Undefined
        CFI XSPL Undefined
        CFI ?RET Concat
        CFI ?BRET_EXT Frame(CFA_SP, 3)
        CFI ?RET_HIGH Frame(CFA_SP, 2)
        CFI ?RET_LOW Frame(CFA_SP, 1)
        CFI EndCommon cfiCommon0
        
        
        CFI Common cfiCommon1 Using cfiNames0
        CFI CodeAlign 1
        CFI DataAlign -1
        CFI ReturnAddress ?RET CODE
        CFI CFA_DOVERLAY Used
        CFI CFA_IOVERLAY Used
        CFI CFA_SP SP+-2
        CFI CFA_PSP16 PSP16+0
        CFI CFA_XSP16 XSP16+0
        CFI `PSW.CY` SameValue
        CFI `B.BR0` SameValue
        CFI `B.BR1` SameValue
        CFI `B.BR2` SameValue
        CFI `B.BR3` SameValue
        CFI `B.BR4` SameValue
        CFI `B.BR5` SameValue
        CFI `B.BR6` SameValue
        CFI `B.BR7` SameValue
        CFI `VB.BR8` SameValue
        CFI `VB.BR9` SameValue
        CFI `VB.BR10` SameValue
        CFI `VB.BR11` SameValue
        CFI `VB.BR12` SameValue
        CFI `VB.BR13` SameValue
        CFI `VB.BR14` SameValue
        CFI `VB.BR15` SameValue
        CFI VB SameValue
        CFI B SameValue
        CFI A SameValue
        CFI PSW SameValue
        CFI DPL0 SameValue
        CFI DPH0 SameValue
        CFI R0 SameValue
        CFI R1 SameValue
        CFI R2 SameValue
        CFI R3 SameValue
        CFI R4 SameValue
        CFI R5 SameValue
        CFI R6 SameValue
        CFI R7 SameValue
        CFI V0 SameValue
        CFI V1 SameValue
        CFI V2 SameValue
        CFI V3 SameValue
        CFI V4 SameValue
        CFI V5 SameValue
        CFI V6 SameValue
        CFI V7 SameValue
        CFI V8 SameValue
        CFI V9 SameValue
        CFI V10 SameValue
        CFI V11 SameValue
        CFI V12 SameValue
        CFI V13 SameValue
        CFI V14 SameValue
        CFI V15 SameValue
        CFI PSPH Undefined
        CFI PSPL Undefined
        CFI XSPH Undefined
        CFI XSPL Undefined
        CFI ?RET Concat
        CFI ?BRET_EXT SameValue
        CFI ?RET_HIGH Frame(CFA_SP, 2)
        CFI ?RET_LOW Frame(CFA_SP, 1)
        CFI EndCommon cfiCommon1
        
zcl_registerPlugin  SYMBOL "zcl_registerPlugin"
osal_mem_alloc      SYMBOL "osal_mem_alloc"
zcl_SendCommand     SYMBOL "zcl_SendCommand"
??osal_mem_alloc?relay SYMBOL "?relay", osal_mem_alloc
??zcl_SendCommand?relay SYMBOL "?relay", zcl_SendCommand
??zcl_registerPlugin?relay SYMBOL "?relay", zcl_registerPlugin
zclHVAC_RegisterCmdCallbacks SYMBOL "zclHVAC_RegisterCmdCallbacks"
??zclHVAC_RegisterCmdCallbacks?relay SYMBOL "?relay", zclHVAC_RegisterCmdCallbacks
zclHVAC_SendSetpointRaiseLower SYMBOL "zclHVAC_SendSetpointRaiseLower"
??zclHVAC_SendSetpointRaiseLower?relay SYMBOL "?relay", zclHVAC_SendSetpointRaiseLower

        EXTERN zcl_registerPlugin
        FUNCTION zcl_registerPlugin,0202H
        ARGFRAME ISTACK, 0, STACK
        ARGFRAME PSTACK, 0, STACK
        ARGFRAME XSTACK, 14, STACK
        ARGFRAME IOVERLAY, 0, STATIC
        ARGFRAME DOVERLAY, 0, STATIC
        EXTERN osal_mem_alloc
        FUNCTION osal_mem_alloc,0202H
        ARGFRAME ISTACK, 0, STACK
        ARGFRAME PSTACK, 0, STACK
        ARGFRAME XSTACK, 12, STACK
        ARGFRAME IOVERLAY, 0, STATIC
        ARGFRAME DOVERLAY, 0, STATIC
        EXTERN zcl_SendCommand
        FUNCTION zcl_SendCommand,0202H
        ARGFRAME ISTACK, 0, STACK
        ARGFRAME PSTACK, 0, STACK
        ARGFRAME XSTACK, 24, STACK
        ARGFRAME IOVERLAY, 0, STATIC
        ARGFRAME DOVERLAY, 0, STATIC
        EXTERN ??osal_mem_alloc?relay
        FUNCTION ??osal_mem_alloc?relay,00H
        EXTERN ??zcl_SendCommand?relay
        FUNCTION ??zcl_SendCommand?relay,00H
        EXTERN ??zcl_registerPlugin?relay
        FUNCTION ??zcl_registerPlugin?relay,00H

// S:\zigbee\Myzigbe\version 3.0 for test\Components\stack\zcl\zcl_hvac.c
//    1 /**************************************************************************************************
//    2   Filename:       zcl_hvac.c
//    3   Revised:        $Date: 2011-05-19 11:53:12 -0700 (Thu, 19 May 2011) $
//    4   Revision:       $Revision: 26031 $
//    5 
//    6   Description:    Zigbee Cluster Library - HVAC
//    7 
//    8 
//    9   Copyright 2006-2011 Texas Instruments Incorporated. All rights reserved.
//   10 
//   11   IMPORTANT: Your use of this Software is limited to those specific rights
//   12   granted under the terms of a software license agreement between the user
//   13   who downloaded the software, his/her employer (which must be your employer)
//   14   and Texas Instruments Incorporated (the "License").  You may not use this
//   15   Software unless you agree to abide by the terms of the License. The License
//   16   limits your use, and you acknowledge, that the Software may not be modified,
//   17   copied or distributed unless embedded on a Texas Instruments microcontroller
//   18   or used solely and exclusively in conjunction with a Texas Instruments radio
//   19   frequency transceiver, which is integrated into your product.  Other than for
//   20   the foregoing purpose, you may not use, reproduce, copy, prepare derivative
//   21   works of, modify, distribute, perform, display or sell this Software and/or
//   22   its documentation for any purpose.
//   23 
//   24   YOU FURTHER ACKNOWLEDGE AND AGREE THAT THE SOFTWARE AND DOCUMENTATION ARE
//   25   PROVIDED “AS IS” WITHOUT WARRANTY OF ANY KIND, EITHER EXPRESS OR IMPLIED, 
//   26   INCLUDING WITHOUT LIMITATION, ANY WARRANTY OF MERCHANTABILITY, TITLE, 
//   27   NON-INFRINGEMENT AND FITNESS FOR A PARTICULAR PURPOSE. IN NO EVENT SHALL
//   28   TEXAS INSTRUMENTS OR ITS LICENSORS BE LIABLE OR OBLIGATED UNDER CONTRACT,
//   29   NEGLIGENCE, STRICT LIABILITY, CONTRIBUTION, BREACH OF WARRANTY, OR OTHER
//   30   LEGAL EQUITABLE THEORY ANY DIRECT OR INDIRECT DAMAGES OR EXPENSES
//   31   INCLUDING BUT NOT LIMITED TO ANY INCIDENTAL, SPECIAL, INDIRECT, PUNITIVE
//   32   OR CONSEQUENTIAL DAMAGES, LOST PROFITS OR LOST DATA, COST OF PROCUREMENT
//   33   OF SUBSTITUTE GOODS, TECHNOLOGY, SERVICES, OR ANY CLAIMS BY THIRD PARTIES
//   34   (INCLUDING BUT NOT LIMITED TO ANY DEFENSE THEREOF), OR OTHER SIMILAR COSTS.
//   35 
//   36   Should you have any questions regarding your right to use this Software,
//   37   contact Texas Instruments Incorporated at www.TI.com. 
//   38 **************************************************************************************************/
//   39 
//   40 
//   41 /*********************************************************************
//   42  * INCLUDES
//   43  */
//   44 #include "ZComDef.h"
//   45 #include "OSAL.h"
//   46 #include "zcl.h"
//   47 #include "zcl_general.h"
//   48 #include "zcl_hvac.h"
//   49 
//   50 #if defined ( INTER_PAN )
//   51   #include "stub_aps.h"
//   52 #endif
//   53 
//   54 /*********************************************************************
//   55  * MACROS
//   56  */
//   57 
//   58 /*********************************************************************
//   59  * CONSTANTS
//   60  */
//   61 
//   62 /*********************************************************************
//   63  * TYPEDEFS
//   64  */
//   65 typedef struct zclHVACCBRec
//   66 {
//   67   struct zclHVACCBRec     *next;
//   68   uint8                   endpoint; // Used to link it into the endpoint descriptor
//   69   zclHVAC_AppCallbacks_t  *CBs;     // Pointer to Callback function
//   70 } zclHVACCBRec_t;
//   71 
//   72 /*********************************************************************
//   73  * GLOBAL VARIABLES
//   74  */
//   75 
//   76 /*********************************************************************
//   77  * GLOBAL FUNCTIONS
//   78  */
//   79 
//   80 /*********************************************************************
//   81  * LOCAL VARIABLES
//   82  */

        RSEG XDATA_Z:XDATA:NOROOT(0)
        DATA16
//   83 static zclHVACCBRec_t *zclHVACCBs = (zclHVACCBRec_t *)NULL;
zclHVACCBs:
        DS 2
        REQUIRE __INIT_XDATA_Z

        RSEG XDATA_Z:XDATA:NOROOT(0)
        DATA8
//   84 static uint8 zclHVACPluginRegisted = FALSE;
zclHVACPluginRegisted:
        DS 1
        REQUIRE __INIT_XDATA_Z
//   85 
//   86 
//   87 /*********************************************************************
//   88  * LOCAL FUNCTIONS
//   89  */
//   90 static ZStatus_t zclHVAC_HdlIncoming( zclIncoming_t *pInMsg );
//   91 static ZStatus_t zclHVAC_HdlInSpecificCommands( zclIncoming_t *pInMsg );
//   92 static zclHVAC_AppCallbacks_t *zclHVAC_FindCallbacks( uint8 endpoint );
//   93 
//   94 static ZStatus_t zclHVAC_ProcessInPumpCmds( zclIncoming_t *pInMsg );
//   95 static ZStatus_t zclHVAC_ProcessInThermostatCmds( zclIncoming_t *pInMsg, zclHVAC_AppCallbacks_t *pCBs );
//   96 
//   97 /*********************************************************************
//   98  * @fn      zclHVAC_RegisterCmdCallbacks
//   99  *
//  100  * @brief   Register an applications command callbacks
//  101  *
//  102  * @param   endpoint - application's endpoint
//  103  * @param   callbacks - pointer to the callback record.
//  104  *
//  105  * @return  ZMemError if not able to allocate
//  106  */

        RSEG BANKED_CODE:CODE:NOROOT(0)
//  107 ZStatus_t zclHVAC_RegisterCmdCallbacks( uint8 endpoint, zclHVAC_AppCallbacks_t *callbacks )
zclHVAC_RegisterCmdCallbacks:
        CFI Block cfiBlock0 Using cfiCommon0
        CFI Function zclHVAC_RegisterCmdCallbacks
        CODE
//  108 {
        FUNCALL zclHVAC_RegisterCmdCallbacks, zcl_registerPlugin
        LOCFRAME ISTACK, 0, STACK
        LOCFRAME PSTACK, 0, STACK
        LOCFRAME XSTACK, 14, STACK
        LOCFRAME IOVERLAY, 0, STATIC
        LOCFRAME DOVERLAY, 0, STATIC
        ARGFRAME ISTACK, 0, STACK
        ARGFRAME PSTACK, 0, STACK
        ARGFRAME XSTACK, 14, STACK
        ARGFRAME IOVERLAY, 0, STATIC
        ARGFRAME DOVERLAY, 0, STATIC
        FUNCALL zclHVAC_RegisterCmdCallbacks, osal_mem_alloc
        LOCFRAME ISTACK, 0, STACK
        LOCFRAME PSTACK, 0, STACK
        LOCFRAME XSTACK, 12, STACK
        LOCFRAME IOVERLAY, 0, STATIC
        LOCFRAME DOVERLAY, 0, STATIC
        ARGFRAME ISTACK, 0, STACK
        ARGFRAME PSTACK, 0, STACK
        ARGFRAME XSTACK, 12, STACK
        ARGFRAME IOVERLAY, 0, STATIC
        ARGFRAME DOVERLAY, 0, STATIC
        MOV     A,#-0xc
        LCALL   ?BANKED_ENTER_XDATA
        CFI DPH0 load(1, XDATA, add(CFA_XSP16, literal(-1)))
        CFI DPL0 load(1, XDATA, add(CFA_XSP16, literal(-2)))
        CFI ?BRET_EXT load(1, XDATA, add(CFA_XSP16, literal(-3)))
        CFI ?RET_HIGH load(1, XDATA, add(CFA_XSP16, literal(-4)))
        CFI ?RET_LOW load(1, XDATA, add(CFA_XSP16, literal(-5)))
        CFI R7 load(1, XDATA, add(CFA_XSP16, literal(-6)))
        CFI V3 load(1, XDATA, add(CFA_XSP16, literal(-7)))
        CFI V2 load(1, XDATA, add(CFA_XSP16, literal(-8)))
        CFI V1 load(1, XDATA, add(CFA_XSP16, literal(-9)))
        CFI V0 load(1, XDATA, add(CFA_XSP16, literal(-10)))
        CFI VB load(1, XDATA, add(CFA_XSP16, literal(-11)))
        CFI R6 load(1, XDATA, add(CFA_XSP16, literal(-12)))
        CFI CFA_SP SP+0
        CFI CFA_XSP16 add(XSP16, 12)
        ; Saved register size: 12
        ; Auto size: 0
        MOV     ?V0 + 0,R1
        MOV     A,R2
        MOV     R6,A
        MOV     A,R3
        MOV     R7,A
//  109   zclHVACCBRec_t *pNewItem;
//  110   zclHVACCBRec_t *pLoop;
//  111 
//  112   // Register as a ZCL Plugin
//  113   if ( !zclHVACPluginRegisted )
        MOV     DPTR,#zclHVACPluginRegisted
        MOVX    A,@DPTR
        JNZ     ??zclHVAC_RegisterCmdCallbacks_0
//  114   {
//  115     zcl_registerPlugin( ZCL_CLUSTER_ID_HVAC_PUMP_CONFIG_CONTROL,
//  116                         ZCL_CLUSTER_ID_HAVC_USER_INTERFACE_CONFIG,
//  117                         zclHVAC_HdlIncoming );
        ; Setup parameters for call to function zcl_registerPlugin
        MOV     ?V0 + 2,#??zclHVAC_HdlIncoming?relay & 0xff
        MOV     ?V0 + 3,#(??zclHVAC_HdlIncoming?relay >> 8) & 0xff
        MOV     R0,#?V0 + 2
        LCALL   ?PUSH_XSTACK_I_TWO
        CFI CFA_XSP16 add(XSP16, 14)
        MOV     R4,#0x4
        MOV     R5,#0x2
        MOV     R2,#0x0
        MOV     R3,#0x2
        LCALL   ??zcl_registerPlugin?relay
        MOV     A,#0x2
        LCALL   ?DEALLOC_XSTACK8
        CFI CFA_XSP16 add(XSP16, 12)
//  118     zclHVACPluginRegisted = TRUE;
        MOV     DPTR,#zclHVACPluginRegisted
        MOV     A,#0x1
        MOVX    @DPTR,A
//  119   }
//  120 
//  121   // Fill in the new profile list
//  122   pNewItem = osal_mem_alloc( sizeof( zclHVACCBRec_t ) );
??zclHVAC_RegisterCmdCallbacks_0:
        ; Setup parameters for call to function osal_mem_alloc
        MOV     R2,#0x5
        MOV     R3,#0x0
        LCALL   ??osal_mem_alloc?relay
        MOV     ?V0 + 2,R2
        MOV     ?V0 + 3,R3
        MOV     R0,?V0 + 2
        MOV     R1,?V0 + 3
//  123   if ( pNewItem == NULL )
        MOV     A,R0
        ORL     A,R1
        JNZ     ??zclHVAC_RegisterCmdCallbacks_1
//  124     return (ZMemError);
        MOV     R1,#0x10
        SJMP    ??zclHVAC_RegisterCmdCallbacks_2
//  125 
//  126   pNewItem->next = (zclHVACCBRec_t *)NULL;
??zclHVAC_RegisterCmdCallbacks_1:
        MOV     DPL,R0
        MOV     DPH,R1
        CLR     A
        MOVX    @DPTR,A
        INC     DPTR
        MOVX    @DPTR,A
//  127   pNewItem->endpoint = endpoint;
        MOV     DPL,R0
        MOV     DPH,R1
        INC     DPTR
        INC     DPTR
        MOV     A,?V0 + 0
        MOVX    @DPTR,A
//  128   pNewItem->CBs = callbacks;
        MOV     DPL,R0
        MOV     DPH,R1
        INC     DPTR
        INC     DPTR
        INC     DPTR
        MOV     A,R6
        MOVX    @DPTR,A
        INC     DPTR
        MOV     A,R7
        MOVX    @DPTR,A
//  129 
//  130   // Find spot in list
//  131   if ( zclHVACCBs == NULL )
        MOV     DPTR,#zclHVACCBs
        MOVX    A,@DPTR
        MOV     R2,A
        INC     DPTR
        MOVX    A,@DPTR
        MOV     R3,A
        MOV     A,R2
        ORL     A,R3
        JNZ     ??zclHVAC_RegisterCmdCallbacks_3
//  132   {
//  133     zclHVACCBs = pNewItem;
        MOV     DPTR,#zclHVACCBs
        SJMP    ??zclHVAC_RegisterCmdCallbacks_4
//  134   }
//  135   else
//  136   {
//  137     // Look for end of list
//  138     pLoop = zclHVACCBs;
//  139     while ( pLoop->next != NULL )
//  140       pLoop = pLoop->next;
??zclHVAC_RegisterCmdCallbacks_5:
        MOVX    A,@DPTR
        MOV     R2,A
        INC     DPTR
??zclHVAC_RegisterCmdCallbacks_3:
        MOVX    A,@DPTR
        MOV     R3,A
        MOV     DPL,R2
        MOV     DPH,R3
        MOVX    A,@DPTR
        MOV     R4,A
        INC     DPTR
        MOVX    A,@DPTR
        MOV     R5,A
        MOV     A,R4
        ORL     A,R5
        MOV     DPL,R2
        MOV     DPH,R3
        JNZ     ??zclHVAC_RegisterCmdCallbacks_5
//  141 
//  142     // Put new item at end of list
//  143     pLoop->next = pNewItem;
??zclHVAC_RegisterCmdCallbacks_4:
        MOV     A,R0
        MOVX    @DPTR,A
        INC     DPTR
        MOV     A,R1
        MOVX    @DPTR,A
//  144   }
//  145   return ( ZSuccess );
        MOV     R1,#0x0
??zclHVAC_RegisterCmdCallbacks_2:
        MOV     R7,#0x4
        LJMP    ?BANKED_LEAVE_XDATA
        CFI EndBlock cfiBlock0
//  146 }
//  147 
//  148 /*********************************************************************
//  149  * @fn      zclHVAC_SendSetpointRaiseLower
//  150  *
//  151  * @brief   Call to send out a Setpoint Raise/Lower Command
//  152  *
//  153  * @param   srcEP - Sending application's endpoint
//  154  * @param   dstAddr - where you want the message to go
//  155  * @param   mode - which setpoint is to be configured
//  156  * @param   amount - amount setpoint(s) are to be increased (or decreased) by,
//  157  *                   in steps of 0.1°C
//  158  * @param   seqNum - transaction sequence number
//  159  *
//  160  * @return  ZStatus_t
//  161  */

        RSEG BANKED_CODE:CODE:NOROOT(0)
//  162 ZStatus_t zclHVAC_SendSetpointRaiseLower( uint8 srcEP, afAddrType_t *dstAddr,
zclHVAC_SendSetpointRaiseLower:
        CFI Block cfiBlock1 Using cfiCommon0
        CFI Function zclHVAC_SendSetpointRaiseLower
        CODE
//  163                                           uint8 mode, int8 amount, 
//  164                                           uint8 disableDefaultRsp, uint8 seqNum )
//  165 {
        FUNCALL zclHVAC_SendSetpointRaiseLower, zcl_SendCommand
        LOCFRAME ISTACK, 0, STACK
        LOCFRAME PSTACK, 0, STACK
        LOCFRAME XSTACK, 24, STACK
        LOCFRAME IOVERLAY, 0, STATIC
        LOCFRAME DOVERLAY, 0, STATIC
        ARGFRAME ISTACK, 0, STACK
        ARGFRAME PSTACK, 0, STACK
        ARGFRAME XSTACK, 24, STACK
        ARGFRAME IOVERLAY, 0, STATIC
        ARGFRAME DOVERLAY, 0, STATIC
        MOV     A,#-0xb
        LCALL   ?BANKED_ENTER_XDATA
        CFI DPH0 load(1, XDATA, add(CFA_XSP16, literal(-1)))
        CFI DPL0 load(1, XDATA, add(CFA_XSP16, literal(-2)))
        CFI ?BRET_EXT load(1, XDATA, add(CFA_XSP16, literal(-3)))
        CFI ?RET_HIGH load(1, XDATA, add(CFA_XSP16, literal(-4)))
        CFI ?RET_LOW load(1, XDATA, add(CFA_XSP16, literal(-5)))
        CFI R7 load(1, XDATA, add(CFA_XSP16, literal(-6)))
        CFI V2 load(1, XDATA, add(CFA_XSP16, literal(-7)))
        CFI V1 load(1, XDATA, add(CFA_XSP16, literal(-8)))
        CFI V0 load(1, XDATA, add(CFA_XSP16, literal(-9)))
        CFI VB load(1, XDATA, add(CFA_XSP16, literal(-10)))
        CFI R6 load(1, XDATA, add(CFA_XSP16, literal(-11)))
        CFI CFA_SP SP+0
        CFI CFA_XSP16 add(XSP16, 11)
        ; Saved register size: 11
        ; Auto size: 2
        MOV     A,#-0x2
        LCALL   ?ALLOC_XSTACK8
        CFI CFA_XSP16 add(XSP16, 13)
        MOV     A,R1
        MOV     R6,A
        MOV     A,R4
        MOV     R7,A
        MOV     A,#0xd
        LCALL   ?XSTACK_DISP0_8
        MOVX    A,@DPTR
        MOV     R1,A
        MOV     A,#0xe
        LCALL   ?XSTACK_DISP0_8
        MOVX    A,@DPTR
        MOV     R4,A
//  166   uint8 buf[2];
//  167 
//  168   buf[0] = mode;
        MOV     A,R7
        MOV     DPL,?XSP + 0
        MOV     DPH,?XSP + 1
        MOVX    @DPTR,A
//  169   buf[1] = amount;
        MOV     A,#0x1
        LCALL   ?XSTACK_DISP0_8
        MOV     A,R5
        MOVX    @DPTR,A
//  170 
//  171   return zcl_SendCommand( srcEP, dstAddr, ZCL_CLUSTER_ID_HAVC_THERMOSTAT,
//  172                           COMMAND_THERMOSTAT_SETPOINT_RAISE_LOWER, TRUE, 
//  173                           ZCL_FRAME_CLIENT_SERVER_DIR, disableDefaultRsp, 0, seqNum, 2, buf );
        ; Setup parameters for call to function zcl_SendCommand
        MOV     DPL,?XSP + 0
        MOV     DPH,?XSP + 1
        MOV     ?V0 + 0,DPL
        MOV     ?V0 + 1,DPH
        MOV     R0,#?V0 + 0
        LCALL   ?PUSH_XSTACK_I_TWO
        CFI CFA_XSP16 add(XSP16, 15)
        MOV     ?V0 + 0,#0x2
        MOV     ?V0 + 1,#0x0
        MOV     R0,#?V0 + 0
        LCALL   ?PUSH_XSTACK_I_TWO
        CFI CFA_XSP16 add(XSP16, 17)
        MOV     A,R4
        MOV     ?V0 + 0,A
        MOV     R0,#?V0 + 0
        LCALL   ?PUSH_XSTACK_I_ONE
        CFI CFA_XSP16 add(XSP16, 18)
        CLR     A
        MOV     ?V0 + 0,A
        MOV     R0,#?V0 + 0
        LCALL   ?PUSH_XSTACK_I_TWO
        CFI CFA_XSP16 add(XSP16, 20)
        MOV     A,R1
        MOV     ?V0 + 0,A
        MOV     R0,#?V0 + 0
        LCALL   ?PUSH_XSTACK_I_ONE
        CFI CFA_XSP16 add(XSP16, 21)
        MOV     ?V0 + 0,#0x0
        MOV     R0,#?V0 + 0
        LCALL   ?PUSH_XSTACK_I_ONE
        CFI CFA_XSP16 add(XSP16, 22)
        MOV     ?V0 + 0,#0x1
        MOV     R0,#?V0 + 0
        LCALL   ?PUSH_XSTACK_I_ONE
        CFI CFA_XSP16 add(XSP16, 23)
        MOV     ?V0 + 0,#0x0
        MOV     R0,#?V0 + 0
        LCALL   ?PUSH_XSTACK_I_ONE
        CFI CFA_XSP16 add(XSP16, 24)
        MOV     R4,#0x1
        MOV     R5,#0x2
        MOV     A,R6
        MOV     R1,A
        LCALL   ??zcl_SendCommand?relay
        MOV     A,#0xb
        LCALL   ?DEALLOC_XSTACK8
        CFI CFA_XSP16 add(XSP16, 13)
        MOV     A,#0x2
        LCALL   ?DEALLOC_XSTACK8
        CFI CFA_XSP16 add(XSP16, 11)
        MOV     R7,#0x3
        LJMP    ?BANKED_LEAVE_XDATA
        CFI EndBlock cfiBlock1
//  174 }
//  175 
//  176 /*********************************************************************
//  177  * @fn      zclHVAC_FindCallbacks
//  178  *
//  179  * @brief   Find the callbacks for an endpoint
//  180  *
//  181  * @param   endpoint
//  182  *
//  183  * @return  pointer to the callbacks
//  184  */

        RSEG BANKED_CODE:CODE:NOROOT(0)
//  185 static zclHVAC_AppCallbacks_t *zclHVAC_FindCallbacks( uint8 endpoint )
zclHVAC_FindCallbacks:
        CFI Block cfiBlock2 Using cfiCommon0
        CFI Function zclHVAC_FindCallbacks
        CODE
//  186 {
        PUSH    DPL
        CFI DPL0 Frame(CFA_SP, 4)
        CFI CFA_SP SP+-4
        PUSH    DPH
        CFI DPH0 Frame(CFA_SP, 5)
        CFI CFA_SP SP+-5
        ; Saved register size: 2
        ; Auto size: 0
//  187   zclHVACCBRec_t *pCBs;
//  188   pCBs = zclHVACCBs;
        MOV     DPTR,#zclHVACCBs
//  189   while ( pCBs )
//  190   {
//  191     if ( pCBs->endpoint == endpoint )
//  192       return ( pCBs->CBs );
//  193     pCBs = pCBs->next;
??zclHVAC_FindCallbacks_0:
        MOVX    A,@DPTR
        MOV     R2,A
        INC     DPTR
        MOVX    A,@DPTR
        MOV     R3,A
        MOV     A,R2
        ORL     A,R3
        JZ      ??zclHVAC_FindCallbacks_1
        MOV     DPL,R2
        MOV     DPH,R3
        INC     DPTR
        INC     DPTR
        MOVX    A,@DPTR
        XRL     A,R1
        MOV     DPL,R2
        MOV     DPH,R3
        JNZ     ??zclHVAC_FindCallbacks_0
        INC     DPTR
        INC     DPTR
        INC     DPTR
        MOVX    A,@DPTR
        MOV     R2,A
        INC     DPTR
        MOVX    A,@DPTR
        MOV     R3,A
        SJMP    ??zclHVAC_FindCallbacks_2
//  194   }
//  195   return ( (zclHVAC_AppCallbacks_t *)NULL );
??zclHVAC_FindCallbacks_1:
        MOV     R2,#0x0
        MOV     R3,#0x0
??zclHVAC_FindCallbacks_2:
        POP     DPH
        CFI DPH0 SameValue
        CFI CFA_SP SP+-4
        POP     DPL
        CFI DPL0 SameValue
        CFI CFA_SP SP+-3
        LJMP    ?BRET
        CFI EndBlock cfiBlock2
//  196 }
//  197 
//  198 /*********************************************************************
//  199  * @fn      zclHVAC_HdlIncoming
//  200  *
//  201  * @brief   Callback from ZCL to process incoming Commands specific
//  202  *          to this cluster library or Profile commands for attributes
//  203  *          that aren't in the attribute list
//  204  *
//  205  * @param   pInMsg - pointer to the incoming message
//  206  *
//  207  * @return  ZStatus_t
//  208  */

        RSEG BANKED_CODE:CODE:NOROOT(0)
//  209 static ZStatus_t zclHVAC_HdlIncoming( zclIncoming_t *pInMsg )
zclHVAC_HdlIncoming:
        CFI Block cfiBlock3 Using cfiCommon0
        CFI Function zclHVAC_HdlIncoming
        CODE
//  210 {
        FUNCALL zclHVAC_HdlIncoming, zclHVAC_FindCallbacks
        LOCFRAME ISTACK, 0, STACK
        LOCFRAME PSTACK, 0, STACK
        LOCFRAME XSTACK, 12, STACK
        LOCFRAME IOVERLAY, 0, STATIC
        LOCFRAME DOVERLAY, 0, STATIC
        ARGFRAME ISTACK, 0, STACK
        ARGFRAME PSTACK, 0, STACK
        ARGFRAME XSTACK, 12, STACK
        ARGFRAME IOVERLAY, 0, STATIC
        ARGFRAME DOVERLAY, 0, STATIC
        MOV     A,#-0xa
        LCALL   ?BANKED_ENTER_XDATA
        CFI DPH0 load(1, XDATA, add(CFA_XSP16, literal(-1)))
        CFI DPL0 load(1, XDATA, add(CFA_XSP16, literal(-2)))
        CFI ?BRET_EXT load(1, XDATA, add(CFA_XSP16, literal(-3)))
        CFI ?RET_HIGH load(1, XDATA, add(CFA_XSP16, literal(-4)))
        CFI ?RET_LOW load(1, XDATA, add(CFA_XSP16, literal(-5)))
        CFI R7 load(1, XDATA, add(CFA_XSP16, literal(-6)))
        CFI V1 load(1, XDATA, add(CFA_XSP16, literal(-7)))
        CFI V0 load(1, XDATA, add(CFA_XSP16, literal(-8)))
        CFI VB load(1, XDATA, add(CFA_XSP16, literal(-9)))
        CFI R6 load(1, XDATA, add(CFA_XSP16, literal(-10)))
        CFI CFA_SP SP+0
        CFI CFA_XSP16 add(XSP16, 10)
        ; Saved register size: 10
        ; Auto size: 2
        MOV     A,#-0x2
        LCALL   ?ALLOC_XSTACK8
        CFI CFA_XSP16 add(XSP16, 12)
        MOV     A,R2
        MOV     R6,A
        MOV     A,R3
        MOV     R7,A
//  211   ZStatus_t stat = ZSuccess;
//  212 
//  213 #if defined ( INTER_PAN )
//  214   if ( StubAPS_InterPan( pInMsg->msg->srcAddr.panId, pInMsg->msg->srcAddr.endPoint ) )
//  215     return ( stat ); // Cluster not supported thru Inter-PAN
//  216 #endif
//  217   if ( zcl_ClusterCmd( pInMsg->hdr.fc.type ) )
        MOV     DPL,R6
        MOV     DPH,R7
        INC     DPTR
        INC     DPTR
        MOVX    A,@DPTR
        ANL     A,#0x3
        XRL     A,#0x1
        JZ      $+5
        LJMP    ??zclHVAC_HdlIncoming_0 & 0xFFFF
//  218   {
//  219     // Is this a manufacturer specific command?
//  220     if ( pInMsg->hdr.fc.manuSpecific == 0 ) 
        MOV     DPL,R6
        MOV     DPH,R7
        INC     DPTR
        INC     DPTR
        MOVX    A,@DPTR
        ANL     A,#0x4
        JZ      $+5
        LJMP    ??zclHVAC_HdlIncoming_0 & 0xFFFF
//  221     {
//  222       stat = zclHVAC_HdlInSpecificCommands( pInMsg );
        ; Setup parameters for call to function zclHVAC_FindCallbacks
        MOV     DPL,R6
        MOV     DPH,R7
        MOVX    A,@DPTR
        ADD     A,#0x14
        MOV     R0,A
        INC     DPTR
        MOVX    A,@DPTR
        LCALL   ?Subroutine1 & 0xFFFF
//  223     }
??CrossCallReturnLabel_2:
        MOV     R1,A
        LCALL   ??zclHVAC_FindCallbacks?relay
        MOV     ?V0 + 0,R2
        MOV     ?V0 + 1,R3
        MOV     R4,?V0 + 0
        MOV     R5,?V0 + 1
        MOV     A,R4
        ORL     A,R5
        JZ      ??zclHVAC_HdlIncoming_0
        MOV     DPL,R6
        MOV     DPH,R7
        LCALL   ?Subroutine0 & 0xFFFF
??CrossCallReturnLabel_0:
        INC     DPTR
        INC     DPTR
        INC     DPTR
        MOVX    A,@DPTR
        XRL     A,#0x1
        JNZ     ??zclHVAC_HdlIncoming_1
        INC     DPTR
        MOVX    A,@DPTR
        XRL     A,#0x2
??zclHVAC_HdlIncoming_1:
        JNZ     ??zclHVAC_HdlIncoming_0
        MOV     DPL,R6
        MOV     DPH,R7
        INC     DPTR
        INC     DPTR
        INC     DPTR
        INC     DPTR
        INC     DPTR
        INC     DPTR
        INC     DPTR
        MOVX    A,@DPTR
        JNZ     ??zclHVAC_HdlIncoming_0
        MOV     DPL,R4
        MOV     DPH,R5
        MOVX    A,@DPTR
        MOV     R0,A
        INC     DPTR
        MOVX    A,@DPTR
        MOV     R1,A
        MOV     A,R0
        ORL     A,R1
        JZ      ??zclHVAC_HdlIncoming_2
        MOV     A,R6
        ADD     A,#0x8
        MOV     R0,A
        MOV     A,R7
        LCALL   ?Subroutine1 & 0xFFFF
??CrossCallReturnLabel_3:
        MOV     R2,A
        INC     DPTR
        MOVX    A,@DPTR
        MOV     DPH,A
        MOV     DPL,R2
        MOVX    A,@DPTR
        MOV     DPL,?XSP + 0
        MOV     DPH,?XSP + 1
        MOVX    @DPTR,A
        MOV     DPL,R0
        MOV     DPH,R1
        LCALL   ?Subroutine0 & 0xFFFF
??CrossCallReturnLabel_1:
        MOVX    A,@DPTR
        PUSH    A
        CFI CFA_SP SP+-1
        MOV     A,#0x1
        LCALL   ?XSTACK_DISP0_8
        POP     A
        CFI CFA_SP SP+0
        MOVX    @DPTR,A
        ; Setup parameters for indirect call
        MOV     DPL,?XSP + 0
        MOV     DPH,?XSP + 1
        MOV     R2,DPL
        MOV     R3,DPH
        MOV     DPL,R4
        MOV     DPH,R5
        LCALL   ?Subroutine2 & 0xFFFF
??CrossCallReturnLabel_4:
        LCALL   ?CALL_IND
??zclHVAC_HdlIncoming_2:
        MOV     R1,#0x0
        SJMP    ??zclHVAC_HdlIncoming_3
//  224     else
//  225     {
//  226       // We don't support any manufacturer specific command -- ignore it.
//  227       stat = ZFailure;
??zclHVAC_HdlIncoming_0:
        MOV     R1,#0x1
//  228     }
//  229   }
//  230   else
//  231   {
//  232     // Handle all the normal (Read, Write...) commands -- should never get here
//  233     stat = ZFailure;
//  234   }
//  235   return ( stat );
??zclHVAC_HdlIncoming_3:
        MOV     A,#0x2
        LCALL   ?DEALLOC_XSTACK8
        CFI CFA_XSP16 add(XSP16, 10)
        MOV     R7,#0x2
        LJMP    ?BANKED_LEAVE_XDATA
        CFI EndBlock cfiBlock3
//  236 }

        RSEG BANKED_CODE:CODE:NOROOT(0)
?Subroutine1:
        CFI Block cfiCond4 Using cfiCommon0
        CFI NoFunction
        CFI Conditional ??CrossCallReturnLabel_2
        CFI R6 load(1, XDATA, add(CFA_XSP16, literal(-10)))
        CFI VB load(1, XDATA, add(CFA_XSP16, literal(-9)))
        CFI V0 load(1, XDATA, add(CFA_XSP16, literal(-8)))
        CFI V1 load(1, XDATA, add(CFA_XSP16, literal(-7)))
        CFI R7 load(1, XDATA, add(CFA_XSP16, literal(-6)))
        CFI ?RET_LOW load(1, XDATA, add(CFA_XSP16, literal(-5)))
        CFI ?RET_HIGH load(1, XDATA, add(CFA_XSP16, literal(-4)))
        CFI ?BRET_EXT load(1, XDATA, add(CFA_XSP16, literal(-3)))
        CFI DPL0 load(1, XDATA, add(CFA_XSP16, literal(-2)))
        CFI DPH0 load(1, XDATA, add(CFA_XSP16, literal(-1)))
        CFI CFA_SP SP+0
        CFI CFA_XSP16 add(XSP16, 12)
        CFI Block cfiCond5 Using cfiCommon0
        CFI (cfiCond5) NoFunction
        CFI (cfiCond5) Conditional ??CrossCallReturnLabel_3
        CFI (cfiCond5) R6 load(1, XDATA, add(CFA_XSP16, literal(-10)))
        CFI (cfiCond5) VB load(1, XDATA, add(CFA_XSP16, literal(-9)))
        CFI (cfiCond5) V0 load(1, XDATA, add(CFA_XSP16, literal(-8)))
        CFI (cfiCond5) V1 load(1, XDATA, add(CFA_XSP16, literal(-7)))
        CFI (cfiCond5) R7 load(1, XDATA, add(CFA_XSP16, literal(-6)))
        CFI (cfiCond5) ?RET_LOW load(1, XDATA, add(CFA_XSP16, literal(-5)))
        CFI (cfiCond5) ?RET_HIGH load(1, XDATA, add(CFA_XSP16, literal(-4)))
        CFI (cfiCond5) ?BRET_EXT load(1, XDATA, add(CFA_XSP16, literal(-3)))
        CFI (cfiCond5) DPL0 load(1, XDATA, add(CFA_XSP16, literal(-2)))
        CFI (cfiCond5) DPH0 load(1, XDATA, add(CFA_XSP16, literal(-1)))
        CFI (cfiCond5) CFA_SP SP+0
        CFI (cfiCond5) CFA_XSP16 add(XSP16, 12)
        CFI Block cfiPicker6 Using cfiCommon1
        CFI (cfiPicker6) NoFunction
        CFI (cfiPicker6) Picker
        ADDC    A,#0x0
        MOV     R1,A
        MOV     DPL,R0
        MOV     DPH,R1
        MOVX    A,@DPTR
        RET
        CFI EndBlock cfiCond4
        CFI EndBlock cfiCond5
        CFI EndBlock cfiPicker6

        RSEG BANKED_CODE:CODE:NOROOT(0)
?Subroutine0:
        CFI Block cfiCond7 Using cfiCommon0
        CFI NoFunction
        CFI Conditional ??CrossCallReturnLabel_0
        CFI R6 load(1, XDATA, add(CFA_XSP16, literal(-10)))
        CFI VB load(1, XDATA, add(CFA_XSP16, literal(-9)))
        CFI V0 load(1, XDATA, add(CFA_XSP16, literal(-8)))
        CFI V1 load(1, XDATA, add(CFA_XSP16, literal(-7)))
        CFI R7 load(1, XDATA, add(CFA_XSP16, literal(-6)))
        CFI ?RET_LOW load(1, XDATA, add(CFA_XSP16, literal(-5)))
        CFI ?RET_HIGH load(1, XDATA, add(CFA_XSP16, literal(-4)))
        CFI ?BRET_EXT load(1, XDATA, add(CFA_XSP16, literal(-3)))
        CFI DPL0 load(1, XDATA, add(CFA_XSP16, literal(-2)))
        CFI DPH0 load(1, XDATA, add(CFA_XSP16, literal(-1)))
        CFI CFA_SP SP+0
        CFI CFA_XSP16 add(XSP16, 12)
        CFI Block cfiCond8 Using cfiCommon0
        CFI (cfiCond8) NoFunction
        CFI (cfiCond8) Conditional ??CrossCallReturnLabel_1
        CFI (cfiCond8) R6 load(1, XDATA, add(CFA_XSP16, literal(-10)))
        CFI (cfiCond8) VB load(1, XDATA, add(CFA_XSP16, literal(-9)))
        CFI (cfiCond8) V0 load(1, XDATA, add(CFA_XSP16, literal(-8)))
        CFI (cfiCond8) V1 load(1, XDATA, add(CFA_XSP16, literal(-7)))
        CFI (cfiCond8) R7 load(1, XDATA, add(CFA_XSP16, literal(-6)))
        CFI (cfiCond8) ?RET_LOW load(1, XDATA, add(CFA_XSP16, literal(-5)))
        CFI (cfiCond8) ?RET_HIGH load(1, XDATA, add(CFA_XSP16, literal(-4)))
        CFI (cfiCond8) ?BRET_EXT load(1, XDATA, add(CFA_XSP16, literal(-3)))
        CFI (cfiCond8) DPL0 load(1, XDATA, add(CFA_XSP16, literal(-2)))
        CFI (cfiCond8) DPH0 load(1, XDATA, add(CFA_XSP16, literal(-1)))
        CFI (cfiCond8) CFA_SP SP+0
        CFI (cfiCond8) CFA_XSP16 add(XSP16, 12)
        CFI Block cfiPicker9 Using cfiCommon1
        CFI (cfiPicker9) NoFunction
        CFI (cfiPicker9) Picker
        LCALL   ?Subroutine2 & 0xFFFF
??CrossCallReturnLabel_5:
        INC     DPTR
        RET
        CFI EndBlock cfiCond7
        CFI EndBlock cfiCond8
        CFI EndBlock cfiPicker9

        RSEG BANKED_CODE:CODE:NOROOT(0)
?Subroutine2:
        CFI Block cfiCond10 Using cfiCommon0
        CFI NoFunction
        CFI Conditional ??CrossCallReturnLabel_4
        CFI R6 load(1, XDATA, add(CFA_XSP16, literal(-10)))
        CFI VB load(1, XDATA, add(CFA_XSP16, literal(-9)))
        CFI V0 load(1, XDATA, add(CFA_XSP16, literal(-8)))
        CFI V1 load(1, XDATA, add(CFA_XSP16, literal(-7)))
        CFI R7 load(1, XDATA, add(CFA_XSP16, literal(-6)))
        CFI ?RET_LOW load(1, XDATA, add(CFA_XSP16, literal(-5)))
        CFI ?RET_HIGH load(1, XDATA, add(CFA_XSP16, literal(-4)))
        CFI ?BRET_EXT load(1, XDATA, add(CFA_XSP16, literal(-3)))
        CFI DPL0 load(1, XDATA, add(CFA_XSP16, literal(-2)))
        CFI DPH0 load(1, XDATA, add(CFA_XSP16, literal(-1)))
        CFI CFA_SP SP+0
        CFI CFA_XSP16 add(XSP16, 12)
        CFI Block cfiCond11 Using cfiCommon0
        CFI (cfiCond11) NoFunction
        CFI (cfiCond11) Conditional ??CrossCallReturnLabel_5, ??CrossCallReturnLabel_0
        CFI (cfiCond11) R6 load(1, XDATA, add(CFA_XSP16, literal(-10)))
        CFI (cfiCond11) VB load(1, XDATA, add(CFA_XSP16, literal(-9)))
        CFI (cfiCond11) V0 load(1, XDATA, add(CFA_XSP16, literal(-8)))
        CFI (cfiCond11) V1 load(1, XDATA, add(CFA_XSP16, literal(-7)))
        CFI (cfiCond11) R7 load(1, XDATA, add(CFA_XSP16, literal(-6)))
        CFI (cfiCond11) ?RET_LOW load(1, XDATA, add(CFA_XSP16, literal(-5)))
        CFI (cfiCond11) ?RET_HIGH load(1, XDATA, add(CFA_XSP16, literal(-4)))
        CFI (cfiCond11) ?BRET_EXT load(1, XDATA, add(CFA_XSP16, literal(-3)))
        CFI (cfiCond11) DPL0 load(1, XDATA, add(CFA_XSP16, literal(-2)))
        CFI (cfiCond11) DPH0 load(1, XDATA, add(CFA_XSP16, literal(-1)))
        CFI (cfiCond11) CFA_SP SP+0
        CFI (cfiCond11) CFA_XSP16 add(XSP16, 12)
        CFI Block cfiCond12 Using cfiCommon0
        CFI (cfiCond12) NoFunction
        CFI (cfiCond12) Conditional ??CrossCallReturnLabel_5, ??CrossCallReturnLabel_1
        CFI (cfiCond12) R6 load(1, XDATA, add(CFA_XSP16, literal(-10)))
        CFI (cfiCond12) VB load(1, XDATA, add(CFA_XSP16, literal(-9)))
        CFI (cfiCond12) V0 load(1, XDATA, add(CFA_XSP16, literal(-8)))
        CFI (cfiCond12) V1 load(1, XDATA, add(CFA_XSP16, literal(-7)))
        CFI (cfiCond12) R7 load(1, XDATA, add(CFA_XSP16, literal(-6)))
        CFI (cfiCond12) ?RET_LOW load(1, XDATA, add(CFA_XSP16, literal(-5)))
        CFI (cfiCond12) ?RET_HIGH load(1, XDATA, add(CFA_XSP16, literal(-4)))
        CFI (cfiCond12) ?BRET_EXT load(1, XDATA, add(CFA_XSP16, literal(-3)))
        CFI (cfiCond12) DPL0 load(1, XDATA, add(CFA_XSP16, literal(-2)))
        CFI (cfiCond12) DPH0 load(1, XDATA, add(CFA_XSP16, literal(-1)))
        CFI (cfiCond12) CFA_SP SP+0
        CFI (cfiCond12) CFA_XSP16 add(XSP16, 12)
        CFI Block cfiPicker13 Using cfiCommon1
        CFI (cfiPicker13) NoFunction
        CFI (cfiPicker13) Picker
        MOVX    A,@DPTR
        MOV     R0,A
        INC     DPTR
        MOVX    A,@DPTR
        MOV     DPH,A
        MOV     DPL,R0
        RET
        CFI EndBlock cfiCond10
        CFI EndBlock cfiCond11
        CFI EndBlock cfiCond12
        CFI EndBlock cfiPicker13

        RSEG BANK_RELAYS:CODE:REORDER:NOROOT(0)
??zclHVAC_RegisterCmdCallbacks?relay:
        LCALL   ?BDISPATCH
        DATA
        DC24    zclHVAC_RegisterCmdCallbacks

        RSEG BANK_RELAYS:CODE:REORDER:NOROOT(0)
??zclHVAC_SendSetpointRaiseLower?relay:
        LCALL   ?BDISPATCH
        DATA
        DC24    zclHVAC_SendSetpointRaiseLower

        RSEG BANK_RELAYS:CODE:REORDER:NOROOT(0)
??zclHVAC_FindCallbacks?relay:
        LCALL   ?BDISPATCH
        DATA
        DC24    zclHVAC_FindCallbacks

        RSEG BANK_RELAYS:CODE:REORDER:NOROOT(0)
??zclHVAC_HdlIncoming?relay:
        LCALL   ?BDISPATCH
        DATA
        DC24    zclHVAC_HdlIncoming

        END
//  237 
//  238 /*********************************************************************
//  239  * @fn      zclHVAC_HdlInSpecificCommands
//  240  *
//  241  * @brief   Callback from ZCL to process incoming Commands specific
//  242  *          to this cluster library
//  243 
//  244  * @param   pInMsg - pointer to the incoming message
//  245  *
//  246  * @return  ZStatus_t
//  247  */
//  248 static ZStatus_t zclHVAC_HdlInSpecificCommands( zclIncoming_t *pInMsg )
//  249 {
//  250   ZStatus_t stat = ZSuccess;
//  251   zclHVAC_AppCallbacks_t *pCBs;
//  252   
//  253   // make sure endpoint exists
//  254   pCBs = (void*)zclHVAC_FindCallbacks( pInMsg->msg->endPoint );
//  255   if ( pCBs == NULL )
//  256     return ( ZFailure );
//  257   
//  258   switch ( pInMsg->msg->clusterId )				
//  259   {
//  260     case ZCL_CLUSTER_ID_HVAC_PUMP_CONFIG_CONTROL:
//  261       stat = zclHVAC_ProcessInPumpCmds( pInMsg );
//  262       break;
//  263 
//  264     case ZCL_CLUSTER_ID_HAVC_THERMOSTAT:
//  265       stat = zclHVAC_ProcessInThermostatCmds( pInMsg, pCBs );
//  266       break;
//  267  
//  268     default:
//  269       stat = ZFailure;
//  270       break;
//  271   }
//  272 
//  273   return ( stat );
//  274 }
//  275 
//  276 /*********************************************************************
//  277  * @fn      zclHVAC_ProcessInPumpCmds
//  278  *
//  279  * @brief   Callback from ZCL to process incoming Commands specific
//  280  *          to this cluster library on a command ID basis
//  281 
//  282  * @param   pInMsg - pointer to the incoming message
//  283  *
//  284  * @return  ZStatus_t
//  285  */
//  286 static ZStatus_t zclHVAC_ProcessInPumpCmds( zclIncoming_t *pInMsg )
//  287 {
//  288   ZStatus_t stat = ZFailure;
//  289 
//  290   // there are no specific command for this cluster yet.
//  291   // instead of suppressing a compiler warnings( for a code porting reasons )
//  292   // fake unused call here and keep the code skeleton intact
//  293  (void)pInMsg;
//  294   if ( stat != ZFailure )
//  295     zclHVAC_FindCallbacks( 0 );
//  296 
//  297   return ( stat );
//  298 }
//  299 
//  300 /*********************************************************************
//  301  * @fn      zclHVAC_ProcessInThermostatCmds
//  302  *
//  303  * @brief   Callback from ZCL to process incoming Commands specific
//  304  *          to this cluster library on a command ID basis
//  305 
//  306  * @param   pInMsg - pointer to the incoming message
//  307  *
//  308  * @return  ZStatus_t
//  309  */
//  310 static ZStatus_t zclHVAC_ProcessInThermostatCmds( zclIncoming_t *pInMsg,
//  311                                                   zclHVAC_AppCallbacks_t *pCBs )
//  312 {
//  313   if  ( pInMsg->hdr.commandID != COMMAND_THERMOSTAT_SETPOINT_RAISE_LOWER )
//  314     return (ZFailure);   // Error ignore the command
//  315 
//  316   if ( pCBs->pfnHVAC_SetpointRaiseLower )
//  317   {
//  318     zclCmdThermostatSetpointRaiseLowerPayload_t cmd;
//  319     
//  320     cmd.mode = pInMsg->pData[0];
//  321     cmd.amount = pInMsg->pData[1];
//  322     
//  323     pCBs->pfnHVAC_SetpointRaiseLower( &cmd );
//  324   }
//  325   
//  326   return ( ZSuccess );
//  327 }
//  328 
//  329 /*********************************************************************
//  330  * LOCAL VARIABLES
//  331  */
//  332 
//  333 
//  334 /*********************************************************************
//  335  * LOCAL FUNCTIONS
//  336  */
//  337 
//  338 
//  339 /****************************************************************************
//  340 ****************************************************************************/
//  341 
// 
// 568 bytes in segment BANKED_CODE
//  24 bytes in segment BANK_RELAYS
//   3 bytes in segment XDATA_Z
// 
// 592 bytes of CODE  memory
//   3 bytes of XDATA memory
//
//Errors: none
//Warnings: none
