###############################################################################
#                                                                             #
# IAR C/C++ Compiler V8.10.3.10338/W32 for 8051         02/Jul/2015  10:03:30 #
# Copyright 2004-2011 IAR Systems AB.                                         #
#                                                                             #
#    Core               =  plain                                              #
#    Code model         =  banked                                             #
#    Data model         =  large                                              #
#    Calling convention =  xdata reentrant                                    #
#    Constant location  =  data_rom                                           #
#    Dptr setup         =  1,16                                               #
#    Source file        =  S:\zigbee\Myzigbe\version 3.0 for new              #
#                          ZStack-CC2530-2.5.1a\Projects\zstack\AT            #
#                          commands\AT command 3.2 - SOCKET\Source\OSAL_App.c #
#    Command line       =  -f "S:\zigbee\Myzigbe\version 3.0 for new          #
#                          ZStack-CC2530-2.5.1a\Projects\zstack\AT            #
#                          commands\AT command 3.2 -                          #
#                          SOCKET\CC2530DB\..\..\..\Tools\CC2530DB\f8wRouter. #
#                          cfg" (-DCPU32MHZ -DROOT=__near_func                #
#                          -DMAC_CFG_APP_PENDING_QUEUE=TRUE                   #
#                          -DMAC_CFG_TX_DATA_MAX=5 -DMAC_CFG_TX_MAX=8         #
#                          -DMAC_CFG_RX_MAX=5 -DRTR_NWK) -f                   #
#                          "S:\zigbee\Myzigbe\version 3.0 for new             #
#                          ZStack-CC2530-2.5.1a\Projects\zstack\AT            #
#                          commands\AT command 3.2 -                          #
#                          SOCKET\CC2530DB\..\..\..\Tools\CC2530DB\f8wConfig. #
#                          cfg" (-DZIGBEEPRO -DSECURE=0                       #
#                          -DZG_SECURE_DYNAMIC=0 -DREFLECTOR                  #
#                          -DDEFAULT_CHANLIST=0x00000800                      #
#                          -DZDAPP_CONFIG_PAN_ID=0x2015                       #
#                          -DNWK_START_DELAY=100 -DEXTENDED_JOINING_RANDOM_MA #
#                          SK=0x007F -DBEACON_REQUEST_DELAY=100               #
#                          -DBEACON_REQ_DELAY_MASK=0x00FF                     #
#                          -DLINK_STATUS_JITTER_MASK=0x007F                   #
#                          -DROUTE_EXPIRY_TIME=30 -DAPSC_ACK_WAIT_DURATION_PO #
#                          LLED=3000 -DNWK_INDIRECT_MSG_TIMEOUT=7             #
#                          -DMAX_RREQ_ENTRIES=8 -DAPSC_MAX_FRAME_RETRIES=3    #
#                          -DNWK_MAX_DATA_RETRIES=2                           #
#                          -DMAX_POLL_FAILURE_RETRIES=2 -DMAX_BCAST=9         #
#                          -DAPS_MAX_GROUPS=16 -DMAX_RTG_ENTRIES=40           #
#                          -DNWK_MAX_BINDING_ENTRIES=4                        #
#                          -DMAX_BINDING_CLUSTER_IDS=4 "-DDEFAULT_KEY={0x01,  #
#                          0x03, 0x05, 0x07, 0x09, 0x0B, 0x0D, 0x0F, 0x00,    #
#                          0x02, 0x04, 0x06, 0x08, 0x0A, 0x0C, 0x0D}"         #
#                          -DMAC_MAX_FRAME_SIZE=116                           #
#                          -DZDNWKMGR_MIN_TRANSMISSIONS=20 "-DCONST=const     #
#                          __code" -DGENERIC=__generic                        #
#                          -DRFD_RCVC_ALWAYS_ON=FALSE -DPOLL_RATE=1000        #
#                          -DQUEUED_POLL_RATE=100 -DRESPONSE_POLL_RATE=100)   #
#                          -DREJOIN_POLL_RATE=440 "S:\zigbee\Myzigbe\version  #
#                          3.0 for new ZStack-CC2530-2.5.1a\Projects\zstack\A #
#                          T commands\AT command 3.2 -                        #
#                          SOCKET\Source\OSAL_App.c" -D ZIGBEEPRO -D          #
#                          NWK_AUTO_POLL -D HAL_UART=TRUE -D HOLD_AUTO_START  #
#                          -D NV_RESTORE -D REFLECTOR -D                      #
#                          xHAL_UART_ISR_TX_MAX=200 -D xPOWER_SAVING -D       #
#                          ZCL_READ -D ZCL_WRITE -D ZCL_IDENTIFY -D           #
#                          ZCL_ON_OFF -D ZCL_DISCOVER -D HAL_UART_ISR=1 -D    #
#                          HAL_UART_DMA=0 -D xZTOOL_P1 -D xMT_TASK -D         #
#                          xMT_SYS_FUNC -D xMT_ZDO_FUNC -D                    #
#                          xLCD_SUPPORTED=DEBUG -D xMT_UART_DEFAULT_OVERFLOW= #
#                          FALSE -lC "S:\zigbee\Myzigbe\version 3.0 for new   #
#                          ZStack-CC2530-2.5.1a\Projects\zstack\AT            #
#                          commands\AT command 3.2 -                          #
#                          SOCKET\CC2530DB\RouterEB\List\" -lA                #
#                          "S:\zigbee\Myzigbe\version 3.0 for new             #
#                          ZStack-CC2530-2.5.1a\Projects\zstack\AT            #
#                          commands\AT command 3.2 -                          #
#                          SOCKET\CC2530DB\RouterEB\List\" --diag_suppress    #
#                          Pe001,Pa010 -o "S:\zigbee\Myzigbe\version 3.0 for  #
#                          new ZStack-CC2530-2.5.1a\Projects\zstack\AT        #
#                          commands\AT command 3.2 -                          #
#                          SOCKET\CC2530DB\RouterEB\Obj\" -e                  #
#                          --no_code_motion --debug --core=plain --dptr=16,1  #
#                          --data_model=large --code_model=banked             #
#                          --calling_convention=xdata_reentrant               #
#                          --place_constants=data_rom --nr_virtual_regs 16    #
#                          -I "S:\zigbee\Myzigbe\version 3.0 for new          #
#                          ZStack-CC2530-2.5.1a\Projects\zstack\AT            #
#                          commands\AT command 3.2 - SOCKET\CC2530DB\" -I     #
#                          "S:\zigbee\Myzigbe\version 3.0 for new             #
#                          ZStack-CC2530-2.5.1a\Projects\zstack\AT            #
#                          commands\AT command 3.2 -                          #
#                          SOCKET\CC2530DB\..\Source\" -I                     #
#                          "S:\zigbee\Myzigbe\version 3.0 for new             #
#                          ZStack-CC2530-2.5.1a\Projects\zstack\AT            #
#                          commands\AT command 3.2 -                          #
#                          SOCKET\CC2530DB\..\Source\hal\" -I                 #
#                          "S:\zigbee\Myzigbe\version 3.0 for new             #
#                          ZStack-CC2530-2.5.1a\Projects\zstack\AT            #
#                          commands\AT command 3.2 -                          #
#                          SOCKET\CC2530DB\..\Source\Modified\" -I            #
#                          "S:\zigbee\Myzigbe\version 3.0 for new             #
#                          ZStack-CC2530-2.5.1a\Projects\zstack\AT            #
#                          commands\AT command 3.2 -                          #
#                          SOCKET\CC2530DB\..\..\..\ZMain\TI2530DB\" -I       #
#                          "S:\zigbee\Myzigbe\version 3.0 for new             #
#                          ZStack-CC2530-2.5.1a\Projects\zstack\AT            #
#                          commands\AT command 3.2 -                          #
#                          SOCKET\CC2530DB\..\..\..\..\..\Components\hal\incl #
#                          ude\" -I "S:\zigbee\Myzigbe\version 3.0 for new    #
#                          ZStack-CC2530-2.5.1a\Projects\zstack\AT            #
#                          commands\AT command 3.2 -                          #
#                          SOCKET\CC2530DB\..\..\..\..\..\Components\hal\targ #
#                          et\CC2530EB\" -I "S:\zigbee\Myzigbe\version 3.0    #
#                          for new ZStack-CC2530-2.5.1a\Projects\zstack\AT    #
#                          commands\AT command 3.2 -                          #
#                          SOCKET\CC2530DB\..\..\..\..\..\Components\mac\incl #
#                          ude\" -I "S:\zigbee\Myzigbe\version 3.0 for new    #
#                          ZStack-CC2530-2.5.1a\Projects\zstack\AT            #
#                          commands\AT command 3.2 -                          #
#                          SOCKET\CC2530DB\..\..\..\..\..\Components\mac\high #
#                          _level\" -I "S:\zigbee\Myzigbe\version 3.0 for     #
#                          new ZStack-CC2530-2.5.1a\Projects\zstack\AT        #
#                          commands\AT command 3.2 -                          #
#                          SOCKET\CC2530DB\..\..\..\..\..\Components\mac\low_ #
#                          level\srf04\" -I "S:\zigbee\Myzigbe\version 3.0    #
#                          for new ZStack-CC2530-2.5.1a\Projects\zstack\AT    #
#                          commands\AT command 3.2 -                          #
#                          SOCKET\CC2530DB\..\..\..\..\..\Components\mac\low_ #
#                          level\srf04\single_chip\" -I                       #
#                          "S:\zigbee\Myzigbe\version 3.0 for new             #
#                          ZStack-CC2530-2.5.1a\Projects\zstack\AT            #
#                          commands\AT command 3.2 -                          #
#                          SOCKET\CC2530DB\..\..\..\..\..\Components\mt\" -I  #
#                          "S:\zigbee\Myzigbe\version 3.0 for new             #
#                          ZStack-CC2530-2.5.1a\Projects\zstack\AT            #
#                          commands\AT command 3.2 -                          #
#                          SOCKET\CC2530DB\..\..\..\..\..\Components\osal\inc #
#                          lude\" -I "S:\zigbee\Myzigbe\version 3.0 for new   #
#                          ZStack-CC2530-2.5.1a\Projects\zstack\AT            #
#                          commands\AT command 3.2 -                          #
#                          SOCKET\CC2530DB\..\..\..\..\..\Components\services #
#                          \saddr\" -I "S:\zigbee\Myzigbe\version 3.0 for     #
#                          new ZStack-CC2530-2.5.1a\Projects\zstack\AT        #
#                          commands\AT command 3.2 -                          #
#                          SOCKET\CC2530DB\..\..\..\..\..\Components\services #
#                          \sdata\" -I "S:\zigbee\Myzigbe\version 3.0 for     #
#                          new ZStack-CC2530-2.5.1a\Projects\zstack\AT        #
#                          commands\AT command 3.2 -                          #
#                          SOCKET\CC2530DB\..\..\..\..\..\Components\stack\af #
#                          \" -I "S:\zigbee\Myzigbe\version 3.0 for new       #
#                          ZStack-CC2530-2.5.1a\Projects\zstack\AT            #
#                          commands\AT command 3.2 -                          #
#                          SOCKET\CC2530DB\..\..\..\..\..\Components\stack\nw #
#                          k\" -I "S:\zigbee\Myzigbe\version 3.0 for new      #
#                          ZStack-CC2530-2.5.1a\Projects\zstack\AT            #
#                          commands\AT command 3.2 -                          #
#                          SOCKET\CC2530DB\..\..\..\..\..\Components\stack\sa #
#                          pi\" -I "S:\zigbee\Myzigbe\version 3.0 for new     #
#                          ZStack-CC2530-2.5.1a\Projects\zstack\AT            #
#                          commands\AT command 3.2 -                          #
#                          SOCKET\CC2530DB\..\..\..\..\..\Components\stack\se #
#                          c\" -I "S:\zigbee\Myzigbe\version 3.0 for new      #
#                          ZStack-CC2530-2.5.1a\Projects\zstack\AT            #
#                          commands\AT command 3.2 -                          #
#                          SOCKET\CC2530DB\..\..\..\..\..\Components\stack\sy #
#                          s\" -I "S:\zigbee\Myzigbe\version 3.0 for new      #
#                          ZStack-CC2530-2.5.1a\Projects\zstack\AT            #
#                          commands\AT command 3.2 -                          #
#                          SOCKET\CC2530DB\..\..\..\..\..\Components\stack\zd #
#                          o\" -I "S:\zigbee\Myzigbe\version 3.0 for new      #
#                          ZStack-CC2530-2.5.1a\Projects\zstack\AT            #
#                          commands\AT command 3.2 -                          #
#                          SOCKET\CC2530DB\..\..\..\..\..\Components\stack\zc #
#                          l\" -I "S:\zigbee\Myzigbe\version 3.0 for new      #
#                          ZStack-CC2530-2.5.1a\Projects\zstack\AT            #
#                          commands\AT command 3.2 -                          #
#                          SOCKET\CC2530DB\..\..\..\..\..\Components\zmac\"   #
#                          -I "S:\zigbee\Myzigbe\version 3.0 for new          #
#                          ZStack-CC2530-2.5.1a\Projects\zstack\AT            #
#                          commands\AT command 3.2 -                          #
#                          SOCKET\CC2530DB\..\..\..\..\..\Components\zmac\f8w #
#                          \" -Ohz --require_prototypes                       #
#    List file          =  S:\zigbee\Myzigbe\version 3.0 for new              #
#                          ZStack-CC2530-2.5.1a\Projects\zstack\AT            #
#                          commands\AT command 3.2 -                          #
#                          SOCKET\CC2530DB\RouterEB\List\OSAL_App.lst         #
#    Object file        =  S:\zigbee\Myzigbe\version 3.0 for new              #
#                          ZStack-CC2530-2.5.1a\Projects\zstack\AT            #
#                          commands\AT command 3.2 -                          #
#                          SOCKET\CC2530DB\RouterEB\Obj\OSAL_App.r51          #
#                                                                             #
#                                                                             #
###############################################################################

S:\zigbee\Myzigbe\version 3.0 for new ZStack-CC2530-2.5.1a\Projects\zstack\AT commands\AT command 3.2 - SOCKET\Source\OSAL_App.c
      1          /**************************************************************************************************
      2            Filename:       OSAL_SampleApp.c
      3            Revised:        $Date: 2008-02-07 12:10:00 -0800 (Thu, 07 Feb 2008) $
      4            Revision:       $Revision: 16360 $
      5          
      6            Description:    This file contains all the settings and other functions
      7                            that the user should set and change.
      8          
      9          
     10            Copyright 2007 Texas Instruments Incorporated. All rights reserved.
     11          
     12            IMPORTANT: Your use of this Software is limited to those specific rights
     13            granted under the terms of a software license agreement between the user
     14            who downloaded the software, his/her employer (which must be your employer)
     15            and Texas Instruments Incorporated (the "License").  You may not use this
     16            Software unless you agree to abide by the terms of the License. The License
     17            limits your use, and you acknowledge, that the Software may not be modified,
     18            copied or distributed unless embedded on a Texas Instruments microcontroller
     19            or used solely and exclusively in conjunction with a Texas Instruments radio
     20            frequency transceiver, which is integrated into your product.  Other than for
     21            the foregoing purpose, you may not use, reproduce, copy, prepare derivative
     22            works of, modify, distribute, perform, display or sell this Software and/or
     23            its documentation for any purpose.
     24          
     25            YOU FURTHER ACKNOWLEDGE AND AGREE THAT THE SOFTWARE AND DOCUMENTATION ARE
     26            PROVIDED “AS IS?WITHOUT WARRANTY OF ANY KIND, EITHER EXPRESS OR IMPLIED,
     27            INCLUDING WITHOUT LIMITATION, ANY WARRANTY OF MERCHANTABILITY, TITLE,
     28            NON-INFRINGEMENT AND FITNESS FOR A PARTICULAR PURPOSE. IN NO EVENT SHALL
     29            TEXAS INSTRUMENTS OR ITS LICENSORS BE LIABLE OR OBLIGATED UNDER CONTRACT,
     30            NEGLIGENCE, STRICT LIABILITY, CONTRIBUTION, BREACH OF WARRANTY, OR OTHER
     31            LEGAL EQUITABLE THEORY ANY DIRECT OR INDIRECT DAMAGES OR EXPENSES
     32            INCLUDING BUT NOT LIMITED TO ANY INCIDENTAL, SPECIAL, INDIRECT, PUNITIVE
     33            OR CONSEQUENTIAL DAMAGES, LOST PROFITS OR LOST DATA, COST OF PROCUREMENT
     34            OF SUBSTITUTE GOODS, TECHNOLOGY, SERVICES, OR ANY CLAIMS BY THIRD PARTIES
     35            (INCLUDING BUT NOT LIMITED TO ANY DEFENSE THEREOF), OR OTHER SIMILAR COSTS.
     36          
     37            Should you have any questions regarding your right to use this Software,
     38            contact Texas Instruments Incorporated at www.TI.com.
     39          **************************************************************************************************/
     40          
     41          /*********************************************************************
     42           * INCLUDES
     43           */
     44          
     45          #include "ZComDef.h"
     46          #include "hal_drivers.h"
     47          #include "OSAL.h"
     48          #include "OSAL_Tasks.h"
     49          
     50          #if defined ( MT_TASK )
     51            #include "MT.h"
     52            #include "MT_TASK.h"
     53          #endif
     54          
     55          #include "nwk.h"
     56          #include "APS.h"
     57          #include "ZDApp.h"
     58          #if defined ( ZIGBEE_FREQ_AGILITY ) || defined ( ZIGBEE_PANID_CONFLICT )
     59            #include "ZDNwkMgr.h"
     60          #endif
     61          #if defined ( ZIGBEE_FRAGMENTATION )
     62            #include "aps_frag.h"
     63          #endif
     64          
     65          #include "AT_App.h"
     66          #include "zcl.h"
     67          #include "AT_ZCL_temperature.h"
     68          #include "AT_ZCL_ONOFF.h"
     69          #include "AT_ZCL_ONOFF_SWITCH.h"
     70          #include "AT_ZCL_ONOFF_SWITCH2.h"
     71          #include "AT_ZCL_DHT.h"
     72          
     73          /*********************************************************************
     74           * GLOBAL VARIABLES
     75           */
     76          
     77          // The order in this table must be identical to the task initialization calls below in osalInitTask.

   \                                 In  segment XDATA_ROM_C, align 1
     78          const pTaskEventHandlerFn tasksArr[] = {
   \                     tasksArr:
   \   000000   ....         DW ??macEventLoop?relay
   \   000002   ....         DW ??nwk_event_loop?relay
   \   000004   ....         DW ??Hal_ProcessEvent?relay
   \   000006   ....         DW ??APS_event_loop?relay
   \   000008   ....         DW ??APSF_ProcessEvent?relay
   \   00000A   ....         DW ??ZDApp_event_loop?relay
   \   00000C   ....         DW ??ZDNwkMgr_event_loop?relay
   \   00000E   ....         DW ??zcl_event_loop?relay
   \   000010   ....         DW ??AT_App_ProcessEvent?relay
   \   000012   ....         DW ??AT_ZCL_TEMP_event_loop?relay
   \   000014   ....         DW ??AT_ZCL_ONOFF_event_loop?relay
   \   000016   ....         DW ??AT_ZCL_ONOFF_SWITCH_event_loop?relay
   \   000018   ....         DW ??AT_ZCL_ONOFF_SWITCH2_event_loop?relay
   \   00001A   ....         DW ??AT_ZCL_DHT_event_loop?relay
     79            macEventLoop,
     80            nwk_event_loop,
     81            Hal_ProcessEvent,
     82          #if defined( MT_TASK )
     83            MT_ProcessEvent,
     84          #endif
     85            APS_event_loop,
     86          #if defined ( ZIGBEE_FRAGMENTATION )
     87            APSF_ProcessEvent,
     88          #endif
     89            ZDApp_event_loop,
     90          #if defined ( ZIGBEE_FREQ_AGILITY ) || defined ( ZIGBEE_PANID_CONFLICT )
     91            ZDNwkMgr_event_loop,
     92          #endif
     93            zcl_event_loop,
     94            AT_App_ProcessEvent,
     95            AT_ZCL_TEMP_event_loop,
     96            AT_ZCL_ONOFF_event_loop,
     97            AT_ZCL_ONOFF_SWITCH_event_loop,
     98            AT_ZCL_ONOFF_SWITCH2_event_loop,
     99            AT_ZCL_DHT_event_loop
    100          };
    101          

   \                                 In  segment XDATA_ROM_C, align 1
    102          const uint8 tasksCnt = sizeof( tasksArr ) / sizeof( tasksArr[0] );
   \                     tasksCnt:
   \   000000   0E           DB 14

   \                                 In  segment XDATA_Z, align 1, keep-with-next
    103          uint16 *tasksEvents;
   \                     tasksEvents:
   \   000000                DS 2
   \   000002                REQUIRE __INIT_XDATA_Z
    104          
    105          /*********************************************************************
    106           * FUNCTIONS
    107           *********************************************************************/
    108          
    109          /*********************************************************************
    110           * @fn      osalInitTasks
    111           *
    112           * @brief   This function invokes the initialization function for each task.
    113           *
    114           * @param   void
    115           *
    116           * @return  none
    117           */

   \                                 In  segment BANKED_CODE, align 1, keep-with-next
    118          void osalInitTasks( void )
   \                     osalInitTasks:
    119          {
   \   000000   C082         PUSH    DPL
   \   000002   C083         PUSH    DPH
   \   000004                ; Saved register size: 2
   \   000004                ; Auto size: 0
    120            uint8 taskID = 0;
    121          
    122            tasksEvents = (uint16 *)osal_mem_alloc( sizeof( uint16 ) * tasksCnt);
   \   000004                ; Setup parameters for call to function osal_mem_alloc
   \   000004   7A1C         MOV     R2,#0x1c
   \   000006   7B00         MOV     R3,#0x0
   \   000008   12....       LCALL   ??osal_mem_alloc?relay
   \   00000B   90....       MOV     DPTR,#tasksEvents
   \   00000E   EA           MOV     A,R2
   \   00000F   F0           MOVX    @DPTR,A
   \   000010   A3           INC     DPTR
   \   000011   EB           MOV     A,R3
   \   000012   F0           MOVX    @DPTR,A
    123            osal_memset( tasksEvents, 0, (sizeof( uint16 ) * tasksCnt));
   \   000013                ; Setup parameters for call to function osal_memset
   \   000013   7C1C         MOV     R4,#0x1c
   \   000015   7D00         MOV     R5,#0x0
   \   000017   7900         MOV     R1,#0x0
   \   000019   12....       LCALL   ??osal_memset?relay
    124          
    125            macTaskInit( taskID++ );
   \   00001C                ; Setup parameters for call to function macTaskInit
   \   00001C   7900         MOV     R1,#0x0
   \   00001E   12....       LCALL   ??macTaskInit?relay
    126            nwk_init( taskID++ );
   \   000021                ; Setup parameters for call to function nwk_init
   \   000021   7901         MOV     R1,#0x1
   \   000023   12....       LCALL   ??nwk_init?relay
    127            Hal_Init( taskID++ );
   \   000026                ; Setup parameters for call to function Hal_Init
   \   000026   7902         MOV     R1,#0x2
   \   000028   12....       LCALL   ??Hal_Init?relay
    128          #if defined( MT_TASK )
    129            MT_TaskInit( taskID++ );
    130          #endif
    131            APS_Init( taskID++ );
   \   00002B                ; Setup parameters for call to function APS_Init
   \   00002B   7903         MOV     R1,#0x3
   \   00002D   12....       LCALL   ??APS_Init?relay
    132          #if defined ( ZIGBEE_FRAGMENTATION )
    133            APSF_Init( taskID++ );
   \   000030                ; Setup parameters for call to function APSF_Init
   \   000030   7904         MOV     R1,#0x4
   \   000032   12....       LCALL   ??APSF_Init?relay
    134          #endif
    135            ZDApp_Init( taskID++ );
   \   000035                ; Setup parameters for call to function ZDApp_Init
   \   000035   7905         MOV     R1,#0x5
   \   000037   12....       LCALL   ??ZDApp_Init?relay
    136          #if defined ( ZIGBEE_FREQ_AGILITY ) || defined ( ZIGBEE_PANID_CONFLICT )
    137            ZDNwkMgr_Init( taskID++ );
   \   00003A                ; Setup parameters for call to function ZDNwkMgr_Init
   \   00003A   7906         MOV     R1,#0x6
   \   00003C   12....       LCALL   ??ZDNwkMgr_Init?relay
    138          #endif
    139            zcl_Init( taskID++ );
   \   00003F                ; Setup parameters for call to function zcl_Init
   \   00003F   7907         MOV     R1,#0x7
   \   000041   12....       LCALL   ??zcl_Init?relay
    140            AT_App_Init(taskID++ );
   \   000044                ; Setup parameters for call to function AT_App_Init
   \   000044   7908         MOV     R1,#0x8
   \   000046   12....       LCALL   ??AT_App_Init?relay
    141            AT_ZCL_TEMP_Init( taskID++ );
   \   000049                ; Setup parameters for call to function AT_ZCL_TEMP_Init
   \   000049   7909         MOV     R1,#0x9
   \   00004B   12....       LCALL   ??AT_ZCL_TEMP_Init?relay
    142            AT_ZCL_ONOFF_Init( taskID++ );
   \   00004E                ; Setup parameters for call to function AT_ZCL_ONOFF_Init
   \   00004E   790A         MOV     R1,#0xa
   \   000050   12....       LCALL   ??AT_ZCL_ONOFF_Init?relay
    143            AT_ZCL_ONOFF_SWITCH_Init( taskID++ );
   \   000053                ; Setup parameters for call to function AT_ZCL_ONOFF_SWITCH_Init
   \   000053   790B         MOV     R1,#0xb
   \   000055   12....       LCALL   ??AT_ZCL_ONOFF_SWITCH_Init?relay
    144            AT_ZCL_ONOFF_SWITCH2_Init( taskID++ );
   \   000058                ; Setup parameters for call to function AT_ZCL_ONOFF_SWITCH2_Init
   \   000058   790C         MOV     R1,#0xc
   \   00005A   12....       LCALL   ??AT_ZCL_ONOFF_SWITCH2_Init?relay
    145            AT_ZCL_DHT_Init( taskID++ );
   \   00005D                ; Setup parameters for call to function AT_ZCL_DHT_Init
   \   00005D   790D         MOV     R1,#0xd
   \   00005F   12....       LCALL   ??AT_ZCL_DHT_Init?relay
    146          }
   \   000062   D083         POP     DPH
   \   000064   D082         POP     DPL
   \   000066   02....       LJMP    ?BRET

   \                                 In  segment BANK_RELAYS, align 1
   \                     ??osalInitTasks?relay:
   \   000000   12....       LCALL   ?BDISPATCH
   \   000003   ......       DC24    osalInitTasks
    147          
    148          /*********************************************************************
    149          *********************************************************************/

   Maximum stack usage in bytes:

     Function                       ISTACK PSTACK XSTACK
     --------                       ------ ------ ------
     osalInitTasks                      2      0      0
       -> osal_mem_alloc                4      0      0
       -> osal_memset                   4      0      0
       -> macTaskInit                   4      0      0
       -> nwk_init                      4      0      0
       -> Hal_Init                      4      0      0
       -> APS_Init                      4      0      0
       -> APSF_Init                     4      0      0
       -> ZDApp_Init                    4      0      0
       -> ZDNwkMgr_Init                 4      0      0
       -> zcl_Init                      4      0      0
       -> AT_App_Init                   4      0      0
       -> AT_ZCL_TEMP_Init              4      0      0
       -> AT_ZCL_ONOFF_Init             4      0      0
       -> AT_ZCL_ONOFF_SWITCH_Init      4      0      0
       -> AT_ZCL_ONOFF_SWITCH2_Init     4      0      0
       -> AT_ZCL_DHT_Init               4      0      0


   Segment part sizes:

     Function/Label        Bytes
     --------------        -----
     tasksArr                28
     tasksCnt                 1
     tasksEvents              2
     osalInitTasks          105
     ??osalInitTasks?relay    6

 
 105 bytes in segment BANKED_CODE
   6 bytes in segment BANK_RELAYS
  29 bytes in segment XDATA_ROM_C
   2 bytes in segment XDATA_Z
 
 111 bytes of CODE  memory
  29 bytes of CONST memory
   2 bytes of XDATA memory

Errors: none
Warnings: none
