///////////////////////////////////////////////////////////////////////////////
//                                                                            /
// IAR C/C++ Compiler V8.10.3.10338/W32 for 8051        15/Jun/2015  20:13:06 /
// Copyright 2004-2011 IAR Systems AB.                                        /
//                                                                            /
//    Core               =  plain                                             /
//    Code model         =  banked                                            /
//    Data model         =  large                                             /
//    Calling convention =  xdata reentrant                                   /
//    Constant location  =  data_rom                                          /
//    Dptr setup         =  1,16                                              /
//    Source file        =  S:\zigbee\Myzigbe\version 3.0 for new             /
//                          ZStack-CC2530-2.5.1a\Projects\zstack\AT           /
//                          commands\AT command 3.2\Source\AT_AF.c            /
//    Command line       =  -f "S:\zigbee\Myzigbe\version 3.0 for new         /
//                          ZStack-CC2530-2.5.1a\Projects\zstack\AT           /
//                          commands\AT command 3.2\CC2530DB\..\..\..\Tools\C /
//                          C2530DB\f8wCoord.cfg" (-DCPU32MHZ                 /
//                          -DROOT=__near_func -DMAC_CFG_APP_PENDING_QUEUE=TR /
//                          UE -DMAC_CFG_TX_DATA_MAX=5 -DMAC_CFG_TX_MAX=8     /
//                          -DMAC_CFG_RX_MAX=5 -DZDO_COORDINATOR -DRTR_NWK)   /
//                          -f "S:\zigbee\Myzigbe\version 3.0 for new         /
//                          ZStack-CC2530-2.5.1a\Projects\zstack\AT           /
//                          commands\AT command 3.2\CC2530DB\..\..\..\Tools\C /
//                          C2530DB\f8wConfig.cfg" (-DZIGBEEPRO -DSECURE=0    /
//                          -DZG_SECURE_DYNAMIC=0 -DREFLECTOR                 /
//                          -DDEFAULT_CHANLIST=0x00000800                     /
//                          -DZDAPP_CONFIG_PAN_ID=0x2015                      /
//                          -DNWK_START_DELAY=100 -DEXTENDED_JOINING_RANDOM_M /
//                          ASK=0x007F -DBEACON_REQUEST_DELAY=100             /
//                          -DBEACON_REQ_DELAY_MASK=0x00FF                    /
//                          -DLINK_STATUS_JITTER_MASK=0x007F                  /
//                          -DROUTE_EXPIRY_TIME=30 -DAPSC_ACK_WAIT_DURATION_P /
//                          OLLED=3000 -DNWK_INDIRECT_MSG_TIMEOUT=7           /
//                          -DMAX_RREQ_ENTRIES=8 -DAPSC_MAX_FRAME_RETRIES=3   /
//                          -DNWK_MAX_DATA_RETRIES=2                          /
//                          -DMAX_POLL_FAILURE_RETRIES=2 -DMAX_BCAST=9        /
//                          -DAPS_MAX_GROUPS=16 -DMAX_RTG_ENTRIES=40          /
//                          -DNWK_MAX_BINDING_ENTRIES=4                       /
//                          -DMAX_BINDING_CLUSTER_IDS=4                       /
//                          "-DDEFAULT_KEY={0x01, 0x03, 0x05, 0x07, 0x09,     /
//                          0x0B, 0x0D, 0x0F, 0x00, 0x02, 0x04, 0x06, 0x08,   /
//                          0x0A, 0x0C, 0x0D}" -DMAC_MAX_FRAME_SIZE=116       /
//                          -DZDNWKMGR_MIN_TRANSMISSIONS=20 "-DCONST=const    /
//                          __code" -DGENERIC=__generic                       /
//                          -DRFD_RCVC_ALWAYS_ON=FALSE -DPOLL_RATE=1000       /
//                          -DQUEUED_POLL_RATE=100 -DRESPONSE_POLL_RATE=100)  /
//                          -DREJOIN_POLL_RATE=440 "S:\zigbee\Myzigbe\version /
//                           3.0 for new ZStack-CC2530-2.5.1a\Projects\zstack /
//                          \AT commands\AT command 3.2\Source\AT_AF.c" -D    /
//                          ZIGBEEPRO -D NWK_AUTO_POLL -D HAL_UART=TRUE -D    /
//                          HOLD_AUTO_START -D NV_RESTORE -D REFLECTOR -D     /
//                          HAL_UART_ISR=1 -D HAL_UART_DMA=0 -D               /
//                          xHAL_UART_ISR_TX_MAX=200 -D xPOWER_SAVING -D      /
//                          ZCL_READ -D ZCL_WRITE -D ZCL_IDENTIFY -D          /
//                          ZCL_ON_OFF -D ZCL_DISCOVER -D xZTOOL_P1 -D        /
//                          xMT_TASK -D xMT_SYS_FUNC -D xMT_ZDO_FUNC -D       /
//                          xLCD_SUPPORTED=DEBUG -D                           /
//                          xMT_UART_DEFAULT_OVERFLOW=FALSE -lC               /
//                          "S:\zigbee\Myzigbe\version 3.0 for new            /
//                          ZStack-CC2530-2.5.1a\Projects\zstack\AT           /
//                          commands\AT command 3.2\CC2530DB\CoordinatorEB\Li /
//                          st\" -lA "S:\zigbee\Myzigbe\version 3.0 for new   /
//                          ZStack-CC2530-2.5.1a\Projects\zstack\AT           /
//                          commands\AT command 3.2\CC2530DB\CoordinatorEB\Li /
//                          st\" --diag_suppress Pe001,Pa010 -o               /
//                          "S:\zigbee\Myzigbe\version 3.0 for new            /
//                          ZStack-CC2530-2.5.1a\Projects\zstack\AT           /
//                          commands\AT command 3.2\CC2530DB\CoordinatorEB\Ob /
//                          j\" -e --no_code_motion --debug --core=plain      /
//                          --dptr=16,1 --data_model=large                    /
//                          --code_model=banked --calling_convention=xdata_re /
//                          entrant --place_constants=data_rom                /
//                          --nr_virtual_regs 16 -I                           /
//                          "S:\zigbee\Myzigbe\version 3.0 for new            /
//                          ZStack-CC2530-2.5.1a\Projects\zstack\AT           /
//                          commands\AT command 3.2\CC2530DB\" -I             /
//                          "S:\zigbee\Myzigbe\version 3.0 for new            /
//                          ZStack-CC2530-2.5.1a\Projects\zstack\AT           /
//                          commands\AT command 3.2\CC2530DB\..\Source\" -I   /
//                          "S:\zigbee\Myzigbe\version 3.0 for new            /
//                          ZStack-CC2530-2.5.1a\Projects\zstack\AT           /
//                          commands\AT command 3.2\CC2530DB\..\..\..\ZMain\T /
//                          I2530DB\" -I "S:\zigbee\Myzigbe\version 3.0 for   /
//                          new ZStack-CC2530-2.5.1a\Projects\zstack\AT       /
//                          commands\AT command 3.2\CC2530DB\..\..\..\..\..\C /
//                          omponents\hal\include\" -I                        /
//                          "S:\zigbee\Myzigbe\version 3.0 for new            /
//                          ZStack-CC2530-2.5.1a\Projects\zstack\AT           /
//                          commands\AT command 3.2\CC2530DB\..\..\..\..\..\C /
//                          omponents\hal\target\CC2530EB\" -I                /
//                          "S:\zigbee\Myzigbe\version 3.0 for new            /
//                          ZStack-CC2530-2.5.1a\Projects\zstack\AT           /
//                          commands\AT command 3.2\CC2530DB\..\..\..\..\..\C /
//                          omponents\mac\include\" -I                        /
//                          "S:\zigbee\Myzigbe\version 3.0 for new            /
//                          ZStack-CC2530-2.5.1a\Projects\zstack\AT           /
//                          commands\AT command 3.2\CC2530DB\..\..\..\..\..\C /
//                          omponents\mac\high_level\" -I                     /
//                          "S:\zigbee\Myzigbe\version 3.0 for new            /
//                          ZStack-CC2530-2.5.1a\Projects\zstack\AT           /
//                          commands\AT command 3.2\CC2530DB\..\..\..\..\..\C /
//                          omponents\mac\low_level\srf04\" -I                /
//                          "S:\zigbee\Myzigbe\version 3.0 for new            /
//                          ZStack-CC2530-2.5.1a\Projects\zstack\AT           /
//                          commands\AT command 3.2\CC2530DB\..\..\..\..\..\C /
//                          omponents\mac\low_level\srf04\single_chip\" -I    /
//                          "S:\zigbee\Myzigbe\version 3.0 for new            /
//                          ZStack-CC2530-2.5.1a\Projects\zstack\AT           /
//                          commands\AT command 3.2\CC2530DB\..\..\..\..\..\C /
//                          omponents\mt\" -I "S:\zigbee\Myzigbe\version 3.0  /
//                          for new ZStack-CC2530-2.5.1a\Projects\zstack\AT   /
//                          commands\AT command 3.2\CC2530DB\..\..\..\..\..\C /
//                          omponents\osal\include\" -I                       /
//                          "S:\zigbee\Myzigbe\version 3.0 for new            /
//                          ZStack-CC2530-2.5.1a\Projects\zstack\AT           /
//                          commands\AT command 3.2\CC2530DB\..\..\..\..\..\C /
//                          omponents\services\saddr\" -I                     /
//                          "S:\zigbee\Myzigbe\version 3.0 for new            /
//                          ZStack-CC2530-2.5.1a\Projects\zstack\AT           /
//                          commands\AT command 3.2\CC2530DB\..\..\..\..\..\C /
//                          omponents\services\sdata\" -I                     /
//                          "S:\zigbee\Myzigbe\version 3.0 for new            /
//                          ZStack-CC2530-2.5.1a\Projects\zstack\AT           /
//                          commands\AT command 3.2\CC2530DB\..\..\..\..\..\C /
//                          omponents\stack\af\" -I                           /
//                          "S:\zigbee\Myzigbe\version 3.0 for new            /
//                          ZStack-CC2530-2.5.1a\Projects\zstack\AT           /
//                          commands\AT command 3.2\CC2530DB\..\..\..\..\..\C /
//                          omponents\stack\nwk\" -I                          /
//                          "S:\zigbee\Myzigbe\version 3.0 for new            /
//                          ZStack-CC2530-2.5.1a\Projects\zstack\AT           /
//                          commands\AT command 3.2\CC2530DB\..\..\..\..\..\C /
//                          omponents\stack\sapi\" -I                         /
//                          "S:\zigbee\Myzigbe\version 3.0 for new            /
//                          ZStack-CC2530-2.5.1a\Projects\zstack\AT           /
//                          commands\AT command 3.2\CC2530DB\..\..\..\..\..\C /
//                          omponents\stack\sec\" -I                          /
//                          "S:\zigbee\Myzigbe\version 3.0 for new            /
//                          ZStack-CC2530-2.5.1a\Projects\zstack\AT           /
//                          commands\AT command 3.2\CC2530DB\..\..\..\..\..\C /
//                          omponents\stack\sys\" -I                          /
//                          "S:\zigbee\Myzigbe\version 3.0 for new            /
//                          ZStack-CC2530-2.5.1a\Projects\zstack\AT           /
//                          commands\AT command 3.2\CC2530DB\..\..\..\..\..\C /
//                          omponents\stack\zdo\" -I                          /
//                          "S:\zigbee\Myzigbe\version 3.0 for new            /
//                          ZStack-CC2530-2.5.1a\Projects\zstack\AT           /
//                          commands\AT command 3.2\CC2530DB\..\..\..\..\..\C /
//                          omponents\stack\zcl\" -I                          /
//                          "S:\zigbee\Myzigbe\version 3.0 for new            /
//                          ZStack-CC2530-2.5.1a\Projects\zstack\AT           /
//                          commands\AT command 3.2\CC2530DB\..\..\..\..\..\C /
//                          omponents\zmac\" -I "S:\zigbee\Myzigbe\version    /
//                          3.0 for new ZStack-CC2530-2.5.1a\Projects\zstack\ /
//                          AT commands\AT command 3.2\CC2530DB\..\..\..\..\. /
//                          .\Components\zmac\f8w\" -Ohz --require_prototypes /
//    List file          =  S:\zigbee\Myzigbe\version 3.0 for new             /
//                          ZStack-CC2530-2.5.1a\Projects\zstack\AT           /
//                          commands\AT command 3.2\CC2530DB\CoordinatorEB\Li /
//                          st\AT_AF.s51                                      /
//                                                                            /
//                                                                            /
///////////////////////////////////////////////////////////////////////////////

        NAME AT_AF

        RTMODEL "__SystemLibrary", "CLib"
        RTMODEL "__calling_convention", "xdata_reentrant"
        RTMODEL "__code_model", "banked"
        RTMODEL "__core", "plain"
        RTMODEL "__data_model", "large"
        RTMODEL "__dptr_size", "16"
        RTMODEL "__extended_stack", "disabled"
        RTMODEL "__location_for_constants", "data"
        RTMODEL "__number_of_dptrs", "1"
        RTMODEL "__rt_version", "1"

        RSEG DOVERLAY:DATA:NOROOT(0)
        RSEG IOVERLAY:IDATA:NOROOT(0)
        RSEG ISTACK:IDATA:NOROOT(0)
        RSEG PSTACK:XDATA:NOROOT(0)
        RSEG XSTACK:XDATA:NOROOT(0)

        EXTERN ?ALLOC_XSTACK8
        EXTERN ?BANKED_ENTER_XDATA
        EXTERN ?BANKED_LEAVE_XDATA
        EXTERN ?BDISPATCH
        EXTERN ?BRET
        EXTERN ?DEALLOC_XSTACK8
        EXTERN ?MOVE_LONG8_XDATA_XDATA
        EXTERN ?PUSH_XSTACK8_X_TWO
        EXTERN ?PUSH_XSTACK_I_ONE
        EXTERN ?PUSH_XSTACK_I_THREE
        EXTERN ?PUSH_XSTACK_I_TWO
        EXTERN ?S_SHL
        EXTERN ?US_SWITCH_DENSE
        EXTERN ?V0
        EXTERN ?XSP
        EXTERN ?XSTACK_DISP0_8
        EXTERN __INIT_XDATA_I
        EXTERN __INIT_XDATA_Z

        PUBLIC ??AT_AF_Cmd_HA_CIDDISC_CB?relay
        FUNCTION ??AT_AF_Cmd_HA_CIDDISC_CB?relay,0203H
        PUBLIC ??AT_AF_Cmd_HA_CIDDISC_req?relay
        FUNCTION ??AT_AF_Cmd_HA_CIDDISC_req?relay,0203H
        PUBLIC ??AT_AF_Cmd_HA_CIDDISC_rsp?relay
        FUNCTION ??AT_AF_Cmd_HA_CIDDISC_rsp?relay,0203H
        PUBLIC ??AT_AF_Cmd_HA_DISC_CB?relay
        FUNCTION ??AT_AF_Cmd_HA_DISC_CB?relay,0203H
        PUBLIC ??AT_AF_Cmd_HA_DISC_req?relay
        FUNCTION ??AT_AF_Cmd_HA_DISC_req?relay,0203H
        PUBLIC ??AT_AF_Cmd_HA_DISC_rsp?relay
        FUNCTION ??AT_AF_Cmd_HA_DISC_rsp?relay,0203H
        PUBLIC ??AT_AF_Cmd_POWER_SVING_EXP_CB?relay
        FUNCTION ??AT_AF_Cmd_POWER_SVING_EXP_CB?relay,0203H
        FUNCTION ??AT_AF_Cmd_PSE_req?relay,0203H
        PUBLIC ??AT_AF_Cmd_REPENABLE_CB?relay
        FUNCTION ??AT_AF_Cmd_REPENABLE_CB?relay,0203H
        PUBLIC ??AT_AF_Cmd_REPENABLE_req?relay
        FUNCTION ??AT_AF_Cmd_REPENABLE_req?relay,0203H
        PUBLIC ??AT_AF_Cmd_REPENABLE_rsp?relay
        FUNCTION ??AT_AF_Cmd_REPENABLE_rsp?relay,0203H
        PUBLIC ??AT_AF_Cmd_REPPRINT_CB?relay
        FUNCTION ??AT_AF_Cmd_REPPRINT_CB?relay,0203H
        PUBLIC ??AT_AF_Cmd_REPPRINT_req?relay
        FUNCTION ??AT_AF_Cmd_REPPRINT_req?relay,0203H
        PUBLIC ??AT_AF_Cmd_REPPRINT_rsp?relay
        FUNCTION ??AT_AF_Cmd_REPPRINT_rsp?relay,0203H
        PUBLIC ??AT_AF_Cmd_R_CIDDISC_CB?relay
        FUNCTION ??AT_AF_Cmd_R_CIDDISC_CB?relay,0203H
        PUBLIC ??AT_AF_Cmd_R_CIDDISC_req?relay
        FUNCTION ??AT_AF_Cmd_R_CIDDISC_req?relay,0203H
        PUBLIC ??AT_AF_Cmd_R_CIDDISC_rsp?relay
        FUNCTION ??AT_AF_Cmd_R_CIDDISC_rsp?relay,0203H
        PUBLIC ??AT_AF_Cmd_send_simple_?relay
        FUNCTION ??AT_AF_Cmd_send_simple_?relay,0203H
        PUBLIC ??AT_AF_MessageMSGCB?relay
        FUNCTION ??AT_AF_MessageMSGCB?relay,0203H
        PUBLIC ??AT_AF_Register?relay
        FUNCTION ??AT_AF_Register?relay,0203H
        PUBLIC ??AT_AF_TEST_KEY_CB?relay
        FUNCTION ??AT_AF_TEST_KEY_CB?relay,0203H
        PUBLIC AT_AF_ClusterList
        PUBLIC AT_AF_Cmd_HA_CIDDISC_CB
        FUNCTION AT_AF_Cmd_HA_CIDDISC_CB,021203H
        ARGFRAME XSTACK, 10, STACK
        ARGFRAME IOVERLAY, 0, STATIC
        ARGFRAME DOVERLAY, 0, STATIC
        LOCFRAME ISTACK, 2, STACK
        PUBLIC AT_AF_Cmd_HA_CIDDISC_req
        FUNCTION AT_AF_Cmd_HA_CIDDISC_req,021203H
        ARGFRAME XSTACK, 0, STACK
        ARGFRAME IOVERLAY, 0, STATIC
        ARGFRAME DOVERLAY, 0, STATIC
        LOCFRAME ISTACK, 1, STACK
        LOCFRAME XSTACK, 38, STACK
        PUBLIC AT_AF_Cmd_HA_CIDDISC_rsp
        FUNCTION AT_AF_Cmd_HA_CIDDISC_rsp,021203H
        ARGFRAME XSTACK, 0, STACK
        ARGFRAME IOVERLAY, 0, STATIC
        ARGFRAME DOVERLAY, 0, STATIC
        LOCFRAME XSTACK, 16, STACK
        PUBLIC AT_AF_Cmd_HA_DISC_CB
        FUNCTION AT_AF_Cmd_HA_DISC_CB,021203H
        ARGFRAME XSTACK, 10, STACK
        ARGFRAME IOVERLAY, 0, STATIC
        ARGFRAME DOVERLAY, 0, STATIC
        LOCFRAME ISTACK, 2, STACK
        PUBLIC AT_AF_Cmd_HA_DISC_req
        FUNCTION AT_AF_Cmd_HA_DISC_req,021203H
        ARGFRAME XSTACK, 0, STACK
        ARGFRAME IOVERLAY, 0, STATIC
        ARGFRAME DOVERLAY, 0, STATIC
        LOCFRAME ISTACK, 2, STACK
        LOCFRAME XSTACK, 42, STACK
        PUBLIC AT_AF_Cmd_HA_DISC_rsp
        FUNCTION AT_AF_Cmd_HA_DISC_rsp,021203H
        ARGFRAME XSTACK, 0, STACK
        ARGFRAME IOVERLAY, 0, STATIC
        ARGFRAME DOVERLAY, 0, STATIC
        LOCFRAME XSTACK, 18, STACK
        PUBLIC AT_AF_Cmd_POWER_SVING_EXP_CB
        FUNCTION AT_AF_Cmd_POWER_SVING_EXP_CB,021203H
        ARGFRAME XSTACK, 10, STACK
        ARGFRAME IOVERLAY, 0, STATIC
        ARGFRAME DOVERLAY, 0, STATIC
        LOCFRAME ISTACK, 1, STACK
        LOCFRAME XSTACK, 28, STACK
        FUNCTION AT_AF_Cmd_PSE_req,021203H
        ARGFRAME XSTACK, 19, STACK
        ARGFRAME IOVERLAY, 0, STATIC
        ARGFRAME DOVERLAY, 0, STATIC
        LOCFRAME XSTACK, 14, STACK
        PUBLIC AT_AF_Cmd_REPENABLE_CB
        FUNCTION AT_AF_Cmd_REPENABLE_CB,021203H
        ARGFRAME XSTACK, 10, STACK
        ARGFRAME IOVERLAY, 0, STATIC
        ARGFRAME DOVERLAY, 0, STATIC
        LOCFRAME ISTACK, 2, STACK
        PUBLIC AT_AF_Cmd_REPENABLE_req
        FUNCTION AT_AF_Cmd_REPENABLE_req,021203H
        ARGFRAME XSTACK, 0, STACK
        ARGFRAME IOVERLAY, 0, STATIC
        ARGFRAME DOVERLAY, 0, STATIC
        LOCFRAME ISTACK, 1, STACK
        LOCFRAME XSTACK, 28, STACK
        PUBLIC AT_AF_Cmd_REPENABLE_rsp
        FUNCTION AT_AF_Cmd_REPENABLE_rsp,021203H
        ARGFRAME XSTACK, 0, STACK
        ARGFRAME IOVERLAY, 0, STATIC
        ARGFRAME DOVERLAY, 0, STATIC
        LOCFRAME XSTACK, 14, STACK
        PUBLIC AT_AF_Cmd_REPPRINT_CB
        FUNCTION AT_AF_Cmd_REPPRINT_CB,021203H
        ARGFRAME XSTACK, 10, STACK
        ARGFRAME IOVERLAY, 0, STATIC
        ARGFRAME DOVERLAY, 0, STATIC
        LOCFRAME ISTACK, 2, STACK
        PUBLIC AT_AF_Cmd_REPPRINT_req
        FUNCTION AT_AF_Cmd_REPPRINT_req,021203H
        ARGFRAME XSTACK, 0, STACK
        ARGFRAME IOVERLAY, 0, STATIC
        ARGFRAME DOVERLAY, 0, STATIC
        LOCFRAME ISTACK, 2, STACK
        LOCFRAME XSTACK, 34, STACK
        PUBLIC AT_AF_Cmd_REPPRINT_rsp
        FUNCTION AT_AF_Cmd_REPPRINT_rsp,021203H
        ARGFRAME XSTACK, 0, STACK
        ARGFRAME IOVERLAY, 0, STATIC
        ARGFRAME DOVERLAY, 0, STATIC
        LOCFRAME ISTACK, 2, STACK
        LOCFRAME XSTACK, 23, STACK
        PUBLIC AT_AF_Cmd_R_CIDDISC_CB
        FUNCTION AT_AF_Cmd_R_CIDDISC_CB,021203H
        ARGFRAME XSTACK, 10, STACK
        ARGFRAME IOVERLAY, 0, STATIC
        ARGFRAME DOVERLAY, 0, STATIC
        LOCFRAME ISTACK, 2, STACK
        PUBLIC AT_AF_Cmd_R_CIDDISC_req
        FUNCTION AT_AF_Cmd_R_CIDDISC_req,021203H
        ARGFRAME XSTACK, 0, STACK
        ARGFRAME IOVERLAY, 0, STATIC
        ARGFRAME DOVERLAY, 0, STATIC
        LOCFRAME ISTACK, 2, STACK
        PUBLIC AT_AF_Cmd_R_CIDDISC_rsp
        FUNCTION AT_AF_Cmd_R_CIDDISC_rsp,0203H
        ARGFRAME XSTACK, 0, STACK
        PUBLIC AT_AF_Cmd_send_simple_
        FUNCTION AT_AF_Cmd_send_simple_,021203H
        ARGFRAME XSTACK, 2, STACK
        LOCFRAME XSTACK, 33, STACK
        PUBLIC AT_AF_Group
        PUBLIC AT_AF_MessageMSGCB
        FUNCTION AT_AF_MessageMSGCB,0a1203H
        ARGFRAME XSTACK, 0, STACK
        LOCFRAME XSTACK, 10, STACK
        PUBLIC AT_AF_Register
        FUNCTION AT_AF_Register,021203H
        ARGFRAME XSTACK, 0, STACK
        LOCFRAME ISTACK, 2, STACK
        PUBLIC AT_AF_SimpleDesc
        PUBLIC AT_AF_TEST_KEY_CB
        FUNCTION AT_AF_TEST_KEY_CB,021203H
        ARGFRAME XSTACK, 10, STACK
        ARGFRAME IOVERLAY, 0, STATIC
        ARGFRAME DOVERLAY, 0, STATIC
        LOCFRAME ISTACK, 2, STACK
        PUBLIC AT_AF_TransID
        PUBLIC AT_AF_epDesc
        
        CFI Names cfiNames0
        CFI StackFrame CFA_SP SP IDATA
        CFI StackFrame CFA_PSP16 PSP16 XDATA
        CFI StackFrame CFA_XSP16 XSP16 XDATA
        CFI StaticOverlayFrame CFA_IOVERLAY IOVERLAY
        CFI StaticOverlayFrame CFA_DOVERLAY DOVERLAY
        CFI Resource `PSW.CY`:1, `B.BR0`:1, `B.BR1`:1, `B.BR2`:1, `B.BR3`:1
        CFI Resource `B.BR4`:1, `B.BR5`:1, `B.BR6`:1, `B.BR7`:1, `VB.BR8`:1
        CFI Resource `VB.BR9`:1, `VB.BR10`:1, `VB.BR11`:1, `VB.BR12`:1
        CFI Resource `VB.BR13`:1, `VB.BR14`:1, `VB.BR15`:1, VB:8, B:8, A:8
        CFI Resource PSW:8, DPL0:8, DPH0:8, R0:8, R1:8, R2:8, R3:8, R4:8, R5:8
        CFI Resource R6:8, R7:8, V0:8, V1:8, V2:8, V3:8, V4:8, V5:8, V6:8, V7:8
        CFI Resource V8:8, V9:8, V10:8, V11:8, V12:8, V13:8, V14:8, V15:8, SP:8
        CFI Resource PSPH:8, PSPL:8, PSP16:16, XSPH:8, XSPL:8, XSP16:16
        CFI VirtualResource ?RET:24
        CFI Resource ?BRET_EXT:8
        CFI VirtualResource ?RET_HIGH:8, ?RET_LOW:8
        CFI ResourceParts PSP16 PSPH, PSPL
        CFI ResourceParts XSP16 XSPH, XSPL
        CFI ResourceParts ?RET ?BRET_EXT, ?RET_HIGH, ?RET_LOW
        CFI EndNames cfiNames0
        
        CFI Common cfiCommon0 Using cfiNames0
        CFI CodeAlign 1
        CFI DataAlign -1
        CFI ReturnAddress ?RET CODE
        CFI CFA_DOVERLAY Used
        CFI CFA_IOVERLAY Used
        CFI CFA_SP SP+-3
        CFI CFA_PSP16 PSP16+0
        CFI CFA_XSP16 XSP16+0
        CFI `PSW.CY` SameValue
        CFI `B.BR0` SameValue
        CFI `B.BR1` SameValue
        CFI `B.BR2` SameValue
        CFI `B.BR3` SameValue
        CFI `B.BR4` SameValue
        CFI `B.BR5` SameValue
        CFI `B.BR6` SameValue
        CFI `B.BR7` SameValue
        CFI `VB.BR8` SameValue
        CFI `VB.BR9` SameValue
        CFI `VB.BR10` SameValue
        CFI `VB.BR11` SameValue
        CFI `VB.BR12` SameValue
        CFI `VB.BR13` SameValue
        CFI `VB.BR14` SameValue
        CFI `VB.BR15` SameValue
        CFI VB SameValue
        CFI B Undefined
        CFI A Undefined
        CFI PSW SameValue
        CFI DPL0 SameValue
        CFI DPH0 SameValue
        CFI R0 Undefined
        CFI R1 Undefined
        CFI R2 Undefined
        CFI R3 Undefined
        CFI R4 Undefined
        CFI R5 Undefined
        CFI R6 SameValue
        CFI R7 SameValue
        CFI V0 SameValue
        CFI V1 SameValue
        CFI V2 SameValue
        CFI V3 SameValue
        CFI V4 SameValue
        CFI V5 SameValue
        CFI V6 SameValue
        CFI V7 SameValue
        CFI V8 SameValue
        CFI V9 SameValue
        CFI V10 SameValue
        CFI V11 SameValue
        CFI V12 SameValue
        CFI V13 SameValue
        CFI V14 SameValue
        CFI V15 SameValue
        CFI PSPH Undefined
        CFI PSPL Undefined
        CFI XSPH Undefined
        CFI XSPL Undefined
        CFI ?RET Concat
        CFI ?BRET_EXT Frame(CFA_SP, 3)
        CFI ?RET_HIGH Frame(CFA_SP, 2)
        CFI ?RET_LOW Frame(CFA_SP, 1)
        CFI EndCommon cfiCommon0
        
        
        CFI Common cfiCommon1 Using cfiNames0
        CFI CodeAlign 1
        CFI DataAlign -1
        CFI ReturnAddress ?RET CODE
        CFI CFA_DOVERLAY Used
        CFI CFA_IOVERLAY Used
        CFI CFA_SP SP+-2
        CFI CFA_PSP16 PSP16+0
        CFI CFA_XSP16 XSP16+0
        CFI `PSW.CY` SameValue
        CFI `B.BR0` SameValue
        CFI `B.BR1` SameValue
        CFI `B.BR2` SameValue
        CFI `B.BR3` SameValue
        CFI `B.BR4` SameValue
        CFI `B.BR5` SameValue
        CFI `B.BR6` SameValue
        CFI `B.BR7` SameValue
        CFI `VB.BR8` SameValue
        CFI `VB.BR9` SameValue
        CFI `VB.BR10` SameValue
        CFI `VB.BR11` SameValue
        CFI `VB.BR12` SameValue
        CFI `VB.BR13` SameValue
        CFI `VB.BR14` SameValue
        CFI `VB.BR15` SameValue
        CFI VB SameValue
        CFI B SameValue
        CFI A SameValue
        CFI PSW SameValue
        CFI DPL0 SameValue
        CFI DPH0 SameValue
        CFI R0 SameValue
        CFI R1 SameValue
        CFI R2 SameValue
        CFI R3 SameValue
        CFI R4 SameValue
        CFI R5 SameValue
        CFI R6 SameValue
        CFI R7 SameValue
        CFI V0 SameValue
        CFI V1 SameValue
        CFI V2 SameValue
        CFI V3 SameValue
        CFI V4 SameValue
        CFI V5 SameValue
        CFI V6 SameValue
        CFI V7 SameValue
        CFI V8 SameValue
        CFI V9 SameValue
        CFI V10 SameValue
        CFI V11 SameValue
        CFI V12 SameValue
        CFI V13 SameValue
        CFI V14 SameValue
        CFI V15 SameValue
        CFI PSPH Undefined
        CFI PSPL Undefined
        CFI XSPH Undefined
        CFI XSPL Undefined
        CFI ?RET Concat
        CFI ?BRET_EXT SameValue
        CFI ?RET_HIGH Frame(CFA_SP, 2)
        CFI ?RET_LOW Frame(CFA_SP, 1)
        CFI EndCommon cfiCommon1
        
afRegister          SYMBOL "afRegister"
aps_AddGroup        SYMBOL "aps_AddGroup"
AF_DataRequest      SYMBOL "AF_DataRequest"
afNumEndPoints      SYMBOL "afNumEndPoints"
osal_mem_alloc      SYMBOL "osal_mem_alloc"
afEndPoints         SYMBOL "afEndPoints"
AT_sort_arr         SYMBOL "AT_sort_arr"
osal_mem_free       SYMBOL "osal_mem_free"
AT_HalUARTWrite     SYMBOL "AT_HalUARTWrite"
AT_Int16toChar      SYMBOL "AT_Int16toChar"
AT_Int8toChar       SYMBOL "AT_Int8toChar"
AT_af_get_ep        SYMBOL "AT_af_get_ep"
AT_af_register_ep   SYMBOL "AT_af_register_ep"
AT_ZCL_EP_ENABLE    SYMBOL "AT_ZCL_EP_ENABLE"
AT_NV_ZCL_get_index_ SYMBOL "AT_NV_ZCL_get_index_"
AT_NV_ZCL_saveEPStatus SYMBOL "AT_NV_ZCL_saveEPStatus"
AT_af_remove_ep     SYMBOL "AT_af_remove_ep"
afFindEndPointDesc  SYMBOL "afFindEndPointDesc"
printf              SYMBOL "printf"
AT_is_CMD_EPs       SYMBOL "AT_is_CMD_EPs"
afFindSimpleDesc    SYMBOL "afFindSimpleDesc"
osal_memcpy         SYMBOL "osal_memcpy"
AT_HandleCMD        SYMBOL "AT_HandleCMD"
HalLedBlink         SYMBOL "HalLedBlink"
HalLedSet           SYMBOL "HalLedSet"
??AF_DataRequest?relay SYMBOL "?relay", AF_DataRequest
??AT_HalUARTWrite?relay SYMBOL "?relay", AT_HalUARTWrite
??AT_HandleCMD?relay SYMBOL "?relay", AT_HandleCMD
??AT_Int16toChar?relay SYMBOL "?relay", AT_Int16toChar
??AT_Int8toChar?relay SYMBOL "?relay", AT_Int8toChar
??AT_NV_ZCL_get_index_?relay SYMBOL "?relay", AT_NV_ZCL_get_index_
??AT_NV_ZCL_saveEPStatus?relay SYMBOL "?relay", AT_NV_ZCL_saveEPStatus
??AT_ZCL_EP_ENABLE?relay SYMBOL "?relay", AT_ZCL_EP_ENABLE
??AT_af_get_ep?relay SYMBOL "?relay", AT_af_get_ep
??AT_af_register_ep?relay SYMBOL "?relay", AT_af_register_ep
??AT_af_remove_ep?relay SYMBOL "?relay", AT_af_remove_ep
??AT_is_CMD_EPs?relay SYMBOL "?relay", AT_is_CMD_EPs
??AT_sort_arr?relay SYMBOL "?relay", AT_sort_arr
??HalLedBlink?relay SYMBOL "?relay", HalLedBlink
??HalLedSet?relay   SYMBOL "?relay", HalLedSet
??afEndPoints?relay SYMBOL "?relay", afEndPoints
??afFindEndPointDesc?relay SYMBOL "?relay", afFindEndPointDesc
??afFindSimpleDesc?relay SYMBOL "?relay", afFindSimpleDesc
??afNumEndPoints?relay SYMBOL "?relay", afNumEndPoints
??afRegister?relay  SYMBOL "?relay", afRegister
??aps_AddGroup?relay SYMBOL "?relay", aps_AddGroup
??osal_mem_alloc?relay SYMBOL "?relay", osal_mem_alloc
??osal_mem_free?relay SYMBOL "?relay", osal_mem_free
??osal_memcpy?relay SYMBOL "?relay", osal_memcpy
??printf?relay      SYMBOL "?relay", printf
AT_AF_Cmd_HA_CIDDISC_CB SYMBOL "AT_AF_Cmd_HA_CIDDISC_CB"
??AT_AF_Cmd_HA_CIDDISC_CB?relay SYMBOL "?relay", AT_AF_Cmd_HA_CIDDISC_CB
AT_AF_Cmd_HA_CIDDISC_req SYMBOL "AT_AF_Cmd_HA_CIDDISC_req"
??AT_AF_Cmd_HA_CIDDISC_req?relay SYMBOL "?relay", AT_AF_Cmd_HA_CIDDISC_req
AT_AF_Cmd_HA_CIDDISC_rsp SYMBOL "AT_AF_Cmd_HA_CIDDISC_rsp"
??AT_AF_Cmd_HA_CIDDISC_rsp?relay SYMBOL "?relay", AT_AF_Cmd_HA_CIDDISC_rsp
AT_AF_Cmd_HA_DISC_CB SYMBOL "AT_AF_Cmd_HA_DISC_CB"
??AT_AF_Cmd_HA_DISC_CB?relay SYMBOL "?relay", AT_AF_Cmd_HA_DISC_CB
AT_AF_Cmd_HA_DISC_req SYMBOL "AT_AF_Cmd_HA_DISC_req"
??AT_AF_Cmd_HA_DISC_req?relay SYMBOL "?relay", AT_AF_Cmd_HA_DISC_req
AT_AF_Cmd_HA_DISC_rsp SYMBOL "AT_AF_Cmd_HA_DISC_rsp"
??AT_AF_Cmd_HA_DISC_rsp?relay SYMBOL "?relay", AT_AF_Cmd_HA_DISC_rsp
AT_AF_Cmd_POWER_SVING_EXP_CB SYMBOL "AT_AF_Cmd_POWER_SVING_EXP_CB"
??AT_AF_Cmd_POWER_SVING_EXP_CB?relay SYMBOL "?relay", AT_AF_Cmd_POWER_SVING_EXP_CB
AT_AF_Cmd_REPENABLE_CB SYMBOL "AT_AF_Cmd_REPENABLE_CB"
??AT_AF_Cmd_REPENABLE_CB?relay SYMBOL "?relay", AT_AF_Cmd_REPENABLE_CB
AT_AF_Cmd_REPENABLE_req SYMBOL "AT_AF_Cmd_REPENABLE_req"
??AT_AF_Cmd_REPENABLE_req?relay SYMBOL "?relay", AT_AF_Cmd_REPENABLE_req
AT_AF_Cmd_REPENABLE_rsp SYMBOL "AT_AF_Cmd_REPENABLE_rsp"
??AT_AF_Cmd_REPENABLE_rsp?relay SYMBOL "?relay", AT_AF_Cmd_REPENABLE_rsp
AT_AF_Cmd_REPPRINT_CB SYMBOL "AT_AF_Cmd_REPPRINT_CB"
??AT_AF_Cmd_REPPRINT_CB?relay SYMBOL "?relay", AT_AF_Cmd_REPPRINT_CB
AT_AF_Cmd_REPPRINT_req SYMBOL "AT_AF_Cmd_REPPRINT_req"
??AT_AF_Cmd_REPPRINT_req?relay SYMBOL "?relay", AT_AF_Cmd_REPPRINT_req
AT_AF_Cmd_REPPRINT_rsp SYMBOL "AT_AF_Cmd_REPPRINT_rsp"
??AT_AF_Cmd_REPPRINT_rsp?relay SYMBOL "?relay", AT_AF_Cmd_REPPRINT_rsp
AT_AF_Cmd_R_CIDDISC_CB SYMBOL "AT_AF_Cmd_R_CIDDISC_CB"
??AT_AF_Cmd_R_CIDDISC_CB?relay SYMBOL "?relay", AT_AF_Cmd_R_CIDDISC_CB
AT_AF_Cmd_R_CIDDISC_req SYMBOL "AT_AF_Cmd_R_CIDDISC_req"
??AT_AF_Cmd_R_CIDDISC_req?relay SYMBOL "?relay", AT_AF_Cmd_R_CIDDISC_req
AT_AF_Cmd_R_CIDDISC_rsp SYMBOL "AT_AF_Cmd_R_CIDDISC_rsp"
??AT_AF_Cmd_R_CIDDISC_rsp?relay SYMBOL "?relay", AT_AF_Cmd_R_CIDDISC_rsp
AT_AF_Cmd_send_simple_ SYMBOL "AT_AF_Cmd_send_simple_"
??AT_AF_Cmd_send_simple_?relay SYMBOL "?relay", AT_AF_Cmd_send_simple_
AT_AF_MessageMSGCB  SYMBOL "AT_AF_MessageMSGCB"
??AT_AF_MessageMSGCB?relay SYMBOL "?relay", AT_AF_MessageMSGCB
AT_AF_Register      SYMBOL "AT_AF_Register"
??AT_AF_Register?relay SYMBOL "?relay", AT_AF_Register
AT_AF_TEST_KEY_CB   SYMBOL "AT_AF_TEST_KEY_CB"
??AT_AF_TEST_KEY_CB?relay SYMBOL "?relay", AT_AF_TEST_KEY_CB

        EXTERN afRegister
        FUNCTION afRegister,0202H
        ARGFRAME ISTACK, 2, STACK
        ARGFRAME PSTACK, 0, STACK
        ARGFRAME XSTACK, 0, STACK
        ARGFRAME IOVERLAY, 0, STATIC
        ARGFRAME DOVERLAY, 0, STATIC
        EXTERN aps_AddGroup
        FUNCTION aps_AddGroup,0202H
        ARGFRAME ISTACK, 2, STACK
        ARGFRAME PSTACK, 0, STACK
        ARGFRAME XSTACK, 0, STACK
        ARGFRAME IOVERLAY, 0, STATIC
        ARGFRAME DOVERLAY, 0, STATIC
        EXTERN AF_DataRequest
        FUNCTION AF_DataRequest,0202H
        ARGFRAME ISTACK, 0, STACK
        ARGFRAME PSTACK, 0, STACK
        ARGFRAME XSTACK, 42, STACK
        ARGFRAME IOVERLAY, 0, STATIC
        ARGFRAME DOVERLAY, 0, STATIC
        EXTERN afNumEndPoints
        FUNCTION afNumEndPoints,0202H
        ARGFRAME ISTACK, 0, STACK
        ARGFRAME PSTACK, 0, STACK
        ARGFRAME XSTACK, 25, STACK
        ARGFRAME IOVERLAY, 0, STATIC
        ARGFRAME DOVERLAY, 0, STATIC
        EXTERN osal_mem_alloc
        FUNCTION osal_mem_alloc,0202H
        ARGFRAME ISTACK, 0, STACK
        ARGFRAME PSTACK, 0, STACK
        ARGFRAME XSTACK, 29, STACK
        ARGFRAME IOVERLAY, 0, STATIC
        ARGFRAME DOVERLAY, 0, STATIC
        EXTERN afEndPoints
        FUNCTION afEndPoints,0202H
        ARGFRAME ISTACK, 0, STACK
        ARGFRAME PSTACK, 0, STACK
        ARGFRAME XSTACK, 25, STACK
        ARGFRAME IOVERLAY, 0, STATIC
        ARGFRAME DOVERLAY, 0, STATIC
        EXTERN AT_sort_arr
        FUNCTION AT_sort_arr,0202H
        ARGFRAME ISTACK, 0, STACK
        ARGFRAME PSTACK, 0, STACK
        ARGFRAME XSTACK, 25, STACK
        ARGFRAME IOVERLAY, 0, STATIC
        ARGFRAME DOVERLAY, 0, STATIC
        EXTERN osal_mem_free
        FUNCTION osal_mem_free,0202H
        ARGFRAME ISTACK, 0, STACK
        ARGFRAME PSTACK, 0, STACK
        ARGFRAME XSTACK, 29, STACK
        ARGFRAME IOVERLAY, 0, STATIC
        ARGFRAME DOVERLAY, 0, STATIC
        EXTERN AT_HalUARTWrite
        FUNCTION AT_HalUARTWrite,0202H
        ARGFRAME ISTACK, 0, STACK
        ARGFRAME PSTACK, 0, STACK
        ARGFRAME XSTACK, 23, STACK
        ARGFRAME IOVERLAY, 0, STATIC
        ARGFRAME DOVERLAY, 0, STATIC
        EXTERN AT_Int16toChar
        FUNCTION AT_Int16toChar,0202H
        ARGFRAME ISTACK, 0, STACK
        ARGFRAME PSTACK, 0, STACK
        ARGFRAME XSTACK, 23, STACK
        ARGFRAME IOVERLAY, 0, STATIC
        ARGFRAME DOVERLAY, 0, STATIC
        EXTERN AT_Int8toChar
        FUNCTION AT_Int8toChar,0202H
        ARGFRAME ISTACK, 0, STACK
        ARGFRAME PSTACK, 0, STACK
        ARGFRAME XSTACK, 23, STACK
        ARGFRAME IOVERLAY, 0, STATIC
        ARGFRAME DOVERLAY, 0, STATIC
        EXTERN AT_af_get_ep
        FUNCTION AT_af_get_ep,0202H
        ARGFRAME ISTACK, 0, STACK
        ARGFRAME PSTACK, 0, STACK
        ARGFRAME XSTACK, 33, STACK
        ARGFRAME IOVERLAY, 0, STATIC
        ARGFRAME DOVERLAY, 0, STATIC
        EXTERN AT_af_register_ep
        FUNCTION AT_af_register_ep,0202H
        ARGFRAME ISTACK, 0, STACK
        ARGFRAME PSTACK, 0, STACK
        ARGFRAME XSTACK, 19, STACK
        ARGFRAME IOVERLAY, 0, STATIC
        ARGFRAME DOVERLAY, 0, STATIC
        EXTERN AT_ZCL_EP_ENABLE
        FUNCTION AT_ZCL_EP_ENABLE,0202H
        ARGFRAME ISTACK, 0, STACK
        ARGFRAME PSTACK, 0, STACK
        ARGFRAME XSTACK, 19, STACK
        ARGFRAME IOVERLAY, 0, STATIC
        ARGFRAME DOVERLAY, 0, STATIC
        EXTERN AT_NV_ZCL_get_index_
        FUNCTION AT_NV_ZCL_get_index_,0202H
        ARGFRAME ISTACK, 0, STACK
        ARGFRAME PSTACK, 0, STACK
        ARGFRAME XSTACK, 19, STACK
        ARGFRAME IOVERLAY, 0, STATIC
        ARGFRAME DOVERLAY, 0, STATIC
        EXTERN AT_NV_ZCL_saveEPStatus
        FUNCTION AT_NV_ZCL_saveEPStatus,0202H
        ARGFRAME ISTACK, 0, STACK
        ARGFRAME PSTACK, 0, STACK
        ARGFRAME XSTACK, 19, STACK
        ARGFRAME IOVERLAY, 0, STATIC
        ARGFRAME DOVERLAY, 0, STATIC
        EXTERN AT_af_remove_ep
        FUNCTION AT_af_remove_ep,0202H
        ARGFRAME ISTACK, 0, STACK
        ARGFRAME PSTACK, 0, STACK
        ARGFRAME XSTACK, 19, STACK
        ARGFRAME IOVERLAY, 0, STATIC
        ARGFRAME DOVERLAY, 0, STATIC
        EXTERN afFindEndPointDesc
        FUNCTION afFindEndPointDesc,0202H
        ARGFRAME ISTACK, 0, STACK
        ARGFRAME PSTACK, 0, STACK
        ARGFRAME XSTACK, 33, STACK
        ARGFRAME IOVERLAY, 0, STATIC
        ARGFRAME DOVERLAY, 0, STATIC
        EXTERN printf
        FUNCTION printf,0202H
        ARGFRAME ISTACK, 0, STACK
        ARGFRAME PSTACK, 0, STACK
        ARGFRAME XSTACK, 25, STACK
        ARGFRAME IOVERLAY, 0, STATIC
        ARGFRAME DOVERLAY, 0, STATIC
        EXTERN AT_is_CMD_EPs
        FUNCTION AT_is_CMD_EPs,0202H
        ARGFRAME ISTACK, 0, STACK
        ARGFRAME PSTACK, 0, STACK
        ARGFRAME XSTACK, 29, STACK
        ARGFRAME IOVERLAY, 0, STATIC
        ARGFRAME DOVERLAY, 0, STATIC
        EXTERN afFindSimpleDesc
        FUNCTION afFindSimpleDesc,0202H
        ARGFRAME ISTACK, 0, STACK
        ARGFRAME PSTACK, 0, STACK
        ARGFRAME XSTACK, 29, STACK
        ARGFRAME IOVERLAY, 0, STATIC
        ARGFRAME DOVERLAY, 0, STATIC
        EXTERN osal_memcpy
        FUNCTION osal_memcpy,0202H
        ARGFRAME ISTACK, 0, STACK
        ARGFRAME PSTACK, 0, STACK
        ARGFRAME XSTACK, 32, STACK
        ARGFRAME IOVERLAY, 0, STATIC
        ARGFRAME DOVERLAY, 0, STATIC
        EXTERN AT_HandleCMD
        FUNCTION AT_HandleCMD,0202H
        ARGFRAME ISTACK, 2, STACK
        ARGFRAME PSTACK, 0, STACK
        ARGFRAME XSTACK, 0, STACK
        ARGFRAME IOVERLAY, 0, STATIC
        ARGFRAME DOVERLAY, 0, STATIC
        EXTERN HalLedBlink
        FUNCTION HalLedBlink,0202H
        ARGFRAME ISTACK, 2, STACK
        ARGFRAME PSTACK, 0, STACK
        ARGFRAME XSTACK, 0, STACK
        ARGFRAME IOVERLAY, 0, STATIC
        ARGFRAME DOVERLAY, 0, STATIC
        EXTERN HalLedSet
        FUNCTION HalLedSet,0202H
        ARGFRAME ISTACK, 0, STACK
        ARGFRAME PSTACK, 0, STACK
        ARGFRAME XSTACK, 10, STACK
        ARGFRAME IOVERLAY, 0, STATIC
        ARGFRAME DOVERLAY, 0, STATIC
        EXTERN ??AF_DataRequest?relay
        FUNCTION ??AF_DataRequest?relay,00H
        EXTERN ??AT_HalUARTWrite?relay
        FUNCTION ??AT_HalUARTWrite?relay,00H
        EXTERN ??AT_HandleCMD?relay
        FUNCTION ??AT_HandleCMD?relay,00H
        EXTERN ??AT_Int16toChar?relay
        FUNCTION ??AT_Int16toChar?relay,00H
        EXTERN ??AT_Int8toChar?relay
        FUNCTION ??AT_Int8toChar?relay,00H
        EXTERN ??AT_NV_ZCL_get_index_?relay
        FUNCTION ??AT_NV_ZCL_get_index_?relay,00H
        EXTERN ??AT_NV_ZCL_saveEPStatus?relay
        FUNCTION ??AT_NV_ZCL_saveEPStatus?relay,00H
        EXTERN ??AT_ZCL_EP_ENABLE?relay
        FUNCTION ??AT_ZCL_EP_ENABLE?relay,00H
        EXTERN ??AT_af_get_ep?relay
        FUNCTION ??AT_af_get_ep?relay,00H
        EXTERN ??AT_af_register_ep?relay
        FUNCTION ??AT_af_register_ep?relay,00H
        EXTERN ??AT_af_remove_ep?relay
        FUNCTION ??AT_af_remove_ep?relay,00H
        EXTERN ??AT_is_CMD_EPs?relay
        FUNCTION ??AT_is_CMD_EPs?relay,00H
        EXTERN ??AT_sort_arr?relay
        FUNCTION ??AT_sort_arr?relay,00H
        EXTERN ??HalLedBlink?relay
        FUNCTION ??HalLedBlink?relay,00H
        EXTERN ??HalLedSet?relay
        FUNCTION ??HalLedSet?relay,00H
        EXTERN ??afEndPoints?relay
        FUNCTION ??afEndPoints?relay,00H
        EXTERN ??afFindEndPointDesc?relay
        FUNCTION ??afFindEndPointDesc?relay,00H
        EXTERN ??afFindSimpleDesc?relay
        FUNCTION ??afFindSimpleDesc?relay,00H
        EXTERN ??afNumEndPoints?relay
        FUNCTION ??afNumEndPoints?relay,00H
        EXTERN ??afRegister?relay
        FUNCTION ??afRegister?relay,00H
        EXTERN ??aps_AddGroup?relay
        FUNCTION ??aps_AddGroup?relay,00H
        EXTERN ??osal_mem_alloc?relay
        FUNCTION ??osal_mem_alloc?relay,00H
        EXTERN ??osal_mem_free?relay
        FUNCTION ??osal_mem_free?relay,00H
        EXTERN ??osal_memcpy?relay
        FUNCTION ??osal_memcpy?relay,00H
        EXTERN ??printf?relay
        FUNCTION ??printf?relay,00H
        EXTERN AT_CMD_EPs_Num

// S:\zigbee\Myzigbe\version 3.0 for new ZStack-CC2530-2.5.1a\Projects\zstack\AT commands\AT command 3.2\Source\AT_AF.c
//    1 /**************************************************************************************************
//    2   Filename:       AT_AF.c
//    3 
//    4   Description:    AT command module
//    5   Author:         Xiao Wang
//    6 **************************************************************************************************/
//    7 
//    8 
//    9 #include "OSAL.h"
//   10 #include "ZGlobals.h"
//   11 #include "AF.h"
//   12 #include "aps_groups.h"
//   13 #include "ZDApp.h"
//   14 
//   15 
//   16 #include "At_include.h"
//   17 
//   18 #include "hal_led.h"
//   19 #include "zcl.h"
//   20 /*************************************global variable*****************
//   21 *
//   22 */
//   23 
//   24 

        RSEG XDATA_I:XDATA:NOROOT(0)
//   25 aps_Group_t AT_AF_Group={
AT_AF_Group:
        DATA8
        DS 18
        REQUIRE `?<Initializer for AT_AF_Group>`
        REQUIRE __INIT_XDATA_I
//   26   AT_AF_GROUP_ID,                               //group id
//   27   {'A','T','_','A','F','_','g','r','o','u','p','\0'}    //group name "AT_AF_group"
//   28 };
//   29 

        RSEG XDATA_ROM_C:CONST:REORDER:NOROOT(0)
        DATA8
//   30 const cId_t AT_AF_ClusterList[AT_AF_MAX_CLUSTERS] = AT_AF_ClusterList_ ;
AT_AF_ClusterList:
        DATA16
        DW 0
        DW 1
        DW 2
        DW 3
        DW 4
        DW 6
        DW 0
//   31 

        RSEG XDATA_ROM_C:CONST:REORDER:NOROOT(0)
        DATA8
//   32 const SimpleDescriptionFormat_t AT_AF_SimpleDesc =
AT_AF_SimpleDesc:
        DB 204
        DATA16
        DW 7
        DW 2
        DATA8
        DB 0
        DB 7
        DATA16
        DW AT_AF_ClusterList
        DATA8
        DB 7
        DATA16
        DW AT_AF_ClusterList
//   33 {
//   34   AT_AF_ENDPOINT,              //  int Endpoint;
//   35   AT_AF_PROFID,                //  uint16 AppProfId[2];
//   36   AT_AF_DEVICEID,              //  uint16 AppDeviceId[2];
//   37   AT_AF_DEVICE_VERSION,        //  int   AppDevVer:4;
//   38   AT_AF_FLAGS,                 //  int   AppFlags:4;
//   39   AT_AF_MAX_CLUSTERS,                                     //  uint8  AppNumInClusters;
//   40   (cId_t *)AT_AF_ClusterList,                            //  uint8 *pAppInClusterList;
//   41   AT_AF_MAX_CLUSTERS,          //  uint8  AppNumInClusters;
//   42   (cId_t *)AT_AF_ClusterList   //  uint8 *pAppInClusterList;
//   43 };
//   44 

        RSEG XDATA_Z:XDATA:NOROOT(0)
        DATA8
//   45 endPointDesc_t AT_AF_epDesc;
AT_AF_epDesc:
        DS 6
        REQUIRE __INIT_XDATA_Z

        RSEG XDATA_Z:XDATA:NOROOT(0)
        DATA8
//   46 uint8 AT_AF_TransID;  // This is the unique message ID (counter)
AT_AF_TransID:
        DS 1
        REQUIRE __INIT_XDATA_Z
//   47 
//   48 /****************Local function*********************/
//   49 void AT_AF_Cmd_REPPRINT_CB(afIncomingMSGPacket_t *pkt );
//   50 void AT_AF_Cmd_REPPRINT_req(afIncomingMSGPacket_t *pkt  );
//   51 void AT_AF_Cmd_REPPRINT_rsp(afIncomingMSGPacket_t *pkt );
//   52 void AT_AF_Cmd_REPENABLE_CB(afIncomingMSGPacket_t *pkt );
//   53 void AT_AF_Cmd_REPENABLE_req(afIncomingMSGPacket_t *pkt  );
//   54 void AT_AF_Cmd_REPENABLE_rsp(afIncomingMSGPacket_t *pkt );
//   55 
//   56 void AT_AF_Cmd_HA_DISC_CB(afIncomingMSGPacket_t *pkt );
//   57 void AT_AF_Cmd_HA_DISC_req(afIncomingMSGPacket_t *pkt  );
//   58 void AT_AF_Cmd_HA_DISC_rsp(afIncomingMSGPacket_t *pkt );
//   59 
//   60 void AT_AF_Cmd_HA_CIDDISC_CB(afIncomingMSGPacket_t *pkt );
//   61 void AT_AF_Cmd_HA_CIDDISC_req(afIncomingMSGPacket_t *pkt  );
//   62 void AT_AF_Cmd_HA_CIDDISC_rsp(afIncomingMSGPacket_t *pkt );
//   63 
//   64 void AT_AF_Cmd_R_CIDDISC_CB(afIncomingMSGPacket_t *pkt );
//   65 void AT_AF_Cmd_R_CIDDISC_req(afIncomingMSGPacket_t *pkt  );
//   66 void AT_AF_Cmd_R_CIDDISC_rsp(afIncomingMSGPacket_t *pkt );
//   67 
//   68 void AT_AF_Cmd_POWER_SVING_EXP_CB(afIncomingMSGPacket_t *pkt );
//   69 
//   70 void AT_AF_TEST_KEY_CB(afIncomingMSGPacket_t *pkt );
//   71 

        RSEG BANKED_CODE:CODE:NOROOT(0)
//   72 void AT_AF_Register(uint8 *task_id){
AT_AF_Register:
        CFI Block cfiBlock0 Using cfiCommon0
        CFI Function AT_AF_Register
        CODE
        FUNCALL AT_AF_Register, afRegister
        LOCFRAME ISTACK, 2, STACK
        LOCFRAME PSTACK, 0, STACK
        LOCFRAME XSTACK, 0, STACK
        LOCFRAME IOVERLAY, 0, STATIC
        LOCFRAME DOVERLAY, 0, STATIC
        ARGFRAME ISTACK, 2, STACK
        ARGFRAME PSTACK, 0, STACK
        ARGFRAME XSTACK, 0, STACK
        ARGFRAME IOVERLAY, 0, STATIC
        ARGFRAME DOVERLAY, 0, STATIC
        FUNCALL AT_AF_Register, aps_AddGroup
        LOCFRAME ISTACK, 2, STACK
        LOCFRAME PSTACK, 0, STACK
        LOCFRAME XSTACK, 0, STACK
        LOCFRAME IOVERLAY, 0, STATIC
        LOCFRAME DOVERLAY, 0, STATIC
        ARGFRAME ISTACK, 2, STACK
        ARGFRAME PSTACK, 0, STACK
        ARGFRAME XSTACK, 0, STACK
        ARGFRAME IOVERLAY, 0, STATIC
        ARGFRAME DOVERLAY, 0, STATIC
        PUSH    DPL
        CFI DPL0 Frame(CFA_SP, 4)
        CFI CFA_SP SP+-4
        PUSH    DPH
        CFI DPH0 Frame(CFA_SP, 5)
        CFI CFA_SP SP+-5
        ; Saved register size: 2
        ; Auto size: 0
//   73  // Fill out the endpoint description.
//   74   AT_AF_epDesc.endPoint = AT_AF_ENDPOINT;
        MOV     DPTR,#AT_AF_epDesc
        MOV     A,#-0x34
        MOVX    @DPTR,A
//   75   AT_AF_epDesc.task_id = task_id;
        INC     DPTR
        MOV     A,R2
        MOVX    @DPTR,A
        INC     DPTR
        MOV     A,R3
        MOVX    @DPTR,A
//   76   AT_AF_epDesc.simpleDesc
//   77             = (SimpleDescriptionFormat_t *)&AT_AF_SimpleDesc;
        INC     DPTR
        MOV     A,#AT_AF_SimpleDesc & 0xff
        MOVX    @DPTR,A
        INC     DPTR
        MOV     A,#(AT_AF_SimpleDesc >> 8) & 0xff
        MOVX    @DPTR,A
//   78   AT_AF_epDesc.latencyReq = noLatencyReqs;
        INC     DPTR
        CLR     A
        MOVX    @DPTR,A
//   79   
//   80   // Register the endpoint description with the AF
//   81   afRegister( &AT_AF_epDesc );
        ; Setup parameters for call to function afRegister
        MOV     R2,#AT_AF_epDesc & 0xff
        MOV     R3,#(AT_AF_epDesc >> 8) & 0xff
        LCALL   ??afRegister?relay
//   82   
//   83   aps_AddGroup( AT_AF_ENDPOINT, &AT_AF_Group );
        ; Setup parameters for call to function aps_AddGroup
        MOV     R2,#AT_AF_Group & 0xff
        MOV     R3,#(AT_AF_Group >> 8) & 0xff
        MOV     R1,#-0x34
        LCALL   ??aps_AddGroup?relay
//   84   
//   85 }
        LJMP    ?Subroutine0 & 0xFFFF
        CFI EndBlock cfiBlock0
//   86 
//   87 

        RSEG BANKED_CODE:CODE:NOROOT(0)
//   88 void AT_AF_MessageMSGCB( afIncomingMSGPacket_t *pkt )
AT_AF_MessageMSGCB:
        CFI Block cfiBlock1 Using cfiCommon0
        CFI Function AT_AF_MessageMSGCB
        CODE
//   89 {
        FUNCALL AT_AF_MessageMSGCB, AT_AF_Cmd_REPPRINT_CB
        LOCFRAME ISTACK, 0, STACK
        LOCFRAME PSTACK, 0, STACK
        LOCFRAME XSTACK, 10, STACK
        LOCFRAME IOVERLAY, 0, STATIC
        LOCFRAME DOVERLAY, 0, STATIC
        ARGFRAME ISTACK, 0, STACK
        ARGFRAME PSTACK, 0, STACK
        ARGFRAME XSTACK, 10, STACK
        ARGFRAME IOVERLAY, 0, STATIC
        ARGFRAME DOVERLAY, 0, STATIC
        FUNCALL AT_AF_MessageMSGCB, AT_AF_Cmd_REPENABLE_CB
        LOCFRAME ISTACK, 0, STACK
        LOCFRAME PSTACK, 0, STACK
        LOCFRAME XSTACK, 10, STACK
        LOCFRAME IOVERLAY, 0, STATIC
        LOCFRAME DOVERLAY, 0, STATIC
        ARGFRAME ISTACK, 0, STACK
        ARGFRAME PSTACK, 0, STACK
        ARGFRAME XSTACK, 10, STACK
        ARGFRAME IOVERLAY, 0, STATIC
        ARGFRAME DOVERLAY, 0, STATIC
        FUNCALL AT_AF_MessageMSGCB, AT_AF_Cmd_HA_DISC_CB
        LOCFRAME ISTACK, 0, STACK
        LOCFRAME PSTACK, 0, STACK
        LOCFRAME XSTACK, 10, STACK
        LOCFRAME IOVERLAY, 0, STATIC
        LOCFRAME DOVERLAY, 0, STATIC
        ARGFRAME ISTACK, 0, STACK
        ARGFRAME PSTACK, 0, STACK
        ARGFRAME XSTACK, 10, STACK
        ARGFRAME IOVERLAY, 0, STATIC
        ARGFRAME DOVERLAY, 0, STATIC
        FUNCALL AT_AF_MessageMSGCB, AT_AF_Cmd_HA_CIDDISC_CB
        LOCFRAME ISTACK, 0, STACK
        LOCFRAME PSTACK, 0, STACK
        LOCFRAME XSTACK, 10, STACK
        LOCFRAME IOVERLAY, 0, STATIC
        LOCFRAME DOVERLAY, 0, STATIC
        ARGFRAME ISTACK, 0, STACK
        ARGFRAME PSTACK, 0, STACK
        ARGFRAME XSTACK, 10, STACK
        ARGFRAME IOVERLAY, 0, STATIC
        ARGFRAME DOVERLAY, 0, STATIC
        FUNCALL AT_AF_MessageMSGCB, AT_AF_Cmd_R_CIDDISC_CB
        LOCFRAME ISTACK, 0, STACK
        LOCFRAME PSTACK, 0, STACK
        LOCFRAME XSTACK, 10, STACK
        LOCFRAME IOVERLAY, 0, STATIC
        LOCFRAME DOVERLAY, 0, STATIC
        ARGFRAME ISTACK, 0, STACK
        ARGFRAME PSTACK, 0, STACK
        ARGFRAME XSTACK, 10, STACK
        ARGFRAME IOVERLAY, 0, STATIC
        ARGFRAME DOVERLAY, 0, STATIC
        FUNCALL AT_AF_MessageMSGCB, AT_AF_TEST_KEY_CB
        LOCFRAME ISTACK, 0, STACK
        LOCFRAME PSTACK, 0, STACK
        LOCFRAME XSTACK, 10, STACK
        LOCFRAME IOVERLAY, 0, STATIC
        LOCFRAME DOVERLAY, 0, STATIC
        ARGFRAME ISTACK, 0, STACK
        ARGFRAME PSTACK, 0, STACK
        ARGFRAME XSTACK, 10, STACK
        ARGFRAME IOVERLAY, 0, STATIC
        ARGFRAME DOVERLAY, 0, STATIC
        FUNCALL AT_AF_MessageMSGCB, AT_AF_Cmd_POWER_SVING_EXP_CB
        LOCFRAME ISTACK, 0, STACK
        LOCFRAME PSTACK, 0, STACK
        LOCFRAME XSTACK, 10, STACK
        LOCFRAME IOVERLAY, 0, STATIC
        LOCFRAME DOVERLAY, 0, STATIC
        ARGFRAME ISTACK, 0, STACK
        ARGFRAME PSTACK, 0, STACK
        ARGFRAME XSTACK, 10, STACK
        ARGFRAME IOVERLAY, 0, STATIC
        ARGFRAME DOVERLAY, 0, STATIC
        MOV     A,#-0xa
        LCALL   ?BANKED_ENTER_XDATA
        CFI DPH0 load(1, XDATA, add(CFA_XSP16, literal(-1)))
        CFI DPL0 load(1, XDATA, add(CFA_XSP16, literal(-2)))
        CFI ?BRET_EXT load(1, XDATA, add(CFA_XSP16, literal(-3)))
        CFI ?RET_HIGH load(1, XDATA, add(CFA_XSP16, literal(-4)))
        CFI ?RET_LOW load(1, XDATA, add(CFA_XSP16, literal(-5)))
        CFI R7 load(1, XDATA, add(CFA_XSP16, literal(-6)))
        CFI V1 load(1, XDATA, add(CFA_XSP16, literal(-7)))
        CFI V0 load(1, XDATA, add(CFA_XSP16, literal(-8)))
        CFI VB load(1, XDATA, add(CFA_XSP16, literal(-9)))
        CFI R6 load(1, XDATA, add(CFA_XSP16, literal(-10)))
        CFI CFA_SP SP+0
        CFI CFA_XSP16 add(XSP16, 10)
        ; Saved register size: 10
        ; Auto size: 0
//   90   
//   91   switch ( pkt->clusterId )
        MOV     DPL,R2
        MOV     DPH,R3
        INC     DPTR
        INC     DPTR
        INC     DPTR
        INC     DPTR
        LCALL   ??Subroutine52_0 & 0xFFFF
??CrossCallReturnLabel_73:
        MOV     R0,#?V0 + 0
        LCALL   ?US_SWITCH_DENSE
`?<Jumptable for AT_AF_MessageMSGCB>_0`:
        DATA
        DATA16
        DATA
        DATA16
        DW        0
        DATA
        DATA8
        DATA
        DATA8
        DB        6
        DATA
        DATA16
        DATA
        DATA16
        DW        ??AT_AF_MessageMSGCB_0
        DATA
        DATA16
        DATA
        DATA16
        DW        ??AT_AF_MessageMSGCB_1
        DATA
        DATA16
        DATA
        DATA16
        DW        ??AT_AF_MessageMSGCB_2
        DATA
        DATA16
        DATA
        DATA16
        DW        ??AT_AF_MessageMSGCB_3
        DATA
        DATA16
        DATA
        DATA16
        DW        ??AT_AF_MessageMSGCB_4
        DATA
        DATA16
        DATA
        DATA16
        DW        ??AT_AF_MessageMSGCB_5
        DATA
        DATA16
        DATA
        DATA16
        DW        ??AT_AF_MessageMSGCB_6
        DATA
        DATA16
        DATA
        DATA16
        DW        ??AT_AF_MessageMSGCB_7
        CODE
//   92   {
//   93     case AT_AF_Cmd_REPPRINT_CLUSTERID:
//   94       AT_AF_Cmd_REPPRINT_CB(pkt);
??AT_AF_MessageMSGCB_1:
        ; Setup parameters for call to function AT_AF_Cmd_REPPRINT_CB
        LCALL   ??AT_AF_Cmd_REPPRINT_CB?relay
//   95       break;
        SJMP    ??AT_AF_MessageMSGCB_0
//   96     case AT_AF_Cmd_REPENABLE_CLUSTERID:
//   97       AT_AF_Cmd_REPENABLE_CB(pkt);
??AT_AF_MessageMSGCB_2:
        ; Setup parameters for call to function AT_AF_Cmd_REPENABLE_CB
        LCALL   ??AT_AF_Cmd_REPENABLE_CB?relay
//   98       break;
        SJMP    ??AT_AF_MessageMSGCB_0
//   99     case  AT_AF_Cmd_HA_DISC_CLUSTERID:
//  100       AT_AF_Cmd_HA_DISC_CB(pkt);
??AT_AF_MessageMSGCB_3:
        ; Setup parameters for call to function AT_AF_Cmd_HA_DISC_CB
        LCALL   ??AT_AF_Cmd_HA_DISC_CB?relay
//  101       break;
        SJMP    ??AT_AF_MessageMSGCB_0
//  102     case  AT_AF_Cmd_HA_CIDDISC_CLUSTERID:
//  103       AT_AF_Cmd_HA_CIDDISC_CB(pkt);
??AT_AF_MessageMSGCB_4:
        ; Setup parameters for call to function AT_AF_Cmd_HA_CIDDISC_CB
        LCALL   ??AT_AF_Cmd_HA_CIDDISC_CB?relay
//  104       break;
        SJMP    ??AT_AF_MessageMSGCB_0
//  105     case  AT_AF_Cmd_R_CIDDISC_CLUSTERID:
//  106       AT_AF_Cmd_R_CIDDISC_CB(pkt);
??AT_AF_MessageMSGCB_5:
        ; Setup parameters for call to function AT_AF_Cmd_R_CIDDISC_CB
        LCALL   ??AT_AF_Cmd_R_CIDDISC_CB?relay
//  107       break;
        SJMP    ??AT_AF_MessageMSGCB_0
//  108     case  AT_AF_TEST_KEY_CLUSTERID:
//  109       AT_AF_TEST_KEY_CB(pkt);
??AT_AF_MessageMSGCB_6:
        ; Setup parameters for call to function AT_AF_TEST_KEY_CB
        LCALL   ??AT_AF_TEST_KEY_CB?relay
//  110       break;
        SJMP    ??AT_AF_MessageMSGCB_0
//  111     case  AT_AF_POWER_SVING_EXP_CLUSTERID:
//  112       AT_AF_Cmd_POWER_SVING_EXP_CB(pkt);
??AT_AF_MessageMSGCB_7:
        ; Setup parameters for call to function AT_AF_Cmd_POWER_SVING_EXP_CB
        LCALL   ??AT_AF_Cmd_POWER_SVING_EXP_CB?relay
        CFI EndBlock cfiBlock1
//  113       break;
//  114       
//  115   }
//  116 }
??AT_AF_MessageMSGCB_0:
        REQUIRE ?Subroutine1
        ; // Fall through to label ?Subroutine1

        RSEG BANKED_CODE:CODE:NOROOT(0)
?Subroutine1:
        CFI Block cfiBlock2 Using cfiCommon0
        CFI NoFunction
        CFI CFA_SP SP+0
        CFI CFA_XSP16 add(XSP16, 10)
        CFI VB load(1, XDATA, add(CFA_XSP16, literal(-9)))
        CFI DPL0 load(1, XDATA, add(CFA_XSP16, literal(-2)))
        CFI DPH0 load(1, XDATA, add(CFA_XSP16, literal(-1)))
        CFI R6 load(1, XDATA, add(CFA_XSP16, literal(-10)))
        CFI R7 load(1, XDATA, add(CFA_XSP16, literal(-6)))
        CFI V0 load(1, XDATA, add(CFA_XSP16, literal(-8)))
        CFI V1 load(1, XDATA, add(CFA_XSP16, literal(-7)))
        CFI ?BRET_EXT load(1, XDATA, add(CFA_XSP16, literal(-3)))
        CFI ?RET_HIGH load(1, XDATA, add(CFA_XSP16, literal(-4)))
        CFI ?RET_LOW load(1, XDATA, add(CFA_XSP16, literal(-5)))
        MOV     R7,#0x2
        LJMP    ?BANKED_LEAVE_XDATA
        CFI EndBlock cfiBlock2
//  117 
//  118 

        RSEG BANKED_CODE:CODE:NOROOT(0)
//  119 afStatus_t AT_AF_Cmd_send_simple_(uint16 nwkAddr,uint16 CID,uint8 len, uint8 *buff){
AT_AF_Cmd_send_simple_:
        CFI Block cfiBlock3 Using cfiCommon0
        CFI Function AT_AF_Cmd_send_simple_
        CODE
        FUNCALL AT_AF_Cmd_send_simple_, AF_DataRequest
        LOCFRAME ISTACK, 0, STACK
        LOCFRAME PSTACK, 0, STACK
        LOCFRAME XSTACK, 33, STACK
        LOCFRAME IOVERLAY, 0, STATIC
        LOCFRAME DOVERLAY, 0, STATIC
        ARGFRAME ISTACK, 0, STACK
        ARGFRAME PSTACK, 0, STACK
        ARGFRAME XSTACK, 33, STACK
        ARGFRAME IOVERLAY, 0, STATIC
        ARGFRAME DOVERLAY, 0, STATIC
        MOV     A,#-0xc
        LCALL   ?BANKED_ENTER_XDATA
        CFI DPH0 load(1, XDATA, add(CFA_XSP16, literal(-1)))
        CFI DPL0 load(1, XDATA, add(CFA_XSP16, literal(-2)))
        CFI ?BRET_EXT load(1, XDATA, add(CFA_XSP16, literal(-3)))
        CFI ?RET_HIGH load(1, XDATA, add(CFA_XSP16, literal(-4)))
        CFI ?RET_LOW load(1, XDATA, add(CFA_XSP16, literal(-5)))
        CFI R7 load(1, XDATA, add(CFA_XSP16, literal(-6)))
        CFI V3 load(1, XDATA, add(CFA_XSP16, literal(-7)))
        CFI V2 load(1, XDATA, add(CFA_XSP16, literal(-8)))
        CFI V1 load(1, XDATA, add(CFA_XSP16, literal(-9)))
        CFI V0 load(1, XDATA, add(CFA_XSP16, literal(-10)))
        CFI VB load(1, XDATA, add(CFA_XSP16, literal(-11)))
        CFI R6 load(1, XDATA, add(CFA_XSP16, literal(-12)))
        CFI CFA_SP SP+0
        CFI CFA_XSP16 add(XSP16, 12)
        ; Saved register size: 12
        ; Auto size: 12
        MOV     A,#-0xc
        LCALL   ?ALLOC_XSTACK8
        CFI CFA_XSP16 add(XSP16, 24)
        MOV     A,R1
        MOV     R6,A
        MOV     A,#0x18
        LCALL   ?XSTACK_DISP0_8
        LCALL   ??Subroutine52_0 & 0xFFFF
//  120   
//  121   afAddrType_t dstAddr;
//  122   dstAddr.endPoint = AT_AF_ENDPOINT;
??CrossCallReturnLabel_74:
        MOV     A,#0x9
        LCALL   ?XSTACK_DISP0_8
        MOV     A,#-0x34
        MOVX    @DPTR,A
//  123   dstAddr.addr.shortAddr =nwkAddr;
        MOV     DPL,?XSP + 0
        MOV     DPH,?XSP + 1
        MOV     A,R2
        MOVX    @DPTR,A
        INC     DPTR
        MOV     A,R3
        MOVX    @DPTR,A
//  124   dstAddr.addrMode = (afAddrMode_t) Addr16Bit;
        MOV     A,#0x8
        LCALL   ?XSTACK_DISP0_8
        MOV     A,#0x2
        MOVX    @DPTR,A
//  125   
//  126   return AF_DataRequest( &dstAddr, & AT_AF_epDesc,
//  127                        CID,
//  128                        len,
//  129                        buff,
//  130                        &AT_AF_TransID,
//  131                        AF_DISCV_ROUTE,
//  132                        AF_DEFAULT_RADIUS );
        ; Setup parameters for call to function AF_DataRequest
        MOV     ?V0 + 2,#0x1e
        MOV     R0,#?V0 + 2
        LCALL   ?PUSH_XSTACK_I_ONE
        CFI CFA_XSP16 add(XSP16, 25)
        MOV     ?V0 + 2,#AT_AF_TransID & 0xff
        MOV     ?V0 + 3,#(AT_AF_TransID >> 8) & 0xff
        MOV     R0,#?V0 + 2
        LCALL   ?PUSH_XSTACK_I_TWO
        CFI CFA_XSP16 add(XSP16, 27)
        MOV     R0,#?V0 + 0
        LCALL   ?PUSH_XSTACK_I_TWO
        CFI CFA_XSP16 add(XSP16, 29)
        MOV     ?V0 + 0,R6
        MOV     ?V0 + 1,#0x0
        MOV     R0,#?V0 + 0
        LCALL   ?PUSH_XSTACK_I_TWO
        CFI CFA_XSP16 add(XSP16, 31)
        MOV     ?V0 + 0,R4
        MOV     ?V0 + 1,R5
        MOV     R0,#?V0 + 0
        LCALL   ?PUSH_XSTACK_I_TWO
        CFI CFA_XSP16 add(XSP16, 33)
        MOV     R1,#0x20
        MOV     R4,#AT_AF_epDesc & 0xff
        MOV     R5,#(AT_AF_epDesc >> 8) & 0xff
        MOV     A,#0x9
        LCALL   ?XSTACK_DISP0_8
        MOV     R2,DPL
        MOV     R3,DPH
        LCALL   ??AF_DataRequest?relay
        MOV     A,#0x9
        LCALL   ?DEALLOC_XSTACK8
        CFI CFA_XSP16 add(XSP16, 24)
        MOV     A,#0xc
        LCALL   ?DEALLOC_XSTACK8
        CFI EndBlock cfiBlock3
        REQUIRE ?Subroutine2
        ; // Fall through to label ?Subroutine2
//  133 }

        RSEG BANKED_CODE:CODE:NOROOT(0)
?Subroutine2:
        CFI Block cfiBlock4 Using cfiCommon0
        CFI NoFunction
        CFI CFA_SP SP+0
        CFI CFA_XSP16 add(XSP16, 12)
        CFI VB load(1, XDATA, add(CFA_XSP16, literal(-11)))
        CFI DPL0 load(1, XDATA, add(CFA_XSP16, literal(-2)))
        CFI DPH0 load(1, XDATA, add(CFA_XSP16, literal(-1)))
        CFI R6 load(1, XDATA, add(CFA_XSP16, literal(-12)))
        CFI R7 load(1, XDATA, add(CFA_XSP16, literal(-6)))
        CFI V0 load(1, XDATA, add(CFA_XSP16, literal(-10)))
        CFI V1 load(1, XDATA, add(CFA_XSP16, literal(-9)))
        CFI V2 load(1, XDATA, add(CFA_XSP16, literal(-8)))
        CFI V3 load(1, XDATA, add(CFA_XSP16, literal(-7)))
        CFI ?BRET_EXT load(1, XDATA, add(CFA_XSP16, literal(-3)))
        CFI ?RET_HIGH load(1, XDATA, add(CFA_XSP16, literal(-4)))
        CFI ?RET_LOW load(1, XDATA, add(CFA_XSP16, literal(-5)))
        MOV     R7,#0x4
        LJMP    ?BANKED_LEAVE_XDATA
        CFI EndBlock cfiBlock4
//  134 
//  135 
//  136 

        RSEG BANKED_CODE:CODE:NOROOT(0)
//  137 void AT_AF_Cmd_REPPRINT_req(afIncomingMSGPacket_t *pkt ){
AT_AF_Cmd_REPPRINT_req:
        CFI Block cfiBlock5 Using cfiCommon0
        CFI Function AT_AF_Cmd_REPPRINT_req
        CODE
        FUNCALL AT_AF_Cmd_REPPRINT_req, afNumEndPoints
        LOCFRAME ISTACK, 0, STACK
        LOCFRAME PSTACK, 0, STACK
        LOCFRAME XSTACK, 25, STACK
        LOCFRAME IOVERLAY, 0, STATIC
        LOCFRAME DOVERLAY, 0, STATIC
        ARGFRAME ISTACK, 0, STACK
        ARGFRAME PSTACK, 0, STACK
        ARGFRAME XSTACK, 25, STACK
        ARGFRAME IOVERLAY, 0, STATIC
        ARGFRAME DOVERLAY, 0, STATIC
        FUNCALL AT_AF_Cmd_REPPRINT_req, osal_mem_alloc
        LOCFRAME ISTACK, 0, STACK
        LOCFRAME PSTACK, 0, STACK
        LOCFRAME XSTACK, 25, STACK
        LOCFRAME IOVERLAY, 0, STATIC
        LOCFRAME DOVERLAY, 0, STATIC
        ARGFRAME ISTACK, 0, STACK
        ARGFRAME PSTACK, 0, STACK
        ARGFRAME XSTACK, 25, STACK
        ARGFRAME IOVERLAY, 0, STATIC
        ARGFRAME DOVERLAY, 0, STATIC
        FUNCALL AT_AF_Cmd_REPPRINT_req, afEndPoints
        LOCFRAME ISTACK, 0, STACK
        LOCFRAME PSTACK, 0, STACK
        LOCFRAME XSTACK, 25, STACK
        LOCFRAME IOVERLAY, 0, STATIC
        LOCFRAME DOVERLAY, 0, STATIC
        ARGFRAME ISTACK, 0, STACK
        ARGFRAME PSTACK, 0, STACK
        ARGFRAME XSTACK, 25, STACK
        ARGFRAME IOVERLAY, 0, STATIC
        ARGFRAME DOVERLAY, 0, STATIC
        FUNCALL AT_AF_Cmd_REPPRINT_req, AT_sort_arr
        LOCFRAME ISTACK, 0, STACK
        LOCFRAME PSTACK, 0, STACK
        LOCFRAME XSTACK, 25, STACK
        LOCFRAME IOVERLAY, 0, STATIC
        LOCFRAME DOVERLAY, 0, STATIC
        ARGFRAME ISTACK, 0, STACK
        ARGFRAME PSTACK, 0, STACK
        ARGFRAME XSTACK, 25, STACK
        ARGFRAME IOVERLAY, 0, STATIC
        ARGFRAME DOVERLAY, 0, STATIC
        FUNCALL AT_AF_Cmd_REPPRINT_req, osal_mem_free
        LOCFRAME ISTACK, 0, STACK
        LOCFRAME PSTACK, 0, STACK
        LOCFRAME XSTACK, 25, STACK
        LOCFRAME IOVERLAY, 0, STATIC
        LOCFRAME DOVERLAY, 0, STATIC
        ARGFRAME ISTACK, 0, STACK
        ARGFRAME PSTACK, 0, STACK
        ARGFRAME XSTACK, 25, STACK
        ARGFRAME IOVERLAY, 0, STATIC
        ARGFRAME DOVERLAY, 0, STATIC
        FUNCALL AT_AF_Cmd_REPPRINT_req, AF_DataRequest
        LOCFRAME ISTACK, 0, STACK
        LOCFRAME PSTACK, 0, STACK
        LOCFRAME XSTACK, 34, STACK
        LOCFRAME IOVERLAY, 0, STATIC
        LOCFRAME DOVERLAY, 0, STATIC
        ARGFRAME ISTACK, 0, STACK
        ARGFRAME PSTACK, 0, STACK
        ARGFRAME XSTACK, 34, STACK
        ARGFRAME IOVERLAY, 0, STATIC
        ARGFRAME DOVERLAY, 0, STATIC
        MOV     A,#-0xd
        LCALL   ?BANKED_ENTER_XDATA
        CFI DPH0 load(1, XDATA, add(CFA_XSP16, literal(-1)))
        CFI DPL0 load(1, XDATA, add(CFA_XSP16, literal(-2)))
        CFI ?BRET_EXT load(1, XDATA, add(CFA_XSP16, literal(-3)))
        CFI ?RET_HIGH load(1, XDATA, add(CFA_XSP16, literal(-4)))
        CFI ?RET_LOW load(1, XDATA, add(CFA_XSP16, literal(-5)))
        CFI R7 load(1, XDATA, add(CFA_XSP16, literal(-6)))
        CFI V4 load(1, XDATA, add(CFA_XSP16, literal(-7)))
        CFI V3 load(1, XDATA, add(CFA_XSP16, literal(-8)))
        CFI V2 load(1, XDATA, add(CFA_XSP16, literal(-9)))
        CFI V1 load(1, XDATA, add(CFA_XSP16, literal(-10)))
        CFI V0 load(1, XDATA, add(CFA_XSP16, literal(-11)))
        CFI VB load(1, XDATA, add(CFA_XSP16, literal(-12)))
        CFI R6 load(1, XDATA, add(CFA_XSP16, literal(-13)))
        CFI CFA_SP SP+0
        CFI CFA_XSP16 add(XSP16, 13)
        ; Saved register size: 13
        ; Auto size: 12
        MOV     A,#-0xc
        LCALL   ?ALLOC_XSTACK8
        CFI CFA_XSP16 add(XSP16, 25)
        MOV     ?V0 + 0,R2
        MOV     ?V0 + 1,R3
//  138   const uint8 AT_CMD_EP_ARRAY[] = AT_CMD_EPs;
        MOV     A,#0x7
        LCALL   ?XSTACK_DISP0_8
        MOV     R4,DPL
        MOV     R5,DPH
        MOV     DPH,#(`?<Constant {1, 4, 5, 6, 7}>` >> 8) & 0xff
        MOV     DPL,#`?<Constant {1, 4, 5, 6, 7}>` & 0xff
        MOV     A,#0x5
        LCALL   ?MOVE_LONG8_XDATA_XDATA
//  139   uint8 epNum = afNumEndPoints()-1;
        ; Setup parameters for call to function afNumEndPoints
        LCALL   ??afNumEndPoints?relay
        MOV     A,R1
        DEC     A
        MOV     ?V0 + 4,A
//  140   byte* epBuf = (byte*)  osal_mem_alloc(epNum);
        ; Setup parameters for call to function osal_mem_alloc
        MOV     R2,A
        MOV     R3,#0x0
        LCALL   ??osal_mem_alloc?relay
        MOV     ?V0 + 2,R2
        MOV     ?V0 + 3,R3
        MOV     R6,?V0 + 2
        MOV     R7,?V0 + 3
//  141   if(epBuf==NULL) return;
        MOV     A,R6
        ORL     A,R7
        JNZ     $+5
        LJMP    ??AT_AF_Cmd_REPPRINT_req_0 & 0xFFFF
//  142   afEndPoints( epBuf, true);
        ; Setup parameters for call to function afEndPoints
        MOV     R1,#0x1
        LCALL   ??afEndPoints?relay
//  143   AT_sort_arr(epBuf,epNum);
        ; Setup parameters for call to function AT_sort_arr
        MOV     R1,?V0 + 4
        MOV     A,R6
        MOV     R2,A
        MOV     A,R7
        MOV     R3,A
        LCALL   ??AT_sort_arr?relay
//  144   
//  145   //the epStatus store the search result
//  146   uint8 pbuf_temp[sizeof(AT_CMD_EP_ARRAY)+sizeof(AT_AF_hdr)];
//  147   AT_AF_Cmd_REPPRINT_rsp_t* pbuf = (AT_AF_Cmd_REPPRINT_rsp_t*)pbuf_temp;
//  148   pbuf->hdr.cmd=AT_AF_Cmd_rsp;
        MOV     DPL,?XSP + 0
        MOV     DPH,?XSP + 1
        MOV     A,#-0x80
        MOVX    @DPTR,A
//  149   pbuf->hdr.numItem=AT_CMD_EPs_Num;
        MOV     DPTR,#AT_CMD_EPs_Num
        MOVX    A,@DPTR
        PUSH    A
        CFI CFA_SP SP+-1
        MOV     A,#0x1
        LCALL   ?XSTACK_DISP0_8
        POP     A
        CFI CFA_SP SP+0
        MOVX    @DPTR,A
//  150   
//  151   int i,j;
//  152   for(i=0,j=0;j<AT_CMD_EPs_Num;j++){
        MOV     R2,#0x0
        MOV     R3,#0x0
        MOV     R0,#0x0
        MOV     R1,#0x0
        SJMP    ??AT_AF_Cmd_REPPRINT_req_1
//  153     if(epBuf[i]==AT_CMD_EP_ARRAY[j]){
//  154       pbuf->status[j] = AT_AF_enable;
//  155       i++;
//  156     }
//  157     else pbuf->status[j] = AT_AF_disable;
??AT_AF_Cmd_REPPRINT_req_2:
        LCALL   ?Subroutine22 & 0xFFFF
??CrossCallReturnLabel_23:
        CLR     A
        MOVX    @DPTR,A
??AT_AF_Cmd_REPPRINT_req_3:
        MOV     A,R0
        ADD     A,#0x1
        INC     R0
        MOV     A,R1
        ADDC    A,#0x0
        MOV     R1,A
??AT_AF_Cmd_REPPRINT_req_1:
        MOV     DPTR,#AT_CMD_EPs_Num
        MOVX    A,@DPTR
        MOV     R4,A
        CLR     C
        MOV     A,R0
        SUBB    A,R4
        MOV     A,R1
        SUBB    A,#0x0
        MOV     C,0xD0 /* PSW */.2
        XRL     A,PSW
        RLC     A
        MOV     A,R6
        JNC     ??AT_AF_Cmd_REPPRINT_req_4
        ADD     A,R2
        MOV     DPL,A
        MOV     A,R7
        ADDC    A,R3
        MOV     DPH,A
        MOVX    A,@DPTR
        MOV     R4,A
        MOV     A,#0x7
        LCALL   ?XSTACK_DISP0_8
        LCALL   ?Subroutine40 & 0xFFFF
??CrossCallReturnLabel_43:
        MOVX    A,@DPTR
        XRL     A,R4
        MOV     DPL,?XSP + 0
        MOV     DPH,?XSP + 1
        JNZ     ??AT_AF_Cmd_REPPRINT_req_2
        LCALL   ?Subroutine22 & 0xFFFF
??CrossCallReturnLabel_24:
        MOV     A,#0x1
        MOVX    @DPTR,A
        MOV     A,R2
        ADD     A,#0x1
        INC     R2
        MOV     A,R3
        ADDC    A,#0x0
        MOV     R3,A
        SJMP    ??AT_AF_Cmd_REPPRINT_req_3
//  158   }
//  159   osal_mem_free(epBuf);
??AT_AF_Cmd_REPPRINT_req_4:
        ; Setup parameters for call to function osal_mem_free
        MOV     R2,A
        MOV     A,R7
        MOV     R3,A
        LCALL   ??osal_mem_free?relay
//  160   AF_DataRequest( & (pkt->srcAddr), & AT_AF_epDesc,
//  161                        AT_AF_Cmd_REPPRINT_CLUSTERID,
//  162                        sizeof(AT_CMD_EP_ARRAY)+sizeof(AT_AF_hdr),
//  163                        (uint8*)pbuf,
//  164                        &AT_AF_TransID,
//  165                        AF_DISCV_ROUTE,
//  166                        AF_DEFAULT_RADIUS );
        ; Setup parameters for call to function AF_DataRequest
        MOV     ?V0 + 2,#0x1e
        MOV     R0,#?V0 + 2
        LCALL   ?PUSH_XSTACK_I_ONE
        CFI CFA_XSP16 add(XSP16, 26)
        MOV     ?V0 + 2,#AT_AF_TransID & 0xff
        MOV     ?V0 + 3,#(AT_AF_TransID >> 8) & 0xff
        MOV     R0,#?V0 + 2
        LCALL   ?PUSH_XSTACK_I_TWO
        CFI CFA_XSP16 add(XSP16, 28)
        MOV     A,#0x3
        LCALL   ?XSTACK_DISP0_8
        MOV     ?V0 + 2,DPL
        MOV     ?V0 + 3,DPH
        MOV     R0,#?V0 + 2
        LCALL   ?PUSH_XSTACK_I_TWO
        CFI CFA_XSP16 add(XSP16, 30)
        MOV     ?V0 + 2,#0x7
        MOV     ?V0 + 3,#0x0
        MOV     R0,#?V0 + 2
        LCALL   ?PUSH_XSTACK_I_TWO
        CFI CFA_XSP16 add(XSP16, 32)
        CLR     A
        MOV     ?V0 + 2,A
        MOV     R0,#?V0 + 2
        LCALL   ?PUSH_XSTACK_I_TWO
        CFI CFA_XSP16 add(XSP16, 34)
        LCALL   ?Subroutine20 & 0xFFFF
??CrossCallReturnLabel_115:
        LCALL   ?DEALLOC_XSTACK8
        CFI CFA_XSP16 add(XSP16, 25)
//  167   
//  168 }
??AT_AF_Cmd_REPPRINT_req_0:
        MOV     A,#0xc
        LCALL   ?DEALLOC_XSTACK8
        CFI CFA_XSP16 add(XSP16, 13)
        MOV     R7,#0x5
        LJMP    ?BANKED_LEAVE_XDATA
        CFI EndBlock cfiBlock5

        RSEG BANKED_CODE:CODE:NOROOT(0)
//  169 void AT_AF_Cmd_REPPRINT_rsp(afIncomingMSGPacket_t *pkt ){
AT_AF_Cmd_REPPRINT_rsp:
        CFI Block cfiBlock6 Using cfiCommon0
        CFI Function AT_AF_Cmd_REPPRINT_rsp
        CODE
        FUNCALL AT_AF_Cmd_REPPRINT_rsp, AT_HalUARTWrite
        LOCFRAME ISTACK, 0, STACK
        LOCFRAME PSTACK, 0, STACK
        LOCFRAME XSTACK, 23, STACK
        LOCFRAME IOVERLAY, 0, STATIC
        LOCFRAME DOVERLAY, 0, STATIC
        ARGFRAME ISTACK, 0, STACK
        ARGFRAME PSTACK, 0, STACK
        ARGFRAME XSTACK, 23, STACK
        ARGFRAME IOVERLAY, 0, STATIC
        ARGFRAME DOVERLAY, 0, STATIC
        FUNCALL AT_AF_Cmd_REPPRINT_rsp, AT_HalUARTWrite
        LOCFRAME ISTACK, 0, STACK
        LOCFRAME PSTACK, 0, STACK
        LOCFRAME XSTACK, 23, STACK
        LOCFRAME IOVERLAY, 0, STATIC
        LOCFRAME DOVERLAY, 0, STATIC
        ARGFRAME ISTACK, 0, STACK
        ARGFRAME PSTACK, 0, STACK
        ARGFRAME XSTACK, 23, STACK
        ARGFRAME IOVERLAY, 0, STATIC
        ARGFRAME DOVERLAY, 0, STATIC
        FUNCALL AT_AF_Cmd_REPPRINT_rsp, AT_HalUARTWrite
        LOCFRAME ISTACK, 0, STACK
        LOCFRAME PSTACK, 0, STACK
        LOCFRAME XSTACK, 23, STACK
        LOCFRAME IOVERLAY, 0, STATIC
        LOCFRAME DOVERLAY, 0, STATIC
        ARGFRAME ISTACK, 0, STACK
        ARGFRAME PSTACK, 0, STACK
        ARGFRAME XSTACK, 23, STACK
        ARGFRAME IOVERLAY, 0, STATIC
        ARGFRAME DOVERLAY, 0, STATIC
        FUNCALL AT_AF_Cmd_REPPRINT_rsp, AT_HalUARTWrite
        LOCFRAME ISTACK, 0, STACK
        LOCFRAME PSTACK, 0, STACK
        LOCFRAME XSTACK, 23, STACK
        LOCFRAME IOVERLAY, 0, STATIC
        LOCFRAME DOVERLAY, 0, STATIC
        ARGFRAME ISTACK, 0, STACK
        ARGFRAME PSTACK, 0, STACK
        ARGFRAME XSTACK, 23, STACK
        ARGFRAME IOVERLAY, 0, STATIC
        ARGFRAME DOVERLAY, 0, STATIC
        FUNCALL AT_AF_Cmd_REPPRINT_rsp, AT_Int16toChar
        LOCFRAME ISTACK, 0, STACK
        LOCFRAME PSTACK, 0, STACK
        LOCFRAME XSTACK, 23, STACK
        LOCFRAME IOVERLAY, 0, STATIC
        LOCFRAME DOVERLAY, 0, STATIC
        ARGFRAME ISTACK, 0, STACK
        ARGFRAME PSTACK, 0, STACK
        ARGFRAME XSTACK, 23, STACK
        ARGFRAME IOVERLAY, 0, STATIC
        ARGFRAME DOVERLAY, 0, STATIC
        FUNCALL AT_AF_Cmd_REPPRINT_rsp, AT_HalUARTWrite
        LOCFRAME ISTACK, 0, STACK
        LOCFRAME PSTACK, 0, STACK
        LOCFRAME XSTACK, 23, STACK
        LOCFRAME IOVERLAY, 0, STATIC
        LOCFRAME DOVERLAY, 0, STATIC
        ARGFRAME ISTACK, 0, STACK
        ARGFRAME PSTACK, 0, STACK
        ARGFRAME XSTACK, 23, STACK
        ARGFRAME IOVERLAY, 0, STATIC
        ARGFRAME DOVERLAY, 0, STATIC
        FUNCALL AT_AF_Cmd_REPPRINT_rsp, AT_HalUARTWrite
        LOCFRAME ISTACK, 0, STACK
        LOCFRAME PSTACK, 0, STACK
        LOCFRAME XSTACK, 23, STACK
        LOCFRAME IOVERLAY, 0, STATIC
        LOCFRAME DOVERLAY, 0, STATIC
        ARGFRAME ISTACK, 0, STACK
        ARGFRAME PSTACK, 0, STACK
        ARGFRAME XSTACK, 23, STACK
        ARGFRAME IOVERLAY, 0, STATIC
        ARGFRAME DOVERLAY, 0, STATIC
        FUNCALL AT_AF_Cmd_REPPRINT_rsp, AT_HalUARTWrite
        LOCFRAME ISTACK, 0, STACK
        LOCFRAME PSTACK, 0, STACK
        LOCFRAME XSTACK, 23, STACK
        LOCFRAME IOVERLAY, 0, STATIC
        LOCFRAME DOVERLAY, 0, STATIC
        ARGFRAME ISTACK, 0, STACK
        ARGFRAME PSTACK, 0, STACK
        ARGFRAME XSTACK, 23, STACK
        ARGFRAME IOVERLAY, 0, STATIC
        ARGFRAME DOVERLAY, 0, STATIC
        FUNCALL AT_AF_Cmd_REPPRINT_rsp, AT_Int8toChar
        LOCFRAME ISTACK, 0, STACK
        LOCFRAME PSTACK, 0, STACK
        LOCFRAME XSTACK, 23, STACK
        LOCFRAME IOVERLAY, 0, STATIC
        LOCFRAME DOVERLAY, 0, STATIC
        ARGFRAME ISTACK, 0, STACK
        ARGFRAME PSTACK, 0, STACK
        ARGFRAME XSTACK, 23, STACK
        ARGFRAME IOVERLAY, 0, STATIC
        ARGFRAME DOVERLAY, 0, STATIC
        FUNCALL AT_AF_Cmd_REPPRINT_rsp, AT_HalUARTWrite
        LOCFRAME ISTACK, 0, STACK
        LOCFRAME PSTACK, 0, STACK
        LOCFRAME XSTACK, 23, STACK
        LOCFRAME IOVERLAY, 0, STATIC
        LOCFRAME DOVERLAY, 0, STATIC
        ARGFRAME ISTACK, 0, STACK
        ARGFRAME PSTACK, 0, STACK
        ARGFRAME XSTACK, 23, STACK
        ARGFRAME IOVERLAY, 0, STATIC
        ARGFRAME DOVERLAY, 0, STATIC
        FUNCALL AT_AF_Cmd_REPPRINT_rsp, AT_HalUARTWrite
        LOCFRAME ISTACK, 0, STACK
        LOCFRAME PSTACK, 0, STACK
        LOCFRAME XSTACK, 23, STACK
        LOCFRAME IOVERLAY, 0, STATIC
        LOCFRAME DOVERLAY, 0, STATIC
        ARGFRAME ISTACK, 0, STACK
        ARGFRAME PSTACK, 0, STACK
        ARGFRAME XSTACK, 23, STACK
        ARGFRAME IOVERLAY, 0, STATIC
        ARGFRAME DOVERLAY, 0, STATIC
        FUNCALL AT_AF_Cmd_REPPRINT_rsp, AT_HalUARTWrite
        LOCFRAME ISTACK, 0, STACK
        LOCFRAME PSTACK, 0, STACK
        LOCFRAME XSTACK, 23, STACK
        LOCFRAME IOVERLAY, 0, STATIC
        LOCFRAME DOVERLAY, 0, STATIC
        ARGFRAME ISTACK, 0, STACK
        ARGFRAME PSTACK, 0, STACK
        ARGFRAME XSTACK, 23, STACK
        ARGFRAME IOVERLAY, 0, STATIC
        ARGFRAME DOVERLAY, 0, STATIC
        MOV     A,#-0xe
        LCALL   ?BANKED_ENTER_XDATA
        CFI DPH0 load(1, XDATA, add(CFA_XSP16, literal(-1)))
        CFI DPL0 load(1, XDATA, add(CFA_XSP16, literal(-2)))
        CFI ?BRET_EXT load(1, XDATA, add(CFA_XSP16, literal(-3)))
        CFI ?RET_HIGH load(1, XDATA, add(CFA_XSP16, literal(-4)))
        CFI ?RET_LOW load(1, XDATA, add(CFA_XSP16, literal(-5)))
        CFI R7 load(1, XDATA, add(CFA_XSP16, literal(-6)))
        CFI V5 load(1, XDATA, add(CFA_XSP16, literal(-7)))
        CFI V4 load(1, XDATA, add(CFA_XSP16, literal(-8)))
        CFI V3 load(1, XDATA, add(CFA_XSP16, literal(-9)))
        CFI V2 load(1, XDATA, add(CFA_XSP16, literal(-10)))
        CFI V1 load(1, XDATA, add(CFA_XSP16, literal(-11)))
        CFI V0 load(1, XDATA, add(CFA_XSP16, literal(-12)))
        CFI VB load(1, XDATA, add(CFA_XSP16, literal(-13)))
        CFI R6 load(1, XDATA, add(CFA_XSP16, literal(-14)))
        CFI CFA_SP SP+0
        CFI CFA_XSP16 add(XSP16, 14)
        ; Saved register size: 14
        ; Auto size: 9
        MOV     A,#-0x9
        LCALL   ?ALLOC_XSTACK8
        CFI CFA_XSP16 add(XSP16, 23)
        MOV     ?V0 + 2,R2
        MOV     ?V0 + 3,R3
//  170   uint8* epStatus = ((AT_AF_Cmd_REPPRINT_rsp_t*) pkt->cmd.Data)->status;
        LCALL   ??Subroutine58_0 & 0xFFFF
??CrossCallReturnLabel_111:
        LCALL   ??Subroutine57_0 & 0xFFFF
??CrossCallReturnLabel_90:
        ADD     A,#0x2
        MOV     ?V0 + 4,A
        INC     DPTR
        MOVX    A,@DPTR
        ADDC    A,#0x0
        MOV     ?V0 + 5,A
//  171   const uint8 AT_CMD_EP_ARRAY[] = AT_CMD_EPs;
        MOV     A,#0x4
        LCALL   ?XSTACK_DISP0_8
        MOV     R4,DPL
        MOV     R5,DPH
        MOV     DPH,#(`?<Constant {1, 4, 5, 6, 7}>_1` >> 8) & 0xff
        MOV     DPL,#`?<Constant {1, 4, 5, 6, 7}>_1` & 0xff
        MOV     A,#0x5
        LCALL   ?MOVE_LONG8_XDATA_XDATA
//  172   
//  173   uint8 i;
//  174   char str[4];
//  175   AT_RESP_START();
        ; Setup parameters for call to function AT_HalUARTWrite
        MOV     R4,#0x2
        MOV     R5,A
        MOV     R2,#`?<Constant "\\r\\n">` & 0xff
        MOV     R3,#(`?<Constant "\\r\\n">` >> 8) & 0xff
        MOV     R1,A
        LCALL   ??AT_HalUARTWrite?relay
//  176   AT_RESP("<nodeID>,<EndPoint>:<Status>",
//  177           sizeof("<nodeID>,<EndPoint>:<Status>")-1);
        ; Setup parameters for call to function AT_HalUARTWrite
        MOV     R4,#0x1c
        MOV     R5,#0x0
        MOV     R2,#`?<Constant "<nodeID>,<EndPoint>:<...">` & 0xff
        MOV     R3,#(`?<Constant "<nodeID>,<EndPoint>:<...">` >> 8) & 0xff
        MOV     R1,#0x0
        LCALL   ??AT_HalUARTWrite?relay
//  178   for(i=0;i<((AT_AF_Cmd_REPPRINT_rsp_t*) pkt->cmd.Data)->hdr.numItem;i++){
        MOV     ?V0 + 0,#0x0
        SJMP    ??AT_AF_Cmd_REPPRINT_rsp_0
//  179     AT_NEXT_LINE();
//  180     //display nodeID
//  181     if(pkt->srcAddr.addrMode==(afAddrMode_t)Addr16Bit){
//  182       AT_Int16toChar(pkt->srcAddr.addr.shortAddr,str);
//  183       AT_RESP(str,4);
//  184     }else AT_RESP("UNKNOWN",sizeof("UNKNOWN")-1);
//  185     AT_RESP(",",1);
//  186     
//  187     //print end point
//  188     AT_Int8toChar(AT_CMD_EP_ARRAY[i],str);
//  189     AT_RESP(str,2);
//  190     
//  191     //display status 
//  192     if(epStatus[i]==AT_AF_enable){
//  193       AT_RESP(":ENABLED",sizeof(":ENABLED")-1);
//  194     }
//  195     else AT_RESP(":DISABLED",sizeof(":DISABLED")-1);
??AT_AF_Cmd_REPPRINT_rsp_1:
        ; Setup parameters for call to function AT_HalUARTWrite
        MOV     R4,#0x9
        MOV     R5,#0x0
        MOV     R2,#`?<Constant ":DISABLED">` & 0xff
        MOV     R3,#(`?<Constant ":DISABLED">` >> 8) & 0xff
??AT_AF_Cmd_REPPRINT_rsp_2:
        MOV     R1,#0x0
        LCALL   ??AT_HalUARTWrite?relay
        INC     ?V0 + 0
??AT_AF_Cmd_REPPRINT_rsp_0:
        MOV     A,?V0 + 2
        ADD     A,#0x22
        MOV     DPL,A
        MOV     A,?V0 + 3
        LCALL   ?Subroutine41 & 0xFFFF
??CrossCallReturnLabel_103:
        LCALL   ?Subroutine17 & 0xFFFF
??CrossCallReturnLabel_17:
        MOVX    A,@DPTR
        MOV     R0,A
        MOV     A,?V0 + 0
        CLR     C
        SUBB    A,R0
        MOV     R4,#0x2
        MOV     R5,#0x0
        JNC     ??AT_AF_Cmd_REPPRINT_rsp_3
        ; Setup parameters for call to function AT_HalUARTWrite
        MOV     R2,#`?<Constant "\\n\\r">` & 0xff
        MOV     R3,#(`?<Constant "\\n\\r">` >> 8) & 0xff
        MOV     R1,#0x0
        LCALL   ??AT_HalUARTWrite?relay
        MOV     A,?V0 + 2
        ADD     A,#0xe
        MOV     DPL,A
        MOV     A,?V0 + 3
        LCALL   ??Subroutine44_0 & 0xFFFF
??CrossCallReturnLabel_47:
        JNZ     ??AT_AF_Cmd_REPPRINT_rsp_4
        ; Setup parameters for call to function AT_Int16toChar
        MOV     DPL,?XSP + 0
        MOV     DPH,?XSP + 1
        MOV     R4,DPL
        MOV     R5,DPH
        MOV     DPL,?V0 + 2
        MOV     DPH,?V0 + 3
        LCALL   ??Subroutine47_0 & 0xFFFF
??CrossCallReturnLabel_57:
        SJMP    ??AT_AF_Cmd_REPPRINT_rsp_5
??AT_AF_Cmd_REPPRINT_rsp_4:
        ; Setup parameters for call to function AT_HalUARTWrite
        MOV     R4,#0x7
        MOV     R5,#0x0
        MOV     R2,#`?<Constant "UNKNOWN">` & 0xff
        MOV     R3,#(`?<Constant "UNKNOWN">` >> 8) & 0xff
??AT_AF_Cmd_REPPRINT_rsp_5:
        LCALL   ?Subroutine28 & 0xFFFF
??CrossCallReturnLabel_32:
        MOV     DPL,?V0 + 0
        MOV     R6,DPL
        ; Setup parameters for call to function AT_Int8toChar
        MOV     DPL,?XSP + 0
        MOV     DPH,?XSP + 1
        MOV     R2,DPL
        MOV     R3,DPH
        MOV     A,#0x4
        LCALL   ?XSTACK_DISP0_8
        MOV     A,DPL
        ADD     A,R6
        LCALL   ??Subroutine50_0 & 0xFFFF
??CrossCallReturnLabel_70:
        LCALL   ?Subroutine29 & 0xFFFF
??CrossCallReturnLabel_35:
        MOV     R1,#0x0
        LCALL   ??AT_HalUARTWrite?relay
        MOV     A,?V0 + 4
        ADD     A,R6
        MOV     DPL,A
        MOV     A,?V0 + 5
        LCALL   ??Subroutine57_0 & 0xFFFF
??CrossCallReturnLabel_91:
        XRL     A,#0x1
        JZ      $+5
        LJMP    ??AT_AF_Cmd_REPPRINT_rsp_1 & 0xFFFF
        ; Setup parameters for call to function AT_HalUARTWrite
        MOV     R4,#0x8
        MOV     R5,#0x0
        MOV     R2,#`?<Constant ":ENABLED">` & 0xff
        MOV     R3,#(`?<Constant ":ENABLED">` >> 8) & 0xff
        LJMP    ??AT_AF_Cmd_REPPRINT_rsp_2 & 0xFFFF
//  196   }
//  197   AT_RESP_END();
??AT_AF_Cmd_REPPRINT_rsp_3:
        ; Setup parameters for call to function AT_HalUARTWrite
        MOV     R2,#`?<Constant "\\r\\n">` & 0xff
        MOV     R3,#(`?<Constant "\\r\\n">` >> 8) & 0xff
        MOV     R1,#0x0
        LCALL   ??AT_HalUARTWrite?relay
//  198 }
        MOV     A,#0x9
        LJMP    ??Subroutine42_0 & 0xFFFF
        CFI EndBlock cfiBlock6
//  199 
//  200 

        RSEG BANKED_CODE:CODE:NOROOT(0)
//  201 void AT_AF_Cmd_REPPRINT_CB(afIncomingMSGPacket_t *pkt ){
AT_AF_Cmd_REPPRINT_CB:
        CFI Block cfiBlock7 Using cfiCommon0
        CFI Function AT_AF_Cmd_REPPRINT_CB
        CODE
        FUNCALL AT_AF_Cmd_REPPRINT_CB, AT_AF_Cmd_REPPRINT_req
        LOCFRAME ISTACK, 2, STACK
        LOCFRAME PSTACK, 0, STACK
        LOCFRAME XSTACK, 0, STACK
        LOCFRAME IOVERLAY, 0, STATIC
        LOCFRAME DOVERLAY, 0, STATIC
        ARGFRAME ISTACK, 2, STACK
        ARGFRAME PSTACK, 0, STACK
        ARGFRAME XSTACK, 0, STACK
        ARGFRAME IOVERLAY, 0, STATIC
        ARGFRAME DOVERLAY, 0, STATIC
        FUNCALL AT_AF_Cmd_REPPRINT_CB, AT_AF_Cmd_REPPRINT_rsp
        LOCFRAME ISTACK, 2, STACK
        LOCFRAME PSTACK, 0, STACK
        LOCFRAME XSTACK, 0, STACK
        LOCFRAME IOVERLAY, 0, STATIC
        LOCFRAME DOVERLAY, 0, STATIC
        ARGFRAME ISTACK, 2, STACK
        ARGFRAME PSTACK, 0, STACK
        ARGFRAME XSTACK, 0, STACK
        ARGFRAME IOVERLAY, 0, STATIC
        ARGFRAME DOVERLAY, 0, STATIC
        PUSH    DPL
        CFI DPL0 Frame(CFA_SP, 4)
        CFI CFA_SP SP+-4
        PUSH    DPH
        CFI DPH0 Frame(CFA_SP, 5)
        CFI CFA_SP SP+-5
        ; Saved register size: 2
        ; Auto size: 0
//  202   
//  203   AT_AF_hdr *hdr = (AT_AF_hdr*)pkt->cmd.Data;
//  204   switch (hdr->cmd){
        LCALL   ?Subroutine9 & 0xFFFF
??CrossCallReturnLabel_59:
        JZ      ??AT_AF_Cmd_REPPRINT_CB_0
        ADD     A,#-0x80
        JZ      ??AT_AF_Cmd_REPPRINT_CB_1
        SJMP    ??AT_AF_Cmd_REPPRINT_CB_2
//  205   case AT_AF_Cmd_req:
//  206     AT_AF_Cmd_REPPRINT_req(pkt);
??AT_AF_Cmd_REPPRINT_CB_0:
        ; Setup parameters for call to function AT_AF_Cmd_REPPRINT_req
        LCALL   ??AT_AF_Cmd_REPPRINT_req?relay
//  207     break;
        SJMP    ??AT_AF_Cmd_REPPRINT_CB_2
//  208   case AT_AF_Cmd_rsp:
//  209     AT_AF_Cmd_REPPRINT_rsp(pkt);
??AT_AF_Cmd_REPPRINT_CB_1:
        ; Setup parameters for call to function AT_AF_Cmd_REPPRINT_rsp
        LCALL   ??AT_AF_Cmd_REPPRINT_rsp?relay
//  210     break;
//  211   }   
//  212 }
??AT_AF_Cmd_REPPRINT_CB_2:
        LJMP    ?Subroutine0 & 0xFFFF
        CFI EndBlock cfiBlock7
//  213 
//  214 
//  215 /*************************************************************
//  216     deal with the requst from other devices for REPENABLE, 
//  217     and send a response
//  218 *************************************************************/

        RSEG BANKED_CODE:CODE:NOROOT(0)
//  219 void AT_AF_Cmd_REPENABLE_req(afIncomingMSGPacket_t *pkt  ){
AT_AF_Cmd_REPENABLE_req:
        CFI Block cfiBlock8 Using cfiCommon0
        CFI Function AT_AF_Cmd_REPENABLE_req
        CODE
        FUNCALL AT_AF_Cmd_REPENABLE_req, AT_af_get_ep
        LOCFRAME ISTACK, 0, STACK
        LOCFRAME PSTACK, 0, STACK
        LOCFRAME XSTACK, 19, STACK
        LOCFRAME IOVERLAY, 0, STATIC
        LOCFRAME DOVERLAY, 0, STATIC
        ARGFRAME ISTACK, 0, STACK
        ARGFRAME PSTACK, 0, STACK
        ARGFRAME XSTACK, 19, STACK
        ARGFRAME IOVERLAY, 0, STATIC
        ARGFRAME DOVERLAY, 0, STATIC
        FUNCALL AT_AF_Cmd_REPENABLE_req, AT_af_register_ep
        LOCFRAME ISTACK, 0, STACK
        LOCFRAME PSTACK, 0, STACK
        LOCFRAME XSTACK, 19, STACK
        LOCFRAME IOVERLAY, 0, STATIC
        LOCFRAME DOVERLAY, 0, STATIC
        ARGFRAME ISTACK, 0, STACK
        ARGFRAME PSTACK, 0, STACK
        ARGFRAME XSTACK, 19, STACK
        ARGFRAME IOVERLAY, 0, STATIC
        ARGFRAME DOVERLAY, 0, STATIC
        FUNCALL AT_AF_Cmd_REPENABLE_req, AT_ZCL_EP_ENABLE
        LOCFRAME ISTACK, 0, STACK
        LOCFRAME PSTACK, 0, STACK
        LOCFRAME XSTACK, 19, STACK
        LOCFRAME IOVERLAY, 0, STATIC
        LOCFRAME DOVERLAY, 0, STATIC
        ARGFRAME ISTACK, 0, STACK
        ARGFRAME PSTACK, 0, STACK
        ARGFRAME XSTACK, 19, STACK
        ARGFRAME IOVERLAY, 0, STATIC
        ARGFRAME DOVERLAY, 0, STATIC
        FUNCALL AT_AF_Cmd_REPENABLE_req, AT_NV_ZCL_get_index_
        LOCFRAME ISTACK, 0, STACK
        LOCFRAME PSTACK, 0, STACK
        LOCFRAME XSTACK, 19, STACK
        LOCFRAME IOVERLAY, 0, STATIC
        LOCFRAME DOVERLAY, 0, STATIC
        ARGFRAME ISTACK, 0, STACK
        ARGFRAME PSTACK, 0, STACK
        ARGFRAME XSTACK, 19, STACK
        ARGFRAME IOVERLAY, 0, STATIC
        ARGFRAME DOVERLAY, 0, STATIC
        FUNCALL AT_AF_Cmd_REPENABLE_req, AT_NV_ZCL_saveEPStatus
        LOCFRAME ISTACK, 0, STACK
        LOCFRAME PSTACK, 0, STACK
        LOCFRAME XSTACK, 19, STACK
        LOCFRAME IOVERLAY, 0, STATIC
        LOCFRAME DOVERLAY, 0, STATIC
        ARGFRAME ISTACK, 0, STACK
        ARGFRAME PSTACK, 0, STACK
        ARGFRAME XSTACK, 19, STACK
        ARGFRAME IOVERLAY, 0, STATIC
        ARGFRAME DOVERLAY, 0, STATIC
        FUNCALL AT_AF_Cmd_REPENABLE_req, AT_af_get_ep
        LOCFRAME ISTACK, 0, STACK
        LOCFRAME PSTACK, 0, STACK
        LOCFRAME XSTACK, 19, STACK
        LOCFRAME IOVERLAY, 0, STATIC
        LOCFRAME DOVERLAY, 0, STATIC
        ARGFRAME ISTACK, 0, STACK
        ARGFRAME PSTACK, 0, STACK
        ARGFRAME XSTACK, 19, STACK
        ARGFRAME IOVERLAY, 0, STATIC
        ARGFRAME DOVERLAY, 0, STATIC
        FUNCALL AT_AF_Cmd_REPENABLE_req, AT_af_remove_ep
        LOCFRAME ISTACK, 0, STACK
        LOCFRAME PSTACK, 0, STACK
        LOCFRAME XSTACK, 19, STACK
        LOCFRAME IOVERLAY, 0, STATIC
        LOCFRAME DOVERLAY, 0, STATIC
        ARGFRAME ISTACK, 0, STACK
        ARGFRAME PSTACK, 0, STACK
        ARGFRAME XSTACK, 19, STACK
        ARGFRAME IOVERLAY, 0, STATIC
        ARGFRAME DOVERLAY, 0, STATIC
        FUNCALL AT_AF_Cmd_REPENABLE_req, AT_ZCL_EP_ENABLE
        LOCFRAME ISTACK, 0, STACK
        LOCFRAME PSTACK, 0, STACK
        LOCFRAME XSTACK, 19, STACK
        LOCFRAME IOVERLAY, 0, STATIC
        LOCFRAME DOVERLAY, 0, STATIC
        ARGFRAME ISTACK, 0, STACK
        ARGFRAME PSTACK, 0, STACK
        ARGFRAME XSTACK, 19, STACK
        ARGFRAME IOVERLAY, 0, STATIC
        ARGFRAME DOVERLAY, 0, STATIC
        FUNCALL AT_AF_Cmd_REPENABLE_req, AT_NV_ZCL_get_index_
        LOCFRAME ISTACK, 0, STACK
        LOCFRAME PSTACK, 0, STACK
        LOCFRAME XSTACK, 19, STACK
        LOCFRAME IOVERLAY, 0, STATIC
        LOCFRAME DOVERLAY, 0, STATIC
        ARGFRAME ISTACK, 0, STACK
        ARGFRAME PSTACK, 0, STACK
        ARGFRAME XSTACK, 19, STACK
        ARGFRAME IOVERLAY, 0, STATIC
        ARGFRAME DOVERLAY, 0, STATIC
        FUNCALL AT_AF_Cmd_REPENABLE_req, AT_NV_ZCL_saveEPStatus
        LOCFRAME ISTACK, 0, STACK
        LOCFRAME PSTACK, 0, STACK
        LOCFRAME XSTACK, 19, STACK
        LOCFRAME IOVERLAY, 0, STATIC
        LOCFRAME DOVERLAY, 0, STATIC
        ARGFRAME ISTACK, 0, STACK
        ARGFRAME PSTACK, 0, STACK
        ARGFRAME XSTACK, 19, STACK
        ARGFRAME IOVERLAY, 0, STATIC
        ARGFRAME DOVERLAY, 0, STATIC
        FUNCALL AT_AF_Cmd_REPENABLE_req, AF_DataRequest
        LOCFRAME ISTACK, 0, STACK
        LOCFRAME PSTACK, 0, STACK
        LOCFRAME XSTACK, 28, STACK
        LOCFRAME IOVERLAY, 0, STATIC
        LOCFRAME DOVERLAY, 0, STATIC
        ARGFRAME ISTACK, 0, STACK
        ARGFRAME PSTACK, 0, STACK
        ARGFRAME XSTACK, 28, STACK
        ARGFRAME IOVERLAY, 0, STATIC
        ARGFRAME DOVERLAY, 0, STATIC
        MOV     A,#-0xe
        LCALL   ?BANKED_ENTER_XDATA
        CFI DPH0 load(1, XDATA, add(CFA_XSP16, literal(-1)))
        CFI DPL0 load(1, XDATA, add(CFA_XSP16, literal(-2)))
        CFI ?BRET_EXT load(1, XDATA, add(CFA_XSP16, literal(-3)))
        CFI ?RET_HIGH load(1, XDATA, add(CFA_XSP16, literal(-4)))
        CFI ?RET_LOW load(1, XDATA, add(CFA_XSP16, literal(-5)))
        CFI R7 load(1, XDATA, add(CFA_XSP16, literal(-6)))
        CFI V5 load(1, XDATA, add(CFA_XSP16, literal(-7)))
        CFI V4 load(1, XDATA, add(CFA_XSP16, literal(-8)))
        CFI V3 load(1, XDATA, add(CFA_XSP16, literal(-9)))
        CFI V2 load(1, XDATA, add(CFA_XSP16, literal(-10)))
        CFI V1 load(1, XDATA, add(CFA_XSP16, literal(-11)))
        CFI V0 load(1, XDATA, add(CFA_XSP16, literal(-12)))
        CFI VB load(1, XDATA, add(CFA_XSP16, literal(-13)))
        CFI R6 load(1, XDATA, add(CFA_XSP16, literal(-14)))
        CFI CFA_SP SP+0
        CFI CFA_XSP16 add(XSP16, 14)
        ; Saved register size: 14
        ; Auto size: 5
        MOV     A,#-0x5
        LCALL   ?ALLOC_XSTACK8
        CFI CFA_XSP16 add(XSP16, 19)
        LCALL   ?Subroutine30 & 0xFFFF
//  220   AT_AF_Cmd_REPENABLE_rsp_t rsp;
//  221   
//  222   AT_AF_Cmd_REPENABLE_req_t *req = (AT_AF_Cmd_REPENABLE_req_t*)pkt->cmd.Data;
??CrossCallReturnLabel_109:
        LCALL   ?Subroutine15 & 0xFFFF
//  223   uint8 enable =req->enable;
??CrossCallReturnLabel_15:
        MOVX    A,@DPTR
        MOV     DPL,?XSP + 0
        MOV     DPH,?XSP + 1
        MOVX    @DPTR,A
//  224   uint8 ep     =req->ep;
        MOV     A,R0
        ADD     A,#0x3
        INC     R0
        INC     R0
        INC     R0
        MOV     A,R1
        ADDC    A,#0x0
        MOV     R1,A
        MOV     DPL,R0
        MOV     DPH,R1
        MOVX    A,@DPTR
        MOV     ?V0 + 2,A
//  225   
//  226   rsp.hdr.cmd=AT_AF_Cmd_rsp;
        MOV     A,#0x1
        LCALL   ?XSTACK_DISP0_8
        MOV     A,#-0x80
        MOVX    @DPTR,A
//  227   rsp.item.ep=req->ep;
        MOV     DPL,R0
        MOV     DPH,R1
        MOVX    A,@DPTR
        PUSH    A
        CFI CFA_SP SP+-1
        MOV     A,#0x3
        LCALL   ?XSTACK_DISP0_8
        POP     A
        CFI CFA_SP SP+0
        LCALL   ?Subroutine7 & 0xFFFF
//  228   
//  229   if(enable){
??CrossCallReturnLabel_5:
        MOV     R1,?V0 + 2
        JZ      ??AT_AF_Cmd_REPENABLE_req_0
//  230     if( AT_af_get_ep(ep)){
        ; Setup parameters for call to function AT_af_get_ep
        LCALL   ?Subroutine32 & 0xFFFF
??CrossCallReturnLabel_39:
        JZ      ??AT_AF_Cmd_REPENABLE_req_1
//  231       if(AT_af_register_ep(ep)==afStatus_SUCCESS){ 
        ; Setup parameters for call to function AT_af_register_ep
        MOV     R1,?V0 + 2
        LCALL   ??AT_af_register_ep?relay
        MOV     A,R1
        JNZ     ??CrossCallReturnLabel_7
//  232         //enable the end point in ZCL layer
//  233         AT_ZCL_EP_ENABLE( enable,ep);
        ; Setup parameters for call to function AT_ZCL_EP_ENABLE
        LCALL   ?Subroutine10 & 0xFFFF
//  234         AT_NV_ZCL_saveEPStatus(AT_NV_ZCL_get_index_(ep),&enable);
//  235       }
//  236       rsp.item.status=AT_AF_enable;
??CrossCallReturnLabel_7:
        MOV     A,#0x4
        LCALL   ?XSTACK_DISP0_8
        MOV     A,#0x1
        SJMP    ??AT_AF_Cmd_REPENABLE_req_2
//  237     }else {
//  238       rsp.item.status = AT_AF_UNKNOWNEP;
??AT_AF_Cmd_REPENABLE_req_1:
        MOV     A,#0x4
        LCALL   ?XSTACK_DISP0_8
        MOV     A,#0x2
        SJMP    ??AT_AF_Cmd_REPENABLE_req_2
//  239     }
//  240   }
//  241   else{
//  242 
//  243     if(AT_af_get_ep(ep)){
??AT_AF_Cmd_REPENABLE_req_0:
        ; Setup parameters for call to function AT_af_get_ep
        LCALL   ?Subroutine32 & 0xFFFF
??CrossCallReturnLabel_40:
        JZ      ??AT_AF_Cmd_REPENABLE_req_1
//  244       if(AT_af_remove_ep(ep)==afStatus_SUCCESS){
        ; Setup parameters for call to function AT_af_remove_ep
        MOV     R1,?V0 + 2
        LCALL   ??AT_af_remove_ep?relay
        MOV     A,R1
        JNZ     ??CrossCallReturnLabel_8
//  245         //disable the end point in ZCL layer
//  246         AT_ZCL_EP_ENABLE( enable,ep);
        ; Setup parameters for call to function AT_ZCL_EP_ENABLE
        LCALL   ?Subroutine10 & 0xFFFF
//  247         //save to NV
//  248         AT_NV_ZCL_saveEPStatus(AT_NV_ZCL_get_index_(ep),&enable);
//  249       }
//  250       rsp.item.status = AT_AF_disable;
??CrossCallReturnLabel_8:
        MOV     A,#0x4
        LCALL   ?XSTACK_DISP0_8
        CLR     A
??AT_AF_Cmd_REPENABLE_req_2:
        MOVX    @DPTR,A
//  251     }else {
//  252       rsp.item.status = AT_AF_UNKNOWNEP;
//  253     }
//  254   }
//  255   
//  256   AF_DataRequest( & (pkt->srcAddr), & AT_AF_epDesc,
//  257                        AT_AF_Cmd_REPENABLE_CLUSTERID,
//  258                        sizeof(AT_AF_Cmd_REPENABLE_rsp_t),
//  259                        (uint8*)&rsp,
//  260                        &AT_AF_TransID,
//  261                        AF_DISCV_ROUTE,
//  262                        AF_DEFAULT_RADIUS );
        ; Setup parameters for call to function AF_DataRequest
        MOV     ?V0 + 2,#0x1e
        MOV     R0,#?V0 + 2
        LCALL   ?PUSH_XSTACK_I_ONE
        CFI CFA_XSP16 add(XSP16, 20)
        MOV     ?V0 + 2,#AT_AF_TransID & 0xff
        MOV     ?V0 + 3,#(AT_AF_TransID >> 8) & 0xff
        MOV     R0,#?V0 + 2
        LCALL   ?PUSH_XSTACK_I_TWO
        CFI CFA_XSP16 add(XSP16, 22)
        MOV     A,#0x4
        LCALL   ?XSTACK_DISP0_8
        MOV     ?V0 + 2,DPL
        MOV     ?V0 + 3,DPH
        MOV     R0,#?V0 + 2
        LCALL   ?PUSH_XSTACK_I_TWO
        CFI CFA_XSP16 add(XSP16, 24)
        MOV     ?V0 + 2,#0x4
        MOV     ?V0 + 3,#0x0
        MOV     R0,#?V0 + 2
        LCALL   ?PUSH_XSTACK_I_TWO
        CFI CFA_XSP16 add(XSP16, 26)
        MOV     ?V0 + 2,#0x1
        MOV     R0,#?V0 + 2
        LCALL   ?PUSH_XSTACK_I_TWO
        CFI CFA_XSP16 add(XSP16, 28)
        LCALL   ?Subroutine20 & 0xFFFF
??CrossCallReturnLabel_116:
        LCALL   ?DEALLOC_XSTACK8
        CFI EndBlock cfiBlock8
//  263   
//  264 }
        REQUIRE ?Subroutine3
        ; // Fall through to label ?Subroutine3

        RSEG BANKED_CODE:CODE:NOROOT(0)
?Subroutine3:
        CFI Block cfiBlock9 Using cfiCommon0
        CFI NoFunction
        CFI CFA_SP SP+0
        CFI CFA_XSP16 add(XSP16, 19)
        CFI VB load(1, XDATA, add(CFA_XSP16, literal(-13)))
        CFI DPL0 load(1, XDATA, add(CFA_XSP16, literal(-2)))
        CFI DPH0 load(1, XDATA, add(CFA_XSP16, literal(-1)))
        CFI R6 load(1, XDATA, add(CFA_XSP16, literal(-14)))
        CFI R7 load(1, XDATA, add(CFA_XSP16, literal(-6)))
        CFI V0 load(1, XDATA, add(CFA_XSP16, literal(-12)))
        CFI V1 load(1, XDATA, add(CFA_XSP16, literal(-11)))
        CFI V2 load(1, XDATA, add(CFA_XSP16, literal(-10)))
        CFI V3 load(1, XDATA, add(CFA_XSP16, literal(-9)))
        CFI V4 load(1, XDATA, add(CFA_XSP16, literal(-8)))
        CFI V5 load(1, XDATA, add(CFA_XSP16, literal(-7)))
        CFI ?BRET_EXT load(1, XDATA, add(CFA_XSP16, literal(-3)))
        CFI ?RET_HIGH load(1, XDATA, add(CFA_XSP16, literal(-4)))
        CFI ?RET_LOW load(1, XDATA, add(CFA_XSP16, literal(-5)))
        MOV     A,#0x5
        CFI EndBlock cfiBlock9
        REQUIRE ??Subroutine42_0
        ; // Fall through to label ??Subroutine42_0

        RSEG BANKED_CODE:CODE:NOROOT(0)
??Subroutine42_0:
        CFI Block cfiBlock10 Using cfiCommon0
        CFI NoFunction
        CFI CFA_SP SP+0
        CFI CFA_XSP16 add(XSP16, 23)
        CFI VB load(1, XDATA, add(CFA_XSP16, literal(-13)))
        CFI DPL0 load(1, XDATA, add(CFA_XSP16, literal(-2)))
        CFI DPH0 load(1, XDATA, add(CFA_XSP16, literal(-1)))
        CFI R6 load(1, XDATA, add(CFA_XSP16, literal(-14)))
        CFI R7 load(1, XDATA, add(CFA_XSP16, literal(-6)))
        CFI V0 load(1, XDATA, add(CFA_XSP16, literal(-12)))
        CFI V1 load(1, XDATA, add(CFA_XSP16, literal(-11)))
        CFI V2 load(1, XDATA, add(CFA_XSP16, literal(-10)))
        CFI V3 load(1, XDATA, add(CFA_XSP16, literal(-9)))
        CFI V4 load(1, XDATA, add(CFA_XSP16, literal(-8)))
        CFI V5 load(1, XDATA, add(CFA_XSP16, literal(-7)))
        CFI ?BRET_EXT load(1, XDATA, add(CFA_XSP16, literal(-3)))
        CFI ?RET_HIGH load(1, XDATA, add(CFA_XSP16, literal(-4)))
        CFI ?RET_LOW load(1, XDATA, add(CFA_XSP16, literal(-5)))
        CFI Invalid
        LCALL   ?DEALLOC_XSTACK8
        CFI CFA_XSP16 add(XSP16, 14)
        CFI Valid
        MOV     R7,#0x6
        LJMP    ?BANKED_LEAVE_XDATA
        CFI EndBlock cfiBlock10

        RSEG BANKED_CODE:CODE:NOROOT(0)
?Subroutine32:
        CFI Block cfiCond11 Using cfiCommon0
        CFI NoFunction
        CFI Conditional ??CrossCallReturnLabel_39
        CFI R6 load(1, XDATA, add(CFA_XSP16, literal(-14)))
        CFI VB load(1, XDATA, add(CFA_XSP16, literal(-13)))
        CFI V0 load(1, XDATA, add(CFA_XSP16, literal(-12)))
        CFI V1 load(1, XDATA, add(CFA_XSP16, literal(-11)))
        CFI V2 load(1, XDATA, add(CFA_XSP16, literal(-10)))
        CFI V3 load(1, XDATA, add(CFA_XSP16, literal(-9)))
        CFI V4 load(1, XDATA, add(CFA_XSP16, literal(-8)))
        CFI V5 load(1, XDATA, add(CFA_XSP16, literal(-7)))
        CFI R7 load(1, XDATA, add(CFA_XSP16, literal(-6)))
        CFI ?RET_LOW load(1, XDATA, add(CFA_XSP16, literal(-5)))
        CFI ?RET_HIGH load(1, XDATA, add(CFA_XSP16, literal(-4)))
        CFI ?BRET_EXT load(1, XDATA, add(CFA_XSP16, literal(-3)))
        CFI DPL0 load(1, XDATA, add(CFA_XSP16, literal(-2)))
        CFI DPH0 load(1, XDATA, add(CFA_XSP16, literal(-1)))
        CFI CFA_SP SP+0
        CFI CFA_XSP16 add(XSP16, 19)
        CFI Block cfiCond12 Using cfiCommon0
        CFI (cfiCond12) NoFunction
        CFI (cfiCond12) Conditional ??CrossCallReturnLabel_40
        CFI (cfiCond12) R6 load(1, XDATA, add(CFA_XSP16, literal(-14)))
        CFI (cfiCond12) VB load(1, XDATA, add(CFA_XSP16, literal(-13)))
        CFI (cfiCond12) V0 load(1, XDATA, add(CFA_XSP16, literal(-12)))
        CFI (cfiCond12) V1 load(1, XDATA, add(CFA_XSP16, literal(-11)))
        CFI (cfiCond12) V2 load(1, XDATA, add(CFA_XSP16, literal(-10)))
        CFI (cfiCond12) V3 load(1, XDATA, add(CFA_XSP16, literal(-9)))
        CFI (cfiCond12) V4 load(1, XDATA, add(CFA_XSP16, literal(-8)))
        CFI (cfiCond12) V5 load(1, XDATA, add(CFA_XSP16, literal(-7)))
        CFI (cfiCond12) R7 load(1, XDATA, add(CFA_XSP16, literal(-6)))
        CFI (cfiCond12) ?RET_LOW load(1, XDATA, add(CFA_XSP16, literal(-5)))
        CFI (cfiCond12) ?RET_HIGH load(1, XDATA, add(CFA_XSP16, literal(-4)))
        CFI (cfiCond12) ?BRET_EXT load(1, XDATA, add(CFA_XSP16, literal(-3)))
        CFI (cfiCond12) DPL0 load(1, XDATA, add(CFA_XSP16, literal(-2)))
        CFI (cfiCond12) DPH0 load(1, XDATA, add(CFA_XSP16, literal(-1)))
        CFI (cfiCond12) CFA_SP SP+0
        CFI (cfiCond12) CFA_XSP16 add(XSP16, 19)
        CFI Block cfiPicker13 Using cfiCommon1
        CFI (cfiPicker13) NoFunction
        CFI (cfiPicker13) Picker
        LCALL   ??AT_af_get_ep?relay
        MOV     ?V0 + 5,R3
        MOV     A,R2
        ORL     A,?V0 + 5
        RET
        CFI EndBlock cfiCond11
        CFI EndBlock cfiCond12
        CFI EndBlock cfiPicker13

        RSEG BANKED_CODE:CODE:NOROOT(0)
?Subroutine10:
        CFI Block cfiCond14 Using cfiCommon0
        CFI NoFunction
        CFI Conditional ??CrossCallReturnLabel_7
        CFI R6 load(1, XDATA, add(CFA_XSP16, literal(-14)))
        CFI VB load(1, XDATA, add(CFA_XSP16, literal(-13)))
        CFI V0 load(1, XDATA, add(CFA_XSP16, literal(-12)))
        CFI V1 load(1, XDATA, add(CFA_XSP16, literal(-11)))
        CFI V2 load(1, XDATA, add(CFA_XSP16, literal(-10)))
        CFI V3 load(1, XDATA, add(CFA_XSP16, literal(-9)))
        CFI V4 load(1, XDATA, add(CFA_XSP16, literal(-8)))
        CFI V5 load(1, XDATA, add(CFA_XSP16, literal(-7)))
        CFI R7 load(1, XDATA, add(CFA_XSP16, literal(-6)))
        CFI ?RET_LOW load(1, XDATA, add(CFA_XSP16, literal(-5)))
        CFI ?RET_HIGH load(1, XDATA, add(CFA_XSP16, literal(-4)))
        CFI ?BRET_EXT load(1, XDATA, add(CFA_XSP16, literal(-3)))
        CFI DPL0 load(1, XDATA, add(CFA_XSP16, literal(-2)))
        CFI DPH0 load(1, XDATA, add(CFA_XSP16, literal(-1)))
        CFI CFA_SP SP+0
        CFI CFA_XSP16 add(XSP16, 19)
        CFI Block cfiCond15 Using cfiCommon0
        CFI (cfiCond15) NoFunction
        CFI (cfiCond15) Conditional ??CrossCallReturnLabel_8
        CFI (cfiCond15) R6 load(1, XDATA, add(CFA_XSP16, literal(-14)))
        CFI (cfiCond15) VB load(1, XDATA, add(CFA_XSP16, literal(-13)))
        CFI (cfiCond15) V0 load(1, XDATA, add(CFA_XSP16, literal(-12)))
        CFI (cfiCond15) V1 load(1, XDATA, add(CFA_XSP16, literal(-11)))
        CFI (cfiCond15) V2 load(1, XDATA, add(CFA_XSP16, literal(-10)))
        CFI (cfiCond15) V3 load(1, XDATA, add(CFA_XSP16, literal(-9)))
        CFI (cfiCond15) V4 load(1, XDATA, add(CFA_XSP16, literal(-8)))
        CFI (cfiCond15) V5 load(1, XDATA, add(CFA_XSP16, literal(-7)))
        CFI (cfiCond15) R7 load(1, XDATA, add(CFA_XSP16, literal(-6)))
        CFI (cfiCond15) ?RET_LOW load(1, XDATA, add(CFA_XSP16, literal(-5)))
        CFI (cfiCond15) ?RET_HIGH load(1, XDATA, add(CFA_XSP16, literal(-4)))
        CFI (cfiCond15) ?BRET_EXT load(1, XDATA, add(CFA_XSP16, literal(-3)))
        CFI (cfiCond15) DPL0 load(1, XDATA, add(CFA_XSP16, literal(-2)))
        CFI (cfiCond15) DPH0 load(1, XDATA, add(CFA_XSP16, literal(-1)))
        CFI (cfiCond15) CFA_SP SP+0
        CFI (cfiCond15) CFA_XSP16 add(XSP16, 19)
        CFI Block cfiPicker16 Using cfiCommon1
        CFI (cfiPicker16) NoFunction
        CFI (cfiPicker16) Picker
        MOV     R2,?V0 + 2
        MOV     DPL,?XSP + 0
        MOV     DPH,?XSP + 1
        MOVX    A,@DPTR
        MOV     R1,A
        LCALL   ??AT_ZCL_EP_ENABLE?relay
        ; Setup parameters for call to function AT_NV_ZCL_saveEPStatus
        ; Setup parameters for call to function AT_NV_ZCL_saveEPStatus
        MOV     DPL,?XSP + 0
        MOV     DPH,?XSP + 1
        MOV     R6,DPL
        MOV     R7,DPH
        ; Setup parameters for call to function AT_NV_ZCL_get_index_
        ; Setup parameters for call to function AT_NV_ZCL_get_index_
        MOV     R1,?V0 + 2
        LCALL   ??AT_NV_ZCL_get_index_?relay
        MOV     A,R6
        MOV     R2,A
        MOV     A,R7
        MOV     R3,A
        LCALL   ??AT_NV_ZCL_saveEPStatus?relay
        RET
        CFI EndBlock cfiCond14
        CFI EndBlock cfiCond15
        CFI EndBlock cfiPicker16
//  265 
//  266 /*************************************************************
//  267 deal with the response from other devices
//  268 *************************************************************/

        RSEG BANKED_CODE:CODE:NOROOT(0)
//  269 void AT_AF_Cmd_REPENABLE_rsp(afIncomingMSGPacket_t *pkt ){
AT_AF_Cmd_REPENABLE_rsp:
        CFI Block cfiBlock17 Using cfiCommon0
        CFI Function AT_AF_Cmd_REPENABLE_rsp
        CODE
        FUNCALL AT_AF_Cmd_REPENABLE_rsp, AT_HalUARTWrite
        LOCFRAME ISTACK, 0, STACK
        LOCFRAME PSTACK, 0, STACK
        LOCFRAME XSTACK, 14, STACK
        LOCFRAME IOVERLAY, 0, STATIC
        LOCFRAME DOVERLAY, 0, STATIC
        ARGFRAME ISTACK, 0, STACK
        ARGFRAME PSTACK, 0, STACK
        ARGFRAME XSTACK, 14, STACK
        ARGFRAME IOVERLAY, 0, STATIC
        ARGFRAME DOVERLAY, 0, STATIC
        FUNCALL AT_AF_Cmd_REPENABLE_rsp, AT_HalUARTWrite
        LOCFRAME ISTACK, 0, STACK
        LOCFRAME PSTACK, 0, STACK
        LOCFRAME XSTACK, 14, STACK
        LOCFRAME IOVERLAY, 0, STATIC
        LOCFRAME DOVERLAY, 0, STATIC
        ARGFRAME ISTACK, 0, STACK
        ARGFRAME PSTACK, 0, STACK
        ARGFRAME XSTACK, 14, STACK
        ARGFRAME IOVERLAY, 0, STATIC
        ARGFRAME DOVERLAY, 0, STATIC
        FUNCALL AT_AF_Cmd_REPENABLE_rsp, AT_Int16toChar
        LOCFRAME ISTACK, 0, STACK
        LOCFRAME PSTACK, 0, STACK
        LOCFRAME XSTACK, 14, STACK
        LOCFRAME IOVERLAY, 0, STATIC
        LOCFRAME DOVERLAY, 0, STATIC
        ARGFRAME ISTACK, 0, STACK
        ARGFRAME PSTACK, 0, STACK
        ARGFRAME XSTACK, 14, STACK
        ARGFRAME IOVERLAY, 0, STATIC
        ARGFRAME DOVERLAY, 0, STATIC
        FUNCALL AT_AF_Cmd_REPENABLE_rsp, AT_HalUARTWrite
        LOCFRAME ISTACK, 0, STACK
        LOCFRAME PSTACK, 0, STACK
        LOCFRAME XSTACK, 14, STACK
        LOCFRAME IOVERLAY, 0, STATIC
        LOCFRAME DOVERLAY, 0, STATIC
        ARGFRAME ISTACK, 0, STACK
        ARGFRAME PSTACK, 0, STACK
        ARGFRAME XSTACK, 14, STACK
        ARGFRAME IOVERLAY, 0, STATIC
        ARGFRAME DOVERLAY, 0, STATIC
        FUNCALL AT_AF_Cmd_REPENABLE_rsp, AT_HalUARTWrite
        LOCFRAME ISTACK, 0, STACK
        LOCFRAME PSTACK, 0, STACK
        LOCFRAME XSTACK, 14, STACK
        LOCFRAME IOVERLAY, 0, STATIC
        LOCFRAME DOVERLAY, 0, STATIC
        ARGFRAME ISTACK, 0, STACK
        ARGFRAME PSTACK, 0, STACK
        ARGFRAME XSTACK, 14, STACK
        ARGFRAME IOVERLAY, 0, STATIC
        ARGFRAME DOVERLAY, 0, STATIC
        FUNCALL AT_AF_Cmd_REPENABLE_rsp, AT_HalUARTWrite
        LOCFRAME ISTACK, 0, STACK
        LOCFRAME PSTACK, 0, STACK
        LOCFRAME XSTACK, 14, STACK
        LOCFRAME IOVERLAY, 0, STATIC
        LOCFRAME DOVERLAY, 0, STATIC
        ARGFRAME ISTACK, 0, STACK
        ARGFRAME PSTACK, 0, STACK
        ARGFRAME XSTACK, 14, STACK
        ARGFRAME IOVERLAY, 0, STATIC
        ARGFRAME DOVERLAY, 0, STATIC
        FUNCALL AT_AF_Cmd_REPENABLE_rsp, AT_HalUARTWrite
        LOCFRAME ISTACK, 0, STACK
        LOCFRAME PSTACK, 0, STACK
        LOCFRAME XSTACK, 14, STACK
        LOCFRAME IOVERLAY, 0, STATIC
        LOCFRAME DOVERLAY, 0, STATIC
        ARGFRAME ISTACK, 0, STACK
        ARGFRAME PSTACK, 0, STACK
        ARGFRAME XSTACK, 14, STACK
        ARGFRAME IOVERLAY, 0, STATIC
        ARGFRAME DOVERLAY, 0, STATIC
        FUNCALL AT_AF_Cmd_REPENABLE_rsp, AT_Int8toChar
        LOCFRAME ISTACK, 0, STACK
        LOCFRAME PSTACK, 0, STACK
        LOCFRAME XSTACK, 14, STACK
        LOCFRAME IOVERLAY, 0, STATIC
        LOCFRAME DOVERLAY, 0, STATIC
        ARGFRAME ISTACK, 0, STACK
        ARGFRAME PSTACK, 0, STACK
        ARGFRAME XSTACK, 14, STACK
        ARGFRAME IOVERLAY, 0, STATIC
        ARGFRAME DOVERLAY, 0, STATIC
        FUNCALL AT_AF_Cmd_REPENABLE_rsp, AT_HalUARTWrite
        LOCFRAME ISTACK, 0, STACK
        LOCFRAME PSTACK, 0, STACK
        LOCFRAME XSTACK, 14, STACK
        LOCFRAME IOVERLAY, 0, STATIC
        LOCFRAME DOVERLAY, 0, STATIC
        ARGFRAME ISTACK, 0, STACK
        ARGFRAME PSTACK, 0, STACK
        ARGFRAME XSTACK, 14, STACK
        ARGFRAME IOVERLAY, 0, STATIC
        ARGFRAME DOVERLAY, 0, STATIC
        FUNCALL AT_AF_Cmd_REPENABLE_rsp, AT_Int16toChar
        LOCFRAME ISTACK, 0, STACK
        LOCFRAME PSTACK, 0, STACK
        LOCFRAME XSTACK, 14, STACK
        LOCFRAME IOVERLAY, 0, STATIC
        LOCFRAME DOVERLAY, 0, STATIC
        ARGFRAME ISTACK, 0, STACK
        ARGFRAME PSTACK, 0, STACK
        ARGFRAME XSTACK, 14, STACK
        ARGFRAME IOVERLAY, 0, STATIC
        ARGFRAME DOVERLAY, 0, STATIC
        FUNCALL AT_AF_Cmd_REPENABLE_rsp, AT_HalUARTWrite
        LOCFRAME ISTACK, 0, STACK
        LOCFRAME PSTACK, 0, STACK
        LOCFRAME XSTACK, 14, STACK
        LOCFRAME IOVERLAY, 0, STATIC
        LOCFRAME DOVERLAY, 0, STATIC
        ARGFRAME ISTACK, 0, STACK
        ARGFRAME PSTACK, 0, STACK
        ARGFRAME XSTACK, 14, STACK
        ARGFRAME IOVERLAY, 0, STATIC
        ARGFRAME DOVERLAY, 0, STATIC
        FUNCALL AT_AF_Cmd_REPENABLE_rsp, AT_HalUARTWrite
        LOCFRAME ISTACK, 0, STACK
        LOCFRAME PSTACK, 0, STACK
        LOCFRAME XSTACK, 14, STACK
        LOCFRAME IOVERLAY, 0, STATIC
        LOCFRAME DOVERLAY, 0, STATIC
        ARGFRAME ISTACK, 0, STACK
        ARGFRAME PSTACK, 0, STACK
        ARGFRAME XSTACK, 14, STACK
        ARGFRAME IOVERLAY, 0, STATIC
        ARGFRAME DOVERLAY, 0, STATIC
        FUNCALL AT_AF_Cmd_REPENABLE_rsp, AT_HalUARTWrite
        LOCFRAME ISTACK, 0, STACK
        LOCFRAME PSTACK, 0, STACK
        LOCFRAME XSTACK, 14, STACK
        LOCFRAME IOVERLAY, 0, STATIC
        LOCFRAME DOVERLAY, 0, STATIC
        ARGFRAME ISTACK, 0, STACK
        ARGFRAME PSTACK, 0, STACK
        ARGFRAME XSTACK, 14, STACK
        ARGFRAME IOVERLAY, 0, STATIC
        ARGFRAME DOVERLAY, 0, STATIC
        FUNCALL AT_AF_Cmd_REPENABLE_rsp, AT_HalUARTWrite
        LOCFRAME ISTACK, 0, STACK
        LOCFRAME PSTACK, 0, STACK
        LOCFRAME XSTACK, 14, STACK
        LOCFRAME IOVERLAY, 0, STATIC
        LOCFRAME DOVERLAY, 0, STATIC
        ARGFRAME ISTACK, 0, STACK
        ARGFRAME PSTACK, 0, STACK
        ARGFRAME XSTACK, 14, STACK
        ARGFRAME IOVERLAY, 0, STATIC
        ARGFRAME DOVERLAY, 0, STATIC
        FUNCALL AT_AF_Cmd_REPENABLE_rsp, AT_HalUARTWrite
        LOCFRAME ISTACK, 0, STACK
        LOCFRAME PSTACK, 0, STACK
        LOCFRAME XSTACK, 14, STACK
        LOCFRAME IOVERLAY, 0, STATIC
        LOCFRAME DOVERLAY, 0, STATIC
        ARGFRAME ISTACK, 0, STACK
        ARGFRAME PSTACK, 0, STACK
        ARGFRAME XSTACK, 14, STACK
        ARGFRAME IOVERLAY, 0, STATIC
        ARGFRAME DOVERLAY, 0, STATIC
        MOV     A,#-0xa
        LCALL   ?BANKED_ENTER_XDATA
        CFI DPH0 load(1, XDATA, add(CFA_XSP16, literal(-1)))
        CFI DPL0 load(1, XDATA, add(CFA_XSP16, literal(-2)))
        CFI ?BRET_EXT load(1, XDATA, add(CFA_XSP16, literal(-3)))
        CFI ?RET_HIGH load(1, XDATA, add(CFA_XSP16, literal(-4)))
        CFI ?RET_LOW load(1, XDATA, add(CFA_XSP16, literal(-5)))
        CFI R7 load(1, XDATA, add(CFA_XSP16, literal(-6)))
        CFI V1 load(1, XDATA, add(CFA_XSP16, literal(-7)))
        CFI V0 load(1, XDATA, add(CFA_XSP16, literal(-8)))
        CFI VB load(1, XDATA, add(CFA_XSP16, literal(-9)))
        CFI R6 load(1, XDATA, add(CFA_XSP16, literal(-10)))
        CFI CFA_SP SP+0
        CFI CFA_XSP16 add(XSP16, 10)
        ; Saved register size: 10
        ; Auto size: 4
        MOV     A,#-0x4
        LCALL   ?ALLOC_XSTACK8
        CFI CFA_XSP16 add(XSP16, 14)
        LCALL   ?Subroutine39 & 0xFFFF
//  270   AT_AF_Cmd_REPENABLE_rsp_t *rsp = (AT_AF_Cmd_REPENABLE_rsp_t*)pkt->cmd.Data;
??CrossCallReturnLabel_66:
        LCALL   ?Subroutine15 & 0xFFFF
//  271   uint8 status =rsp->item.status;
??CrossCallReturnLabel_16:
        INC     DPTR
        MOVX    A,@DPTR
        MOV     ?V0 + 1,A
//  272   uint8 ep     =rsp->item.ep;
        MOV     DPL,R0
        MOV     DPH,R1
        INC     DPTR
        INC     DPTR
        MOVX    A,@DPTR
        MOV     ?V0 + 0,A
//  273   char str[4];
//  274   AT_RESP_START();
        ; Setup parameters for call to function AT_HalUARTWrite
        MOV     R4,#0x2
        MOV     R5,#0x0
        MOV     R2,#`?<Constant "\\r\\n">` & 0xff
        MOV     R3,#(`?<Constant "\\r\\n">` >> 8) & 0xff
        MOV     R1,#0x0
        LCALL   ??AT_HalUARTWrite?relay
//  275        
//  276   switch (status){
        MOV     A,?V0 + 1
        JZ      ??AT_AF_Cmd_REPENABLE_rsp_0
        DEC     A
        JZ      ??AT_AF_Cmd_REPENABLE_rsp_1
        DEC     A
        JZ      ??AT_AF_Cmd_REPENABLE_rsp_2
        SJMP    ??AT_AF_Cmd_REPENABLE_rsp_3
//  277   case AT_AF_enable:
//  278     AT_RESP("ENABLED:",sizeof("ENABLED:")-1);
??AT_AF_Cmd_REPENABLE_rsp_1:
        ; Setup parameters for call to function AT_HalUARTWrite
        MOV     R4,#0x8
        MOV     R5,#0x0
        MOV     R2,#`?<Constant "ENABLED:">` & 0xff
        MOV     R3,#(`?<Constant "ENABLED:">` >> 8) & 0xff
        LCALL   ?Subroutine21 & 0xFFFF
//  279     //print nodeID
//  280     if(pkt->srcAddr.addrMode==(afAddrMode_t)Addr16Bit){
??CrossCallReturnLabel_45:
        JNZ     ??AT_AF_Cmd_REPENABLE_rsp_4
//  281       AT_Int16toChar(pkt->srcAddr.addr.shortAddr,str);
??AT_AF_Cmd_REPENABLE_rsp_5:
        ; Setup parameters for call to function AT_Int16toChar
        LCALL   ?Subroutine8 & 0xFFFF
//  282       AT_RESP(str,4);
//  283     }else AT_RESP("UNKNOWN",sizeof("UNKNOWN")-1);
??CrossCallReturnLabel_55:
        SJMP    ??AT_AF_Cmd_REPENABLE_rsp_6
//  284     AT_RESP(",",1); 
//  285     //print end point
//  286     AT_Int8toChar(ep,str);
//  287     AT_RESP(str,2);
//  288     break;
//  289   case AT_AF_disable:
//  290     AT_RESP("DISABLED:",sizeof("DISABLED:")-1);
??AT_AF_Cmd_REPENABLE_rsp_0:
        ; Setup parameters for call to function AT_HalUARTWrite
        MOV     R4,#0x9
        MOV     R5,#0x0
        MOV     R2,#`?<Constant "DISABLED:">` & 0xff
        MOV     R3,#(`?<Constant "DISABLED:">` >> 8) & 0xff
        LCALL   ?Subroutine21 & 0xFFFF
//  291     //print nodeID
//  292     if(pkt->srcAddr.addrMode==(afAddrMode_t)Addr16Bit){
??CrossCallReturnLabel_46:
        JZ      ??AT_AF_Cmd_REPENABLE_rsp_5
??AT_AF_Cmd_REPENABLE_rsp_4:
        ; Setup parameters for call to function AT_HalUARTWrite
        MOV     R4,#0x7
        MOV     R5,#0x0
        MOV     R2,#`?<Constant "UNKNOWN">` & 0xff
        MOV     R3,#(`?<Constant "UNKNOWN">` >> 8) & 0xff
??AT_AF_Cmd_REPENABLE_rsp_6:
        LCALL   ?Subroutine28 & 0xFFFF
??CrossCallReturnLabel_33:
        ; Setup parameters for call to function AT_Int8toChar
        MOV     DPL,?XSP + 0
        MOV     DPH,?XSP + 1
        MOV     R2,DPL
        MOV     R3,DPH
        MOV     R1,?V0 + 0
        LCALL   ?Subroutine29 & 0xFFFF
??CrossCallReturnLabel_36:
        SJMP    ??AT_AF_Cmd_REPENABLE_rsp_7
//  293       AT_Int16toChar(pkt->srcAddr.addr.shortAddr,str);
//  294       AT_RESP(str,4);
//  295     }else AT_RESP("UNKNOWN",sizeof("UNKNOWN")-1);
//  296     AT_RESP(",",1); 
//  297     //print end point
//  298     AT_Int8toChar(ep,str);
//  299     AT_RESP(str,2);
//  300     break;
//  301   case AT_AF_UNKNOWNEP:
//  302     if(pkt->srcAddr.addrMode==(afAddrMode_t)Addr16Bit){
??AT_AF_Cmd_REPENABLE_rsp_2:
        LCALL   ??Subroutine43_0 & 0xFFFF
??CrossCallReturnLabel_49:
        JNZ     ??AT_AF_Cmd_REPENABLE_rsp_8
//  303       AT_Int16toChar(pkt->srcAddr.addr.shortAddr,str);
        ; Setup parameters for call to function AT_Int16toChar
        LCALL   ?Subroutine8 & 0xFFFF
//  304       AT_RESP(str,4);
//  305     }else AT_RESP("UNKNOWN",sizeof("UNKNOWN")-1);
??CrossCallReturnLabel_56:
        SJMP    ??AT_AF_Cmd_REPENABLE_rsp_9
??AT_AF_Cmd_REPENABLE_rsp_8:
        ; Setup parameters for call to function AT_HalUARTWrite
        MOV     R4,#0x7
        MOV     R5,#0x0
        MOV     R2,#`?<Constant "UNKNOWN">` & 0xff
        MOV     R3,#(`?<Constant "UNKNOWN">` >> 8) & 0xff
??AT_AF_Cmd_REPENABLE_rsp_9:
        LCALL   ?Subroutine28 & 0xFFFF
//  306     AT_RESP(",",1); 
//  307     //print end point
//  308     AT_RESP("UNKNOWNEP",sizeof("UNKNOWNEP")-1);
??CrossCallReturnLabel_34:
        ; Setup parameters for call to function AT_HalUARTWrite
        MOV     R4,#0x9
        MOV     R5,#0x0
        MOV     R2,#`?<Constant "UNKNOWNEP">` & 0xff
        MOV     R3,#(`?<Constant "UNKNOWNEP">` >> 8) & 0xff
??AT_AF_Cmd_REPENABLE_rsp_7:
        MOV     R1,#0x0
        LCALL   ??AT_HalUARTWrite?relay
//  309     break;
//  310   }
//  311   AT_RESP_END();
??AT_AF_Cmd_REPENABLE_rsp_3:
        ; Setup parameters for call to function AT_HalUARTWrite
        MOV     R4,#0x2
        MOV     R5,#0x0
        MOV     R2,#`?<Constant "\\r\\n">` & 0xff
        MOV     R3,#(`?<Constant "\\r\\n">` >> 8) & 0xff
        MOV     R1,#0x0
        LCALL   ??AT_HalUARTWrite?relay
//  312 }
        MOV     A,#0x4
        LCALL   ?DEALLOC_XSTACK8
        CFI CFA_XSP16 add(XSP16, 10)
        LJMP    ?Subroutine1 & 0xFFFF
        CFI EndBlock cfiBlock17

        RSEG BANKED_CODE:CODE:NOROOT(0)
?Subroutine29:
        CFI Block cfiCond18 Using cfiCommon0
        CFI NoFunction
        CFI Conditional ??CrossCallReturnLabel_35
        CFI R6 load(1, XDATA, add(CFA_XSP16, literal(-14)))
        CFI VB load(1, XDATA, add(CFA_XSP16, literal(-13)))
        CFI V0 load(1, XDATA, add(CFA_XSP16, literal(-12)))
        CFI V1 load(1, XDATA, add(CFA_XSP16, literal(-11)))
        CFI V2 load(1, XDATA, add(CFA_XSP16, literal(-10)))
        CFI V3 load(1, XDATA, add(CFA_XSP16, literal(-9)))
        CFI V4 load(1, XDATA, add(CFA_XSP16, literal(-8)))
        CFI V5 load(1, XDATA, add(CFA_XSP16, literal(-7)))
        CFI R7 load(1, XDATA, add(CFA_XSP16, literal(-6)))
        CFI ?RET_LOW load(1, XDATA, add(CFA_XSP16, literal(-5)))
        CFI ?RET_HIGH load(1, XDATA, add(CFA_XSP16, literal(-4)))
        CFI ?BRET_EXT load(1, XDATA, add(CFA_XSP16, literal(-3)))
        CFI DPL0 load(1, XDATA, add(CFA_XSP16, literal(-2)))
        CFI DPH0 load(1, XDATA, add(CFA_XSP16, literal(-1)))
        CFI CFA_SP SP+0
        CFI CFA_XSP16 add(XSP16, 23)
        CFI Block cfiCond19 Using cfiCommon0
        CFI (cfiCond19) NoFunction
        CFI (cfiCond19) Conditional ??CrossCallReturnLabel_36
        CFI (cfiCond19) R6 load(1, XDATA, add(CFA_XSP16, literal(-10)))
        CFI (cfiCond19) VB load(1, XDATA, add(CFA_XSP16, literal(-9)))
        CFI (cfiCond19) V0 load(1, XDATA, add(CFA_XSP16, literal(-8)))
        CFI (cfiCond19) V1 load(1, XDATA, add(CFA_XSP16, literal(-7)))
        CFI (cfiCond19) R7 load(1, XDATA, add(CFA_XSP16, literal(-6)))
        CFI (cfiCond19) ?RET_LOW load(1, XDATA, add(CFA_XSP16, literal(-5)))
        CFI (cfiCond19) ?RET_HIGH load(1, XDATA, add(CFA_XSP16, literal(-4)))
        CFI (cfiCond19) ?BRET_EXT load(1, XDATA, add(CFA_XSP16, literal(-3)))
        CFI (cfiCond19) DPL0 load(1, XDATA, add(CFA_XSP16, literal(-2)))
        CFI (cfiCond19) DPH0 load(1, XDATA, add(CFA_XSP16, literal(-1)))
        CFI (cfiCond19) CFA_SP SP+0
        CFI (cfiCond19) CFA_XSP16 add(XSP16, 14)
        CFI Block cfiPicker20 Using cfiCommon1
        CFI (cfiPicker20) NoFunction
        CFI (cfiPicker20) Picker
        LCALL   ??AT_Int8toChar?relay
        ; Setup parameters for call to function AT_HalUARTWrite
        ; Setup parameters for call to function AT_HalUARTWrite
        MOV     R4,#0x2
        MOV     R5,#0x0
        MOV     DPL,?XSP + 0
        MOV     DPH,?XSP + 1
        MOV     R2,DPL
        MOV     R3,DPH
        RET
        CFI EndBlock cfiCond18
        CFI EndBlock cfiCond19
        CFI EndBlock cfiPicker20

        RSEG BANKED_CODE:CODE:NOROOT(0)
?Subroutine28:
        CFI Block cfiCond21 Using cfiCommon0
        CFI NoFunction
        CFI Conditional ??CrossCallReturnLabel_32
        CFI R6 load(1, XDATA, add(CFA_XSP16, literal(-14)))
        CFI VB load(1, XDATA, add(CFA_XSP16, literal(-13)))
        CFI V0 load(1, XDATA, add(CFA_XSP16, literal(-12)))
        CFI V1 load(1, XDATA, add(CFA_XSP16, literal(-11)))
        CFI V2 load(1, XDATA, add(CFA_XSP16, literal(-10)))
        CFI V3 load(1, XDATA, add(CFA_XSP16, literal(-9)))
        CFI V4 load(1, XDATA, add(CFA_XSP16, literal(-8)))
        CFI V5 load(1, XDATA, add(CFA_XSP16, literal(-7)))
        CFI R7 load(1, XDATA, add(CFA_XSP16, literal(-6)))
        CFI ?RET_LOW load(1, XDATA, add(CFA_XSP16, literal(-5)))
        CFI ?RET_HIGH load(1, XDATA, add(CFA_XSP16, literal(-4)))
        CFI ?BRET_EXT load(1, XDATA, add(CFA_XSP16, literal(-3)))
        CFI DPL0 load(1, XDATA, add(CFA_XSP16, literal(-2)))
        CFI DPH0 load(1, XDATA, add(CFA_XSP16, literal(-1)))
        CFI CFA_SP SP+0
        CFI CFA_XSP16 add(XSP16, 23)
        CFI Block cfiCond22 Using cfiCommon0
        CFI (cfiCond22) NoFunction
        CFI (cfiCond22) Conditional ??CrossCallReturnLabel_33
        CFI (cfiCond22) R6 load(1, XDATA, add(CFA_XSP16, literal(-10)))
        CFI (cfiCond22) VB load(1, XDATA, add(CFA_XSP16, literal(-9)))
        CFI (cfiCond22) V0 load(1, XDATA, add(CFA_XSP16, literal(-8)))
        CFI (cfiCond22) V1 load(1, XDATA, add(CFA_XSP16, literal(-7)))
        CFI (cfiCond22) R7 load(1, XDATA, add(CFA_XSP16, literal(-6)))
        CFI (cfiCond22) ?RET_LOW load(1, XDATA, add(CFA_XSP16, literal(-5)))
        CFI (cfiCond22) ?RET_HIGH load(1, XDATA, add(CFA_XSP16, literal(-4)))
        CFI (cfiCond22) ?BRET_EXT load(1, XDATA, add(CFA_XSP16, literal(-3)))
        CFI (cfiCond22) DPL0 load(1, XDATA, add(CFA_XSP16, literal(-2)))
        CFI (cfiCond22) DPH0 load(1, XDATA, add(CFA_XSP16, literal(-1)))
        CFI (cfiCond22) CFA_SP SP+0
        CFI (cfiCond22) CFA_XSP16 add(XSP16, 14)
        CFI Block cfiCond23 Using cfiCommon0
        CFI (cfiCond23) NoFunction
        CFI (cfiCond23) Conditional ??CrossCallReturnLabel_34
        CFI (cfiCond23) R6 load(1, XDATA, add(CFA_XSP16, literal(-10)))
        CFI (cfiCond23) VB load(1, XDATA, add(CFA_XSP16, literal(-9)))
        CFI (cfiCond23) V0 load(1, XDATA, add(CFA_XSP16, literal(-8)))
        CFI (cfiCond23) V1 load(1, XDATA, add(CFA_XSP16, literal(-7)))
        CFI (cfiCond23) R7 load(1, XDATA, add(CFA_XSP16, literal(-6)))
        CFI (cfiCond23) ?RET_LOW load(1, XDATA, add(CFA_XSP16, literal(-5)))
        CFI (cfiCond23) ?RET_HIGH load(1, XDATA, add(CFA_XSP16, literal(-4)))
        CFI (cfiCond23) ?BRET_EXT load(1, XDATA, add(CFA_XSP16, literal(-3)))
        CFI (cfiCond23) DPL0 load(1, XDATA, add(CFA_XSP16, literal(-2)))
        CFI (cfiCond23) DPH0 load(1, XDATA, add(CFA_XSP16, literal(-1)))
        CFI (cfiCond23) CFA_SP SP+0
        CFI (cfiCond23) CFA_XSP16 add(XSP16, 14)
        CFI Block cfiPicker24 Using cfiCommon1
        CFI (cfiPicker24) NoFunction
        CFI (cfiPicker24) Picker
        MOV     R1,#0x0
        LCALL   ??AT_HalUARTWrite?relay
        ; Setup parameters for call to function AT_HalUARTWrite
        ; Setup parameters for call to function AT_HalUARTWrite
        ; Setup parameters for call to function AT_HalUARTWrite
        MOV     R4,#0x1
        MOV     R5,#0x0
        MOV     R2,#`?<Constant ",">` & 0xff
        MOV     R3,#(`?<Constant ",">` >> 8) & 0xff
        MOV     R1,#0x0
        LCALL   ??AT_HalUARTWrite?relay
        RET
        CFI EndBlock cfiCond21
        CFI EndBlock cfiCond22
        CFI EndBlock cfiCond23
        CFI EndBlock cfiPicker24

        RSEG BANKED_CODE:CODE:NOROOT(0)
?Subroutine21:
        CFI Block cfiCond25 Using cfiCommon0
        CFI NoFunction
        CFI Conditional ??CrossCallReturnLabel_45
        CFI R6 load(1, XDATA, add(CFA_XSP16, literal(-10)))
        CFI VB load(1, XDATA, add(CFA_XSP16, literal(-9)))
        CFI V0 load(1, XDATA, add(CFA_XSP16, literal(-8)))
        CFI V1 load(1, XDATA, add(CFA_XSP16, literal(-7)))
        CFI R7 load(1, XDATA, add(CFA_XSP16, literal(-6)))
        CFI ?RET_LOW load(1, XDATA, add(CFA_XSP16, literal(-5)))
        CFI ?RET_HIGH load(1, XDATA, add(CFA_XSP16, literal(-4)))
        CFI ?BRET_EXT load(1, XDATA, add(CFA_XSP16, literal(-3)))
        CFI DPL0 load(1, XDATA, add(CFA_XSP16, literal(-2)))
        CFI DPH0 load(1, XDATA, add(CFA_XSP16, literal(-1)))
        CFI CFA_SP SP+0
        CFI CFA_XSP16 add(XSP16, 14)
        CFI Block cfiCond26 Using cfiCommon0
        CFI (cfiCond26) NoFunction
        CFI (cfiCond26) Conditional ??CrossCallReturnLabel_46
        CFI (cfiCond26) R6 load(1, XDATA, add(CFA_XSP16, literal(-10)))
        CFI (cfiCond26) VB load(1, XDATA, add(CFA_XSP16, literal(-9)))
        CFI (cfiCond26) V0 load(1, XDATA, add(CFA_XSP16, literal(-8)))
        CFI (cfiCond26) V1 load(1, XDATA, add(CFA_XSP16, literal(-7)))
        CFI (cfiCond26) R7 load(1, XDATA, add(CFA_XSP16, literal(-6)))
        CFI (cfiCond26) ?RET_LOW load(1, XDATA, add(CFA_XSP16, literal(-5)))
        CFI (cfiCond26) ?RET_HIGH load(1, XDATA, add(CFA_XSP16, literal(-4)))
        CFI (cfiCond26) ?BRET_EXT load(1, XDATA, add(CFA_XSP16, literal(-3)))
        CFI (cfiCond26) DPL0 load(1, XDATA, add(CFA_XSP16, literal(-2)))
        CFI (cfiCond26) DPH0 load(1, XDATA, add(CFA_XSP16, literal(-1)))
        CFI (cfiCond26) CFA_SP SP+0
        CFI (cfiCond26) CFA_XSP16 add(XSP16, 14)
        CFI Block cfiPicker27 Using cfiCommon1
        CFI (cfiPicker27) NoFunction
        CFI (cfiPicker27) Picker
        MOV     R1,#0x0
        LCALL   ??AT_HalUARTWrite?relay
        CFI EndBlock cfiCond25
        CFI EndBlock cfiCond26
        CFI EndBlock cfiPicker27
        REQUIRE ??Subroutine43_0
        ; // Fall through to label ??Subroutine43_0

        RSEG BANKED_CODE:CODE:NOROOT(0)
??Subroutine43_0:
        CFI Block cfiCond28 Using cfiCommon0
        CFI NoFunction
        CFI Conditional ??CrossCallReturnLabel_49
        CFI R6 load(1, XDATA, add(CFA_XSP16, literal(-10)))
        CFI VB load(1, XDATA, add(CFA_XSP16, literal(-9)))
        CFI V0 load(1, XDATA, add(CFA_XSP16, literal(-8)))
        CFI V1 load(1, XDATA, add(CFA_XSP16, literal(-7)))
        CFI R7 load(1, XDATA, add(CFA_XSP16, literal(-6)))
        CFI ?RET_LOW load(1, XDATA, add(CFA_XSP16, literal(-5)))
        CFI ?RET_HIGH load(1, XDATA, add(CFA_XSP16, literal(-4)))
        CFI ?BRET_EXT load(1, XDATA, add(CFA_XSP16, literal(-3)))
        CFI DPL0 load(1, XDATA, add(CFA_XSP16, literal(-2)))
        CFI DPH0 load(1, XDATA, add(CFA_XSP16, literal(-1)))
        CFI CFA_SP SP+0
        CFI CFA_XSP16 add(XSP16, 14)
        CFI Block cfiCond29 Using cfiCommon0
        CFI (cfiCond29) NoFunction
        CFI (cfiCond29) Conditional ??CrossCallReturnLabel_50
        CFI (cfiCond29) R6 load(1, XDATA, add(CFA_XSP16, literal(-16)))
        CFI (cfiCond29) VB load(1, XDATA, add(CFA_XSP16, literal(-15)))
        CFI (cfiCond29) V0 load(1, XDATA, add(CFA_XSP16, literal(-14)))
        CFI (cfiCond29) V1 load(1, XDATA, add(CFA_XSP16, literal(-13)))
        CFI (cfiCond29) V2 load(1, XDATA, add(CFA_XSP16, literal(-12)))
        CFI (cfiCond29) V3 load(1, XDATA, add(CFA_XSP16, literal(-11)))
        CFI (cfiCond29) V4 load(1, XDATA, add(CFA_XSP16, literal(-10)))
        CFI (cfiCond29) V5 load(1, XDATA, add(CFA_XSP16, literal(-9)))
        CFI (cfiCond29) V6 load(1, XDATA, add(CFA_XSP16, literal(-8)))
        CFI (cfiCond29) V7 load(1, XDATA, add(CFA_XSP16, literal(-7)))
        CFI (cfiCond29) R7 load(1, XDATA, add(CFA_XSP16, literal(-6)))
        CFI (cfiCond29) ?RET_LOW load(1, XDATA, add(CFA_XSP16, literal(-5)))
        CFI (cfiCond29) ?RET_HIGH load(1, XDATA, add(CFA_XSP16, literal(-4)))
        CFI (cfiCond29) ?BRET_EXT load(1, XDATA, add(CFA_XSP16, literal(-3)))
        CFI (cfiCond29) DPL0 load(1, XDATA, add(CFA_XSP16, literal(-2)))
        CFI (cfiCond29) DPH0 load(1, XDATA, add(CFA_XSP16, literal(-1)))
        CFI (cfiCond29) CFA_SP SP+0
        CFI (cfiCond29) CFA_XSP16 add(XSP16, 16)
        CFI Block cfiCond30 Using cfiCommon0
        CFI (cfiCond30) NoFunction
        CFI (cfiCond30) Conditional ??CrossCallReturnLabel_45
        CFI (cfiCond30) R6 load(1, XDATA, add(CFA_XSP16, literal(-10)))
        CFI (cfiCond30) VB load(1, XDATA, add(CFA_XSP16, literal(-9)))
        CFI (cfiCond30) V0 load(1, XDATA, add(CFA_XSP16, literal(-8)))
        CFI (cfiCond30) V1 load(1, XDATA, add(CFA_XSP16, literal(-7)))
        CFI (cfiCond30) R7 load(1, XDATA, add(CFA_XSP16, literal(-6)))
        CFI (cfiCond30) ?RET_LOW load(1, XDATA, add(CFA_XSP16, literal(-5)))
        CFI (cfiCond30) ?RET_HIGH load(1, XDATA, add(CFA_XSP16, literal(-4)))
        CFI (cfiCond30) ?BRET_EXT load(1, XDATA, add(CFA_XSP16, literal(-3)))
        CFI (cfiCond30) DPL0 load(1, XDATA, add(CFA_XSP16, literal(-2)))
        CFI (cfiCond30) DPH0 load(1, XDATA, add(CFA_XSP16, literal(-1)))
        CFI (cfiCond30) CFA_SP SP+0
        CFI (cfiCond30) CFA_XSP16 add(XSP16, 14)
        CFI Block cfiCond31 Using cfiCommon0
        CFI (cfiCond31) NoFunction
        CFI (cfiCond31) Conditional ??CrossCallReturnLabel_46
        CFI (cfiCond31) R6 load(1, XDATA, add(CFA_XSP16, literal(-10)))
        CFI (cfiCond31) VB load(1, XDATA, add(CFA_XSP16, literal(-9)))
        CFI (cfiCond31) V0 load(1, XDATA, add(CFA_XSP16, literal(-8)))
        CFI (cfiCond31) V1 load(1, XDATA, add(CFA_XSP16, literal(-7)))
        CFI (cfiCond31) R7 load(1, XDATA, add(CFA_XSP16, literal(-6)))
        CFI (cfiCond31) ?RET_LOW load(1, XDATA, add(CFA_XSP16, literal(-5)))
        CFI (cfiCond31) ?RET_HIGH load(1, XDATA, add(CFA_XSP16, literal(-4)))
        CFI (cfiCond31) ?BRET_EXT load(1, XDATA, add(CFA_XSP16, literal(-3)))
        CFI (cfiCond31) DPL0 load(1, XDATA, add(CFA_XSP16, literal(-2)))
        CFI (cfiCond31) DPH0 load(1, XDATA, add(CFA_XSP16, literal(-1)))
        CFI (cfiCond31) CFA_SP SP+0
        CFI (cfiCond31) CFA_XSP16 add(XSP16, 14)
        CFI Block cfiPicker32 Using cfiCommon1
        CFI (cfiPicker32) NoFunction
        CFI (cfiPicker32) Picker
        MOV     A,R6
        ADD     A,#0xe
        MOV     DPL,A
        MOV     A,R7
        CFI EndBlock cfiCond28
        CFI EndBlock cfiCond29
        CFI EndBlock cfiCond30
        CFI EndBlock cfiCond31
        CFI EndBlock cfiPicker32
        REQUIRE ??Subroutine44_0
        ; // Fall through to label ??Subroutine44_0

        RSEG BANKED_CODE:CODE:NOROOT(0)
??Subroutine44_0:
        CFI Block cfiCond33 Using cfiCommon0
        CFI NoFunction
        CFI Conditional ??CrossCallReturnLabel_47
        CFI R6 load(1, XDATA, add(CFA_XSP16, literal(-14)))
        CFI VB load(1, XDATA, add(CFA_XSP16, literal(-13)))
        CFI V0 load(1, XDATA, add(CFA_XSP16, literal(-12)))
        CFI V1 load(1, XDATA, add(CFA_XSP16, literal(-11)))
        CFI V2 load(1, XDATA, add(CFA_XSP16, literal(-10)))
        CFI V3 load(1, XDATA, add(CFA_XSP16, literal(-9)))
        CFI V4 load(1, XDATA, add(CFA_XSP16, literal(-8)))
        CFI V5 load(1, XDATA, add(CFA_XSP16, literal(-7)))
        CFI R7 load(1, XDATA, add(CFA_XSP16, literal(-6)))
        CFI ?RET_LOW load(1, XDATA, add(CFA_XSP16, literal(-5)))
        CFI ?RET_HIGH load(1, XDATA, add(CFA_XSP16, literal(-4)))
        CFI ?BRET_EXT load(1, XDATA, add(CFA_XSP16, literal(-3)))
        CFI DPL0 load(1, XDATA, add(CFA_XSP16, literal(-2)))
        CFI DPH0 load(1, XDATA, add(CFA_XSP16, literal(-1)))
        CFI CFA_SP SP+0
        CFI CFA_XSP16 add(XSP16, 23)
        CFI Block cfiCond34 Using cfiCommon0
        CFI (cfiCond34) NoFunction
        CFI (cfiCond34) Conditional ??CrossCallReturnLabel_48
        CFI (cfiCond34) R6 load(1, XDATA, add(CFA_XSP16, literal(-12)))
        CFI (cfiCond34) VB load(1, XDATA, add(CFA_XSP16, literal(-11)))
        CFI (cfiCond34) V0 load(1, XDATA, add(CFA_XSP16, literal(-10)))
        CFI (cfiCond34) V1 load(1, XDATA, add(CFA_XSP16, literal(-9)))
        CFI (cfiCond34) V2 load(1, XDATA, add(CFA_XSP16, literal(-8)))
        CFI (cfiCond34) V3 load(1, XDATA, add(CFA_XSP16, literal(-7)))
        CFI (cfiCond34) R7 load(1, XDATA, add(CFA_XSP16, literal(-6)))
        CFI (cfiCond34) ?RET_LOW load(1, XDATA, add(CFA_XSP16, literal(-5)))
        CFI (cfiCond34) ?RET_HIGH load(1, XDATA, add(CFA_XSP16, literal(-4)))
        CFI (cfiCond34) ?BRET_EXT load(1, XDATA, add(CFA_XSP16, literal(-3)))
        CFI (cfiCond34) DPL0 load(1, XDATA, add(CFA_XSP16, literal(-2)))
        CFI (cfiCond34) DPH0 load(1, XDATA, add(CFA_XSP16, literal(-1)))
        CFI (cfiCond34) CFA_SP SP+0
        CFI (cfiCond34) CFA_XSP16 add(XSP16, 12)
        CFI Block cfiCond35 Using cfiCommon0
        CFI (cfiCond35) NoFunction
        CFI (cfiCond35) Conditional ??CrossCallReturnLabel_49
        CFI (cfiCond35) R6 load(1, XDATA, add(CFA_XSP16, literal(-10)))
        CFI (cfiCond35) VB load(1, XDATA, add(CFA_XSP16, literal(-9)))
        CFI (cfiCond35) V0 load(1, XDATA, add(CFA_XSP16, literal(-8)))
        CFI (cfiCond35) V1 load(1, XDATA, add(CFA_XSP16, literal(-7)))
        CFI (cfiCond35) R7 load(1, XDATA, add(CFA_XSP16, literal(-6)))
        CFI (cfiCond35) ?RET_LOW load(1, XDATA, add(CFA_XSP16, literal(-5)))
        CFI (cfiCond35) ?RET_HIGH load(1, XDATA, add(CFA_XSP16, literal(-4)))
        CFI (cfiCond35) ?BRET_EXT load(1, XDATA, add(CFA_XSP16, literal(-3)))
        CFI (cfiCond35) DPL0 load(1, XDATA, add(CFA_XSP16, literal(-2)))
        CFI (cfiCond35) DPH0 load(1, XDATA, add(CFA_XSP16, literal(-1)))
        CFI (cfiCond35) CFA_SP SP+0
        CFI (cfiCond35) CFA_XSP16 add(XSP16, 14)
        CFI Block cfiCond36 Using cfiCommon0
        CFI (cfiCond36) NoFunction
        CFI (cfiCond36) Conditional ??CrossCallReturnLabel_50
        CFI (cfiCond36) R6 load(1, XDATA, add(CFA_XSP16, literal(-16)))
        CFI (cfiCond36) VB load(1, XDATA, add(CFA_XSP16, literal(-15)))
        CFI (cfiCond36) V0 load(1, XDATA, add(CFA_XSP16, literal(-14)))
        CFI (cfiCond36) V1 load(1, XDATA, add(CFA_XSP16, literal(-13)))
        CFI (cfiCond36) V2 load(1, XDATA, add(CFA_XSP16, literal(-12)))
        CFI (cfiCond36) V3 load(1, XDATA, add(CFA_XSP16, literal(-11)))
        CFI (cfiCond36) V4 load(1, XDATA, add(CFA_XSP16, literal(-10)))
        CFI (cfiCond36) V5 load(1, XDATA, add(CFA_XSP16, literal(-9)))
        CFI (cfiCond36) V6 load(1, XDATA, add(CFA_XSP16, literal(-8)))
        CFI (cfiCond36) V7 load(1, XDATA, add(CFA_XSP16, literal(-7)))
        CFI (cfiCond36) R7 load(1, XDATA, add(CFA_XSP16, literal(-6)))
        CFI (cfiCond36) ?RET_LOW load(1, XDATA, add(CFA_XSP16, literal(-5)))
        CFI (cfiCond36) ?RET_HIGH load(1, XDATA, add(CFA_XSP16, literal(-4)))
        CFI (cfiCond36) ?BRET_EXT load(1, XDATA, add(CFA_XSP16, literal(-3)))
        CFI (cfiCond36) DPL0 load(1, XDATA, add(CFA_XSP16, literal(-2)))
        CFI (cfiCond36) DPH0 load(1, XDATA, add(CFA_XSP16, literal(-1)))
        CFI (cfiCond36) CFA_SP SP+0
        CFI (cfiCond36) CFA_XSP16 add(XSP16, 16)
        CFI Block cfiCond37 Using cfiCommon0
        CFI (cfiCond37) NoFunction
        CFI (cfiCond37) Conditional ??CrossCallReturnLabel_45
        CFI (cfiCond37) R6 load(1, XDATA, add(CFA_XSP16, literal(-10)))
        CFI (cfiCond37) VB load(1, XDATA, add(CFA_XSP16, literal(-9)))
        CFI (cfiCond37) V0 load(1, XDATA, add(CFA_XSP16, literal(-8)))
        CFI (cfiCond37) V1 load(1, XDATA, add(CFA_XSP16, literal(-7)))
        CFI (cfiCond37) R7 load(1, XDATA, add(CFA_XSP16, literal(-6)))
        CFI (cfiCond37) ?RET_LOW load(1, XDATA, add(CFA_XSP16, literal(-5)))
        CFI (cfiCond37) ?RET_HIGH load(1, XDATA, add(CFA_XSP16, literal(-4)))
        CFI (cfiCond37) ?BRET_EXT load(1, XDATA, add(CFA_XSP16, literal(-3)))
        CFI (cfiCond37) DPL0 load(1, XDATA, add(CFA_XSP16, literal(-2)))
        CFI (cfiCond37) DPH0 load(1, XDATA, add(CFA_XSP16, literal(-1)))
        CFI (cfiCond37) CFA_SP SP+0
        CFI (cfiCond37) CFA_XSP16 add(XSP16, 14)
        CFI Block cfiCond38 Using cfiCommon0
        CFI (cfiCond38) NoFunction
        CFI (cfiCond38) Conditional ??CrossCallReturnLabel_46
        CFI (cfiCond38) R6 load(1, XDATA, add(CFA_XSP16, literal(-10)))
        CFI (cfiCond38) VB load(1, XDATA, add(CFA_XSP16, literal(-9)))
        CFI (cfiCond38) V0 load(1, XDATA, add(CFA_XSP16, literal(-8)))
        CFI (cfiCond38) V1 load(1, XDATA, add(CFA_XSP16, literal(-7)))
        CFI (cfiCond38) R7 load(1, XDATA, add(CFA_XSP16, literal(-6)))
        CFI (cfiCond38) ?RET_LOW load(1, XDATA, add(CFA_XSP16, literal(-5)))
        CFI (cfiCond38) ?RET_HIGH load(1, XDATA, add(CFA_XSP16, literal(-4)))
        CFI (cfiCond38) ?BRET_EXT load(1, XDATA, add(CFA_XSP16, literal(-3)))
        CFI (cfiCond38) DPL0 load(1, XDATA, add(CFA_XSP16, literal(-2)))
        CFI (cfiCond38) DPH0 load(1, XDATA, add(CFA_XSP16, literal(-1)))
        CFI (cfiCond38) CFA_SP SP+0
        CFI (cfiCond38) CFA_XSP16 add(XSP16, 14)
        CFI Block cfiPicker39 Using cfiCommon1
        CFI (cfiPicker39) NoFunction
        CFI (cfiPicker39) Picker
        LCALL   ??Subroutine51_0 & 0xFFFF
??CrossCallReturnLabel_99:
        XRL     A,#0x2
        RET
        CFI EndBlock cfiCond33
        CFI EndBlock cfiCond34
        CFI EndBlock cfiCond35
        CFI EndBlock cfiCond36
        CFI EndBlock cfiCond37
        CFI EndBlock cfiCond38
        CFI EndBlock cfiPicker39

        RSEG BANKED_CODE:CODE:NOROOT(0)
?Subroutine15:
        CFI Block cfiCond40 Using cfiCommon0
        CFI NoFunction
        CFI Conditional ??CrossCallReturnLabel_15
        CFI R6 load(1, XDATA, add(CFA_XSP16, literal(-14)))
        CFI VB load(1, XDATA, add(CFA_XSP16, literal(-13)))
        CFI V0 load(1, XDATA, add(CFA_XSP16, literal(-12)))
        CFI V1 load(1, XDATA, add(CFA_XSP16, literal(-11)))
        CFI V2 load(1, XDATA, add(CFA_XSP16, literal(-10)))
        CFI V3 load(1, XDATA, add(CFA_XSP16, literal(-9)))
        CFI V4 load(1, XDATA, add(CFA_XSP16, literal(-8)))
        CFI V5 load(1, XDATA, add(CFA_XSP16, literal(-7)))
        CFI R7 load(1, XDATA, add(CFA_XSP16, literal(-6)))
        CFI ?RET_LOW load(1, XDATA, add(CFA_XSP16, literal(-5)))
        CFI ?RET_HIGH load(1, XDATA, add(CFA_XSP16, literal(-4)))
        CFI ?BRET_EXT load(1, XDATA, add(CFA_XSP16, literal(-3)))
        CFI DPL0 load(1, XDATA, add(CFA_XSP16, literal(-2)))
        CFI DPH0 load(1, XDATA, add(CFA_XSP16, literal(-1)))
        CFI CFA_SP SP+0
        CFI CFA_XSP16 add(XSP16, 19)
        CFI Block cfiCond41 Using cfiCommon0
        CFI (cfiCond41) NoFunction
        CFI (cfiCond41) Conditional ??CrossCallReturnLabel_16
        CFI (cfiCond41) R6 load(1, XDATA, add(CFA_XSP16, literal(-10)))
        CFI (cfiCond41) VB load(1, XDATA, add(CFA_XSP16, literal(-9)))
        CFI (cfiCond41) V0 load(1, XDATA, add(CFA_XSP16, literal(-8)))
        CFI (cfiCond41) V1 load(1, XDATA, add(CFA_XSP16, literal(-7)))
        CFI (cfiCond41) R7 load(1, XDATA, add(CFA_XSP16, literal(-6)))
        CFI (cfiCond41) ?RET_LOW load(1, XDATA, add(CFA_XSP16, literal(-5)))
        CFI (cfiCond41) ?RET_HIGH load(1, XDATA, add(CFA_XSP16, literal(-4)))
        CFI (cfiCond41) ?BRET_EXT load(1, XDATA, add(CFA_XSP16, literal(-3)))
        CFI (cfiCond41) DPL0 load(1, XDATA, add(CFA_XSP16, literal(-2)))
        CFI (cfiCond41) DPH0 load(1, XDATA, add(CFA_XSP16, literal(-1)))
        CFI (cfiCond41) CFA_SP SP+0
        CFI (cfiCond41) CFA_XSP16 add(XSP16, 14)
        CFI Block cfiPicker42 Using cfiCommon1
        CFI (cfiPicker42) NoFunction
        CFI (cfiPicker42) Picker
        LCALL   ?Subroutine36 & 0xFFFF
??CrossCallReturnLabel_53:
        MOV     DPL,R0
        MOV     DPH,R1
        INC     DPTR
        INC     DPTR
        RET
        CFI EndBlock cfiCond40
        CFI EndBlock cfiCond41
        CFI EndBlock cfiPicker42

        RSEG BANKED_CODE:CODE:NOROOT(0)
?Subroutine36:
        CFI Block cfiCond43 Using cfiCommon0
        CFI NoFunction
        CFI Conditional ??CrossCallReturnLabel_53, ??CrossCallReturnLabel_15
        CFI R6 load(1, XDATA, add(CFA_XSP16, literal(-14)))
        CFI VB load(1, XDATA, add(CFA_XSP16, literal(-13)))
        CFI V0 load(1, XDATA, add(CFA_XSP16, literal(-12)))
        CFI V1 load(1, XDATA, add(CFA_XSP16, literal(-11)))
        CFI V2 load(1, XDATA, add(CFA_XSP16, literal(-10)))
        CFI V3 load(1, XDATA, add(CFA_XSP16, literal(-9)))
        CFI V4 load(1, XDATA, add(CFA_XSP16, literal(-8)))
        CFI V5 load(1, XDATA, add(CFA_XSP16, literal(-7)))
        CFI R7 load(1, XDATA, add(CFA_XSP16, literal(-6)))
        CFI ?RET_LOW load(1, XDATA, add(CFA_XSP16, literal(-5)))
        CFI ?RET_HIGH load(1, XDATA, add(CFA_XSP16, literal(-4)))
        CFI ?BRET_EXT load(1, XDATA, add(CFA_XSP16, literal(-3)))
        CFI DPL0 load(1, XDATA, add(CFA_XSP16, literal(-2)))
        CFI DPH0 load(1, XDATA, add(CFA_XSP16, literal(-1)))
        CFI CFA_SP SP+0
        CFI CFA_XSP16 add(XSP16, 19)
        CFI Block cfiCond44 Using cfiCommon0
        CFI (cfiCond44) NoFunction
        CFI (cfiCond44) Conditional ??CrossCallReturnLabel_53, ??CrossCallReturnLabel_16
        CFI (cfiCond44) R6 load(1, XDATA, add(CFA_XSP16, literal(-10)))
        CFI (cfiCond44) VB load(1, XDATA, add(CFA_XSP16, literal(-9)))
        CFI (cfiCond44) V0 load(1, XDATA, add(CFA_XSP16, literal(-8)))
        CFI (cfiCond44) V1 load(1, XDATA, add(CFA_XSP16, literal(-7)))
        CFI (cfiCond44) R7 load(1, XDATA, add(CFA_XSP16, literal(-6)))
        CFI (cfiCond44) ?RET_LOW load(1, XDATA, add(CFA_XSP16, literal(-5)))
        CFI (cfiCond44) ?RET_HIGH load(1, XDATA, add(CFA_XSP16, literal(-4)))
        CFI (cfiCond44) ?BRET_EXT load(1, XDATA, add(CFA_XSP16, literal(-3)))
        CFI (cfiCond44) DPL0 load(1, XDATA, add(CFA_XSP16, literal(-2)))
        CFI (cfiCond44) DPH0 load(1, XDATA, add(CFA_XSP16, literal(-1)))
        CFI (cfiCond44) CFA_SP SP+0
        CFI (cfiCond44) CFA_XSP16 add(XSP16, 14)
        CFI Block cfiCond45 Using cfiCommon0
        CFI (cfiCond45) NoFunction
        CFI (cfiCond45) Conditional ??CrossCallReturnLabel_54, ??CrossCallReturnLabel_19
        CFI (cfiCond45) R6 load(1, XDATA, add(CFA_XSP16, literal(-16)))
        CFI (cfiCond45) VB load(1, XDATA, add(CFA_XSP16, literal(-15)))
        CFI (cfiCond45) V0 load(1, XDATA, add(CFA_XSP16, literal(-14)))
        CFI (cfiCond45) V1 load(1, XDATA, add(CFA_XSP16, literal(-13)))
        CFI (cfiCond45) V2 load(1, XDATA, add(CFA_XSP16, literal(-12)))
        CFI (cfiCond45) V3 load(1, XDATA, add(CFA_XSP16, literal(-11)))
        CFI (cfiCond45) V4 load(1, XDATA, add(CFA_XSP16, literal(-10)))
        CFI (cfiCond45) V5 load(1, XDATA, add(CFA_XSP16, literal(-9)))
        CFI (cfiCond45) V6 load(1, XDATA, add(CFA_XSP16, literal(-8)))
        CFI (cfiCond45) V7 load(1, XDATA, add(CFA_XSP16, literal(-7)))
        CFI (cfiCond45) R7 load(1, XDATA, add(CFA_XSP16, literal(-6)))
        CFI (cfiCond45) ?RET_LOW load(1, XDATA, add(CFA_XSP16, literal(-5)))
        CFI (cfiCond45) ?RET_HIGH load(1, XDATA, add(CFA_XSP16, literal(-4)))
        CFI (cfiCond45) ?BRET_EXT load(1, XDATA, add(CFA_XSP16, literal(-3)))
        CFI (cfiCond45) DPL0 load(1, XDATA, add(CFA_XSP16, literal(-2)))
        CFI (cfiCond45) DPH0 load(1, XDATA, add(CFA_XSP16, literal(-1)))
        CFI (cfiCond45) CFA_SP SP+0
        CFI (cfiCond45) CFA_XSP16 add(XSP16, 33)
        CFI Block cfiCond46 Using cfiCommon0
        CFI (cfiCond46) NoFunction
        CFI (cfiCond46) Conditional ??CrossCallReturnLabel_54, ??CrossCallReturnLabel_20
        CFI (cfiCond46) R6 load(1, XDATA, add(CFA_XSP16, literal(-10)))
        CFI (cfiCond46) VB load(1, XDATA, add(CFA_XSP16, literal(-9)))
        CFI (cfiCond46) V0 load(1, XDATA, add(CFA_XSP16, literal(-8)))
        CFI (cfiCond46) V1 load(1, XDATA, add(CFA_XSP16, literal(-7)))
        CFI (cfiCond46) R7 load(1, XDATA, add(CFA_XSP16, literal(-6)))
        CFI (cfiCond46) ?RET_LOW load(1, XDATA, add(CFA_XSP16, literal(-5)))
        CFI (cfiCond46) ?RET_HIGH load(1, XDATA, add(CFA_XSP16, literal(-4)))
        CFI (cfiCond46) ?BRET_EXT load(1, XDATA, add(CFA_XSP16, literal(-3)))
        CFI (cfiCond46) DPL0 load(1, XDATA, add(CFA_XSP16, literal(-2)))
        CFI (cfiCond46) DPH0 load(1, XDATA, add(CFA_XSP16, literal(-1)))
        CFI (cfiCond46) CFA_SP SP+0
        CFI (cfiCond46) CFA_XSP16 add(XSP16, 10)
        CFI Block cfiPicker47 Using cfiCommon1
        CFI (cfiPicker47) NoFunction
        CFI (cfiPicker47) Picker
        ADDC    A,#0x0
        CFI EndBlock cfiCond43
        CFI EndBlock cfiCond44
        CFI EndBlock cfiCond45
        CFI EndBlock cfiCond46
        CFI EndBlock cfiPicker47
        REQUIRE ??Subroutine45_0
        ; // Fall through to label ??Subroutine45_0

        RSEG BANKED_CODE:CODE:NOROOT(0)
??Subroutine45_0:
        CFI Block cfiCond48 Using cfiCommon0
        CFI NoFunction
        CFI Conditional ??CrossCallReturnLabel_52, ??CrossCallReturnLabel_9
        CFI R6 load(1, XDATA, add(CFA_XSP16, literal(-16)))
        CFI VB load(1, XDATA, add(CFA_XSP16, literal(-15)))
        CFI V0 load(1, XDATA, add(CFA_XSP16, literal(-14)))
        CFI V1 load(1, XDATA, add(CFA_XSP16, literal(-13)))
        CFI V2 load(1, XDATA, add(CFA_XSP16, literal(-12)))
        CFI V3 load(1, XDATA, add(CFA_XSP16, literal(-11)))
        CFI V4 load(1, XDATA, add(CFA_XSP16, literal(-10)))
        CFI V5 load(1, XDATA, add(CFA_XSP16, literal(-9)))
        CFI V6 load(1, XDATA, add(CFA_XSP16, literal(-8)))
        CFI V7 load(1, XDATA, add(CFA_XSP16, literal(-7)))
        CFI R7 load(1, XDATA, add(CFA_XSP16, literal(-6)))
        CFI ?RET_LOW load(1, XDATA, add(CFA_XSP16, literal(-5)))
        CFI ?RET_HIGH load(1, XDATA, add(CFA_XSP16, literal(-4)))
        CFI ?BRET_EXT load(1, XDATA, add(CFA_XSP16, literal(-3)))
        CFI DPL0 load(1, XDATA, add(CFA_XSP16, literal(-2)))
        CFI DPH0 load(1, XDATA, add(CFA_XSP16, literal(-1)))
        CFI CFA_SP SP+0
        CFI CFA_XSP16 add(XSP16, 33)
        CFI Block cfiCond49 Using cfiCommon0
        CFI (cfiCond49) NoFunction
        CFI (cfiCond49) Conditional ??CrossCallReturnLabel_52, ??CrossCallReturnLabel_10
        CFI (cfiCond49) R6 load(1, XDATA, add(CFA_XSP16, literal(-16)))
        CFI (cfiCond49) VB load(1, XDATA, add(CFA_XSP16, literal(-15)))
        CFI (cfiCond49) V0 load(1, XDATA, add(CFA_XSP16, literal(-14)))
        CFI (cfiCond49) V1 load(1, XDATA, add(CFA_XSP16, literal(-13)))
        CFI (cfiCond49) V2 load(1, XDATA, add(CFA_XSP16, literal(-12)))
        CFI (cfiCond49) V3 load(1, XDATA, add(CFA_XSP16, literal(-11)))
        CFI (cfiCond49) V4 load(1, XDATA, add(CFA_XSP16, literal(-10)))
        CFI (cfiCond49) V5 load(1, XDATA, add(CFA_XSP16, literal(-9)))
        CFI (cfiCond49) V6 load(1, XDATA, add(CFA_XSP16, literal(-8)))
        CFI (cfiCond49) V7 load(1, XDATA, add(CFA_XSP16, literal(-7)))
        CFI (cfiCond49) R7 load(1, XDATA, add(CFA_XSP16, literal(-6)))
        CFI (cfiCond49) ?RET_LOW load(1, XDATA, add(CFA_XSP16, literal(-5)))
        CFI (cfiCond49) ?RET_HIGH load(1, XDATA, add(CFA_XSP16, literal(-4)))
        CFI (cfiCond49) ?BRET_EXT load(1, XDATA, add(CFA_XSP16, literal(-3)))
        CFI (cfiCond49) DPL0 load(1, XDATA, add(CFA_XSP16, literal(-2)))
        CFI (cfiCond49) DPH0 load(1, XDATA, add(CFA_XSP16, literal(-1)))
        CFI (cfiCond49) CFA_SP SP+0
        CFI (cfiCond49) CFA_XSP16 add(XSP16, 33)
        CFI Block cfiCond50 Using cfiCommon0
        CFI (cfiCond50) NoFunction
        CFI (cfiCond50) Conditional ??CrossCallReturnLabel_53, ??CrossCallReturnLabel_15
        CFI (cfiCond50) R6 load(1, XDATA, add(CFA_XSP16, literal(-14)))
        CFI (cfiCond50) VB load(1, XDATA, add(CFA_XSP16, literal(-13)))
        CFI (cfiCond50) V0 load(1, XDATA, add(CFA_XSP16, literal(-12)))
        CFI (cfiCond50) V1 load(1, XDATA, add(CFA_XSP16, literal(-11)))
        CFI (cfiCond50) V2 load(1, XDATA, add(CFA_XSP16, literal(-10)))
        CFI (cfiCond50) V3 load(1, XDATA, add(CFA_XSP16, literal(-9)))
        CFI (cfiCond50) V4 load(1, XDATA, add(CFA_XSP16, literal(-8)))
        CFI (cfiCond50) V5 load(1, XDATA, add(CFA_XSP16, literal(-7)))
        CFI (cfiCond50) R7 load(1, XDATA, add(CFA_XSP16, literal(-6)))
        CFI (cfiCond50) ?RET_LOW load(1, XDATA, add(CFA_XSP16, literal(-5)))
        CFI (cfiCond50) ?RET_HIGH load(1, XDATA, add(CFA_XSP16, literal(-4)))
        CFI (cfiCond50) ?BRET_EXT load(1, XDATA, add(CFA_XSP16, literal(-3)))
        CFI (cfiCond50) DPL0 load(1, XDATA, add(CFA_XSP16, literal(-2)))
        CFI (cfiCond50) DPH0 load(1, XDATA, add(CFA_XSP16, literal(-1)))
        CFI (cfiCond50) CFA_SP SP+0
        CFI (cfiCond50) CFA_XSP16 add(XSP16, 19)
        CFI Block cfiCond51 Using cfiCommon0
        CFI (cfiCond51) NoFunction
        CFI (cfiCond51) Conditional ??CrossCallReturnLabel_53, ??CrossCallReturnLabel_16
        CFI (cfiCond51) R6 load(1, XDATA, add(CFA_XSP16, literal(-10)))
        CFI (cfiCond51) VB load(1, XDATA, add(CFA_XSP16, literal(-9)))
        CFI (cfiCond51) V0 load(1, XDATA, add(CFA_XSP16, literal(-8)))
        CFI (cfiCond51) V1 load(1, XDATA, add(CFA_XSP16, literal(-7)))
        CFI (cfiCond51) R7 load(1, XDATA, add(CFA_XSP16, literal(-6)))
        CFI (cfiCond51) ?RET_LOW load(1, XDATA, add(CFA_XSP16, literal(-5)))
        CFI (cfiCond51) ?RET_HIGH load(1, XDATA, add(CFA_XSP16, literal(-4)))
        CFI (cfiCond51) ?BRET_EXT load(1, XDATA, add(CFA_XSP16, literal(-3)))
        CFI (cfiCond51) DPL0 load(1, XDATA, add(CFA_XSP16, literal(-2)))
        CFI (cfiCond51) DPH0 load(1, XDATA, add(CFA_XSP16, literal(-1)))
        CFI (cfiCond51) CFA_SP SP+0
        CFI (cfiCond51) CFA_XSP16 add(XSP16, 14)
        CFI Block cfiCond52 Using cfiCommon0
        CFI (cfiCond52) NoFunction
        CFI (cfiCond52) Conditional ??CrossCallReturnLabel_54, ??CrossCallReturnLabel_19
        CFI (cfiCond52) R6 load(1, XDATA, add(CFA_XSP16, literal(-16)))
        CFI (cfiCond52) VB load(1, XDATA, add(CFA_XSP16, literal(-15)))
        CFI (cfiCond52) V0 load(1, XDATA, add(CFA_XSP16, literal(-14)))
        CFI (cfiCond52) V1 load(1, XDATA, add(CFA_XSP16, literal(-13)))
        CFI (cfiCond52) V2 load(1, XDATA, add(CFA_XSP16, literal(-12)))
        CFI (cfiCond52) V3 load(1, XDATA, add(CFA_XSP16, literal(-11)))
        CFI (cfiCond52) V4 load(1, XDATA, add(CFA_XSP16, literal(-10)))
        CFI (cfiCond52) V5 load(1, XDATA, add(CFA_XSP16, literal(-9)))
        CFI (cfiCond52) V6 load(1, XDATA, add(CFA_XSP16, literal(-8)))
        CFI (cfiCond52) V7 load(1, XDATA, add(CFA_XSP16, literal(-7)))
        CFI (cfiCond52) R7 load(1, XDATA, add(CFA_XSP16, literal(-6)))
        CFI (cfiCond52) ?RET_LOW load(1, XDATA, add(CFA_XSP16, literal(-5)))
        CFI (cfiCond52) ?RET_HIGH load(1, XDATA, add(CFA_XSP16, literal(-4)))
        CFI (cfiCond52) ?BRET_EXT load(1, XDATA, add(CFA_XSP16, literal(-3)))
        CFI (cfiCond52) DPL0 load(1, XDATA, add(CFA_XSP16, literal(-2)))
        CFI (cfiCond52) DPH0 load(1, XDATA, add(CFA_XSP16, literal(-1)))
        CFI (cfiCond52) CFA_SP SP+0
        CFI (cfiCond52) CFA_XSP16 add(XSP16, 33)
        CFI Block cfiCond53 Using cfiCommon0
        CFI (cfiCond53) NoFunction
        CFI (cfiCond53) Conditional ??CrossCallReturnLabel_54, ??CrossCallReturnLabel_20
        CFI (cfiCond53) R6 load(1, XDATA, add(CFA_XSP16, literal(-10)))
        CFI (cfiCond53) VB load(1, XDATA, add(CFA_XSP16, literal(-9)))
        CFI (cfiCond53) V0 load(1, XDATA, add(CFA_XSP16, literal(-8)))
        CFI (cfiCond53) V1 load(1, XDATA, add(CFA_XSP16, literal(-7)))
        CFI (cfiCond53) R7 load(1, XDATA, add(CFA_XSP16, literal(-6)))
        CFI (cfiCond53) ?RET_LOW load(1, XDATA, add(CFA_XSP16, literal(-5)))
        CFI (cfiCond53) ?RET_HIGH load(1, XDATA, add(CFA_XSP16, literal(-4)))
        CFI (cfiCond53) ?BRET_EXT load(1, XDATA, add(CFA_XSP16, literal(-3)))
        CFI (cfiCond53) DPL0 load(1, XDATA, add(CFA_XSP16, literal(-2)))
        CFI (cfiCond53) DPH0 load(1, XDATA, add(CFA_XSP16, literal(-1)))
        CFI (cfiCond53) CFA_SP SP+0
        CFI (cfiCond53) CFA_XSP16 add(XSP16, 10)
        CFI Block cfiPicker54 Using cfiCommon1
        CFI (cfiPicker54) NoFunction
        CFI (cfiPicker54) Picker
        MOV     DPH,A
        CFI EndBlock cfiCond48
        CFI EndBlock cfiCond49
        CFI EndBlock cfiCond50
        CFI EndBlock cfiCond51
        CFI EndBlock cfiCond52
        CFI EndBlock cfiCond53
        CFI EndBlock cfiPicker54
        REQUIRE ??Subroutine46_0
        ; // Fall through to label ??Subroutine46_0

        RSEG BANKED_CODE:CODE:NOROOT(0)
??Subroutine46_0:
        CFI Block cfiCond55 Using cfiCommon0
        CFI NoFunction
        CFI Conditional ??CrossCallReturnLabel_51
        CFI R6 load(1, XDATA, add(CFA_XSP16, literal(-16)))
        CFI VB load(1, XDATA, add(CFA_XSP16, literal(-15)))
        CFI V0 load(1, XDATA, add(CFA_XSP16, literal(-14)))
        CFI V1 load(1, XDATA, add(CFA_XSP16, literal(-13)))
        CFI V2 load(1, XDATA, add(CFA_XSP16, literal(-12)))
        CFI V3 load(1, XDATA, add(CFA_XSP16, literal(-11)))
        CFI V4 load(1, XDATA, add(CFA_XSP16, literal(-10)))
        CFI V5 load(1, XDATA, add(CFA_XSP16, literal(-9)))
        CFI V6 load(1, XDATA, add(CFA_XSP16, literal(-8)))
        CFI V7 load(1, XDATA, add(CFA_XSP16, literal(-7)))
        CFI R7 load(1, XDATA, add(CFA_XSP16, literal(-6)))
        CFI ?RET_LOW load(1, XDATA, add(CFA_XSP16, literal(-5)))
        CFI ?RET_HIGH load(1, XDATA, add(CFA_XSP16, literal(-4)))
        CFI ?BRET_EXT load(1, XDATA, add(CFA_XSP16, literal(-3)))
        CFI DPL0 load(1, XDATA, add(CFA_XSP16, literal(-2)))
        CFI DPH0 load(1, XDATA, add(CFA_XSP16, literal(-1)))
        CFI CFA_SP SP+0
        CFI CFA_XSP16 add(XSP16, 33)
        CFI Block cfiCond56 Using cfiCommon0
        CFI (cfiCond56) NoFunction
        CFI (cfiCond56) Conditional ??CrossCallReturnLabel_52, ??CrossCallReturnLabel_9
        CFI (cfiCond56) R6 load(1, XDATA, add(CFA_XSP16, literal(-16)))
        CFI (cfiCond56) VB load(1, XDATA, add(CFA_XSP16, literal(-15)))
        CFI (cfiCond56) V0 load(1, XDATA, add(CFA_XSP16, literal(-14)))
        CFI (cfiCond56) V1 load(1, XDATA, add(CFA_XSP16, literal(-13)))
        CFI (cfiCond56) V2 load(1, XDATA, add(CFA_XSP16, literal(-12)))
        CFI (cfiCond56) V3 load(1, XDATA, add(CFA_XSP16, literal(-11)))
        CFI (cfiCond56) V4 load(1, XDATA, add(CFA_XSP16, literal(-10)))
        CFI (cfiCond56) V5 load(1, XDATA, add(CFA_XSP16, literal(-9)))
        CFI (cfiCond56) V6 load(1, XDATA, add(CFA_XSP16, literal(-8)))
        CFI (cfiCond56) V7 load(1, XDATA, add(CFA_XSP16, literal(-7)))
        CFI (cfiCond56) R7 load(1, XDATA, add(CFA_XSP16, literal(-6)))
        CFI (cfiCond56) ?RET_LOW load(1, XDATA, add(CFA_XSP16, literal(-5)))
        CFI (cfiCond56) ?RET_HIGH load(1, XDATA, add(CFA_XSP16, literal(-4)))
        CFI (cfiCond56) ?BRET_EXT load(1, XDATA, add(CFA_XSP16, literal(-3)))
        CFI (cfiCond56) DPL0 load(1, XDATA, add(CFA_XSP16, literal(-2)))
        CFI (cfiCond56) DPH0 load(1, XDATA, add(CFA_XSP16, literal(-1)))
        CFI (cfiCond56) CFA_SP SP+0
        CFI (cfiCond56) CFA_XSP16 add(XSP16, 33)
        CFI Block cfiCond57 Using cfiCommon0
        CFI (cfiCond57) NoFunction
        CFI (cfiCond57) Conditional ??CrossCallReturnLabel_52, ??CrossCallReturnLabel_10
        CFI (cfiCond57) R6 load(1, XDATA, add(CFA_XSP16, literal(-16)))
        CFI (cfiCond57) VB load(1, XDATA, add(CFA_XSP16, literal(-15)))
        CFI (cfiCond57) V0 load(1, XDATA, add(CFA_XSP16, literal(-14)))
        CFI (cfiCond57) V1 load(1, XDATA, add(CFA_XSP16, literal(-13)))
        CFI (cfiCond57) V2 load(1, XDATA, add(CFA_XSP16, literal(-12)))
        CFI (cfiCond57) V3 load(1, XDATA, add(CFA_XSP16, literal(-11)))
        CFI (cfiCond57) V4 load(1, XDATA, add(CFA_XSP16, literal(-10)))
        CFI (cfiCond57) V5 load(1, XDATA, add(CFA_XSP16, literal(-9)))
        CFI (cfiCond57) V6 load(1, XDATA, add(CFA_XSP16, literal(-8)))
        CFI (cfiCond57) V7 load(1, XDATA, add(CFA_XSP16, literal(-7)))
        CFI (cfiCond57) R7 load(1, XDATA, add(CFA_XSP16, literal(-6)))
        CFI (cfiCond57) ?RET_LOW load(1, XDATA, add(CFA_XSP16, literal(-5)))
        CFI (cfiCond57) ?RET_HIGH load(1, XDATA, add(CFA_XSP16, literal(-4)))
        CFI (cfiCond57) ?BRET_EXT load(1, XDATA, add(CFA_XSP16, literal(-3)))
        CFI (cfiCond57) DPL0 load(1, XDATA, add(CFA_XSP16, literal(-2)))
        CFI (cfiCond57) DPH0 load(1, XDATA, add(CFA_XSP16, literal(-1)))
        CFI (cfiCond57) CFA_SP SP+0
        CFI (cfiCond57) CFA_XSP16 add(XSP16, 33)
        CFI Block cfiCond58 Using cfiCommon0
        CFI (cfiCond58) NoFunction
        CFI (cfiCond58) Conditional ??CrossCallReturnLabel_53, ??CrossCallReturnLabel_15
        CFI (cfiCond58) R6 load(1, XDATA, add(CFA_XSP16, literal(-14)))
        CFI (cfiCond58) VB load(1, XDATA, add(CFA_XSP16, literal(-13)))
        CFI (cfiCond58) V0 load(1, XDATA, add(CFA_XSP16, literal(-12)))
        CFI (cfiCond58) V1 load(1, XDATA, add(CFA_XSP16, literal(-11)))
        CFI (cfiCond58) V2 load(1, XDATA, add(CFA_XSP16, literal(-10)))
        CFI (cfiCond58) V3 load(1, XDATA, add(CFA_XSP16, literal(-9)))
        CFI (cfiCond58) V4 load(1, XDATA, add(CFA_XSP16, literal(-8)))
        CFI (cfiCond58) V5 load(1, XDATA, add(CFA_XSP16, literal(-7)))
        CFI (cfiCond58) R7 load(1, XDATA, add(CFA_XSP16, literal(-6)))
        CFI (cfiCond58) ?RET_LOW load(1, XDATA, add(CFA_XSP16, literal(-5)))
        CFI (cfiCond58) ?RET_HIGH load(1, XDATA, add(CFA_XSP16, literal(-4)))
        CFI (cfiCond58) ?BRET_EXT load(1, XDATA, add(CFA_XSP16, literal(-3)))
        CFI (cfiCond58) DPL0 load(1, XDATA, add(CFA_XSP16, literal(-2)))
        CFI (cfiCond58) DPH0 load(1, XDATA, add(CFA_XSP16, literal(-1)))
        CFI (cfiCond58) CFA_SP SP+0
        CFI (cfiCond58) CFA_XSP16 add(XSP16, 19)
        CFI Block cfiCond59 Using cfiCommon0
        CFI (cfiCond59) NoFunction
        CFI (cfiCond59) Conditional ??CrossCallReturnLabel_53, ??CrossCallReturnLabel_16
        CFI (cfiCond59) R6 load(1, XDATA, add(CFA_XSP16, literal(-10)))
        CFI (cfiCond59) VB load(1, XDATA, add(CFA_XSP16, literal(-9)))
        CFI (cfiCond59) V0 load(1, XDATA, add(CFA_XSP16, literal(-8)))
        CFI (cfiCond59) V1 load(1, XDATA, add(CFA_XSP16, literal(-7)))
        CFI (cfiCond59) R7 load(1, XDATA, add(CFA_XSP16, literal(-6)))
        CFI (cfiCond59) ?RET_LOW load(1, XDATA, add(CFA_XSP16, literal(-5)))
        CFI (cfiCond59) ?RET_HIGH load(1, XDATA, add(CFA_XSP16, literal(-4)))
        CFI (cfiCond59) ?BRET_EXT load(1, XDATA, add(CFA_XSP16, literal(-3)))
        CFI (cfiCond59) DPL0 load(1, XDATA, add(CFA_XSP16, literal(-2)))
        CFI (cfiCond59) DPH0 load(1, XDATA, add(CFA_XSP16, literal(-1)))
        CFI (cfiCond59) CFA_SP SP+0
        CFI (cfiCond59) CFA_XSP16 add(XSP16, 14)
        CFI Block cfiCond60 Using cfiCommon0
        CFI (cfiCond60) NoFunction
        CFI (cfiCond60) Conditional ??CrossCallReturnLabel_54, ??CrossCallReturnLabel_19
        CFI (cfiCond60) R6 load(1, XDATA, add(CFA_XSP16, literal(-16)))
        CFI (cfiCond60) VB load(1, XDATA, add(CFA_XSP16, literal(-15)))
        CFI (cfiCond60) V0 load(1, XDATA, add(CFA_XSP16, literal(-14)))
        CFI (cfiCond60) V1 load(1, XDATA, add(CFA_XSP16, literal(-13)))
        CFI (cfiCond60) V2 load(1, XDATA, add(CFA_XSP16, literal(-12)))
        CFI (cfiCond60) V3 load(1, XDATA, add(CFA_XSP16, literal(-11)))
        CFI (cfiCond60) V4 load(1, XDATA, add(CFA_XSP16, literal(-10)))
        CFI (cfiCond60) V5 load(1, XDATA, add(CFA_XSP16, literal(-9)))
        CFI (cfiCond60) V6 load(1, XDATA, add(CFA_XSP16, literal(-8)))
        CFI (cfiCond60) V7 load(1, XDATA, add(CFA_XSP16, literal(-7)))
        CFI (cfiCond60) R7 load(1, XDATA, add(CFA_XSP16, literal(-6)))
        CFI (cfiCond60) ?RET_LOW load(1, XDATA, add(CFA_XSP16, literal(-5)))
        CFI (cfiCond60) ?RET_HIGH load(1, XDATA, add(CFA_XSP16, literal(-4)))
        CFI (cfiCond60) ?BRET_EXT load(1, XDATA, add(CFA_XSP16, literal(-3)))
        CFI (cfiCond60) DPL0 load(1, XDATA, add(CFA_XSP16, literal(-2)))
        CFI (cfiCond60) DPH0 load(1, XDATA, add(CFA_XSP16, literal(-1)))
        CFI (cfiCond60) CFA_SP SP+0
        CFI (cfiCond60) CFA_XSP16 add(XSP16, 33)
        CFI Block cfiCond61 Using cfiCommon0
        CFI (cfiCond61) NoFunction
        CFI (cfiCond61) Conditional ??CrossCallReturnLabel_54, ??CrossCallReturnLabel_20
        CFI (cfiCond61) R6 load(1, XDATA, add(CFA_XSP16, literal(-10)))
        CFI (cfiCond61) VB load(1, XDATA, add(CFA_XSP16, literal(-9)))
        CFI (cfiCond61) V0 load(1, XDATA, add(CFA_XSP16, literal(-8)))
        CFI (cfiCond61) V1 load(1, XDATA, add(CFA_XSP16, literal(-7)))
        CFI (cfiCond61) R7 load(1, XDATA, add(CFA_XSP16, literal(-6)))
        CFI (cfiCond61) ?RET_LOW load(1, XDATA, add(CFA_XSP16, literal(-5)))
        CFI (cfiCond61) ?RET_HIGH load(1, XDATA, add(CFA_XSP16, literal(-4)))
        CFI (cfiCond61) ?BRET_EXT load(1, XDATA, add(CFA_XSP16, literal(-3)))
        CFI (cfiCond61) DPL0 load(1, XDATA, add(CFA_XSP16, literal(-2)))
        CFI (cfiCond61) DPH0 load(1, XDATA, add(CFA_XSP16, literal(-1)))
        CFI (cfiCond61) CFA_SP SP+0
        CFI (cfiCond61) CFA_XSP16 add(XSP16, 10)
        CFI Block cfiPicker62 Using cfiCommon1
        CFI (cfiPicker62) NoFunction
        CFI (cfiPicker62) Picker
        MOVX    A,@DPTR
        MOV     R0,A
        INC     DPTR
        MOVX    A,@DPTR
        MOV     R1,A
        RET
        CFI EndBlock cfiCond55
        CFI EndBlock cfiCond56
        CFI EndBlock cfiCond57
        CFI EndBlock cfiCond58
        CFI EndBlock cfiCond59
        CFI EndBlock cfiCond60
        CFI EndBlock cfiCond61
        CFI EndBlock cfiPicker62

        RSEG BANKED_CODE:CODE:NOROOT(0)
?Subroutine8:
        CFI Block cfiCond63 Using cfiCommon0
        CFI NoFunction
        CFI Conditional ??CrossCallReturnLabel_55
        CFI R6 load(1, XDATA, add(CFA_XSP16, literal(-10)))
        CFI VB load(1, XDATA, add(CFA_XSP16, literal(-9)))
        CFI V0 load(1, XDATA, add(CFA_XSP16, literal(-8)))
        CFI V1 load(1, XDATA, add(CFA_XSP16, literal(-7)))
        CFI R7 load(1, XDATA, add(CFA_XSP16, literal(-6)))
        CFI ?RET_LOW load(1, XDATA, add(CFA_XSP16, literal(-5)))
        CFI ?RET_HIGH load(1, XDATA, add(CFA_XSP16, literal(-4)))
        CFI ?BRET_EXT load(1, XDATA, add(CFA_XSP16, literal(-3)))
        CFI DPL0 load(1, XDATA, add(CFA_XSP16, literal(-2)))
        CFI DPH0 load(1, XDATA, add(CFA_XSP16, literal(-1)))
        CFI CFA_SP SP+0
        CFI CFA_XSP16 add(XSP16, 14)
        CFI Block cfiCond64 Using cfiCommon0
        CFI (cfiCond64) NoFunction
        CFI (cfiCond64) Conditional ??CrossCallReturnLabel_56
        CFI (cfiCond64) R6 load(1, XDATA, add(CFA_XSP16, literal(-10)))
        CFI (cfiCond64) VB load(1, XDATA, add(CFA_XSP16, literal(-9)))
        CFI (cfiCond64) V0 load(1, XDATA, add(CFA_XSP16, literal(-8)))
        CFI (cfiCond64) V1 load(1, XDATA, add(CFA_XSP16, literal(-7)))
        CFI (cfiCond64) R7 load(1, XDATA, add(CFA_XSP16, literal(-6)))
        CFI (cfiCond64) ?RET_LOW load(1, XDATA, add(CFA_XSP16, literal(-5)))
        CFI (cfiCond64) ?RET_HIGH load(1, XDATA, add(CFA_XSP16, literal(-4)))
        CFI (cfiCond64) ?BRET_EXT load(1, XDATA, add(CFA_XSP16, literal(-3)))
        CFI (cfiCond64) DPL0 load(1, XDATA, add(CFA_XSP16, literal(-2)))
        CFI (cfiCond64) DPH0 load(1, XDATA, add(CFA_XSP16, literal(-1)))
        CFI (cfiCond64) CFA_SP SP+0
        CFI (cfiCond64) CFA_XSP16 add(XSP16, 14)
        CFI Block cfiPicker65 Using cfiCommon1
        CFI (cfiPicker65) NoFunction
        CFI (cfiPicker65) Picker
        MOV     DPL,?XSP + 0
        MOV     DPH,?XSP + 1
        MOV     R4,DPL
        MOV     R5,DPH
        MOV     DPL,R6
        MOV     DPH,R7
        CFI EndBlock cfiCond63
        CFI EndBlock cfiCond64
        CFI EndBlock cfiPicker65
        REQUIRE ??Subroutine47_0
        ; // Fall through to label ??Subroutine47_0

        RSEG BANKED_CODE:CODE:NOROOT(0)
??Subroutine47_0:
        CFI Block cfiCond66 Using cfiCommon0
        CFI NoFunction
        CFI Conditional ??CrossCallReturnLabel_57
        CFI R6 load(1, XDATA, add(CFA_XSP16, literal(-14)))
        CFI VB load(1, XDATA, add(CFA_XSP16, literal(-13)))
        CFI V0 load(1, XDATA, add(CFA_XSP16, literal(-12)))
        CFI V1 load(1, XDATA, add(CFA_XSP16, literal(-11)))
        CFI V2 load(1, XDATA, add(CFA_XSP16, literal(-10)))
        CFI V3 load(1, XDATA, add(CFA_XSP16, literal(-9)))
        CFI V4 load(1, XDATA, add(CFA_XSP16, literal(-8)))
        CFI V5 load(1, XDATA, add(CFA_XSP16, literal(-7)))
        CFI R7 load(1, XDATA, add(CFA_XSP16, literal(-6)))
        CFI ?RET_LOW load(1, XDATA, add(CFA_XSP16, literal(-5)))
        CFI ?RET_HIGH load(1, XDATA, add(CFA_XSP16, literal(-4)))
        CFI ?BRET_EXT load(1, XDATA, add(CFA_XSP16, literal(-3)))
        CFI DPL0 load(1, XDATA, add(CFA_XSP16, literal(-2)))
        CFI DPH0 load(1, XDATA, add(CFA_XSP16, literal(-1)))
        CFI CFA_SP SP+0
        CFI CFA_XSP16 add(XSP16, 23)
        CFI Block cfiCond67 Using cfiCommon0
        CFI (cfiCond67) NoFunction
        CFI (cfiCond67) Conditional ??CrossCallReturnLabel_55
        CFI (cfiCond67) R6 load(1, XDATA, add(CFA_XSP16, literal(-10)))
        CFI (cfiCond67) VB load(1, XDATA, add(CFA_XSP16, literal(-9)))
        CFI (cfiCond67) V0 load(1, XDATA, add(CFA_XSP16, literal(-8)))
        CFI (cfiCond67) V1 load(1, XDATA, add(CFA_XSP16, literal(-7)))
        CFI (cfiCond67) R7 load(1, XDATA, add(CFA_XSP16, literal(-6)))
        CFI (cfiCond67) ?RET_LOW load(1, XDATA, add(CFA_XSP16, literal(-5)))
        CFI (cfiCond67) ?RET_HIGH load(1, XDATA, add(CFA_XSP16, literal(-4)))
        CFI (cfiCond67) ?BRET_EXT load(1, XDATA, add(CFA_XSP16, literal(-3)))
        CFI (cfiCond67) DPL0 load(1, XDATA, add(CFA_XSP16, literal(-2)))
        CFI (cfiCond67) DPH0 load(1, XDATA, add(CFA_XSP16, literal(-1)))
        CFI (cfiCond67) CFA_SP SP+0
        CFI (cfiCond67) CFA_XSP16 add(XSP16, 14)
        CFI Block cfiCond68 Using cfiCommon0
        CFI (cfiCond68) NoFunction
        CFI (cfiCond68) Conditional ??CrossCallReturnLabel_56
        CFI (cfiCond68) R6 load(1, XDATA, add(CFA_XSP16, literal(-10)))
        CFI (cfiCond68) VB load(1, XDATA, add(CFA_XSP16, literal(-9)))
        CFI (cfiCond68) V0 load(1, XDATA, add(CFA_XSP16, literal(-8)))
        CFI (cfiCond68) V1 load(1, XDATA, add(CFA_XSP16, literal(-7)))
        CFI (cfiCond68) R7 load(1, XDATA, add(CFA_XSP16, literal(-6)))
        CFI (cfiCond68) ?RET_LOW load(1, XDATA, add(CFA_XSP16, literal(-5)))
        CFI (cfiCond68) ?RET_HIGH load(1, XDATA, add(CFA_XSP16, literal(-4)))
        CFI (cfiCond68) ?BRET_EXT load(1, XDATA, add(CFA_XSP16, literal(-3)))
        CFI (cfiCond68) DPL0 load(1, XDATA, add(CFA_XSP16, literal(-2)))
        CFI (cfiCond68) DPH0 load(1, XDATA, add(CFA_XSP16, literal(-1)))
        CFI (cfiCond68) CFA_SP SP+0
        CFI (cfiCond68) CFA_XSP16 add(XSP16, 14)
        CFI Block cfiPicker69 Using cfiCommon1
        CFI (cfiPicker69) NoFunction
        CFI (cfiPicker69) Picker
        INC     DPTR
        INC     DPTR
        INC     DPTR
        INC     DPTR
        INC     DPTR
        INC     DPTR
        MOVX    A,@DPTR
        MOV     R2,A
        INC     DPTR
        MOVX    A,@DPTR
        MOV     R3,A
        LCALL   ??AT_Int16toChar?relay
        ; Setup parameters for call to function AT_HalUARTWrite
        ; Setup parameters for call to function AT_HalUARTWrite
        ; Setup parameters for call to function AT_HalUARTWrite
        MOV     R4,#0x4
        MOV     R5,#0x0
        MOV     DPL,?XSP + 0
        MOV     DPH,?XSP + 1
        MOV     R2,DPL
        MOV     R3,DPH
        RET
        CFI EndBlock cfiCond66
        CFI EndBlock cfiCond67
        CFI EndBlock cfiCond68
        CFI EndBlock cfiPicker69
//  313 /**************************************************************
//  314 deal with AT_AF_Cmd_REPENABLE_CLUSTERID messages.
//  315 *************************************************************/

        RSEG BANKED_CODE:CODE:NOROOT(0)
//  316 void AT_AF_Cmd_REPENABLE_CB(afIncomingMSGPacket_t *pkt ){
AT_AF_Cmd_REPENABLE_CB:
        CFI Block cfiBlock70 Using cfiCommon0
        CFI Function AT_AF_Cmd_REPENABLE_CB
        CODE
        FUNCALL AT_AF_Cmd_REPENABLE_CB, AT_AF_Cmd_REPENABLE_req
        LOCFRAME ISTACK, 2, STACK
        LOCFRAME PSTACK, 0, STACK
        LOCFRAME XSTACK, 0, STACK
        LOCFRAME IOVERLAY, 0, STATIC
        LOCFRAME DOVERLAY, 0, STATIC
        ARGFRAME ISTACK, 2, STACK
        ARGFRAME PSTACK, 0, STACK
        ARGFRAME XSTACK, 0, STACK
        ARGFRAME IOVERLAY, 0, STATIC
        ARGFRAME DOVERLAY, 0, STATIC
        FUNCALL AT_AF_Cmd_REPENABLE_CB, AT_AF_Cmd_REPENABLE_rsp
        LOCFRAME ISTACK, 2, STACK
        LOCFRAME PSTACK, 0, STACK
        LOCFRAME XSTACK, 0, STACK
        LOCFRAME IOVERLAY, 0, STATIC
        LOCFRAME DOVERLAY, 0, STATIC
        ARGFRAME ISTACK, 2, STACK
        ARGFRAME PSTACK, 0, STACK
        ARGFRAME XSTACK, 0, STACK
        ARGFRAME IOVERLAY, 0, STATIC
        ARGFRAME DOVERLAY, 0, STATIC
        PUSH    DPL
        CFI DPL0 Frame(CFA_SP, 4)
        CFI CFA_SP SP+-4
        PUSH    DPH
        CFI DPH0 Frame(CFA_SP, 5)
        CFI CFA_SP SP+-5
        ; Saved register size: 2
        ; Auto size: 0
//  317   AT_AF_Cmd_REPENABLE_req_t *req = (AT_AF_Cmd_REPENABLE_req_t *)pkt->cmd.Data;
//  318   if(req->hdr.cmd==AT_AF_Cmd_req){
        LCALL   ?Subroutine9 & 0xFFFF
??CrossCallReturnLabel_60:
        JNZ     ??AT_AF_Cmd_REPENABLE_CB_0
//  319     AT_AF_Cmd_REPENABLE_req(pkt);
        ; Setup parameters for call to function AT_AF_Cmd_REPENABLE_req
        LCALL   ??AT_AF_Cmd_REPENABLE_req?relay
        SJMP    ??AT_AF_Cmd_REPENABLE_CB_1
//  320   }else{
//  321     AT_AF_Cmd_REPENABLE_rsp(pkt);
??AT_AF_Cmd_REPENABLE_CB_0:
        ; Setup parameters for call to function AT_AF_Cmd_REPENABLE_rsp
        LCALL   ??AT_AF_Cmd_REPENABLE_rsp?relay
//  322   }
//  323 }
??AT_AF_Cmd_REPENABLE_CB_1:
        LJMP    ?Subroutine0 & 0xFFFF
        CFI EndBlock cfiBlock70
//  324 
//  325 
//  326 

        RSEG BANKED_CODE:CODE:NOROOT(0)
//  327 void AT_AF_Cmd_HA_DISC_CB(afIncomingMSGPacket_t *pkt ){
AT_AF_Cmd_HA_DISC_CB:
        CFI Block cfiBlock71 Using cfiCommon0
        CFI Function AT_AF_Cmd_HA_DISC_CB
        CODE
        FUNCALL AT_AF_Cmd_HA_DISC_CB, AT_AF_Cmd_HA_DISC_req
        LOCFRAME ISTACK, 2, STACK
        LOCFRAME PSTACK, 0, STACK
        LOCFRAME XSTACK, 0, STACK
        LOCFRAME IOVERLAY, 0, STATIC
        LOCFRAME DOVERLAY, 0, STATIC
        ARGFRAME ISTACK, 2, STACK
        ARGFRAME PSTACK, 0, STACK
        ARGFRAME XSTACK, 0, STACK
        ARGFRAME IOVERLAY, 0, STATIC
        ARGFRAME DOVERLAY, 0, STATIC
        FUNCALL AT_AF_Cmd_HA_DISC_CB, AT_AF_Cmd_HA_DISC_rsp
        LOCFRAME ISTACK, 2, STACK
        LOCFRAME PSTACK, 0, STACK
        LOCFRAME XSTACK, 0, STACK
        LOCFRAME IOVERLAY, 0, STATIC
        LOCFRAME DOVERLAY, 0, STATIC
        ARGFRAME ISTACK, 2, STACK
        ARGFRAME PSTACK, 0, STACK
        ARGFRAME XSTACK, 0, STACK
        ARGFRAME IOVERLAY, 0, STATIC
        ARGFRAME DOVERLAY, 0, STATIC
        PUSH    DPL
        CFI DPL0 Frame(CFA_SP, 4)
        CFI CFA_SP SP+-4
        PUSH    DPH
        CFI DPH0 Frame(CFA_SP, 5)
        CFI CFA_SP SP+-5
        ; Saved register size: 2
        ; Auto size: 0
//  328   AT_AF_hdr *req = (AT_AF_hdr *)pkt->cmd.Data;
//  329   if(req->cmd==AT_AF_Cmd_req){
        LCALL   ?Subroutine9 & 0xFFFF
??CrossCallReturnLabel_61:
        JNZ     ??AT_AF_Cmd_HA_DISC_CB_0
//  330     AT_AF_Cmd_HA_DISC_req(pkt);
        ; Setup parameters for call to function AT_AF_Cmd_HA_DISC_req
        LCALL   ??AT_AF_Cmd_HA_DISC_req?relay
        SJMP    ??AT_AF_Cmd_HA_DISC_CB_1
//  331   }else{
//  332     AT_AF_Cmd_HA_DISC_rsp(pkt);
??AT_AF_Cmd_HA_DISC_CB_0:
        ; Setup parameters for call to function AT_AF_Cmd_HA_DISC_rsp
        LCALL   ??AT_AF_Cmd_HA_DISC_rsp?relay
//  333   }
//  334 }
??AT_AF_Cmd_HA_DISC_CB_1:
        LJMP    ?Subroutine0 & 0xFFFF
        CFI EndBlock cfiBlock71

        RSEG BANKED_CODE:CODE:NOROOT(0)
?Subroutine9:
        CFI Block cfiCond72 Using cfiCommon0
        CFI NoFunction
        CFI Conditional ??CrossCallReturnLabel_59
        CFI DPL0 Frame(CFA_SP, 4)
        CFI DPH0 Frame(CFA_SP, 5)
        CFI CFA_SP SP+-5
        CFI Block cfiCond73 Using cfiCommon0
        CFI (cfiCond73) NoFunction
        CFI (cfiCond73) Conditional ??CrossCallReturnLabel_60
        CFI (cfiCond73) DPL0 Frame(CFA_SP, 4)
        CFI (cfiCond73) DPH0 Frame(CFA_SP, 5)
        CFI (cfiCond73) CFA_SP SP+-5
        CFI Block cfiCond74 Using cfiCommon0
        CFI (cfiCond74) NoFunction
        CFI (cfiCond74) Conditional ??CrossCallReturnLabel_61
        CFI (cfiCond74) DPL0 Frame(CFA_SP, 4)
        CFI (cfiCond74) DPH0 Frame(CFA_SP, 5)
        CFI (cfiCond74) CFA_SP SP+-5
        CFI Block cfiCond75 Using cfiCommon0
        CFI (cfiCond75) NoFunction
        CFI (cfiCond75) Conditional ??CrossCallReturnLabel_62
        CFI (cfiCond75) DPL0 Frame(CFA_SP, 4)
        CFI (cfiCond75) DPH0 Frame(CFA_SP, 5)
        CFI (cfiCond75) CFA_SP SP+-5
        CFI Block cfiCond76 Using cfiCommon0
        CFI (cfiCond76) NoFunction
        CFI (cfiCond76) Conditional ??CrossCallReturnLabel_63
        CFI (cfiCond76) DPL0 Frame(CFA_SP, 4)
        CFI (cfiCond76) DPH0 Frame(CFA_SP, 5)
        CFI (cfiCond76) CFA_SP SP+-5
        CFI Block cfiPicker77 Using cfiCommon1
        CFI (cfiPicker77) NoFunction
        CFI (cfiPicker77) Picker
        MOV     A,R2
        ADD     A,#0x22
        MOV     DPL,A
        MOV     A,R3
        CFI EndBlock cfiCond72
        CFI EndBlock cfiCond73
        CFI EndBlock cfiCond74
        CFI EndBlock cfiCond75
        CFI EndBlock cfiCond76
        CFI EndBlock cfiPicker77
        REQUIRE ??Subroutine48_0
        ; // Fall through to label ??Subroutine48_0

        RSEG BANKED_CODE:CODE:NOROOT(0)
??Subroutine48_0:
        CFI Block cfiCond78 Using cfiCommon0
        CFI NoFunction
        CFI Conditional ??CrossCallReturnLabel_58
        CFI R6 load(1, XDATA, add(CFA_XSP16, literal(-14)))
        CFI VB load(1, XDATA, add(CFA_XSP16, literal(-13)))
        CFI V0 load(1, XDATA, add(CFA_XSP16, literal(-12)))
        CFI V1 load(1, XDATA, add(CFA_XSP16, literal(-11)))
        CFI V2 load(1, XDATA, add(CFA_XSP16, literal(-10)))
        CFI V3 load(1, XDATA, add(CFA_XSP16, literal(-9)))
        CFI V4 load(1, XDATA, add(CFA_XSP16, literal(-8)))
        CFI V5 load(1, XDATA, add(CFA_XSP16, literal(-7)))
        CFI R7 load(1, XDATA, add(CFA_XSP16, literal(-6)))
        CFI ?RET_LOW load(1, XDATA, add(CFA_XSP16, literal(-5)))
        CFI ?RET_HIGH load(1, XDATA, add(CFA_XSP16, literal(-4)))
        CFI ?BRET_EXT load(1, XDATA, add(CFA_XSP16, literal(-3)))
        CFI DPL0 load(1, XDATA, add(CFA_XSP16, literal(-2)))
        CFI DPH0 load(1, XDATA, add(CFA_XSP16, literal(-1)))
        CFI CFA_SP SP+0
        CFI CFA_XSP16 add(XSP16, 19)
        CFI Block cfiCond79 Using cfiCommon0
        CFI (cfiCond79) NoFunction
        CFI (cfiCond79) Conditional ??CrossCallReturnLabel_59
        CFI (cfiCond79) DPL0 Frame(CFA_SP, 4)
        CFI (cfiCond79) DPH0 Frame(CFA_SP, 5)
        CFI (cfiCond79) CFA_SP SP+-5
        CFI Block cfiCond80 Using cfiCommon0
        CFI (cfiCond80) NoFunction
        CFI (cfiCond80) Conditional ??CrossCallReturnLabel_60
        CFI (cfiCond80) DPL0 Frame(CFA_SP, 4)
        CFI (cfiCond80) DPH0 Frame(CFA_SP, 5)
        CFI (cfiCond80) CFA_SP SP+-5
        CFI Block cfiCond81 Using cfiCommon0
        CFI (cfiCond81) NoFunction
        CFI (cfiCond81) Conditional ??CrossCallReturnLabel_61
        CFI (cfiCond81) DPL0 Frame(CFA_SP, 4)
        CFI (cfiCond81) DPH0 Frame(CFA_SP, 5)
        CFI (cfiCond81) CFA_SP SP+-5
        CFI Block cfiCond82 Using cfiCommon0
        CFI (cfiCond82) NoFunction
        CFI (cfiCond82) Conditional ??CrossCallReturnLabel_62
        CFI (cfiCond82) DPL0 Frame(CFA_SP, 4)
        CFI (cfiCond82) DPH0 Frame(CFA_SP, 5)
        CFI (cfiCond82) CFA_SP SP+-5
        CFI Block cfiCond83 Using cfiCommon0
        CFI (cfiCond83) NoFunction
        CFI (cfiCond83) Conditional ??CrossCallReturnLabel_63
        CFI (cfiCond83) DPL0 Frame(CFA_SP, 4)
        CFI (cfiCond83) DPH0 Frame(CFA_SP, 5)
        CFI (cfiCond83) CFA_SP SP+-5
        CFI Block cfiPicker84 Using cfiCommon1
        CFI (cfiPicker84) NoFunction
        CFI (cfiPicker84) Picker
        LCALL   ?Subroutine41 & 0xFFFF
??CrossCallReturnLabel_107:
        LCALL   ?Subroutine37 & 0xFFFF
??CrossCallReturnLabel_65:
        MOVX    A,@DPTR
        RET
        CFI EndBlock cfiCond78
        CFI EndBlock cfiCond79
        CFI EndBlock cfiCond80
        CFI EndBlock cfiCond81
        CFI EndBlock cfiCond82
        CFI EndBlock cfiCond83
        CFI EndBlock cfiPicker84
//  335 
//  336 /***************************************************************************
//  337 deal with the HA discover request
//  338 *****************************************************************************/

        RSEG BANKED_CODE:CODE:NOROOT(0)
//  339 void AT_AF_Cmd_HA_DISC_req(afIncomingMSGPacket_t *pkt  ){
AT_AF_Cmd_HA_DISC_req:
        CFI Block cfiBlock85 Using cfiCommon0
        CFI Function AT_AF_Cmd_HA_DISC_req
        CODE
        FUNCALL AT_AF_Cmd_HA_DISC_req, AT_af_get_ep
        LOCFRAME ISTACK, 0, STACK
        LOCFRAME PSTACK, 0, STACK
        LOCFRAME XSTACK, 33, STACK
        LOCFRAME IOVERLAY, 0, STATIC
        LOCFRAME DOVERLAY, 0, STATIC
        ARGFRAME ISTACK, 0, STACK
        ARGFRAME PSTACK, 0, STACK
        ARGFRAME XSTACK, 33, STACK
        ARGFRAME IOVERLAY, 0, STATIC
        ARGFRAME DOVERLAY, 0, STATIC
        FUNCALL AT_AF_Cmd_HA_DISC_req, afFindEndPointDesc
        LOCFRAME ISTACK, 0, STACK
        LOCFRAME PSTACK, 0, STACK
        LOCFRAME XSTACK, 33, STACK
        LOCFRAME IOVERLAY, 0, STATIC
        LOCFRAME DOVERLAY, 0, STATIC
        ARGFRAME ISTACK, 0, STACK
        ARGFRAME PSTACK, 0, STACK
        ARGFRAME XSTACK, 33, STACK
        ARGFRAME IOVERLAY, 0, STATIC
        ARGFRAME DOVERLAY, 0, STATIC
        FUNCALL AT_AF_Cmd_HA_DISC_req, afFindEndPointDesc
        LOCFRAME ISTACK, 0, STACK
        LOCFRAME PSTACK, 0, STACK
        LOCFRAME XSTACK, 33, STACK
        LOCFRAME IOVERLAY, 0, STATIC
        LOCFRAME DOVERLAY, 0, STATIC
        ARGFRAME ISTACK, 0, STACK
        ARGFRAME PSTACK, 0, STACK
        ARGFRAME XSTACK, 33, STACK
        ARGFRAME IOVERLAY, 0, STATIC
        ARGFRAME DOVERLAY, 0, STATIC
        FUNCALL AT_AF_Cmd_HA_DISC_req, afFindEndPointDesc
        LOCFRAME ISTACK, 0, STACK
        LOCFRAME PSTACK, 0, STACK
        LOCFRAME XSTACK, 33, STACK
        LOCFRAME IOVERLAY, 0, STATIC
        LOCFRAME DOVERLAY, 0, STATIC
        ARGFRAME ISTACK, 0, STACK
        ARGFRAME PSTACK, 0, STACK
        ARGFRAME XSTACK, 33, STACK
        ARGFRAME IOVERLAY, 0, STATIC
        ARGFRAME DOVERLAY, 0, STATIC
        FUNCALL AT_AF_Cmd_HA_DISC_req, AF_DataRequest
        LOCFRAME ISTACK, 0, STACK
        LOCFRAME PSTACK, 0, STACK
        LOCFRAME XSTACK, 42, STACK
        LOCFRAME IOVERLAY, 0, STATIC
        LOCFRAME DOVERLAY, 0, STATIC
        ARGFRAME ISTACK, 0, STACK
        ARGFRAME PSTACK, 0, STACK
        ARGFRAME XSTACK, 42, STACK
        ARGFRAME IOVERLAY, 0, STATIC
        ARGFRAME DOVERLAY, 0, STATIC
        MOV     A,#-0x10
        LCALL   ?BANKED_ENTER_XDATA
        CFI DPH0 load(1, XDATA, add(CFA_XSP16, literal(-1)))
        CFI DPL0 load(1, XDATA, add(CFA_XSP16, literal(-2)))
        CFI ?BRET_EXT load(1, XDATA, add(CFA_XSP16, literal(-3)))
        CFI ?RET_HIGH load(1, XDATA, add(CFA_XSP16, literal(-4)))
        CFI ?RET_LOW load(1, XDATA, add(CFA_XSP16, literal(-5)))
        CFI R7 load(1, XDATA, add(CFA_XSP16, literal(-6)))
        CFI V7 load(1, XDATA, add(CFA_XSP16, literal(-7)))
        CFI V6 load(1, XDATA, add(CFA_XSP16, literal(-8)))
        CFI V5 load(1, XDATA, add(CFA_XSP16, literal(-9)))
        CFI V4 load(1, XDATA, add(CFA_XSP16, literal(-10)))
        CFI V3 load(1, XDATA, add(CFA_XSP16, literal(-11)))
        CFI V2 load(1, XDATA, add(CFA_XSP16, literal(-12)))
        CFI V1 load(1, XDATA, add(CFA_XSP16, literal(-13)))
        CFI V0 load(1, XDATA, add(CFA_XSP16, literal(-14)))
        CFI VB load(1, XDATA, add(CFA_XSP16, literal(-15)))
        CFI R6 load(1, XDATA, add(CFA_XSP16, literal(-16)))
        CFI CFA_SP SP+0
        CFI CFA_XSP16 add(XSP16, 16)
        ; Saved register size: 16
        ; Auto size: 17
        MOV     A,#-0x11
        LCALL   ?ALLOC_XSTACK8
        CFI CFA_XSP16 add(XSP16, 33)
        LCALL   ?Subroutine39 & 0xFFFF
//  340   AT_AF_Cmd_HA_DISC_req_t *req = (AT_AF_Cmd_HA_DISC_req_t *)pkt->cmd.Data;
??CrossCallReturnLabel_67:
        LCALL   ?Subroutine18 & 0xFFFF
//  341   AT_AF_Cmd_HA_DISC_rsp_t *rsp;
//  342   uint8 zcl_epCount =0;
??CrossCallReturnLabel_19:
        MOV     ?V0 + 4,#0x0
//  343   
//  344   uint8 AT_CMD_EP_ARRAY[]=AT_CMD_EPs;
        MOV     DPL,?XSP + 0
        MOV     DPH,?XSP + 1
        MOV     R4,DPL
        MOV     R5,DPH
        MOV     DPH,#(`?<Constant {1, 4, 5, 6, 7}>_2` >> 8) & 0xff
        MOV     DPL,#`?<Constant {1, 4, 5, 6, 7}>_2` & 0xff
        MOV     A,#0x5
        LCALL   ?MOVE_LONG8_XDATA_XDATA
//  345   uint8 i;
//  346   uint8 buf_temp[sizeof(AT_AF_Cmd_HA_DISC_rsp_t)+sizeof(AT_CMD_EP_ARRAY)*sizeof(AT_AF_Cmd_HA_DISC_item_t)];
//  347   rsp = (AT_AF_Cmd_HA_DISC_rsp_t *) buf_temp;
//  348   
//  349   for(i=0;i<sizeof(AT_CMD_EP_ARRAY);i++){
        MOV     ?V0 + 5,A
//  350     epList_t* epList = AT_af_get_ep(AT_CMD_EP_ARRAY[i]);
//  351     SimpleDescriptionFormat_t* simDesc=epList->epDesc->simpleDesc;
??AT_AF_Cmd_HA_DISC_req_0:
        ; Setup parameters for call to function AT_af_get_ep
        LCALL   ?Subroutine25 & 0xFFFF
??CrossCallReturnLabel_71:
        LCALL   ??AT_af_get_ep?relay
        MOV     DPL,R2
        MOV     DPH,R3
        INC     DPTR
        INC     DPTR
        LCALL   ?Subroutine17 & 0xFFFF
??CrossCallReturnLabel_18:
        INC     DPTR
        INC     DPTR
        LCALL   ??Subroutine46_0 & 0xFFFF
??CrossCallReturnLabel_51:
        MOV     ?V0 + 2,R0
        MOV     ?V0 + 3,R1
//  352     
//  353     //find the CID
//  354     bool found=false;
//  355     uint8 j;
//  356     for(j=0;j<simDesc->AppNumOutClusters;j++){
        MOV     R2,#0x0
        SJMP    ??AT_AF_Cmd_HA_DISC_req_1
??AT_AF_Cmd_HA_DISC_req_2:
        INC     R2
??AT_AF_Cmd_HA_DISC_req_1:
        MOV     DPL,?V0 + 2
        MOV     DPH,?V0 + 3
        INC     DPTR
        INC     DPTR
        INC     DPTR
        INC     DPTR
        INC     DPTR
        INC     DPTR
        INC     DPTR
        INC     DPTR
        INC     DPTR
        MOVX    A,@DPTR
        MOV     R0,A
        MOV     A,R2
        CLR     C
        SUBB    A,R0
        JNC     ??AT_AF_Cmd_HA_DISC_req_3
//  357       if(simDesc->pAppOutClusterList[j]==req->CID) {
        MOV     A,R2
        CLR     C
        RLC     A
        MOV     R0,A
        CLR     A
        RLC     A
        MOV     R1,A
        MOV     DPL,?V0 + 2
        MOV     DPH,?V0 + 3
        INC     DPTR
        INC     DPTR
        INC     DPTR
        LCALL   ?Subroutine11 & 0xFFFF
??CrossCallReturnLabel_9:
        JNZ     ??AT_AF_Cmd_HA_DISC_req_4
        INC     DPTR
        MOVX    A,@DPTR
        XRL     A,R1
??AT_AF_Cmd_HA_DISC_req_4:
        JNZ     ??AT_AF_Cmd_HA_DISC_req_2
//  358         if(req->option==0){
        MOV     DPL,?V0 + 0
        MOV     DPH,?V0 + 1
        INC     DPTR
        INC     DPTR
        INC     DPTR
        INC     DPTR
        MOVX    A,@DPTR
        JNZ     ??AT_AF_Cmd_HA_DISC_req_5
//  359           if(afFindEndPointDesc(AT_CMD_EP_ARRAY[i])) found=true;
        ; Setup parameters for call to function afFindEndPointDesc
        MOV     ?V0 + 6,?V0 + 5
        MOV     DPL,?XSP + 0
        MOV     DPH,?XSP + 1
        MOV     A,DPL
        ADD     A,?V0 + 6
        LCALL   ?Subroutine24 & 0xFFFF
//  360         }else{
//  361           found=true;
//  362         }
//  363         break;
//  364       }
//  365     }
??CrossCallReturnLabel_28:
        MOV     ?V0 + 7,R3
        MOV     A,R2
        ORL     A,?V0 + 7
        JNZ     ??AT_AF_Cmd_HA_DISC_req_5
//  366     if(!found){
//  367       for(j=0;j<simDesc->AppNumInClusters;j++){
??AT_AF_Cmd_HA_DISC_req_3:
        MOV     R2,#0x0
        SJMP    ??AT_AF_Cmd_HA_DISC_req_6
??AT_AF_Cmd_HA_DISC_req_7:
        INC     R2
??AT_AF_Cmd_HA_DISC_req_6:
        MOV     DPL,?V0 + 2
        MOV     DPH,?V0 + 3
        INC     DPTR
        INC     DPTR
        INC     DPTR
        INC     DPTR
        INC     DPTR
        INC     DPTR
        MOVX    A,@DPTR
        MOV     R0,A
        MOV     A,R2
        CLR     C
        SUBB    A,R0
        JC      $+5
        LJMP    ??AT_AF_Cmd_HA_DISC_req_8 & 0xFFFF
//  368         if(simDesc->pAppInClusterList[j]==req->CID) {
        MOV     A,R2
        CLR     C
        RLC     A
        MOV     R0,A
        CLR     A
        RLC     A
        MOV     R1,A
        MOV     DPL,?V0 + 2
        MOV     DPH,?V0 + 3
        LCALL   ?Subroutine11 & 0xFFFF
??CrossCallReturnLabel_10:
        JNZ     ??AT_AF_Cmd_HA_DISC_req_9
        INC     DPTR
        MOVX    A,@DPTR
        XRL     A,R1
??AT_AF_Cmd_HA_DISC_req_9:
        JNZ     ??AT_AF_Cmd_HA_DISC_req_7
//  369           if(req->option==0){
        MOV     DPL,?V0 + 0
        MOV     DPH,?V0 + 1
        INC     DPTR
        INC     DPTR
        INC     DPTR
        INC     DPTR
        MOVX    A,@DPTR
        JNZ     ??AT_AF_Cmd_HA_DISC_req_5
//  370             if(afFindEndPointDesc(AT_CMD_EP_ARRAY[i])) found=true;
        ; Setup parameters for call to function afFindEndPointDesc
        MOV     ?V0 + 2,?V0 + 5
        MOV     DPL,?XSP + 0
        MOV     DPH,?XSP + 1
        MOV     A,DPL
        ADD     A,?V0 + 2
        LCALL   ?Subroutine24 & 0xFFFF
//  371           }else{
//  372             found=true;
//  373           }
//  374           break;
//  375         }
//  376       }
//  377     }
??CrossCallReturnLabel_29:
        MOV     ?V0 + 3,R3
        MOV     A,R2
        ORL     A,?V0 + 3
        JZ      ??AT_AF_Cmd_HA_DISC_req_8
//  378     
//  379     //if found the CID
//  380     if(found){
//  381       rsp->item[zcl_epCount].ep = AT_CMD_EP_ARRAY[i];
??AT_AF_Cmd_HA_DISC_req_5:
        LCALL   ?Subroutine25 & 0xFFFF
??CrossCallReturnLabel_72:
        MOV     A,?V0 + 4
        CLR     C
        RLC     A
        MOV     R2,A
        CLR     A
        RLC     A
        MOV     R3,A
        MOV     A,#0x5
        LCALL   ?XSTACK_DISP0_8
        MOV     A,DPL
        ADD     A,R2
        MOV     DPL,A
        MOV     A,DPH
        ADDC    A,R3
        MOV     DPH,A
        INC     DPTR
        INC     DPTR
        MOV     A,R1
        MOVX    @DPTR,A
//  382       rsp->item[zcl_epCount].status = afFindEndPointDesc(AT_CMD_EP_ARRAY[i]) ? AT_AF_enable : AT_AF_disable;
        ; Setup parameters for call to function afFindEndPointDesc
        LCALL   ??afFindEndPointDesc?relay
        MOV     ?V0 + 3,R3
        MOV     A,R2
        ORL     A,?V0 + 3
        JZ      ??AT_AF_Cmd_HA_DISC_req_10
        MOV     A,#0x1
        SJMP    ??AT_AF_Cmd_HA_DISC_req_11
??AT_AF_Cmd_HA_DISC_req_10:
        CLR     A
??AT_AF_Cmd_HA_DISC_req_11:
        PUSH    A
        CFI CFA_SP SP+-1
        MOV     A,?V0 + 4
        CLR     C
        RLC     A
        MOV     R0,A
        CLR     A
        RLC     A
        MOV     R1,A
        MOV     A,#0x5
        LCALL   ?XSTACK_DISP0_8
        LCALL   ?Subroutine22 & 0xFFFF
??CrossCallReturnLabel_25:
        INC     DPTR
        POP     A
        CFI CFA_SP SP+0
        MOVX    @DPTR,A
//  383       zcl_epCount++;
        INC     ?V0 + 4
//  384     }
//  385   }
??AT_AF_Cmd_HA_DISC_req_8:
        INC     ?V0 + 5
        MOV     A,?V0 + 5
        CLR     C
        SUBB    A,#0x5
        JNC     $+5
        LJMP    ??AT_AF_Cmd_HA_DISC_req_0 & 0xFFFF
//  386   if(zcl_epCount!=0){
        MOV     A,?V0 + 4
        JZ      ??AT_AF_Cmd_HA_DISC_req_12
//  387     rsp->hdr.numItem=zcl_epCount;
        MOV     A,#0x6
        LCALL   ?XSTACK_DISP0_8
        MOV     A,?V0 + 4
        MOVX    @DPTR,A
//  388     rsp->hdr.cmd=AT_AF_Cmd_rsp;
        MOV     A,#0x5
        LCALL   ?XSTACK_DISP0_8
        MOV     A,#-0x80
        LCALL   ?Subroutine5 & 0xFFFF
//  389     AF_DataRequest( & (pkt->srcAddr), & AT_AF_epDesc,
//  390                          AT_AF_Cmd_HA_DISC_CLUSTERID,
//  391                          sizeof(AT_AF_Cmd_HA_DISC_rsp_t)+zcl_epCount*sizeof(AT_AF_Cmd_HA_DISC_item_t),
//  392                          (uint8*)rsp,
//  393                          &AT_AF_TransID,
//  394                          AF_DISCV_ROUTE,
//  395                          AF_DEFAULT_RADIUS );
//  396       
//  397   }
??CrossCallReturnLabel_0:
        LCALL   ?PUSH_XSTACK_I_ONE
        CFI CFA_XSP16 add(XSP16, 34)
        MOV     ?V0 + 0,#AT_AF_TransID & 0xff
        MOV     ?V0 + 1,#(AT_AF_TransID >> 8) & 0xff
        MOV     R0,#?V0 + 0
        LCALL   ?PUSH_XSTACK_I_TWO
        CFI CFA_XSP16 add(XSP16, 36)
        MOV     A,#0x8
        LCALL   ?XSTACK_DISP0_8
        MOV     ?V0 + 0,DPL
        MOV     ?V0 + 1,DPH
        MOV     R0,#?V0 + 0
        LCALL   ?PUSH_XSTACK_I_TWO
        CFI CFA_XSP16 add(XSP16, 38)
        MOV     A,?V0 + 4
        CLR     C
        RLC     A
        MOV     R0,A
        CLR     A
        RLC     A
        MOV     R1,A
        MOV     A,R0
        ADD     A,#0x2
        MOV     ?V0 + 0,A
        MOV     A,R1
        ADDC    A,#0x0
        MOV     ?V0 + 1,A
        MOV     R0,#?V0 + 0
        LCALL   ?PUSH_XSTACK_I_TWO
        CFI CFA_XSP16 add(XSP16, 40)
        MOV     ?V0 + 0,#0x2
        MOV     ?V0 + 1,#0x0
        MOV     R0,#?V0 + 0
        LCALL   ?PUSH_XSTACK_I_TWO
        CFI CFA_XSP16 add(XSP16, 42)
        MOV     R1,#0x20
        MOV     R4,#AT_AF_epDesc & 0xff
        MOV     R5,#(AT_AF_epDesc >> 8) & 0xff
        MOV     A,R6
        ADD     A,#0x6
        MOV     R2,A
        MOV     A,R7
        LCALL   ??Subroutine59_0 & 0xFFFF
??CrossCallReturnLabel_117:
        LCALL   ?DEALLOC_XSTACK8
        CFI CFA_XSP16 add(XSP16, 33)
//  398 }
??AT_AF_Cmd_HA_DISC_req_12:
        MOV     A,#0x11
        LCALL   ?DEALLOC_XSTACK8
        CFI EndBlock cfiBlock85
        REQUIRE ?Subroutine4
        ; // Fall through to label ?Subroutine4

        RSEG BANKED_CODE:CODE:NOROOT(0)
?Subroutine4:
        CFI Block cfiBlock86 Using cfiCommon0
        CFI NoFunction
        CFI CFA_SP SP+0
        CFI CFA_XSP16 add(XSP16, 16)
        CFI VB load(1, XDATA, add(CFA_XSP16, literal(-15)))
        CFI DPL0 load(1, XDATA, add(CFA_XSP16, literal(-2)))
        CFI DPH0 load(1, XDATA, add(CFA_XSP16, literal(-1)))
        CFI R6 load(1, XDATA, add(CFA_XSP16, literal(-16)))
        CFI R7 load(1, XDATA, add(CFA_XSP16, literal(-6)))
        CFI V0 load(1, XDATA, add(CFA_XSP16, literal(-14)))
        CFI V1 load(1, XDATA, add(CFA_XSP16, literal(-13)))
        CFI V2 load(1, XDATA, add(CFA_XSP16, literal(-12)))
        CFI V3 load(1, XDATA, add(CFA_XSP16, literal(-11)))
        CFI V4 load(1, XDATA, add(CFA_XSP16, literal(-10)))
        CFI V5 load(1, XDATA, add(CFA_XSP16, literal(-9)))
        CFI V6 load(1, XDATA, add(CFA_XSP16, literal(-8)))
        CFI V7 load(1, XDATA, add(CFA_XSP16, literal(-7)))
        CFI ?BRET_EXT load(1, XDATA, add(CFA_XSP16, literal(-3)))
        CFI ?RET_HIGH load(1, XDATA, add(CFA_XSP16, literal(-4)))
        CFI ?RET_LOW load(1, XDATA, add(CFA_XSP16, literal(-5)))
        MOV     R7,#0x8
        LJMP    ?BANKED_LEAVE_XDATA
        CFI EndBlock cfiBlock86

        RSEG BANKED_CODE:CODE:NOROOT(0)
?Subroutine39:
        CFI Block cfiCond87 Using cfiCommon0
        CFI NoFunction
        CFI Conditional ??CrossCallReturnLabel_66
        CFI R6 load(1, XDATA, add(CFA_XSP16, literal(-10)))
        CFI VB load(1, XDATA, add(CFA_XSP16, literal(-9)))
        CFI V0 load(1, XDATA, add(CFA_XSP16, literal(-8)))
        CFI V1 load(1, XDATA, add(CFA_XSP16, literal(-7)))
        CFI R7 load(1, XDATA, add(CFA_XSP16, literal(-6)))
        CFI ?RET_LOW load(1, XDATA, add(CFA_XSP16, literal(-5)))
        CFI ?RET_HIGH load(1, XDATA, add(CFA_XSP16, literal(-4)))
        CFI ?BRET_EXT load(1, XDATA, add(CFA_XSP16, literal(-3)))
        CFI DPL0 load(1, XDATA, add(CFA_XSP16, literal(-2)))
        CFI DPH0 load(1, XDATA, add(CFA_XSP16, literal(-1)))
        CFI CFA_SP SP+0
        CFI CFA_XSP16 add(XSP16, 14)
        CFI Block cfiCond88 Using cfiCommon0
        CFI (cfiCond88) NoFunction
        CFI (cfiCond88) Conditional ??CrossCallReturnLabel_67
        CFI (cfiCond88) R6 load(1, XDATA, add(CFA_XSP16, literal(-16)))
        CFI (cfiCond88) VB load(1, XDATA, add(CFA_XSP16, literal(-15)))
        CFI (cfiCond88) V0 load(1, XDATA, add(CFA_XSP16, literal(-14)))
        CFI (cfiCond88) V1 load(1, XDATA, add(CFA_XSP16, literal(-13)))
        CFI (cfiCond88) V2 load(1, XDATA, add(CFA_XSP16, literal(-12)))
        CFI (cfiCond88) V3 load(1, XDATA, add(CFA_XSP16, literal(-11)))
        CFI (cfiCond88) V4 load(1, XDATA, add(CFA_XSP16, literal(-10)))
        CFI (cfiCond88) V5 load(1, XDATA, add(CFA_XSP16, literal(-9)))
        CFI (cfiCond88) V6 load(1, XDATA, add(CFA_XSP16, literal(-8)))
        CFI (cfiCond88) V7 load(1, XDATA, add(CFA_XSP16, literal(-7)))
        CFI (cfiCond88) R7 load(1, XDATA, add(CFA_XSP16, literal(-6)))
        CFI (cfiCond88) ?RET_LOW load(1, XDATA, add(CFA_XSP16, literal(-5)))
        CFI (cfiCond88) ?RET_HIGH load(1, XDATA, add(CFA_XSP16, literal(-4)))
        CFI (cfiCond88) ?BRET_EXT load(1, XDATA, add(CFA_XSP16, literal(-3)))
        CFI (cfiCond88) DPL0 load(1, XDATA, add(CFA_XSP16, literal(-2)))
        CFI (cfiCond88) DPH0 load(1, XDATA, add(CFA_XSP16, literal(-1)))
        CFI (cfiCond88) CFA_SP SP+0
        CFI (cfiCond88) CFA_XSP16 add(XSP16, 33)
        CFI Block cfiCond89 Using cfiCommon0
        CFI (cfiCond89) NoFunction
        CFI (cfiCond89) Conditional ??CrossCallReturnLabel_68
        CFI (cfiCond89) R6 load(1, XDATA, add(CFA_XSP16, literal(-14)))
        CFI (cfiCond89) VB load(1, XDATA, add(CFA_XSP16, literal(-13)))
        CFI (cfiCond89) V0 load(1, XDATA, add(CFA_XSP16, literal(-12)))
        CFI (cfiCond89) V1 load(1, XDATA, add(CFA_XSP16, literal(-11)))
        CFI (cfiCond89) V2 load(1, XDATA, add(CFA_XSP16, literal(-10)))
        CFI (cfiCond89) V3 load(1, XDATA, add(CFA_XSP16, literal(-9)))
        CFI (cfiCond89) V4 load(1, XDATA, add(CFA_XSP16, literal(-8)))
        CFI (cfiCond89) V5 load(1, XDATA, add(CFA_XSP16, literal(-7)))
        CFI (cfiCond89) R7 load(1, XDATA, add(CFA_XSP16, literal(-6)))
        CFI (cfiCond89) ?RET_LOW load(1, XDATA, add(CFA_XSP16, literal(-5)))
        CFI (cfiCond89) ?RET_HIGH load(1, XDATA, add(CFA_XSP16, literal(-4)))
        CFI (cfiCond89) ?BRET_EXT load(1, XDATA, add(CFA_XSP16, literal(-3)))
        CFI (cfiCond89) DPL0 load(1, XDATA, add(CFA_XSP16, literal(-2)))
        CFI (cfiCond89) DPH0 load(1, XDATA, add(CFA_XSP16, literal(-1)))
        CFI (cfiCond89) CFA_SP SP+0
        CFI (cfiCond89) CFA_XSP16 add(XSP16, 19)
        CFI Block cfiPicker90 Using cfiCommon1
        CFI (cfiPicker90) NoFunction
        CFI (cfiPicker90) Picker
        MOV     A,R2
        MOV     R6,A
        MOV     A,R3
        MOV     R7,A
        CFI EndBlock cfiCond87
        CFI EndBlock cfiCond88
        CFI EndBlock cfiCond89
        CFI EndBlock cfiPicker90
        REQUIRE ??Subroutine49_0
        ; // Fall through to label ??Subroutine49_0

        RSEG BANKED_CODE:CODE:NOROOT(0)
??Subroutine49_0:
        CFI Block cfiCond91 Using cfiCommon0
        CFI NoFunction
        CFI Conditional ??CrossCallReturnLabel_69, ??CrossCallReturnLabel_75
        CFI R6 load(1, XDATA, add(CFA_XSP16, literal(-16)))
        CFI VB load(1, XDATA, add(CFA_XSP16, literal(-15)))
        CFI V0 load(1, XDATA, add(CFA_XSP16, literal(-14)))
        CFI V1 load(1, XDATA, add(CFA_XSP16, literal(-13)))
        CFI V2 load(1, XDATA, add(CFA_XSP16, literal(-12)))
        CFI V3 load(1, XDATA, add(CFA_XSP16, literal(-11)))
        CFI V4 load(1, XDATA, add(CFA_XSP16, literal(-10)))
        CFI V5 load(1, XDATA, add(CFA_XSP16, literal(-9)))
        CFI V6 load(1, XDATA, add(CFA_XSP16, literal(-8)))
        CFI V7 load(1, XDATA, add(CFA_XSP16, literal(-7)))
        CFI R7 load(1, XDATA, add(CFA_XSP16, literal(-6)))
        CFI ?RET_LOW load(1, XDATA, add(CFA_XSP16, literal(-5)))
        CFI ?RET_HIGH load(1, XDATA, add(CFA_XSP16, literal(-4)))
        CFI ?BRET_EXT load(1, XDATA, add(CFA_XSP16, literal(-3)))
        CFI DPL0 load(1, XDATA, add(CFA_XSP16, literal(-2)))
        CFI DPH0 load(1, XDATA, add(CFA_XSP16, literal(-1)))
        CFI CFA_SP SP+0
        CFI CFA_XSP16 add(XSP16, 16)
        CFI Block cfiCond92 Using cfiCommon0
        CFI (cfiCond92) NoFunction
        CFI (cfiCond92) Conditional ??CrossCallReturnLabel_69, ??CrossCallReturnLabel_76
        CFI (cfiCond92) R6 load(1, XDATA, add(CFA_XSP16, literal(-14)))
        CFI (cfiCond92) VB load(1, XDATA, add(CFA_XSP16, literal(-13)))
        CFI (cfiCond92) V0 load(1, XDATA, add(CFA_XSP16, literal(-12)))
        CFI (cfiCond92) V1 load(1, XDATA, add(CFA_XSP16, literal(-11)))
        CFI (cfiCond92) V2 load(1, XDATA, add(CFA_XSP16, literal(-10)))
        CFI (cfiCond92) V3 load(1, XDATA, add(CFA_XSP16, literal(-9)))
        CFI (cfiCond92) V4 load(1, XDATA, add(CFA_XSP16, literal(-8)))
        CFI (cfiCond92) V5 load(1, XDATA, add(CFA_XSP16, literal(-7)))
        CFI (cfiCond92) R7 load(1, XDATA, add(CFA_XSP16, literal(-6)))
        CFI (cfiCond92) ?RET_LOW load(1, XDATA, add(CFA_XSP16, literal(-5)))
        CFI (cfiCond92) ?RET_HIGH load(1, XDATA, add(CFA_XSP16, literal(-4)))
        CFI (cfiCond92) ?BRET_EXT load(1, XDATA, add(CFA_XSP16, literal(-3)))
        CFI (cfiCond92) DPL0 load(1, XDATA, add(CFA_XSP16, literal(-2)))
        CFI (cfiCond92) DPH0 load(1, XDATA, add(CFA_XSP16, literal(-1)))
        CFI (cfiCond92) CFA_SP SP+0
        CFI (cfiCond92) CFA_XSP16 add(XSP16, 19)
        CFI Block cfiCond93 Using cfiCommon0
        CFI (cfiCond93) NoFunction
        CFI (cfiCond93) Conditional ??CrossCallReturnLabel_66
        CFI (cfiCond93) R6 load(1, XDATA, add(CFA_XSP16, literal(-10)))
        CFI (cfiCond93) VB load(1, XDATA, add(CFA_XSP16, literal(-9)))
        CFI (cfiCond93) V0 load(1, XDATA, add(CFA_XSP16, literal(-8)))
        CFI (cfiCond93) V1 load(1, XDATA, add(CFA_XSP16, literal(-7)))
        CFI (cfiCond93) R7 load(1, XDATA, add(CFA_XSP16, literal(-6)))
        CFI (cfiCond93) ?RET_LOW load(1, XDATA, add(CFA_XSP16, literal(-5)))
        CFI (cfiCond93) ?RET_HIGH load(1, XDATA, add(CFA_XSP16, literal(-4)))
        CFI (cfiCond93) ?BRET_EXT load(1, XDATA, add(CFA_XSP16, literal(-3)))
        CFI (cfiCond93) DPL0 load(1, XDATA, add(CFA_XSP16, literal(-2)))
        CFI (cfiCond93) DPH0 load(1, XDATA, add(CFA_XSP16, literal(-1)))
        CFI (cfiCond93) CFA_SP SP+0
        CFI (cfiCond93) CFA_XSP16 add(XSP16, 14)
        CFI Block cfiCond94 Using cfiCommon0
        CFI (cfiCond94) NoFunction
        CFI (cfiCond94) Conditional ??CrossCallReturnLabel_67
        CFI (cfiCond94) R6 load(1, XDATA, add(CFA_XSP16, literal(-16)))
        CFI (cfiCond94) VB load(1, XDATA, add(CFA_XSP16, literal(-15)))
        CFI (cfiCond94) V0 load(1, XDATA, add(CFA_XSP16, literal(-14)))
        CFI (cfiCond94) V1 load(1, XDATA, add(CFA_XSP16, literal(-13)))
        CFI (cfiCond94) V2 load(1, XDATA, add(CFA_XSP16, literal(-12)))
        CFI (cfiCond94) V3 load(1, XDATA, add(CFA_XSP16, literal(-11)))
        CFI (cfiCond94) V4 load(1, XDATA, add(CFA_XSP16, literal(-10)))
        CFI (cfiCond94) V5 load(1, XDATA, add(CFA_XSP16, literal(-9)))
        CFI (cfiCond94) V6 load(1, XDATA, add(CFA_XSP16, literal(-8)))
        CFI (cfiCond94) V7 load(1, XDATA, add(CFA_XSP16, literal(-7)))
        CFI (cfiCond94) R7 load(1, XDATA, add(CFA_XSP16, literal(-6)))
        CFI (cfiCond94) ?RET_LOW load(1, XDATA, add(CFA_XSP16, literal(-5)))
        CFI (cfiCond94) ?RET_HIGH load(1, XDATA, add(CFA_XSP16, literal(-4)))
        CFI (cfiCond94) ?BRET_EXT load(1, XDATA, add(CFA_XSP16, literal(-3)))
        CFI (cfiCond94) DPL0 load(1, XDATA, add(CFA_XSP16, literal(-2)))
        CFI (cfiCond94) DPH0 load(1, XDATA, add(CFA_XSP16, literal(-1)))
        CFI (cfiCond94) CFA_SP SP+0
        CFI (cfiCond94) CFA_XSP16 add(XSP16, 33)
        CFI Block cfiCond95 Using cfiCommon0
        CFI (cfiCond95) NoFunction
        CFI (cfiCond95) Conditional ??CrossCallReturnLabel_68
        CFI (cfiCond95) R6 load(1, XDATA, add(CFA_XSP16, literal(-14)))
        CFI (cfiCond95) VB load(1, XDATA, add(CFA_XSP16, literal(-13)))
        CFI (cfiCond95) V0 load(1, XDATA, add(CFA_XSP16, literal(-12)))
        CFI (cfiCond95) V1 load(1, XDATA, add(CFA_XSP16, literal(-11)))
        CFI (cfiCond95) V2 load(1, XDATA, add(CFA_XSP16, literal(-10)))
        CFI (cfiCond95) V3 load(1, XDATA, add(CFA_XSP16, literal(-9)))
        CFI (cfiCond95) V4 load(1, XDATA, add(CFA_XSP16, literal(-8)))
        CFI (cfiCond95) V5 load(1, XDATA, add(CFA_XSP16, literal(-7)))
        CFI (cfiCond95) R7 load(1, XDATA, add(CFA_XSP16, literal(-6)))
        CFI (cfiCond95) ?RET_LOW load(1, XDATA, add(CFA_XSP16, literal(-5)))
        CFI (cfiCond95) ?RET_HIGH load(1, XDATA, add(CFA_XSP16, literal(-4)))
        CFI (cfiCond95) ?BRET_EXT load(1, XDATA, add(CFA_XSP16, literal(-3)))
        CFI (cfiCond95) DPL0 load(1, XDATA, add(CFA_XSP16, literal(-2)))
        CFI (cfiCond95) DPH0 load(1, XDATA, add(CFA_XSP16, literal(-1)))
        CFI (cfiCond95) CFA_SP SP+0
        CFI (cfiCond95) CFA_XSP16 add(XSP16, 19)
        CFI Block cfiPicker96 Using cfiCommon1
        CFI (cfiPicker96) NoFunction
        CFI (cfiPicker96) Picker
        MOV     A,R6
        ADD     A,#0x22
        MOV     DPL,A
        MOV     A,R7
        RET
        CFI EndBlock cfiCond91
        CFI EndBlock cfiCond92
        CFI EndBlock cfiCond93
        CFI EndBlock cfiCond94
        CFI EndBlock cfiCond95
        CFI EndBlock cfiPicker96

        RSEG BANKED_CODE:CODE:NOROOT(0)
?Subroutine25:
        CFI Block cfiCond97 Using cfiCommon0
        CFI NoFunction
        CFI Conditional ??CrossCallReturnLabel_71
        CFI R6 load(1, XDATA, add(CFA_XSP16, literal(-16)))
        CFI VB load(1, XDATA, add(CFA_XSP16, literal(-15)))
        CFI V0 load(1, XDATA, add(CFA_XSP16, literal(-14)))
        CFI V1 load(1, XDATA, add(CFA_XSP16, literal(-13)))
        CFI V2 load(1, XDATA, add(CFA_XSP16, literal(-12)))
        CFI V3 load(1, XDATA, add(CFA_XSP16, literal(-11)))
        CFI V4 load(1, XDATA, add(CFA_XSP16, literal(-10)))
        CFI V5 load(1, XDATA, add(CFA_XSP16, literal(-9)))
        CFI V6 load(1, XDATA, add(CFA_XSP16, literal(-8)))
        CFI V7 load(1, XDATA, add(CFA_XSP16, literal(-7)))
        CFI R7 load(1, XDATA, add(CFA_XSP16, literal(-6)))
        CFI ?RET_LOW load(1, XDATA, add(CFA_XSP16, literal(-5)))
        CFI ?RET_HIGH load(1, XDATA, add(CFA_XSP16, literal(-4)))
        CFI ?BRET_EXT load(1, XDATA, add(CFA_XSP16, literal(-3)))
        CFI DPL0 load(1, XDATA, add(CFA_XSP16, literal(-2)))
        CFI DPH0 load(1, XDATA, add(CFA_XSP16, literal(-1)))
        CFI CFA_SP SP+0
        CFI CFA_XSP16 add(XSP16, 33)
        CFI Block cfiCond98 Using cfiCommon0
        CFI (cfiCond98) NoFunction
        CFI (cfiCond98) Conditional ??CrossCallReturnLabel_72
        CFI (cfiCond98) R6 load(1, XDATA, add(CFA_XSP16, literal(-16)))
        CFI (cfiCond98) VB load(1, XDATA, add(CFA_XSP16, literal(-15)))
        CFI (cfiCond98) V0 load(1, XDATA, add(CFA_XSP16, literal(-14)))
        CFI (cfiCond98) V1 load(1, XDATA, add(CFA_XSP16, literal(-13)))
        CFI (cfiCond98) V2 load(1, XDATA, add(CFA_XSP16, literal(-12)))
        CFI (cfiCond98) V3 load(1, XDATA, add(CFA_XSP16, literal(-11)))
        CFI (cfiCond98) V4 load(1, XDATA, add(CFA_XSP16, literal(-10)))
        CFI (cfiCond98) V5 load(1, XDATA, add(CFA_XSP16, literal(-9)))
        CFI (cfiCond98) V6 load(1, XDATA, add(CFA_XSP16, literal(-8)))
        CFI (cfiCond98) V7 load(1, XDATA, add(CFA_XSP16, literal(-7)))
        CFI (cfiCond98) R7 load(1, XDATA, add(CFA_XSP16, literal(-6)))
        CFI (cfiCond98) ?RET_LOW load(1, XDATA, add(CFA_XSP16, literal(-5)))
        CFI (cfiCond98) ?RET_HIGH load(1, XDATA, add(CFA_XSP16, literal(-4)))
        CFI (cfiCond98) ?BRET_EXT load(1, XDATA, add(CFA_XSP16, literal(-3)))
        CFI (cfiCond98) DPL0 load(1, XDATA, add(CFA_XSP16, literal(-2)))
        CFI (cfiCond98) DPH0 load(1, XDATA, add(CFA_XSP16, literal(-1)))
        CFI (cfiCond98) CFA_SP SP+0
        CFI (cfiCond98) CFA_XSP16 add(XSP16, 33)
        CFI Block cfiPicker99 Using cfiCommon1
        CFI (cfiPicker99) NoFunction
        CFI (cfiPicker99) Picker
        MOV     ?V0 + 2,?V0 + 5
        MOV     DPL,?XSP + 0
        MOV     DPH,?XSP + 1
        MOV     A,DPL
        ADD     A,?V0 + 2
        CFI EndBlock cfiCond97
        CFI EndBlock cfiCond98
        CFI EndBlock cfiPicker99
        REQUIRE ??Subroutine50_0
        ; // Fall through to label ??Subroutine50_0

        RSEG BANKED_CODE:CODE:NOROOT(0)
??Subroutine50_0:
        CFI Block cfiCond100 Using cfiCommon0
        CFI NoFunction
        CFI Conditional ??CrossCallReturnLabel_70
        CFI R6 load(1, XDATA, add(CFA_XSP16, literal(-14)))
        CFI VB load(1, XDATA, add(CFA_XSP16, literal(-13)))
        CFI V0 load(1, XDATA, add(CFA_XSP16, literal(-12)))
        CFI V1 load(1, XDATA, add(CFA_XSP16, literal(-11)))
        CFI V2 load(1, XDATA, add(CFA_XSP16, literal(-10)))
        CFI V3 load(1, XDATA, add(CFA_XSP16, literal(-9)))
        CFI V4 load(1, XDATA, add(CFA_XSP16, literal(-8)))
        CFI V5 load(1, XDATA, add(CFA_XSP16, literal(-7)))
        CFI R7 load(1, XDATA, add(CFA_XSP16, literal(-6)))
        CFI ?RET_LOW load(1, XDATA, add(CFA_XSP16, literal(-5)))
        CFI ?RET_HIGH load(1, XDATA, add(CFA_XSP16, literal(-4)))
        CFI ?BRET_EXT load(1, XDATA, add(CFA_XSP16, literal(-3)))
        CFI DPL0 load(1, XDATA, add(CFA_XSP16, literal(-2)))
        CFI DPH0 load(1, XDATA, add(CFA_XSP16, literal(-1)))
        CFI CFA_SP SP+0
        CFI CFA_XSP16 add(XSP16, 23)
        CFI Block cfiCond101 Using cfiCommon0
        CFI (cfiCond101) NoFunction
        CFI (cfiCond101) Conditional ??CrossCallReturnLabel_71
        CFI (cfiCond101) R6 load(1, XDATA, add(CFA_XSP16, literal(-16)))
        CFI (cfiCond101) VB load(1, XDATA, add(CFA_XSP16, literal(-15)))
        CFI (cfiCond101) V0 load(1, XDATA, add(CFA_XSP16, literal(-14)))
        CFI (cfiCond101) V1 load(1, XDATA, add(CFA_XSP16, literal(-13)))
        CFI (cfiCond101) V2 load(1, XDATA, add(CFA_XSP16, literal(-12)))
        CFI (cfiCond101) V3 load(1, XDATA, add(CFA_XSP16, literal(-11)))
        CFI (cfiCond101) V4 load(1, XDATA, add(CFA_XSP16, literal(-10)))
        CFI (cfiCond101) V5 load(1, XDATA, add(CFA_XSP16, literal(-9)))
        CFI (cfiCond101) V6 load(1, XDATA, add(CFA_XSP16, literal(-8)))
        CFI (cfiCond101) V7 load(1, XDATA, add(CFA_XSP16, literal(-7)))
        CFI (cfiCond101) R7 load(1, XDATA, add(CFA_XSP16, literal(-6)))
        CFI (cfiCond101) ?RET_LOW load(1, XDATA, add(CFA_XSP16, literal(-5)))
        CFI (cfiCond101) ?RET_HIGH load(1, XDATA, add(CFA_XSP16, literal(-4)))
        CFI (cfiCond101) ?BRET_EXT load(1, XDATA, add(CFA_XSP16, literal(-3)))
        CFI (cfiCond101) DPL0 load(1, XDATA, add(CFA_XSP16, literal(-2)))
        CFI (cfiCond101) DPH0 load(1, XDATA, add(CFA_XSP16, literal(-1)))
        CFI (cfiCond101) CFA_SP SP+0
        CFI (cfiCond101) CFA_XSP16 add(XSP16, 33)
        CFI Block cfiCond102 Using cfiCommon0
        CFI (cfiCond102) NoFunction
        CFI (cfiCond102) Conditional ??CrossCallReturnLabel_72
        CFI (cfiCond102) R6 load(1, XDATA, add(CFA_XSP16, literal(-16)))
        CFI (cfiCond102) VB load(1, XDATA, add(CFA_XSP16, literal(-15)))
        CFI (cfiCond102) V0 load(1, XDATA, add(CFA_XSP16, literal(-14)))
        CFI (cfiCond102) V1 load(1, XDATA, add(CFA_XSP16, literal(-13)))
        CFI (cfiCond102) V2 load(1, XDATA, add(CFA_XSP16, literal(-12)))
        CFI (cfiCond102) V3 load(1, XDATA, add(CFA_XSP16, literal(-11)))
        CFI (cfiCond102) V4 load(1, XDATA, add(CFA_XSP16, literal(-10)))
        CFI (cfiCond102) V5 load(1, XDATA, add(CFA_XSP16, literal(-9)))
        CFI (cfiCond102) V6 load(1, XDATA, add(CFA_XSP16, literal(-8)))
        CFI (cfiCond102) V7 load(1, XDATA, add(CFA_XSP16, literal(-7)))
        CFI (cfiCond102) R7 load(1, XDATA, add(CFA_XSP16, literal(-6)))
        CFI (cfiCond102) ?RET_LOW load(1, XDATA, add(CFA_XSP16, literal(-5)))
        CFI (cfiCond102) ?RET_HIGH load(1, XDATA, add(CFA_XSP16, literal(-4)))
        CFI (cfiCond102) ?BRET_EXT load(1, XDATA, add(CFA_XSP16, literal(-3)))
        CFI (cfiCond102) DPL0 load(1, XDATA, add(CFA_XSP16, literal(-2)))
        CFI (cfiCond102) DPH0 load(1, XDATA, add(CFA_XSP16, literal(-1)))
        CFI (cfiCond102) CFA_SP SP+0
        CFI (cfiCond102) CFA_XSP16 add(XSP16, 33)
        CFI Block cfiPicker103 Using cfiCommon1
        CFI (cfiPicker103) NoFunction
        CFI (cfiPicker103) Picker
        LCALL   ?Subroutine38 & 0xFFFF
??CrossCallReturnLabel_101:
        MOV     R1,A
        RET
        CFI EndBlock cfiCond100
        CFI EndBlock cfiCond101
        CFI EndBlock cfiCond102
        CFI EndBlock cfiPicker103

        RSEG BANKED_CODE:CODE:NOROOT(0)
?Subroutine38:
        CFI Block cfiCond104 Using cfiCommon0
        CFI NoFunction
        CFI Conditional ??CrossCallReturnLabel_101, ??CrossCallReturnLabel_71
        CFI R6 load(1, XDATA, add(CFA_XSP16, literal(-16)))
        CFI VB load(1, XDATA, add(CFA_XSP16, literal(-15)))
        CFI V0 load(1, XDATA, add(CFA_XSP16, literal(-14)))
        CFI V1 load(1, XDATA, add(CFA_XSP16, literal(-13)))
        CFI V2 load(1, XDATA, add(CFA_XSP16, literal(-12)))
        CFI V3 load(1, XDATA, add(CFA_XSP16, literal(-11)))
        CFI V4 load(1, XDATA, add(CFA_XSP16, literal(-10)))
        CFI V5 load(1, XDATA, add(CFA_XSP16, literal(-9)))
        CFI V6 load(1, XDATA, add(CFA_XSP16, literal(-8)))
        CFI V7 load(1, XDATA, add(CFA_XSP16, literal(-7)))
        CFI R7 load(1, XDATA, add(CFA_XSP16, literal(-6)))
        CFI ?RET_LOW load(1, XDATA, add(CFA_XSP16, literal(-5)))
        CFI ?RET_HIGH load(1, XDATA, add(CFA_XSP16, literal(-4)))
        CFI ?BRET_EXT load(1, XDATA, add(CFA_XSP16, literal(-3)))
        CFI DPL0 load(1, XDATA, add(CFA_XSP16, literal(-2)))
        CFI DPH0 load(1, XDATA, add(CFA_XSP16, literal(-1)))
        CFI CFA_SP SP+0
        CFI CFA_XSP16 add(XSP16, 33)
        CFI Block cfiCond105 Using cfiCommon0
        CFI (cfiCond105) NoFunction
        CFI (cfiCond105) Conditional ??CrossCallReturnLabel_101, ??CrossCallReturnLabel_72
        CFI (cfiCond105) R6 load(1, XDATA, add(CFA_XSP16, literal(-16)))
        CFI (cfiCond105) VB load(1, XDATA, add(CFA_XSP16, literal(-15)))
        CFI (cfiCond105) V0 load(1, XDATA, add(CFA_XSP16, literal(-14)))
        CFI (cfiCond105) V1 load(1, XDATA, add(CFA_XSP16, literal(-13)))
        CFI (cfiCond105) V2 load(1, XDATA, add(CFA_XSP16, literal(-12)))
        CFI (cfiCond105) V3 load(1, XDATA, add(CFA_XSP16, literal(-11)))
        CFI (cfiCond105) V4 load(1, XDATA, add(CFA_XSP16, literal(-10)))
        CFI (cfiCond105) V5 load(1, XDATA, add(CFA_XSP16, literal(-9)))
        CFI (cfiCond105) V6 load(1, XDATA, add(CFA_XSP16, literal(-8)))
        CFI (cfiCond105) V7 load(1, XDATA, add(CFA_XSP16, literal(-7)))
        CFI (cfiCond105) R7 load(1, XDATA, add(CFA_XSP16, literal(-6)))
        CFI (cfiCond105) ?RET_LOW load(1, XDATA, add(CFA_XSP16, literal(-5)))
        CFI (cfiCond105) ?RET_HIGH load(1, XDATA, add(CFA_XSP16, literal(-4)))
        CFI (cfiCond105) ?BRET_EXT load(1, XDATA, add(CFA_XSP16, literal(-3)))
        CFI (cfiCond105) DPL0 load(1, XDATA, add(CFA_XSP16, literal(-2)))
        CFI (cfiCond105) DPH0 load(1, XDATA, add(CFA_XSP16, literal(-1)))
        CFI (cfiCond105) CFA_SP SP+0
        CFI (cfiCond105) CFA_XSP16 add(XSP16, 33)
        CFI Block cfiCond106 Using cfiCommon0
        CFI (cfiCond106) NoFunction
        CFI (cfiCond106) Conditional ??CrossCallReturnLabel_101, ??CrossCallReturnLabel_70
        CFI (cfiCond106) R6 load(1, XDATA, add(CFA_XSP16, literal(-14)))
        CFI (cfiCond106) VB load(1, XDATA, add(CFA_XSP16, literal(-13)))
        CFI (cfiCond106) V0 load(1, XDATA, add(CFA_XSP16, literal(-12)))
        CFI (cfiCond106) V1 load(1, XDATA, add(CFA_XSP16, literal(-11)))
        CFI (cfiCond106) V2 load(1, XDATA, add(CFA_XSP16, literal(-10)))
        CFI (cfiCond106) V3 load(1, XDATA, add(CFA_XSP16, literal(-9)))
        CFI (cfiCond106) V4 load(1, XDATA, add(CFA_XSP16, literal(-8)))
        CFI (cfiCond106) V5 load(1, XDATA, add(CFA_XSP16, literal(-7)))
        CFI (cfiCond106) R7 load(1, XDATA, add(CFA_XSP16, literal(-6)))
        CFI (cfiCond106) ?RET_LOW load(1, XDATA, add(CFA_XSP16, literal(-5)))
        CFI (cfiCond106) ?RET_HIGH load(1, XDATA, add(CFA_XSP16, literal(-4)))
        CFI (cfiCond106) ?BRET_EXT load(1, XDATA, add(CFA_XSP16, literal(-3)))
        CFI (cfiCond106) DPL0 load(1, XDATA, add(CFA_XSP16, literal(-2)))
        CFI (cfiCond106) DPH0 load(1, XDATA, add(CFA_XSP16, literal(-1)))
        CFI (cfiCond106) CFA_SP SP+0
        CFI (cfiCond106) CFA_XSP16 add(XSP16, 23)
        CFI Block cfiCond107 Using cfiCommon0
        CFI (cfiCond107) NoFunction
        CFI (cfiCond107) Conditional ??CrossCallReturnLabel_100, ??CrossCallReturnLabel_28
        CFI (cfiCond107) R6 load(1, XDATA, add(CFA_XSP16, literal(-16)))
        CFI (cfiCond107) VB load(1, XDATA, add(CFA_XSP16, literal(-15)))
        CFI (cfiCond107) V0 load(1, XDATA, add(CFA_XSP16, literal(-14)))
        CFI (cfiCond107) V1 load(1, XDATA, add(CFA_XSP16, literal(-13)))
        CFI (cfiCond107) V2 load(1, XDATA, add(CFA_XSP16, literal(-12)))
        CFI (cfiCond107) V3 load(1, XDATA, add(CFA_XSP16, literal(-11)))
        CFI (cfiCond107) V4 load(1, XDATA, add(CFA_XSP16, literal(-10)))
        CFI (cfiCond107) V5 load(1, XDATA, add(CFA_XSP16, literal(-9)))
        CFI (cfiCond107) V6 load(1, XDATA, add(CFA_XSP16, literal(-8)))
        CFI (cfiCond107) V7 load(1, XDATA, add(CFA_XSP16, literal(-7)))
        CFI (cfiCond107) R7 load(1, XDATA, add(CFA_XSP16, literal(-6)))
        CFI (cfiCond107) ?RET_LOW load(1, XDATA, add(CFA_XSP16, literal(-5)))
        CFI (cfiCond107) ?RET_HIGH load(1, XDATA, add(CFA_XSP16, literal(-4)))
        CFI (cfiCond107) ?BRET_EXT load(1, XDATA, add(CFA_XSP16, literal(-3)))
        CFI (cfiCond107) DPL0 load(1, XDATA, add(CFA_XSP16, literal(-2)))
        CFI (cfiCond107) DPH0 load(1, XDATA, add(CFA_XSP16, literal(-1)))
        CFI (cfiCond107) CFA_SP SP+0
        CFI (cfiCond107) CFA_XSP16 add(XSP16, 33)
        CFI Block cfiCond108 Using cfiCommon0
        CFI (cfiCond108) NoFunction
        CFI (cfiCond108) Conditional ??CrossCallReturnLabel_100, ??CrossCallReturnLabel_29
        CFI (cfiCond108) R6 load(1, XDATA, add(CFA_XSP16, literal(-16)))
        CFI (cfiCond108) VB load(1, XDATA, add(CFA_XSP16, literal(-15)))
        CFI (cfiCond108) V0 load(1, XDATA, add(CFA_XSP16, literal(-14)))
        CFI (cfiCond108) V1 load(1, XDATA, add(CFA_XSP16, literal(-13)))
        CFI (cfiCond108) V2 load(1, XDATA, add(CFA_XSP16, literal(-12)))
        CFI (cfiCond108) V3 load(1, XDATA, add(CFA_XSP16, literal(-11)))
        CFI (cfiCond108) V4 load(1, XDATA, add(CFA_XSP16, literal(-10)))
        CFI (cfiCond108) V5 load(1, XDATA, add(CFA_XSP16, literal(-9)))
        CFI (cfiCond108) V6 load(1, XDATA, add(CFA_XSP16, literal(-8)))
        CFI (cfiCond108) V7 load(1, XDATA, add(CFA_XSP16, literal(-7)))
        CFI (cfiCond108) R7 load(1, XDATA, add(CFA_XSP16, literal(-6)))
        CFI (cfiCond108) ?RET_LOW load(1, XDATA, add(CFA_XSP16, literal(-5)))
        CFI (cfiCond108) ?RET_HIGH load(1, XDATA, add(CFA_XSP16, literal(-4)))
        CFI (cfiCond108) ?BRET_EXT load(1, XDATA, add(CFA_XSP16, literal(-3)))
        CFI (cfiCond108) DPL0 load(1, XDATA, add(CFA_XSP16, literal(-2)))
        CFI (cfiCond108) DPH0 load(1, XDATA, add(CFA_XSP16, literal(-1)))
        CFI (cfiCond108) CFA_SP SP+0
        CFI (cfiCond108) CFA_XSP16 add(XSP16, 33)
        CFI Block cfiPicker109 Using cfiCommon1
        CFI (cfiPicker109) NoFunction
        CFI (cfiPicker109) Picker
        MOV     DPL,A
        MOV     A,DPH
        CFI EndBlock cfiCond104
        CFI EndBlock cfiCond105
        CFI EndBlock cfiCond106
        CFI EndBlock cfiCond107
        CFI EndBlock cfiCond108
        CFI EndBlock cfiPicker109
        REQUIRE ??Subroutine51_0
        ; // Fall through to label ??Subroutine51_0

        RSEG BANKED_CODE:CODE:NOROOT(0)
??Subroutine51_0:
        CFI Block cfiCond110 Using cfiCommon0
        CFI NoFunction
        CFI Conditional ??CrossCallReturnLabel_99, ??CrossCallReturnLabel_45
        CFI R6 load(1, XDATA, add(CFA_XSP16, literal(-10)))
        CFI VB load(1, XDATA, add(CFA_XSP16, literal(-9)))
        CFI V0 load(1, XDATA, add(CFA_XSP16, literal(-8)))
        CFI V1 load(1, XDATA, add(CFA_XSP16, literal(-7)))
        CFI R7 load(1, XDATA, add(CFA_XSP16, literal(-6)))
        CFI ?RET_LOW load(1, XDATA, add(CFA_XSP16, literal(-5)))
        CFI ?RET_HIGH load(1, XDATA, add(CFA_XSP16, literal(-4)))
        CFI ?BRET_EXT load(1, XDATA, add(CFA_XSP16, literal(-3)))
        CFI DPL0 load(1, XDATA, add(CFA_XSP16, literal(-2)))
        CFI DPH0 load(1, XDATA, add(CFA_XSP16, literal(-1)))
        CFI CFA_SP SP+0
        CFI CFA_XSP16 add(XSP16, 14)
        CFI Block cfiCond111 Using cfiCommon0
        CFI (cfiCond111) NoFunction
        CFI (cfiCond111) Conditional ??CrossCallReturnLabel_99, ??CrossCallReturnLabel_46
        CFI (cfiCond111) R6 load(1, XDATA, add(CFA_XSP16, literal(-10)))
        CFI (cfiCond111) VB load(1, XDATA, add(CFA_XSP16, literal(-9)))
        CFI (cfiCond111) V0 load(1, XDATA, add(CFA_XSP16, literal(-8)))
        CFI (cfiCond111) V1 load(1, XDATA, add(CFA_XSP16, literal(-7)))
        CFI (cfiCond111) R7 load(1, XDATA, add(CFA_XSP16, literal(-6)))
        CFI (cfiCond111) ?RET_LOW load(1, XDATA, add(CFA_XSP16, literal(-5)))
        CFI (cfiCond111) ?RET_HIGH load(1, XDATA, add(CFA_XSP16, literal(-4)))
        CFI (cfiCond111) ?BRET_EXT load(1, XDATA, add(CFA_XSP16, literal(-3)))
        CFI (cfiCond111) DPL0 load(1, XDATA, add(CFA_XSP16, literal(-2)))
        CFI (cfiCond111) DPH0 load(1, XDATA, add(CFA_XSP16, literal(-1)))
        CFI (cfiCond111) CFA_SP SP+0
        CFI (cfiCond111) CFA_XSP16 add(XSP16, 14)
        CFI Block cfiCond112 Using cfiCommon0
        CFI (cfiCond112) NoFunction
        CFI (cfiCond112) Conditional ??CrossCallReturnLabel_99, ??CrossCallReturnLabel_49
        CFI (cfiCond112) R6 load(1, XDATA, add(CFA_XSP16, literal(-10)))
        CFI (cfiCond112) VB load(1, XDATA, add(CFA_XSP16, literal(-9)))
        CFI (cfiCond112) V0 load(1, XDATA, add(CFA_XSP16, literal(-8)))
        CFI (cfiCond112) V1 load(1, XDATA, add(CFA_XSP16, literal(-7)))
        CFI (cfiCond112) R7 load(1, XDATA, add(CFA_XSP16, literal(-6)))
        CFI (cfiCond112) ?RET_LOW load(1, XDATA, add(CFA_XSP16, literal(-5)))
        CFI (cfiCond112) ?RET_HIGH load(1, XDATA, add(CFA_XSP16, literal(-4)))
        CFI (cfiCond112) ?BRET_EXT load(1, XDATA, add(CFA_XSP16, literal(-3)))
        CFI (cfiCond112) DPL0 load(1, XDATA, add(CFA_XSP16, literal(-2)))
        CFI (cfiCond112) DPH0 load(1, XDATA, add(CFA_XSP16, literal(-1)))
        CFI (cfiCond112) CFA_SP SP+0
        CFI (cfiCond112) CFA_XSP16 add(XSP16, 14)
        CFI Block cfiCond113 Using cfiCommon0
        CFI (cfiCond113) NoFunction
        CFI (cfiCond113) Conditional ??CrossCallReturnLabel_99, ??CrossCallReturnLabel_50
        CFI (cfiCond113) R6 load(1, XDATA, add(CFA_XSP16, literal(-16)))
        CFI (cfiCond113) VB load(1, XDATA, add(CFA_XSP16, literal(-15)))
        CFI (cfiCond113) V0 load(1, XDATA, add(CFA_XSP16, literal(-14)))
        CFI (cfiCond113) V1 load(1, XDATA, add(CFA_XSP16, literal(-13)))
        CFI (cfiCond113) V2 load(1, XDATA, add(CFA_XSP16, literal(-12)))
        CFI (cfiCond113) V3 load(1, XDATA, add(CFA_XSP16, literal(-11)))
        CFI (cfiCond113) V4 load(1, XDATA, add(CFA_XSP16, literal(-10)))
        CFI (cfiCond113) V5 load(1, XDATA, add(CFA_XSP16, literal(-9)))
        CFI (cfiCond113) V6 load(1, XDATA, add(CFA_XSP16, literal(-8)))
        CFI (cfiCond113) V7 load(1, XDATA, add(CFA_XSP16, literal(-7)))
        CFI (cfiCond113) R7 load(1, XDATA, add(CFA_XSP16, literal(-6)))
        CFI (cfiCond113) ?RET_LOW load(1, XDATA, add(CFA_XSP16, literal(-5)))
        CFI (cfiCond113) ?RET_HIGH load(1, XDATA, add(CFA_XSP16, literal(-4)))
        CFI (cfiCond113) ?BRET_EXT load(1, XDATA, add(CFA_XSP16, literal(-3)))
        CFI (cfiCond113) DPL0 load(1, XDATA, add(CFA_XSP16, literal(-2)))
        CFI (cfiCond113) DPH0 load(1, XDATA, add(CFA_XSP16, literal(-1)))
        CFI (cfiCond113) CFA_SP SP+0
        CFI (cfiCond113) CFA_XSP16 add(XSP16, 16)
        CFI Block cfiCond114 Using cfiCommon0
        CFI (cfiCond114) NoFunction
        CFI (cfiCond114) Conditional ??CrossCallReturnLabel_99, ??CrossCallReturnLabel_47
        CFI (cfiCond114) R6 load(1, XDATA, add(CFA_XSP16, literal(-14)))
        CFI (cfiCond114) VB load(1, XDATA, add(CFA_XSP16, literal(-13)))
        CFI (cfiCond114) V0 load(1, XDATA, add(CFA_XSP16, literal(-12)))
        CFI (cfiCond114) V1 load(1, XDATA, add(CFA_XSP16, literal(-11)))
        CFI (cfiCond114) V2 load(1, XDATA, add(CFA_XSP16, literal(-10)))
        CFI (cfiCond114) V3 load(1, XDATA, add(CFA_XSP16, literal(-9)))
        CFI (cfiCond114) V4 load(1, XDATA, add(CFA_XSP16, literal(-8)))
        CFI (cfiCond114) V5 load(1, XDATA, add(CFA_XSP16, literal(-7)))
        CFI (cfiCond114) R7 load(1, XDATA, add(CFA_XSP16, literal(-6)))
        CFI (cfiCond114) ?RET_LOW load(1, XDATA, add(CFA_XSP16, literal(-5)))
        CFI (cfiCond114) ?RET_HIGH load(1, XDATA, add(CFA_XSP16, literal(-4)))
        CFI (cfiCond114) ?BRET_EXT load(1, XDATA, add(CFA_XSP16, literal(-3)))
        CFI (cfiCond114) DPL0 load(1, XDATA, add(CFA_XSP16, literal(-2)))
        CFI (cfiCond114) DPH0 load(1, XDATA, add(CFA_XSP16, literal(-1)))
        CFI (cfiCond114) CFA_SP SP+0
        CFI (cfiCond114) CFA_XSP16 add(XSP16, 23)
        CFI Block cfiCond115 Using cfiCommon0
        CFI (cfiCond115) NoFunction
        CFI (cfiCond115) Conditional ??CrossCallReturnLabel_99, ??CrossCallReturnLabel_48
        CFI (cfiCond115) R6 load(1, XDATA, add(CFA_XSP16, literal(-12)))
        CFI (cfiCond115) VB load(1, XDATA, add(CFA_XSP16, literal(-11)))
        CFI (cfiCond115) V0 load(1, XDATA, add(CFA_XSP16, literal(-10)))
        CFI (cfiCond115) V1 load(1, XDATA, add(CFA_XSP16, literal(-9)))
        CFI (cfiCond115) V2 load(1, XDATA, add(CFA_XSP16, literal(-8)))
        CFI (cfiCond115) V3 load(1, XDATA, add(CFA_XSP16, literal(-7)))
        CFI (cfiCond115) R7 load(1, XDATA, add(CFA_XSP16, literal(-6)))
        CFI (cfiCond115) ?RET_LOW load(1, XDATA, add(CFA_XSP16, literal(-5)))
        CFI (cfiCond115) ?RET_HIGH load(1, XDATA, add(CFA_XSP16, literal(-4)))
        CFI (cfiCond115) ?BRET_EXT load(1, XDATA, add(CFA_XSP16, literal(-3)))
        CFI (cfiCond115) DPL0 load(1, XDATA, add(CFA_XSP16, literal(-2)))
        CFI (cfiCond115) DPH0 load(1, XDATA, add(CFA_XSP16, literal(-1)))
        CFI (cfiCond115) CFA_SP SP+0
        CFI (cfiCond115) CFA_XSP16 add(XSP16, 12)
        CFI Block cfiCond116 Using cfiCommon0
        CFI (cfiCond116) NoFunction
        CFI (cfiCond116) Conditional ??CrossCallReturnLabel_102, ??CrossCallReturnLabel_97
        CFI (cfiCond116) R6 load(1, XDATA, add(CFA_XSP16, literal(-14)))
        CFI (cfiCond116) VB load(1, XDATA, add(CFA_XSP16, literal(-13)))
        CFI (cfiCond116) V0 load(1, XDATA, add(CFA_XSP16, literal(-12)))
        CFI (cfiCond116) V1 load(1, XDATA, add(CFA_XSP16, literal(-11)))
        CFI (cfiCond116) V2 load(1, XDATA, add(CFA_XSP16, literal(-10)))
        CFI (cfiCond116) V3 load(1, XDATA, add(CFA_XSP16, literal(-9)))
        CFI (cfiCond116) V4 load(1, XDATA, add(CFA_XSP16, literal(-8)))
        CFI (cfiCond116) V5 load(1, XDATA, add(CFA_XSP16, literal(-7)))
        CFI (cfiCond116) R7 load(1, XDATA, add(CFA_XSP16, literal(-6)))
        CFI (cfiCond116) ?RET_LOW load(1, XDATA, add(CFA_XSP16, literal(-5)))
        CFI (cfiCond116) ?RET_HIGH load(1, XDATA, add(CFA_XSP16, literal(-4)))
        CFI (cfiCond116) ?BRET_EXT load(1, XDATA, add(CFA_XSP16, literal(-3)))
        CFI (cfiCond116) DPL0 load(1, XDATA, add(CFA_XSP16, literal(-2)))
        CFI (cfiCond116) DPH0 load(1, XDATA, add(CFA_XSP16, literal(-1)))
        CFI (cfiCond116) CFA_SP SP+0
        CFI (cfiCond116) CFA_XSP16 add(XSP16, 19)
        CFI Block cfiCond117 Using cfiCommon0
        CFI (cfiCond117) NoFunction
        CFI (cfiCond117) Conditional ??CrossCallReturnLabel_102, ??CrossCallReturnLabel_98
        CFI (cfiCond117) R6 load(1, XDATA, add(CFA_XSP16, literal(-14)))
        CFI (cfiCond117) VB load(1, XDATA, add(CFA_XSP16, literal(-13)))
        CFI (cfiCond117) V0 load(1, XDATA, add(CFA_XSP16, literal(-12)))
        CFI (cfiCond117) V1 load(1, XDATA, add(CFA_XSP16, literal(-11)))
        CFI (cfiCond117) V2 load(1, XDATA, add(CFA_XSP16, literal(-10)))
        CFI (cfiCond117) V3 load(1, XDATA, add(CFA_XSP16, literal(-9)))
        CFI (cfiCond117) V4 load(1, XDATA, add(CFA_XSP16, literal(-8)))
        CFI (cfiCond117) V5 load(1, XDATA, add(CFA_XSP16, literal(-7)))
        CFI (cfiCond117) R7 load(1, XDATA, add(CFA_XSP16, literal(-6)))
        CFI (cfiCond117) ?RET_LOW load(1, XDATA, add(CFA_XSP16, literal(-5)))
        CFI (cfiCond117) ?RET_HIGH load(1, XDATA, add(CFA_XSP16, literal(-4)))
        CFI (cfiCond117) ?BRET_EXT load(1, XDATA, add(CFA_XSP16, literal(-3)))
        CFI (cfiCond117) DPL0 load(1, XDATA, add(CFA_XSP16, literal(-2)))
        CFI (cfiCond117) DPH0 load(1, XDATA, add(CFA_XSP16, literal(-1)))
        CFI (cfiCond117) CFA_SP SP+0
        CFI (cfiCond117) CFA_XSP16 add(XSP16, 21)
        CFI Block cfiCond118 Using cfiCommon0
        CFI (cfiCond118) NoFunction
        CFI (cfiCond118) Conditional ??CrossCallReturnLabel_102, ??CrossCallReturnLabel_94
        CFI (cfiCond118) R6 load(1, XDATA, add(CFA_XSP16, literal(-14)))
        CFI (cfiCond118) VB load(1, XDATA, add(CFA_XSP16, literal(-13)))
        CFI (cfiCond118) V0 load(1, XDATA, add(CFA_XSP16, literal(-12)))
        CFI (cfiCond118) V1 load(1, XDATA, add(CFA_XSP16, literal(-11)))
        CFI (cfiCond118) V2 load(1, XDATA, add(CFA_XSP16, literal(-10)))
        CFI (cfiCond118) V3 load(1, XDATA, add(CFA_XSP16, literal(-9)))
        CFI (cfiCond118) V4 load(1, XDATA, add(CFA_XSP16, literal(-8)))
        CFI (cfiCond118) V5 load(1, XDATA, add(CFA_XSP16, literal(-7)))
        CFI (cfiCond118) R7 load(1, XDATA, add(CFA_XSP16, literal(-6)))
        CFI (cfiCond118) ?RET_LOW load(1, XDATA, add(CFA_XSP16, literal(-5)))
        CFI (cfiCond118) ?RET_HIGH load(1, XDATA, add(CFA_XSP16, literal(-4)))
        CFI (cfiCond118) ?BRET_EXT load(1, XDATA, add(CFA_XSP16, literal(-3)))
        CFI (cfiCond118) DPL0 load(1, XDATA, add(CFA_XSP16, literal(-2)))
        CFI (cfiCond118) DPH0 load(1, XDATA, add(CFA_XSP16, literal(-1)))
        CFI (cfiCond118) CFA_SP SP+0
        CFI (cfiCond118) CFA_XSP16 add(XSP16, 19)
        CFI Block cfiCond119 Using cfiCommon0
        CFI (cfiCond119) NoFunction
        CFI (cfiCond119) Conditional ??CrossCallReturnLabel_102, ??CrossCallReturnLabel_95
        CFI (cfiCond119) R6 load(1, XDATA, add(CFA_XSP16, literal(-14)))
        CFI (cfiCond119) VB load(1, XDATA, add(CFA_XSP16, literal(-13)))
        CFI (cfiCond119) V0 load(1, XDATA, add(CFA_XSP16, literal(-12)))
        CFI (cfiCond119) V1 load(1, XDATA, add(CFA_XSP16, literal(-11)))
        CFI (cfiCond119) V2 load(1, XDATA, add(CFA_XSP16, literal(-10)))
        CFI (cfiCond119) V3 load(1, XDATA, add(CFA_XSP16, literal(-9)))
        CFI (cfiCond119) V4 load(1, XDATA, add(CFA_XSP16, literal(-8)))
        CFI (cfiCond119) V5 load(1, XDATA, add(CFA_XSP16, literal(-7)))
        CFI (cfiCond119) R7 load(1, XDATA, add(CFA_XSP16, literal(-6)))
        CFI (cfiCond119) ?RET_LOW load(1, XDATA, add(CFA_XSP16, literal(-5)))
        CFI (cfiCond119) ?RET_HIGH load(1, XDATA, add(CFA_XSP16, literal(-4)))
        CFI (cfiCond119) ?BRET_EXT load(1, XDATA, add(CFA_XSP16, literal(-3)))
        CFI (cfiCond119) DPL0 load(1, XDATA, add(CFA_XSP16, literal(-2)))
        CFI (cfiCond119) DPH0 load(1, XDATA, add(CFA_XSP16, literal(-1)))
        CFI (cfiCond119) CFA_SP SP+0
        CFI (cfiCond119) CFA_XSP16 add(XSP16, 19)
        CFI Block cfiCond120 Using cfiCommon0
        CFI (cfiCond120) NoFunction
        CFI (cfiCond120) Conditional ??CrossCallReturnLabel_102, ??CrossCallReturnLabel_96
        CFI (cfiCond120) R6 load(1, XDATA, add(CFA_XSP16, literal(-14)))
        CFI (cfiCond120) VB load(1, XDATA, add(CFA_XSP16, literal(-13)))
        CFI (cfiCond120) V0 load(1, XDATA, add(CFA_XSP16, literal(-12)))
        CFI (cfiCond120) V1 load(1, XDATA, add(CFA_XSP16, literal(-11)))
        CFI (cfiCond120) V2 load(1, XDATA, add(CFA_XSP16, literal(-10)))
        CFI (cfiCond120) V3 load(1, XDATA, add(CFA_XSP16, literal(-9)))
        CFI (cfiCond120) V4 load(1, XDATA, add(CFA_XSP16, literal(-8)))
        CFI (cfiCond120) V5 load(1, XDATA, add(CFA_XSP16, literal(-7)))
        CFI (cfiCond120) R7 load(1, XDATA, add(CFA_XSP16, literal(-6)))
        CFI (cfiCond120) ?RET_LOW load(1, XDATA, add(CFA_XSP16, literal(-5)))
        CFI (cfiCond120) ?RET_HIGH load(1, XDATA, add(CFA_XSP16, literal(-4)))
        CFI (cfiCond120) ?BRET_EXT load(1, XDATA, add(CFA_XSP16, literal(-3)))
        CFI (cfiCond120) DPL0 load(1, XDATA, add(CFA_XSP16, literal(-2)))
        CFI (cfiCond120) DPH0 load(1, XDATA, add(CFA_XSP16, literal(-1)))
        CFI (cfiCond120) CFA_SP SP+0
        CFI (cfiCond120) CFA_XSP16 add(XSP16, 19)
        CFI Block cfiCond121 Using cfiCommon0
        CFI (cfiCond121) NoFunction
        CFI (cfiCond121) Conditional ??CrossCallReturnLabel_102, ??CrossCallReturnLabel_90
        CFI (cfiCond121) R6 load(1, XDATA, add(CFA_XSP16, literal(-14)))
        CFI (cfiCond121) VB load(1, XDATA, add(CFA_XSP16, literal(-13)))
        CFI (cfiCond121) V0 load(1, XDATA, add(CFA_XSP16, literal(-12)))
        CFI (cfiCond121) V1 load(1, XDATA, add(CFA_XSP16, literal(-11)))
        CFI (cfiCond121) V2 load(1, XDATA, add(CFA_XSP16, literal(-10)))
        CFI (cfiCond121) V3 load(1, XDATA, add(CFA_XSP16, literal(-9)))
        CFI (cfiCond121) V4 load(1, XDATA, add(CFA_XSP16, literal(-8)))
        CFI (cfiCond121) V5 load(1, XDATA, add(CFA_XSP16, literal(-7)))
        CFI (cfiCond121) R7 load(1, XDATA, add(CFA_XSP16, literal(-6)))
        CFI (cfiCond121) ?RET_LOW load(1, XDATA, add(CFA_XSP16, literal(-5)))
        CFI (cfiCond121) ?RET_HIGH load(1, XDATA, add(CFA_XSP16, literal(-4)))
        CFI (cfiCond121) ?BRET_EXT load(1, XDATA, add(CFA_XSP16, literal(-3)))
        CFI (cfiCond121) DPL0 load(1, XDATA, add(CFA_XSP16, literal(-2)))
        CFI (cfiCond121) DPH0 load(1, XDATA, add(CFA_XSP16, literal(-1)))
        CFI (cfiCond121) CFA_SP SP+0
        CFI (cfiCond121) CFA_XSP16 add(XSP16, 23)
        CFI Block cfiCond122 Using cfiCommon0
        CFI (cfiCond122) NoFunction
        CFI (cfiCond122) Conditional ??CrossCallReturnLabel_102, ??CrossCallReturnLabel_91
        CFI (cfiCond122) R6 load(1, XDATA, add(CFA_XSP16, literal(-14)))
        CFI (cfiCond122) VB load(1, XDATA, add(CFA_XSP16, literal(-13)))
        CFI (cfiCond122) V0 load(1, XDATA, add(CFA_XSP16, literal(-12)))
        CFI (cfiCond122) V1 load(1, XDATA, add(CFA_XSP16, literal(-11)))
        CFI (cfiCond122) V2 load(1, XDATA, add(CFA_XSP16, literal(-10)))
        CFI (cfiCond122) V3 load(1, XDATA, add(CFA_XSP16, literal(-9)))
        CFI (cfiCond122) V4 load(1, XDATA, add(CFA_XSP16, literal(-8)))
        CFI (cfiCond122) V5 load(1, XDATA, add(CFA_XSP16, literal(-7)))
        CFI (cfiCond122) R7 load(1, XDATA, add(CFA_XSP16, literal(-6)))
        CFI (cfiCond122) ?RET_LOW load(1, XDATA, add(CFA_XSP16, literal(-5)))
        CFI (cfiCond122) ?RET_HIGH load(1, XDATA, add(CFA_XSP16, literal(-4)))
        CFI (cfiCond122) ?BRET_EXT load(1, XDATA, add(CFA_XSP16, literal(-3)))
        CFI (cfiCond122) DPL0 load(1, XDATA, add(CFA_XSP16, literal(-2)))
        CFI (cfiCond122) DPH0 load(1, XDATA, add(CFA_XSP16, literal(-1)))
        CFI (cfiCond122) CFA_SP SP+0
        CFI (cfiCond122) CFA_XSP16 add(XSP16, 23)
        CFI Block cfiCond123 Using cfiCommon0
        CFI (cfiCond123) NoFunction
        CFI (cfiCond123) Conditional ??CrossCallReturnLabel_102, ??CrossCallReturnLabel_92
        CFI (cfiCond123) R6 load(1, XDATA, add(CFA_XSP16, literal(-12)))
        CFI (cfiCond123) VB load(1, XDATA, add(CFA_XSP16, literal(-11)))
        CFI (cfiCond123) V0 load(1, XDATA, add(CFA_XSP16, literal(-10)))
        CFI (cfiCond123) V1 load(1, XDATA, add(CFA_XSP16, literal(-9)))
        CFI (cfiCond123) V2 load(1, XDATA, add(CFA_XSP16, literal(-8)))
        CFI (cfiCond123) V3 load(1, XDATA, add(CFA_XSP16, literal(-7)))
        CFI (cfiCond123) R7 load(1, XDATA, add(CFA_XSP16, literal(-6)))
        CFI (cfiCond123) ?RET_LOW load(1, XDATA, add(CFA_XSP16, literal(-5)))
        CFI (cfiCond123) ?RET_HIGH load(1, XDATA, add(CFA_XSP16, literal(-4)))
        CFI (cfiCond123) ?BRET_EXT load(1, XDATA, add(CFA_XSP16, literal(-3)))
        CFI (cfiCond123) DPL0 load(1, XDATA, add(CFA_XSP16, literal(-2)))
        CFI (cfiCond123) DPH0 load(1, XDATA, add(CFA_XSP16, literal(-1)))
        CFI (cfiCond123) CFA_SP SP+0
        CFI (cfiCond123) CFA_XSP16 add(XSP16, 12)
        CFI Block cfiCond124 Using cfiCommon0
        CFI (cfiCond124) NoFunction
        CFI (cfiCond124) Conditional ??CrossCallReturnLabel_102, ??CrossCallReturnLabel_93
        CFI (cfiCond124) DPL0 Frame(CFA_SP, 4)
        CFI (cfiCond124) DPH0 Frame(CFA_SP, 5)
        CFI (cfiCond124) CFA_SP SP+-5
        CFI Block cfiCond125 Using cfiCommon0
        CFI (cfiCond125) NoFunction
        CFI (cfiCond125) Conditional ??CrossCallReturnLabel_101, ??CrossCallReturnLabel_71
        CFI (cfiCond125) R6 load(1, XDATA, add(CFA_XSP16, literal(-16)))
        CFI (cfiCond125) VB load(1, XDATA, add(CFA_XSP16, literal(-15)))
        CFI (cfiCond125) V0 load(1, XDATA, add(CFA_XSP16, literal(-14)))
        CFI (cfiCond125) V1 load(1, XDATA, add(CFA_XSP16, literal(-13)))
        CFI (cfiCond125) V2 load(1, XDATA, add(CFA_XSP16, literal(-12)))
        CFI (cfiCond125) V3 load(1, XDATA, add(CFA_XSP16, literal(-11)))
        CFI (cfiCond125) V4 load(1, XDATA, add(CFA_XSP16, literal(-10)))
        CFI (cfiCond125) V5 load(1, XDATA, add(CFA_XSP16, literal(-9)))
        CFI (cfiCond125) V6 load(1, XDATA, add(CFA_XSP16, literal(-8)))
        CFI (cfiCond125) V7 load(1, XDATA, add(CFA_XSP16, literal(-7)))
        CFI (cfiCond125) R7 load(1, XDATA, add(CFA_XSP16, literal(-6)))
        CFI (cfiCond125) ?RET_LOW load(1, XDATA, add(CFA_XSP16, literal(-5)))
        CFI (cfiCond125) ?RET_HIGH load(1, XDATA, add(CFA_XSP16, literal(-4)))
        CFI (cfiCond125) ?BRET_EXT load(1, XDATA, add(CFA_XSP16, literal(-3)))
        CFI (cfiCond125) DPL0 load(1, XDATA, add(CFA_XSP16, literal(-2)))
        CFI (cfiCond125) DPH0 load(1, XDATA, add(CFA_XSP16, literal(-1)))
        CFI (cfiCond125) CFA_SP SP+0
        CFI (cfiCond125) CFA_XSP16 add(XSP16, 33)
        CFI Block cfiCond126 Using cfiCommon0
        CFI (cfiCond126) NoFunction
        CFI (cfiCond126) Conditional ??CrossCallReturnLabel_101, ??CrossCallReturnLabel_72
        CFI (cfiCond126) R6 load(1, XDATA, add(CFA_XSP16, literal(-16)))
        CFI (cfiCond126) VB load(1, XDATA, add(CFA_XSP16, literal(-15)))
        CFI (cfiCond126) V0 load(1, XDATA, add(CFA_XSP16, literal(-14)))
        CFI (cfiCond126) V1 load(1, XDATA, add(CFA_XSP16, literal(-13)))
        CFI (cfiCond126) V2 load(1, XDATA, add(CFA_XSP16, literal(-12)))
        CFI (cfiCond126) V3 load(1, XDATA, add(CFA_XSP16, literal(-11)))
        CFI (cfiCond126) V4 load(1, XDATA, add(CFA_XSP16, literal(-10)))
        CFI (cfiCond126) V5 load(1, XDATA, add(CFA_XSP16, literal(-9)))
        CFI (cfiCond126) V6 load(1, XDATA, add(CFA_XSP16, literal(-8)))
        CFI (cfiCond126) V7 load(1, XDATA, add(CFA_XSP16, literal(-7)))
        CFI (cfiCond126) R7 load(1, XDATA, add(CFA_XSP16, literal(-6)))
        CFI (cfiCond126) ?RET_LOW load(1, XDATA, add(CFA_XSP16, literal(-5)))
        CFI (cfiCond126) ?RET_HIGH load(1, XDATA, add(CFA_XSP16, literal(-4)))
        CFI (cfiCond126) ?BRET_EXT load(1, XDATA, add(CFA_XSP16, literal(-3)))
        CFI (cfiCond126) DPL0 load(1, XDATA, add(CFA_XSP16, literal(-2)))
        CFI (cfiCond126) DPH0 load(1, XDATA, add(CFA_XSP16, literal(-1)))
        CFI (cfiCond126) CFA_SP SP+0
        CFI (cfiCond126) CFA_XSP16 add(XSP16, 33)
        CFI Block cfiCond127 Using cfiCommon0
        CFI (cfiCond127) NoFunction
        CFI (cfiCond127) Conditional ??CrossCallReturnLabel_101, ??CrossCallReturnLabel_70
        CFI (cfiCond127) R6 load(1, XDATA, add(CFA_XSP16, literal(-14)))
        CFI (cfiCond127) VB load(1, XDATA, add(CFA_XSP16, literal(-13)))
        CFI (cfiCond127) V0 load(1, XDATA, add(CFA_XSP16, literal(-12)))
        CFI (cfiCond127) V1 load(1, XDATA, add(CFA_XSP16, literal(-11)))
        CFI (cfiCond127) V2 load(1, XDATA, add(CFA_XSP16, literal(-10)))
        CFI (cfiCond127) V3 load(1, XDATA, add(CFA_XSP16, literal(-9)))
        CFI (cfiCond127) V4 load(1, XDATA, add(CFA_XSP16, literal(-8)))
        CFI (cfiCond127) V5 load(1, XDATA, add(CFA_XSP16, literal(-7)))
        CFI (cfiCond127) R7 load(1, XDATA, add(CFA_XSP16, literal(-6)))
        CFI (cfiCond127) ?RET_LOW load(1, XDATA, add(CFA_XSP16, literal(-5)))
        CFI (cfiCond127) ?RET_HIGH load(1, XDATA, add(CFA_XSP16, literal(-4)))
        CFI (cfiCond127) ?BRET_EXT load(1, XDATA, add(CFA_XSP16, literal(-3)))
        CFI (cfiCond127) DPL0 load(1, XDATA, add(CFA_XSP16, literal(-2)))
        CFI (cfiCond127) DPH0 load(1, XDATA, add(CFA_XSP16, literal(-1)))
        CFI (cfiCond127) CFA_SP SP+0
        CFI (cfiCond127) CFA_XSP16 add(XSP16, 23)
        CFI Block cfiCond128 Using cfiCommon0
        CFI (cfiCond128) NoFunction
        CFI (cfiCond128) Conditional ??CrossCallReturnLabel_100, ??CrossCallReturnLabel_28
        CFI (cfiCond128) R6 load(1, XDATA, add(CFA_XSP16, literal(-16)))
        CFI (cfiCond128) VB load(1, XDATA, add(CFA_XSP16, literal(-15)))
        CFI (cfiCond128) V0 load(1, XDATA, add(CFA_XSP16, literal(-14)))
        CFI (cfiCond128) V1 load(1, XDATA, add(CFA_XSP16, literal(-13)))
        CFI (cfiCond128) V2 load(1, XDATA, add(CFA_XSP16, literal(-12)))
        CFI (cfiCond128) V3 load(1, XDATA, add(CFA_XSP16, literal(-11)))
        CFI (cfiCond128) V4 load(1, XDATA, add(CFA_XSP16, literal(-10)))
        CFI (cfiCond128) V5 load(1, XDATA, add(CFA_XSP16, literal(-9)))
        CFI (cfiCond128) V6 load(1, XDATA, add(CFA_XSP16, literal(-8)))
        CFI (cfiCond128) V7 load(1, XDATA, add(CFA_XSP16, literal(-7)))
        CFI (cfiCond128) R7 load(1, XDATA, add(CFA_XSP16, literal(-6)))
        CFI (cfiCond128) ?RET_LOW load(1, XDATA, add(CFA_XSP16, literal(-5)))
        CFI (cfiCond128) ?RET_HIGH load(1, XDATA, add(CFA_XSP16, literal(-4)))
        CFI (cfiCond128) ?BRET_EXT load(1, XDATA, add(CFA_XSP16, literal(-3)))
        CFI (cfiCond128) DPL0 load(1, XDATA, add(CFA_XSP16, literal(-2)))
        CFI (cfiCond128) DPH0 load(1, XDATA, add(CFA_XSP16, literal(-1)))
        CFI (cfiCond128) CFA_SP SP+0
        CFI (cfiCond128) CFA_XSP16 add(XSP16, 33)
        CFI Block cfiCond129 Using cfiCommon0
        CFI (cfiCond129) NoFunction
        CFI (cfiCond129) Conditional ??CrossCallReturnLabel_100, ??CrossCallReturnLabel_29
        CFI (cfiCond129) R6 load(1, XDATA, add(CFA_XSP16, literal(-16)))
        CFI (cfiCond129) VB load(1, XDATA, add(CFA_XSP16, literal(-15)))
        CFI (cfiCond129) V0 load(1, XDATA, add(CFA_XSP16, literal(-14)))
        CFI (cfiCond129) V1 load(1, XDATA, add(CFA_XSP16, literal(-13)))
        CFI (cfiCond129) V2 load(1, XDATA, add(CFA_XSP16, literal(-12)))
        CFI (cfiCond129) V3 load(1, XDATA, add(CFA_XSP16, literal(-11)))
        CFI (cfiCond129) V4 load(1, XDATA, add(CFA_XSP16, literal(-10)))
        CFI (cfiCond129) V5 load(1, XDATA, add(CFA_XSP16, literal(-9)))
        CFI (cfiCond129) V6 load(1, XDATA, add(CFA_XSP16, literal(-8)))
        CFI (cfiCond129) V7 load(1, XDATA, add(CFA_XSP16, literal(-7)))
        CFI (cfiCond129) R7 load(1, XDATA, add(CFA_XSP16, literal(-6)))
        CFI (cfiCond129) ?RET_LOW load(1, XDATA, add(CFA_XSP16, literal(-5)))
        CFI (cfiCond129) ?RET_HIGH load(1, XDATA, add(CFA_XSP16, literal(-4)))
        CFI (cfiCond129) ?BRET_EXT load(1, XDATA, add(CFA_XSP16, literal(-3)))
        CFI (cfiCond129) DPL0 load(1, XDATA, add(CFA_XSP16, literal(-2)))
        CFI (cfiCond129) DPH0 load(1, XDATA, add(CFA_XSP16, literal(-1)))
        CFI (cfiCond129) CFA_SP SP+0
        CFI (cfiCond129) CFA_XSP16 add(XSP16, 33)
        CFI Block cfiPicker130 Using cfiCommon1
        CFI (cfiPicker130) NoFunction
        CFI (cfiPicker130) Picker
        LCALL   ?Subroutine41 & 0xFFFF
??CrossCallReturnLabel_108:
        MOVX    A,@DPTR
        RET
        CFI EndBlock cfiCond110
        CFI EndBlock cfiCond111
        CFI EndBlock cfiCond112
        CFI EndBlock cfiCond113
        CFI EndBlock cfiCond114
        CFI EndBlock cfiCond115
        CFI EndBlock cfiCond116
        CFI EndBlock cfiCond117
        CFI EndBlock cfiCond118
        CFI EndBlock cfiCond119
        CFI EndBlock cfiCond120
        CFI EndBlock cfiCond121
        CFI EndBlock cfiCond122
        CFI EndBlock cfiCond123
        CFI EndBlock cfiCond124
        CFI EndBlock cfiCond125
        CFI EndBlock cfiCond126
        CFI EndBlock cfiCond127
        CFI EndBlock cfiCond128
        CFI EndBlock cfiCond129
        CFI EndBlock cfiPicker130

        RSEG BANKED_CODE:CODE:NOROOT(0)
?Subroutine24:
        CFI Block cfiCond131 Using cfiCommon0
        CFI NoFunction
        CFI Conditional ??CrossCallReturnLabel_28
        CFI R6 load(1, XDATA, add(CFA_XSP16, literal(-16)))
        CFI VB load(1, XDATA, add(CFA_XSP16, literal(-15)))
        CFI V0 load(1, XDATA, add(CFA_XSP16, literal(-14)))
        CFI V1 load(1, XDATA, add(CFA_XSP16, literal(-13)))
        CFI V2 load(1, XDATA, add(CFA_XSP16, literal(-12)))
        CFI V3 load(1, XDATA, add(CFA_XSP16, literal(-11)))
        CFI V4 load(1, XDATA, add(CFA_XSP16, literal(-10)))
        CFI V5 load(1, XDATA, add(CFA_XSP16, literal(-9)))
        CFI V6 load(1, XDATA, add(CFA_XSP16, literal(-8)))
        CFI V7 load(1, XDATA, add(CFA_XSP16, literal(-7)))
        CFI R7 load(1, XDATA, add(CFA_XSP16, literal(-6)))
        CFI ?RET_LOW load(1, XDATA, add(CFA_XSP16, literal(-5)))
        CFI ?RET_HIGH load(1, XDATA, add(CFA_XSP16, literal(-4)))
        CFI ?BRET_EXT load(1, XDATA, add(CFA_XSP16, literal(-3)))
        CFI DPL0 load(1, XDATA, add(CFA_XSP16, literal(-2)))
        CFI DPH0 load(1, XDATA, add(CFA_XSP16, literal(-1)))
        CFI CFA_SP SP+0
        CFI CFA_XSP16 add(XSP16, 33)
        CFI Block cfiCond132 Using cfiCommon0
        CFI (cfiCond132) NoFunction
        CFI (cfiCond132) Conditional ??CrossCallReturnLabel_29
        CFI (cfiCond132) R6 load(1, XDATA, add(CFA_XSP16, literal(-16)))
        CFI (cfiCond132) VB load(1, XDATA, add(CFA_XSP16, literal(-15)))
        CFI (cfiCond132) V0 load(1, XDATA, add(CFA_XSP16, literal(-14)))
        CFI (cfiCond132) V1 load(1, XDATA, add(CFA_XSP16, literal(-13)))
        CFI (cfiCond132) V2 load(1, XDATA, add(CFA_XSP16, literal(-12)))
        CFI (cfiCond132) V3 load(1, XDATA, add(CFA_XSP16, literal(-11)))
        CFI (cfiCond132) V4 load(1, XDATA, add(CFA_XSP16, literal(-10)))
        CFI (cfiCond132) V5 load(1, XDATA, add(CFA_XSP16, literal(-9)))
        CFI (cfiCond132) V6 load(1, XDATA, add(CFA_XSP16, literal(-8)))
        CFI (cfiCond132) V7 load(1, XDATA, add(CFA_XSP16, literal(-7)))
        CFI (cfiCond132) R7 load(1, XDATA, add(CFA_XSP16, literal(-6)))
        CFI (cfiCond132) ?RET_LOW load(1, XDATA, add(CFA_XSP16, literal(-5)))
        CFI (cfiCond132) ?RET_HIGH load(1, XDATA, add(CFA_XSP16, literal(-4)))
        CFI (cfiCond132) ?BRET_EXT load(1, XDATA, add(CFA_XSP16, literal(-3)))
        CFI (cfiCond132) DPL0 load(1, XDATA, add(CFA_XSP16, literal(-2)))
        CFI (cfiCond132) DPH0 load(1, XDATA, add(CFA_XSP16, literal(-1)))
        CFI (cfiCond132) CFA_SP SP+0
        CFI (cfiCond132) CFA_XSP16 add(XSP16, 33)
        CFI Block cfiPicker133 Using cfiCommon1
        CFI (cfiPicker133) NoFunction
        CFI (cfiPicker133) Picker
        LCALL   ?Subroutine38 & 0xFFFF
??CrossCallReturnLabel_100:
        MOV     R1,A
        LCALL   ??afFindEndPointDesc?relay
        RET
        CFI EndBlock cfiCond131
        CFI EndBlock cfiCond132
        CFI EndBlock cfiPicker133

        RSEG BANKED_CODE:CODE:NOROOT(0)
?Subroutine22:
        CFI Block cfiCond134 Using cfiCommon0
        CFI NoFunction
        CFI Conditional ??CrossCallReturnLabel_23
        CFI R6 load(1, XDATA, add(CFA_XSP16, literal(-13)))
        CFI VB load(1, XDATA, add(CFA_XSP16, literal(-12)))
        CFI V0 load(1, XDATA, add(CFA_XSP16, literal(-11)))
        CFI V1 load(1, XDATA, add(CFA_XSP16, literal(-10)))
        CFI V2 load(1, XDATA, add(CFA_XSP16, literal(-9)))
        CFI V3 load(1, XDATA, add(CFA_XSP16, literal(-8)))
        CFI V4 load(1, XDATA, add(CFA_XSP16, literal(-7)))
        CFI R7 load(1, XDATA, add(CFA_XSP16, literal(-6)))
        CFI ?RET_LOW load(1, XDATA, add(CFA_XSP16, literal(-5)))
        CFI ?RET_HIGH load(1, XDATA, add(CFA_XSP16, literal(-4)))
        CFI ?BRET_EXT load(1, XDATA, add(CFA_XSP16, literal(-3)))
        CFI DPL0 load(1, XDATA, add(CFA_XSP16, literal(-2)))
        CFI DPH0 load(1, XDATA, add(CFA_XSP16, literal(-1)))
        CFI CFA_SP SP+0
        CFI CFA_XSP16 add(XSP16, 25)
        CFI Block cfiCond135 Using cfiCommon0
        CFI (cfiCond135) NoFunction
        CFI (cfiCond135) Conditional ??CrossCallReturnLabel_24
        CFI (cfiCond135) R6 load(1, XDATA, add(CFA_XSP16, literal(-13)))
        CFI (cfiCond135) VB load(1, XDATA, add(CFA_XSP16, literal(-12)))
        CFI (cfiCond135) V0 load(1, XDATA, add(CFA_XSP16, literal(-11)))
        CFI (cfiCond135) V1 load(1, XDATA, add(CFA_XSP16, literal(-10)))
        CFI (cfiCond135) V2 load(1, XDATA, add(CFA_XSP16, literal(-9)))
        CFI (cfiCond135) V3 load(1, XDATA, add(CFA_XSP16, literal(-8)))
        CFI (cfiCond135) V4 load(1, XDATA, add(CFA_XSP16, literal(-7)))
        CFI (cfiCond135) R7 load(1, XDATA, add(CFA_XSP16, literal(-6)))
        CFI (cfiCond135) ?RET_LOW load(1, XDATA, add(CFA_XSP16, literal(-5)))
        CFI (cfiCond135) ?RET_HIGH load(1, XDATA, add(CFA_XSP16, literal(-4)))
        CFI (cfiCond135) ?BRET_EXT load(1, XDATA, add(CFA_XSP16, literal(-3)))
        CFI (cfiCond135) DPL0 load(1, XDATA, add(CFA_XSP16, literal(-2)))
        CFI (cfiCond135) DPH0 load(1, XDATA, add(CFA_XSP16, literal(-1)))
        CFI (cfiCond135) CFA_SP SP+0
        CFI (cfiCond135) CFA_XSP16 add(XSP16, 25)
        CFI Block cfiCond136 Using cfiCommon0
        CFI (cfiCond136) NoFunction
        CFI (cfiCond136) Conditional ??CrossCallReturnLabel_25
        CFI (cfiCond136) R6 load(1, XDATA, add(CFA_XSP16, literal(-16)))
        CFI (cfiCond136) VB load(1, XDATA, add(CFA_XSP16, literal(-15)))
        CFI (cfiCond136) V0 load(1, XDATA, add(CFA_XSP16, literal(-14)))
        CFI (cfiCond136) V1 load(1, XDATA, add(CFA_XSP16, literal(-13)))
        CFI (cfiCond136) V2 load(1, XDATA, add(CFA_XSP16, literal(-12)))
        CFI (cfiCond136) V3 load(1, XDATA, add(CFA_XSP16, literal(-11)))
        CFI (cfiCond136) V4 load(1, XDATA, add(CFA_XSP16, literal(-10)))
        CFI (cfiCond136) V5 load(1, XDATA, add(CFA_XSP16, literal(-9)))
        CFI (cfiCond136) V6 load(1, XDATA, add(CFA_XSP16, literal(-8)))
        CFI (cfiCond136) V7 load(1, XDATA, add(CFA_XSP16, literal(-7)))
        CFI (cfiCond136) R7 load(1, XDATA, add(CFA_XSP16, literal(-6)))
        CFI (cfiCond136) ?RET_LOW load(1, XDATA, add(CFA_XSP16, literal(-5)))
        CFI (cfiCond136) ?RET_HIGH load(1, XDATA, add(CFA_XSP16, literal(-4)))
        CFI (cfiCond136) ?BRET_EXT load(1, XDATA, add(CFA_XSP16, literal(-3)))
        CFI (cfiCond136) DPL0 load(1, XDATA, add(CFA_XSP16, literal(-2)))
        CFI (cfiCond136) DPH0 load(1, XDATA, add(CFA_XSP16, literal(-1)))
        CFI (cfiCond136) CFA_SP SP+-1
        CFI (cfiCond136) CFA_XSP16 add(XSP16, 33)
        CFI Block cfiPicker137 Using cfiCommon1
        CFI (cfiPicker137) NoFunction
        CFI (cfiPicker137) Picker
        LCALL   ?Subroutine40 & 0xFFFF
??CrossCallReturnLabel_44:
        INC     DPTR
        INC     DPTR
        RET
        CFI EndBlock cfiCond134
        CFI EndBlock cfiCond135
        CFI EndBlock cfiCond136
        CFI EndBlock cfiPicker137

        RSEG BANKED_CODE:CODE:NOROOT(0)
?Subroutine40:
        CFI Block cfiCond138 Using cfiCommon0
        CFI NoFunction
        CFI Conditional ??CrossCallReturnLabel_43
        CFI R6 load(1, XDATA, add(CFA_XSP16, literal(-13)))
        CFI VB load(1, XDATA, add(CFA_XSP16, literal(-12)))
        CFI V0 load(1, XDATA, add(CFA_XSP16, literal(-11)))
        CFI V1 load(1, XDATA, add(CFA_XSP16, literal(-10)))
        CFI V2 load(1, XDATA, add(CFA_XSP16, literal(-9)))
        CFI V3 load(1, XDATA, add(CFA_XSP16, literal(-8)))
        CFI V4 load(1, XDATA, add(CFA_XSP16, literal(-7)))
        CFI R7 load(1, XDATA, add(CFA_XSP16, literal(-6)))
        CFI ?RET_LOW load(1, XDATA, add(CFA_XSP16, literal(-5)))
        CFI ?RET_HIGH load(1, XDATA, add(CFA_XSP16, literal(-4)))
        CFI ?BRET_EXT load(1, XDATA, add(CFA_XSP16, literal(-3)))
        CFI DPL0 load(1, XDATA, add(CFA_XSP16, literal(-2)))
        CFI DPH0 load(1, XDATA, add(CFA_XSP16, literal(-1)))
        CFI CFA_SP SP+0
        CFI CFA_XSP16 add(XSP16, 25)
        CFI Block cfiCond139 Using cfiCommon0
        CFI (cfiCond139) NoFunction
        CFI (cfiCond139) Conditional ??CrossCallReturnLabel_44, ??CrossCallReturnLabel_23
        CFI (cfiCond139) R6 load(1, XDATA, add(CFA_XSP16, literal(-13)))
        CFI (cfiCond139) VB load(1, XDATA, add(CFA_XSP16, literal(-12)))
        CFI (cfiCond139) V0 load(1, XDATA, add(CFA_XSP16, literal(-11)))
        CFI (cfiCond139) V1 load(1, XDATA, add(CFA_XSP16, literal(-10)))
        CFI (cfiCond139) V2 load(1, XDATA, add(CFA_XSP16, literal(-9)))
        CFI (cfiCond139) V3 load(1, XDATA, add(CFA_XSP16, literal(-8)))
        CFI (cfiCond139) V4 load(1, XDATA, add(CFA_XSP16, literal(-7)))
        CFI (cfiCond139) R7 load(1, XDATA, add(CFA_XSP16, literal(-6)))
        CFI (cfiCond139) ?RET_LOW load(1, XDATA, add(CFA_XSP16, literal(-5)))
        CFI (cfiCond139) ?RET_HIGH load(1, XDATA, add(CFA_XSP16, literal(-4)))
        CFI (cfiCond139) ?BRET_EXT load(1, XDATA, add(CFA_XSP16, literal(-3)))
        CFI (cfiCond139) DPL0 load(1, XDATA, add(CFA_XSP16, literal(-2)))
        CFI (cfiCond139) DPH0 load(1, XDATA, add(CFA_XSP16, literal(-1)))
        CFI (cfiCond139) CFA_SP SP+0
        CFI (cfiCond139) CFA_XSP16 add(XSP16, 25)
        CFI Block cfiCond140 Using cfiCommon0
        CFI (cfiCond140) NoFunction
        CFI (cfiCond140) Conditional ??CrossCallReturnLabel_44, ??CrossCallReturnLabel_24
        CFI (cfiCond140) R6 load(1, XDATA, add(CFA_XSP16, literal(-13)))
        CFI (cfiCond140) VB load(1, XDATA, add(CFA_XSP16, literal(-12)))
        CFI (cfiCond140) V0 load(1, XDATA, add(CFA_XSP16, literal(-11)))
        CFI (cfiCond140) V1 load(1, XDATA, add(CFA_XSP16, literal(-10)))
        CFI (cfiCond140) V2 load(1, XDATA, add(CFA_XSP16, literal(-9)))
        CFI (cfiCond140) V3 load(1, XDATA, add(CFA_XSP16, literal(-8)))
        CFI (cfiCond140) V4 load(1, XDATA, add(CFA_XSP16, literal(-7)))
        CFI (cfiCond140) R7 load(1, XDATA, add(CFA_XSP16, literal(-6)))
        CFI (cfiCond140) ?RET_LOW load(1, XDATA, add(CFA_XSP16, literal(-5)))
        CFI (cfiCond140) ?RET_HIGH load(1, XDATA, add(CFA_XSP16, literal(-4)))
        CFI (cfiCond140) ?BRET_EXT load(1, XDATA, add(CFA_XSP16, literal(-3)))
        CFI (cfiCond140) DPL0 load(1, XDATA, add(CFA_XSP16, literal(-2)))
        CFI (cfiCond140) DPH0 load(1, XDATA, add(CFA_XSP16, literal(-1)))
        CFI (cfiCond140) CFA_SP SP+0
        CFI (cfiCond140) CFA_XSP16 add(XSP16, 25)
        CFI Block cfiCond141 Using cfiCommon0
        CFI (cfiCond141) NoFunction
        CFI (cfiCond141) Conditional ??CrossCallReturnLabel_44, ??CrossCallReturnLabel_25
        CFI (cfiCond141) R6 load(1, XDATA, add(CFA_XSP16, literal(-16)))
        CFI (cfiCond141) VB load(1, XDATA, add(CFA_XSP16, literal(-15)))
        CFI (cfiCond141) V0 load(1, XDATA, add(CFA_XSP16, literal(-14)))
        CFI (cfiCond141) V1 load(1, XDATA, add(CFA_XSP16, literal(-13)))
        CFI (cfiCond141) V2 load(1, XDATA, add(CFA_XSP16, literal(-12)))
        CFI (cfiCond141) V3 load(1, XDATA, add(CFA_XSP16, literal(-11)))
        CFI (cfiCond141) V4 load(1, XDATA, add(CFA_XSP16, literal(-10)))
        CFI (cfiCond141) V5 load(1, XDATA, add(CFA_XSP16, literal(-9)))
        CFI (cfiCond141) V6 load(1, XDATA, add(CFA_XSP16, literal(-8)))
        CFI (cfiCond141) V7 load(1, XDATA, add(CFA_XSP16, literal(-7)))
        CFI (cfiCond141) R7 load(1, XDATA, add(CFA_XSP16, literal(-6)))
        CFI (cfiCond141) ?RET_LOW load(1, XDATA, add(CFA_XSP16, literal(-5)))
        CFI (cfiCond141) ?RET_HIGH load(1, XDATA, add(CFA_XSP16, literal(-4)))
        CFI (cfiCond141) ?BRET_EXT load(1, XDATA, add(CFA_XSP16, literal(-3)))
        CFI (cfiCond141) DPL0 load(1, XDATA, add(CFA_XSP16, literal(-2)))
        CFI (cfiCond141) DPH0 load(1, XDATA, add(CFA_XSP16, literal(-1)))
        CFI (cfiCond141) CFA_SP SP+-1
        CFI (cfiCond141) CFA_XSP16 add(XSP16, 33)
        CFI Block cfiPicker142 Using cfiCommon1
        CFI (cfiPicker142) NoFunction
        CFI (cfiPicker142) Picker
        MOV     A,DPL
        ADD     A,R0
        MOV     DPL,A
        MOV     A,DPH
        ADDC    A,R1
        MOV     DPH,A
        RET
        CFI EndBlock cfiCond138
        CFI EndBlock cfiCond139
        CFI EndBlock cfiCond140
        CFI EndBlock cfiCond141
        CFI EndBlock cfiPicker142

        RSEG BANKED_CODE:CODE:NOROOT(0)
?Subroutine17:
        CFI Block cfiCond143 Using cfiCommon0
        CFI NoFunction
        CFI Conditional ??CrossCallReturnLabel_17
        CFI R6 load(1, XDATA, add(CFA_XSP16, literal(-14)))
        CFI VB load(1, XDATA, add(CFA_XSP16, literal(-13)))
        CFI V0 load(1, XDATA, add(CFA_XSP16, literal(-12)))
        CFI V1 load(1, XDATA, add(CFA_XSP16, literal(-11)))
        CFI V2 load(1, XDATA, add(CFA_XSP16, literal(-10)))
        CFI V3 load(1, XDATA, add(CFA_XSP16, literal(-9)))
        CFI V4 load(1, XDATA, add(CFA_XSP16, literal(-8)))
        CFI V5 load(1, XDATA, add(CFA_XSP16, literal(-7)))
        CFI R7 load(1, XDATA, add(CFA_XSP16, literal(-6)))
        CFI ?RET_LOW load(1, XDATA, add(CFA_XSP16, literal(-5)))
        CFI ?RET_HIGH load(1, XDATA, add(CFA_XSP16, literal(-4)))
        CFI ?BRET_EXT load(1, XDATA, add(CFA_XSP16, literal(-3)))
        CFI DPL0 load(1, XDATA, add(CFA_XSP16, literal(-2)))
        CFI DPH0 load(1, XDATA, add(CFA_XSP16, literal(-1)))
        CFI CFA_SP SP+0
        CFI CFA_XSP16 add(XSP16, 23)
        CFI Block cfiCond144 Using cfiCommon0
        CFI (cfiCond144) NoFunction
        CFI (cfiCond144) Conditional ??CrossCallReturnLabel_18
        CFI (cfiCond144) R6 load(1, XDATA, add(CFA_XSP16, literal(-16)))
        CFI (cfiCond144) VB load(1, XDATA, add(CFA_XSP16, literal(-15)))
        CFI (cfiCond144) V0 load(1, XDATA, add(CFA_XSP16, literal(-14)))
        CFI (cfiCond144) V1 load(1, XDATA, add(CFA_XSP16, literal(-13)))
        CFI (cfiCond144) V2 load(1, XDATA, add(CFA_XSP16, literal(-12)))
        CFI (cfiCond144) V3 load(1, XDATA, add(CFA_XSP16, literal(-11)))
        CFI (cfiCond144) V4 load(1, XDATA, add(CFA_XSP16, literal(-10)))
        CFI (cfiCond144) V5 load(1, XDATA, add(CFA_XSP16, literal(-9)))
        CFI (cfiCond144) V6 load(1, XDATA, add(CFA_XSP16, literal(-8)))
        CFI (cfiCond144) V7 load(1, XDATA, add(CFA_XSP16, literal(-7)))
        CFI (cfiCond144) R7 load(1, XDATA, add(CFA_XSP16, literal(-6)))
        CFI (cfiCond144) ?RET_LOW load(1, XDATA, add(CFA_XSP16, literal(-5)))
        CFI (cfiCond144) ?RET_HIGH load(1, XDATA, add(CFA_XSP16, literal(-4)))
        CFI (cfiCond144) ?BRET_EXT load(1, XDATA, add(CFA_XSP16, literal(-3)))
        CFI (cfiCond144) DPL0 load(1, XDATA, add(CFA_XSP16, literal(-2)))
        CFI (cfiCond144) DPH0 load(1, XDATA, add(CFA_XSP16, literal(-1)))
        CFI (cfiCond144) CFA_SP SP+0
        CFI (cfiCond144) CFA_XSP16 add(XSP16, 33)
        CFI Block cfiPicker145 Using cfiCommon1
        CFI (cfiPicker145) NoFunction
        CFI (cfiPicker145) Picker
        LCALL   ?Subroutine37 & 0xFFFF
??CrossCallReturnLabel_64:
        INC     DPTR
        RET
        CFI EndBlock cfiCond143
        CFI EndBlock cfiCond144
        CFI EndBlock cfiPicker145

        RSEG BANKED_CODE:CODE:NOROOT(0)
?Subroutine37:
        CFI Block cfiCond146 Using cfiCommon0
        CFI NoFunction
        CFI Conditional ??CrossCallReturnLabel_65, ??CrossCallReturnLabel_59
        CFI DPL0 Frame(CFA_SP, 4)
        CFI DPH0 Frame(CFA_SP, 5)
        CFI CFA_SP SP+-5
        CFI Block cfiCond147 Using cfiCommon0
        CFI (cfiCond147) NoFunction
        CFI (cfiCond147) Conditional ??CrossCallReturnLabel_65, ??CrossCallReturnLabel_60
        CFI (cfiCond147) DPL0 Frame(CFA_SP, 4)
        CFI (cfiCond147) DPH0 Frame(CFA_SP, 5)
        CFI (cfiCond147) CFA_SP SP+-5
        CFI Block cfiCond148 Using cfiCommon0
        CFI (cfiCond148) NoFunction
        CFI (cfiCond148) Conditional ??CrossCallReturnLabel_65, ??CrossCallReturnLabel_61
        CFI (cfiCond148) DPL0 Frame(CFA_SP, 4)
        CFI (cfiCond148) DPH0 Frame(CFA_SP, 5)
        CFI (cfiCond148) CFA_SP SP+-5
        CFI Block cfiCond149 Using cfiCommon0
        CFI (cfiCond149) NoFunction
        CFI (cfiCond149) Conditional ??CrossCallReturnLabel_65, ??CrossCallReturnLabel_62
        CFI (cfiCond149) DPL0 Frame(CFA_SP, 4)
        CFI (cfiCond149) DPH0 Frame(CFA_SP, 5)
        CFI (cfiCond149) CFA_SP SP+-5
        CFI Block cfiCond150 Using cfiCommon0
        CFI (cfiCond150) NoFunction
        CFI (cfiCond150) Conditional ??CrossCallReturnLabel_65, ??CrossCallReturnLabel_63
        CFI (cfiCond150) DPL0 Frame(CFA_SP, 4)
        CFI (cfiCond150) DPH0 Frame(CFA_SP, 5)
        CFI (cfiCond150) CFA_SP SP+-5
        CFI Block cfiCond151 Using cfiCommon0
        CFI (cfiCond151) NoFunction
        CFI (cfiCond151) Conditional ??CrossCallReturnLabel_65, ??CrossCallReturnLabel_58
        CFI (cfiCond151) R6 load(1, XDATA, add(CFA_XSP16, literal(-14)))
        CFI (cfiCond151) VB load(1, XDATA, add(CFA_XSP16, literal(-13)))
        CFI (cfiCond151) V0 load(1, XDATA, add(CFA_XSP16, literal(-12)))
        CFI (cfiCond151) V1 load(1, XDATA, add(CFA_XSP16, literal(-11)))
        CFI (cfiCond151) V2 load(1, XDATA, add(CFA_XSP16, literal(-10)))
        CFI (cfiCond151) V3 load(1, XDATA, add(CFA_XSP16, literal(-9)))
        CFI (cfiCond151) V4 load(1, XDATA, add(CFA_XSP16, literal(-8)))
        CFI (cfiCond151) V5 load(1, XDATA, add(CFA_XSP16, literal(-7)))
        CFI (cfiCond151) R7 load(1, XDATA, add(CFA_XSP16, literal(-6)))
        CFI (cfiCond151) ?RET_LOW load(1, XDATA, add(CFA_XSP16, literal(-5)))
        CFI (cfiCond151) ?RET_HIGH load(1, XDATA, add(CFA_XSP16, literal(-4)))
        CFI (cfiCond151) ?BRET_EXT load(1, XDATA, add(CFA_XSP16, literal(-3)))
        CFI (cfiCond151) DPL0 load(1, XDATA, add(CFA_XSP16, literal(-2)))
        CFI (cfiCond151) DPH0 load(1, XDATA, add(CFA_XSP16, literal(-1)))
        CFI (cfiCond151) CFA_SP SP+0
        CFI (cfiCond151) CFA_XSP16 add(XSP16, 19)
        CFI Block cfiCond152 Using cfiCommon0
        CFI (cfiCond152) NoFunction
        CFI (cfiCond152) Conditional ??CrossCallReturnLabel_64, ??CrossCallReturnLabel_17
        CFI (cfiCond152) R6 load(1, XDATA, add(CFA_XSP16, literal(-14)))
        CFI (cfiCond152) VB load(1, XDATA, add(CFA_XSP16, literal(-13)))
        CFI (cfiCond152) V0 load(1, XDATA, add(CFA_XSP16, literal(-12)))
        CFI (cfiCond152) V1 load(1, XDATA, add(CFA_XSP16, literal(-11)))
        CFI (cfiCond152) V2 load(1, XDATA, add(CFA_XSP16, literal(-10)))
        CFI (cfiCond152) V3 load(1, XDATA, add(CFA_XSP16, literal(-9)))
        CFI (cfiCond152) V4 load(1, XDATA, add(CFA_XSP16, literal(-8)))
        CFI (cfiCond152) V5 load(1, XDATA, add(CFA_XSP16, literal(-7)))
        CFI (cfiCond152) R7 load(1, XDATA, add(CFA_XSP16, literal(-6)))
        CFI (cfiCond152) ?RET_LOW load(1, XDATA, add(CFA_XSP16, literal(-5)))
        CFI (cfiCond152) ?RET_HIGH load(1, XDATA, add(CFA_XSP16, literal(-4)))
        CFI (cfiCond152) ?BRET_EXT load(1, XDATA, add(CFA_XSP16, literal(-3)))
        CFI (cfiCond152) DPL0 load(1, XDATA, add(CFA_XSP16, literal(-2)))
        CFI (cfiCond152) DPH0 load(1, XDATA, add(CFA_XSP16, literal(-1)))
        CFI (cfiCond152) CFA_SP SP+0
        CFI (cfiCond152) CFA_XSP16 add(XSP16, 23)
        CFI Block cfiCond153 Using cfiCommon0
        CFI (cfiCond153) NoFunction
        CFI (cfiCond153) Conditional ??CrossCallReturnLabel_64, ??CrossCallReturnLabel_18
        CFI (cfiCond153) R6 load(1, XDATA, add(CFA_XSP16, literal(-16)))
        CFI (cfiCond153) VB load(1, XDATA, add(CFA_XSP16, literal(-15)))
        CFI (cfiCond153) V0 load(1, XDATA, add(CFA_XSP16, literal(-14)))
        CFI (cfiCond153) V1 load(1, XDATA, add(CFA_XSP16, literal(-13)))
        CFI (cfiCond153) V2 load(1, XDATA, add(CFA_XSP16, literal(-12)))
        CFI (cfiCond153) V3 load(1, XDATA, add(CFA_XSP16, literal(-11)))
        CFI (cfiCond153) V4 load(1, XDATA, add(CFA_XSP16, literal(-10)))
        CFI (cfiCond153) V5 load(1, XDATA, add(CFA_XSP16, literal(-9)))
        CFI (cfiCond153) V6 load(1, XDATA, add(CFA_XSP16, literal(-8)))
        CFI (cfiCond153) V7 load(1, XDATA, add(CFA_XSP16, literal(-7)))
        CFI (cfiCond153) R7 load(1, XDATA, add(CFA_XSP16, literal(-6)))
        CFI (cfiCond153) ?RET_LOW load(1, XDATA, add(CFA_XSP16, literal(-5)))
        CFI (cfiCond153) ?RET_HIGH load(1, XDATA, add(CFA_XSP16, literal(-4)))
        CFI (cfiCond153) ?BRET_EXT load(1, XDATA, add(CFA_XSP16, literal(-3)))
        CFI (cfiCond153) DPL0 load(1, XDATA, add(CFA_XSP16, literal(-2)))
        CFI (cfiCond153) DPH0 load(1, XDATA, add(CFA_XSP16, literal(-1)))
        CFI (cfiCond153) CFA_SP SP+0
        CFI (cfiCond153) CFA_XSP16 add(XSP16, 33)
        CFI Block cfiPicker154 Using cfiCommon1
        CFI (cfiPicker154) NoFunction
        CFI (cfiPicker154) Picker
        MOVX    A,@DPTR
        MOV     R0,A
        INC     DPTR
        MOVX    A,@DPTR
        MOV     DPH,A
        MOV     DPL,R0
        RET
        CFI EndBlock cfiCond146
        CFI EndBlock cfiCond147
        CFI EndBlock cfiCond148
        CFI EndBlock cfiCond149
        CFI EndBlock cfiCond150
        CFI EndBlock cfiCond151
        CFI EndBlock cfiCond152
        CFI EndBlock cfiCond153
        CFI EndBlock cfiPicker154

        RSEG BANKED_CODE:CODE:NOROOT(0)
?Subroutine11:
        CFI Block cfiCond155 Using cfiCommon0
        CFI NoFunction
        CFI Conditional ??CrossCallReturnLabel_9
        CFI R6 load(1, XDATA, add(CFA_XSP16, literal(-16)))
        CFI VB load(1, XDATA, add(CFA_XSP16, literal(-15)))
        CFI V0 load(1, XDATA, add(CFA_XSP16, literal(-14)))
        CFI V1 load(1, XDATA, add(CFA_XSP16, literal(-13)))
        CFI V2 load(1, XDATA, add(CFA_XSP16, literal(-12)))
        CFI V3 load(1, XDATA, add(CFA_XSP16, literal(-11)))
        CFI V4 load(1, XDATA, add(CFA_XSP16, literal(-10)))
        CFI V5 load(1, XDATA, add(CFA_XSP16, literal(-9)))
        CFI V6 load(1, XDATA, add(CFA_XSP16, literal(-8)))
        CFI V7 load(1, XDATA, add(CFA_XSP16, literal(-7)))
        CFI R7 load(1, XDATA, add(CFA_XSP16, literal(-6)))
        CFI ?RET_LOW load(1, XDATA, add(CFA_XSP16, literal(-5)))
        CFI ?RET_HIGH load(1, XDATA, add(CFA_XSP16, literal(-4)))
        CFI ?BRET_EXT load(1, XDATA, add(CFA_XSP16, literal(-3)))
        CFI DPL0 load(1, XDATA, add(CFA_XSP16, literal(-2)))
        CFI DPH0 load(1, XDATA, add(CFA_XSP16, literal(-1)))
        CFI CFA_SP SP+0
        CFI CFA_XSP16 add(XSP16, 33)
        CFI Block cfiCond156 Using cfiCommon0
        CFI (cfiCond156) NoFunction
        CFI (cfiCond156) Conditional ??CrossCallReturnLabel_10
        CFI (cfiCond156) R6 load(1, XDATA, add(CFA_XSP16, literal(-16)))
        CFI (cfiCond156) VB load(1, XDATA, add(CFA_XSP16, literal(-15)))
        CFI (cfiCond156) V0 load(1, XDATA, add(CFA_XSP16, literal(-14)))
        CFI (cfiCond156) V1 load(1, XDATA, add(CFA_XSP16, literal(-13)))
        CFI (cfiCond156) V2 load(1, XDATA, add(CFA_XSP16, literal(-12)))
        CFI (cfiCond156) V3 load(1, XDATA, add(CFA_XSP16, literal(-11)))
        CFI (cfiCond156) V4 load(1, XDATA, add(CFA_XSP16, literal(-10)))
        CFI (cfiCond156) V5 load(1, XDATA, add(CFA_XSP16, literal(-9)))
        CFI (cfiCond156) V6 load(1, XDATA, add(CFA_XSP16, literal(-8)))
        CFI (cfiCond156) V7 load(1, XDATA, add(CFA_XSP16, literal(-7)))
        CFI (cfiCond156) R7 load(1, XDATA, add(CFA_XSP16, literal(-6)))
        CFI (cfiCond156) ?RET_LOW load(1, XDATA, add(CFA_XSP16, literal(-5)))
        CFI (cfiCond156) ?RET_HIGH load(1, XDATA, add(CFA_XSP16, literal(-4)))
        CFI (cfiCond156) ?BRET_EXT load(1, XDATA, add(CFA_XSP16, literal(-3)))
        CFI (cfiCond156) DPL0 load(1, XDATA, add(CFA_XSP16, literal(-2)))
        CFI (cfiCond156) DPH0 load(1, XDATA, add(CFA_XSP16, literal(-1)))
        CFI (cfiCond156) CFA_SP SP+0
        CFI (cfiCond156) CFA_XSP16 add(XSP16, 33)
        CFI Block cfiPicker157 Using cfiCommon1
        CFI (cfiPicker157) NoFunction
        CFI (cfiPicker157) Picker
        INC     DPTR
        INC     DPTR
        INC     DPTR
        INC     DPTR
        INC     DPTR
        INC     DPTR
        INC     DPTR
        MOVX    A,@DPTR
        ADD     A,R0
        MOV     R3,A
        INC     DPTR
        MOVX    A,@DPTR
        ADDC    A,R1
        MOV     DPL,R3
        LCALL   ??Subroutine45_0 & 0xFFFF
??CrossCallReturnLabel_52:
        MOV     DPL,?V0 + 0
        MOV     DPH,?V0 + 1
        INC     DPTR
        INC     DPTR
        MOVX    A,@DPTR
        XRL     A,R0
        RET
        CFI EndBlock cfiCond155
        CFI EndBlock cfiCond156
        CFI EndBlock cfiPicker157
//  399 /***************************************************************************************
//  400 +DISCOVER C Discover HA Devices On The HAN
//  401 Prompt: 
//  402     DEV:<NodeID>,<EndPoint> ,<enable/disable>
//  403     Carry out the ZigBee Service Discovery to 
//  404     find ZigBee HA devices that support the given match criteria.
//  405 
//  406 ****************************************************************************************/

        RSEG BANKED_CODE:CODE:NOROOT(0)
//  407 void AT_AF_Cmd_HA_DISC_rsp(afIncomingMSGPacket_t *pkt ){
AT_AF_Cmd_HA_DISC_rsp:
        CFI Block cfiBlock158 Using cfiCommon0
        CFI Function AT_AF_Cmd_HA_DISC_rsp
        CODE
        FUNCALL AT_AF_Cmd_HA_DISC_rsp, AT_HalUARTWrite
        LOCFRAME ISTACK, 0, STACK
        LOCFRAME PSTACK, 0, STACK
        LOCFRAME XSTACK, 16, STACK
        LOCFRAME IOVERLAY, 0, STATIC
        LOCFRAME DOVERLAY, 0, STATIC
        ARGFRAME ISTACK, 0, STACK
        ARGFRAME PSTACK, 0, STACK
        ARGFRAME XSTACK, 16, STACK
        ARGFRAME IOVERLAY, 0, STATIC
        ARGFRAME DOVERLAY, 0, STATIC
        FUNCALL AT_AF_Cmd_HA_DISC_rsp, printf
        LOCFRAME ISTACK, 0, STACK
        LOCFRAME PSTACK, 0, STACK
        LOCFRAME XSTACK, 16, STACK
        LOCFRAME IOVERLAY, 0, STATIC
        LOCFRAME DOVERLAY, 0, STATIC
        ARGFRAME ISTACK, 0, STACK
        ARGFRAME PSTACK, 0, STACK
        ARGFRAME XSTACK, 16, STACK
        ARGFRAME IOVERLAY, 0, STATIC
        ARGFRAME DOVERLAY, 0, STATIC
        FUNCALL AT_AF_Cmd_HA_DISC_rsp, AT_HalUARTWrite
        LOCFRAME ISTACK, 0, STACK
        LOCFRAME PSTACK, 0, STACK
        LOCFRAME XSTACK, 16, STACK
        LOCFRAME IOVERLAY, 0, STATIC
        LOCFRAME DOVERLAY, 0, STATIC
        ARGFRAME ISTACK, 0, STACK
        ARGFRAME PSTACK, 0, STACK
        ARGFRAME XSTACK, 16, STACK
        ARGFRAME IOVERLAY, 0, STATIC
        ARGFRAME DOVERLAY, 0, STATIC
        FUNCALL AT_AF_Cmd_HA_DISC_rsp, printf
        LOCFRAME ISTACK, 0, STACK
        LOCFRAME PSTACK, 0, STACK
        LOCFRAME XSTACK, 18, STACK
        LOCFRAME IOVERLAY, 0, STATIC
        LOCFRAME DOVERLAY, 0, STATIC
        ARGFRAME ISTACK, 0, STACK
        ARGFRAME PSTACK, 0, STACK
        ARGFRAME XSTACK, 18, STACK
        ARGFRAME IOVERLAY, 0, STATIC
        ARGFRAME DOVERLAY, 0, STATIC
        FUNCALL AT_AF_Cmd_HA_DISC_rsp, printf
        LOCFRAME ISTACK, 0, STACK
        LOCFRAME PSTACK, 0, STACK
        LOCFRAME XSTACK, 16, STACK
        LOCFRAME IOVERLAY, 0, STATIC
        LOCFRAME DOVERLAY, 0, STATIC
        ARGFRAME ISTACK, 0, STACK
        ARGFRAME PSTACK, 0, STACK
        ARGFRAME XSTACK, 16, STACK
        ARGFRAME IOVERLAY, 0, STATIC
        ARGFRAME DOVERLAY, 0, STATIC
        FUNCALL AT_AF_Cmd_HA_DISC_rsp, printf
        LOCFRAME ISTACK, 0, STACK
        LOCFRAME PSTACK, 0, STACK
        LOCFRAME XSTACK, 18, STACK
        LOCFRAME IOVERLAY, 0, STATIC
        LOCFRAME DOVERLAY, 0, STATIC
        ARGFRAME ISTACK, 0, STACK
        ARGFRAME PSTACK, 0, STACK
        ARGFRAME XSTACK, 18, STACK
        ARGFRAME IOVERLAY, 0, STATIC
        ARGFRAME DOVERLAY, 0, STATIC
        FUNCALL AT_AF_Cmd_HA_DISC_rsp, printf
        LOCFRAME ISTACK, 0, STACK
        LOCFRAME PSTACK, 0, STACK
        LOCFRAME XSTACK, 16, STACK
        LOCFRAME IOVERLAY, 0, STATIC
        LOCFRAME DOVERLAY, 0, STATIC
        ARGFRAME ISTACK, 0, STACK
        ARGFRAME PSTACK, 0, STACK
        ARGFRAME XSTACK, 16, STACK
        ARGFRAME IOVERLAY, 0, STATIC
        ARGFRAME DOVERLAY, 0, STATIC
        FUNCALL AT_AF_Cmd_HA_DISC_rsp, AT_HalUARTWrite
        LOCFRAME ISTACK, 0, STACK
        LOCFRAME PSTACK, 0, STACK
        LOCFRAME XSTACK, 16, STACK
        LOCFRAME IOVERLAY, 0, STATIC
        LOCFRAME DOVERLAY, 0, STATIC
        ARGFRAME ISTACK, 0, STACK
        ARGFRAME PSTACK, 0, STACK
        ARGFRAME XSTACK, 16, STACK
        ARGFRAME IOVERLAY, 0, STATIC
        ARGFRAME DOVERLAY, 0, STATIC
        MOV     A,#-0x10
        LCALL   ?BANKED_ENTER_XDATA
        CFI DPH0 load(1, XDATA, add(CFA_XSP16, literal(-1)))
        CFI DPL0 load(1, XDATA, add(CFA_XSP16, literal(-2)))
        CFI ?BRET_EXT load(1, XDATA, add(CFA_XSP16, literal(-3)))
        CFI ?RET_HIGH load(1, XDATA, add(CFA_XSP16, literal(-4)))
        CFI ?RET_LOW load(1, XDATA, add(CFA_XSP16, literal(-5)))
        CFI R7 load(1, XDATA, add(CFA_XSP16, literal(-6)))
        CFI V7 load(1, XDATA, add(CFA_XSP16, literal(-7)))
        CFI V6 load(1, XDATA, add(CFA_XSP16, literal(-8)))
        CFI V5 load(1, XDATA, add(CFA_XSP16, literal(-9)))
        CFI V4 load(1, XDATA, add(CFA_XSP16, literal(-10)))
        CFI V3 load(1, XDATA, add(CFA_XSP16, literal(-11)))
        CFI V2 load(1, XDATA, add(CFA_XSP16, literal(-12)))
        CFI V1 load(1, XDATA, add(CFA_XSP16, literal(-13)))
        CFI V0 load(1, XDATA, add(CFA_XSP16, literal(-14)))
        CFI VB load(1, XDATA, add(CFA_XSP16, literal(-15)))
        CFI R6 load(1, XDATA, add(CFA_XSP16, literal(-16)))
        CFI CFA_SP SP+0
        CFI CFA_XSP16 add(XSP16, 16)
        ; Saved register size: 16
        ; Auto size: 0
        MOV     A,R2
        MOV     R6,A
        MOV     A,R3
        MOV     R7,A
//  408   AT_AF_Cmd_HA_DISC_rsp_t *rsp = (AT_AF_Cmd_HA_DISC_rsp_t *)pkt->cmd.Data;
        LCALL   ?Subroutine13 & 0xFFFF
//  409   AT_RESP_START();
??CrossCallReturnLabel_75:
        ; Setup parameters for call to function AT_HalUARTWrite
        MOV     R4,#0x2
        MOV     R5,#0x0
        MOV     R2,#`?<Constant "\\r\\n">` & 0xff
        MOV     R3,#(`?<Constant "\\r\\n">` >> 8) & 0xff
        MOV     R1,#0x0
        LCALL   ??AT_HalUARTWrite?relay
//  410   uint8 i;
//  411   for(i=0;i<rsp->hdr.numItem;i++){
        MOV     ?V0 + 4,#0x0
        SJMP    ??AT_AF_Cmd_HA_DISC_rsp_0
//  412     if(pkt->srcAddr.addrMode==(afAddrMode_t)Addr16Bit){
//  413       printf("DEV:%04X,",pkt->srcAddr.addr.shortAddr);
//  414     }else {
//  415       printf("UNKNOWN");
//  416     }
//  417     printf("%02X,",rsp->item[i].ep);       
//  418     if(rsp->item[i].status==AT_AF_enable){
//  419       printf("ENABLED");
//  420     }
//  421     else printf("DISABLED");
??AT_AF_Cmd_HA_DISC_rsp_1:
        ; Setup parameters for call to function printf
        MOV     R2,#`?<Constant "DISABLED">` & 0xff
        MOV     R3,#(`?<Constant "DISABLED">` >> 8) & 0xff
??AT_AF_Cmd_HA_DISC_rsp_2:
        LCALL   ?Subroutine33 & 0xFFFF
//  422     AT_NEXT_LINE();
??CrossCallReturnLabel_41:
        INC     ?V0 + 4
??AT_AF_Cmd_HA_DISC_rsp_0:
        MOV     DPL,?V0 + 0
        MOV     DPH,?V0 + 1
        INC     DPTR
        MOVX    A,@DPTR
        MOV     R0,A
        MOV     A,?V0 + 4
        CLR     C
        SUBB    A,R0
        JNC     ??AT_AF_Cmd_HA_DISC_rsp_3
        LCALL   ??Subroutine43_0 & 0xFFFF
??CrossCallReturnLabel_50:
        JNZ     ??AT_AF_Cmd_HA_DISC_rsp_4
        ; Setup parameters for call to function printf
        MOV     DPL,R6
        MOV     DPH,R7
        INC     DPTR
        INC     DPTR
        INC     DPTR
        INC     DPTR
        INC     DPTR
        INC     DPTR
        LCALL   ?PUSH_XSTACK8_X_TWO
        CFI CFA_XSP16 add(XSP16, 18)
        MOV     R2,#`?<Constant "DEV:%04X,">` & 0xff
        MOV     R3,#(`?<Constant "DEV:%04X,">` >> 8) & 0xff
        LCALL   ??Subroutine55_0 & 0xFFFF
??CrossCallReturnLabel_85:
        LCALL   ?DEALLOC_XSTACK8
        CFI CFA_XSP16 add(XSP16, 16)
        SJMP    ??AT_AF_Cmd_HA_DISC_rsp_5
??AT_AF_Cmd_HA_DISC_rsp_4:
        ; Setup parameters for call to function printf
        MOV     R2,#`?<Constant "UNKNOWN">` & 0xff
        MOV     R3,#(`?<Constant "UNKNOWN">` >> 8) & 0xff
        LCALL   ??printf?relay
??AT_AF_Cmd_HA_DISC_rsp_5:
        MOV     A,?V0 + 4
        CLR     C
        RLC     A
        MOV     R0,A
        CLR     A
        RLC     A
        MOV     R1,A
        MOV     A,?V0 + 0
        ADD     A,R0
        MOV     R0,A
        MOV     A,?V0 + 1
        ADDC    A,R1
        MOV     R1,A
        MOV     ?V0 + 2,R0
        MOV     ?V0 + 3,R1
        ; Setup parameters for call to function printf
        MOV     DPL,R0
        MOV     DPH,A
        INC     DPTR
        INC     DPTR
        MOVX    A,@DPTR
        MOV     ?V0 + 6,A
        MOV     ?V0 + 7,#0x0
        MOV     R0,#?V0 + 6
        LCALL   ?PUSH_XSTACK_I_TWO
        CFI CFA_XSP16 add(XSP16, 18)
        MOV     R2,#`?<Constant "%02X,">` & 0xff
        MOV     R3,#(`?<Constant "%02X,">` >> 8) & 0xff
        LCALL   ??Subroutine55_0 & 0xFFFF
??CrossCallReturnLabel_86:
        LCALL   ?DEALLOC_XSTACK8
        CFI CFA_XSP16 add(XSP16, 16)
        MOV     DPL,?V0 + 2
        MOV     DPH,?V0 + 3
        INC     DPTR
        INC     DPTR
        INC     DPTR
        MOVX    A,@DPTR
        XRL     A,#0x1
        JNZ     ??AT_AF_Cmd_HA_DISC_rsp_1
        ; Setup parameters for call to function printf
        MOV     R2,#`?<Constant "ENABLED">` & 0xff
        MOV     R3,#(`?<Constant "ENABLED">` >> 8) & 0xff
        SJMP    ??AT_AF_Cmd_HA_DISC_rsp_2
//  423   }
//  424   AT_RESP_START();
??AT_AF_Cmd_HA_DISC_rsp_3:
        ; Setup parameters for call to function AT_HalUARTWrite
        MOV     R4,#0x2
        MOV     R5,#0x0
        MOV     R2,#`?<Constant "\\r\\n">` & 0xff
        MOV     R3,#(`?<Constant "\\r\\n">` >> 8) & 0xff
        MOV     R1,#0x0
        LCALL   ??AT_HalUARTWrite?relay
//  425 }
        LJMP    ?Subroutine4 & 0xFFFF
        CFI EndBlock cfiBlock158

        RSEG BANKED_CODE:CODE:NOROOT(0)
?Subroutine13:
        CFI Block cfiCond159 Using cfiCommon0
        CFI NoFunction
        CFI Conditional ??CrossCallReturnLabel_75
        CFI R6 load(1, XDATA, add(CFA_XSP16, literal(-16)))
        CFI VB load(1, XDATA, add(CFA_XSP16, literal(-15)))
        CFI V0 load(1, XDATA, add(CFA_XSP16, literal(-14)))
        CFI V1 load(1, XDATA, add(CFA_XSP16, literal(-13)))
        CFI V2 load(1, XDATA, add(CFA_XSP16, literal(-12)))
        CFI V3 load(1, XDATA, add(CFA_XSP16, literal(-11)))
        CFI V4 load(1, XDATA, add(CFA_XSP16, literal(-10)))
        CFI V5 load(1, XDATA, add(CFA_XSP16, literal(-9)))
        CFI V6 load(1, XDATA, add(CFA_XSP16, literal(-8)))
        CFI V7 load(1, XDATA, add(CFA_XSP16, literal(-7)))
        CFI R7 load(1, XDATA, add(CFA_XSP16, literal(-6)))
        CFI ?RET_LOW load(1, XDATA, add(CFA_XSP16, literal(-5)))
        CFI ?RET_HIGH load(1, XDATA, add(CFA_XSP16, literal(-4)))
        CFI ?BRET_EXT load(1, XDATA, add(CFA_XSP16, literal(-3)))
        CFI DPL0 load(1, XDATA, add(CFA_XSP16, literal(-2)))
        CFI DPH0 load(1, XDATA, add(CFA_XSP16, literal(-1)))
        CFI CFA_SP SP+0
        CFI CFA_XSP16 add(XSP16, 16)
        CFI Block cfiCond160 Using cfiCommon0
        CFI (cfiCond160) NoFunction
        CFI (cfiCond160) Conditional ??CrossCallReturnLabel_76
        CFI (cfiCond160) R6 load(1, XDATA, add(CFA_XSP16, literal(-14)))
        CFI (cfiCond160) VB load(1, XDATA, add(CFA_XSP16, literal(-13)))
        CFI (cfiCond160) V0 load(1, XDATA, add(CFA_XSP16, literal(-12)))
        CFI (cfiCond160) V1 load(1, XDATA, add(CFA_XSP16, literal(-11)))
        CFI (cfiCond160) V2 load(1, XDATA, add(CFA_XSP16, literal(-10)))
        CFI (cfiCond160) V3 load(1, XDATA, add(CFA_XSP16, literal(-9)))
        CFI (cfiCond160) V4 load(1, XDATA, add(CFA_XSP16, literal(-8)))
        CFI (cfiCond160) V5 load(1, XDATA, add(CFA_XSP16, literal(-7)))
        CFI (cfiCond160) R7 load(1, XDATA, add(CFA_XSP16, literal(-6)))
        CFI (cfiCond160) ?RET_LOW load(1, XDATA, add(CFA_XSP16, literal(-5)))
        CFI (cfiCond160) ?RET_HIGH load(1, XDATA, add(CFA_XSP16, literal(-4)))
        CFI (cfiCond160) ?BRET_EXT load(1, XDATA, add(CFA_XSP16, literal(-3)))
        CFI (cfiCond160) DPL0 load(1, XDATA, add(CFA_XSP16, literal(-2)))
        CFI (cfiCond160) DPH0 load(1, XDATA, add(CFA_XSP16, literal(-1)))
        CFI (cfiCond160) CFA_SP SP+0
        CFI (cfiCond160) CFA_XSP16 add(XSP16, 19)
        CFI Block cfiPicker161 Using cfiCommon1
        CFI (cfiPicker161) NoFunction
        CFI (cfiPicker161) Picker
        LCALL   ??Subroutine49_0 & 0xFFFF
??CrossCallReturnLabel_69:
        LCALL   ?Subroutine41 & 0xFFFF
        CFI EndBlock cfiCond159
        CFI EndBlock cfiCond160
        CFI EndBlock cfiPicker161
??CrossCallReturnLabel_106:
        REQUIRE ??Subroutine52_0
        ; // Fall through to label ??Subroutine52_0

        RSEG BANKED_CODE:CODE:NOROOT(0)
??Subroutine52_0:
        CFI Block cfiCond162 Using cfiCommon0
        CFI NoFunction
        CFI Conditional ??CrossCallReturnLabel_73
        CFI R6 load(1, XDATA, add(CFA_XSP16, literal(-10)))
        CFI VB load(1, XDATA, add(CFA_XSP16, literal(-9)))
        CFI V0 load(1, XDATA, add(CFA_XSP16, literal(-8)))
        CFI V1 load(1, XDATA, add(CFA_XSP16, literal(-7)))
        CFI R7 load(1, XDATA, add(CFA_XSP16, literal(-6)))
        CFI ?RET_LOW load(1, XDATA, add(CFA_XSP16, literal(-5)))
        CFI ?RET_HIGH load(1, XDATA, add(CFA_XSP16, literal(-4)))
        CFI ?BRET_EXT load(1, XDATA, add(CFA_XSP16, literal(-3)))
        CFI DPL0 load(1, XDATA, add(CFA_XSP16, literal(-2)))
        CFI DPH0 load(1, XDATA, add(CFA_XSP16, literal(-1)))
        CFI CFA_SP SP+0
        CFI CFA_XSP16 add(XSP16, 10)
        CFI Block cfiCond163 Using cfiCommon0
        CFI (cfiCond163) NoFunction
        CFI (cfiCond163) Conditional ??CrossCallReturnLabel_74
        CFI (cfiCond163) R6 load(1, XDATA, add(CFA_XSP16, literal(-12)))
        CFI (cfiCond163) VB load(1, XDATA, add(CFA_XSP16, literal(-11)))
        CFI (cfiCond163) V0 load(1, XDATA, add(CFA_XSP16, literal(-10)))
        CFI (cfiCond163) V1 load(1, XDATA, add(CFA_XSP16, literal(-9)))
        CFI (cfiCond163) V2 load(1, XDATA, add(CFA_XSP16, literal(-8)))
        CFI (cfiCond163) V3 load(1, XDATA, add(CFA_XSP16, literal(-7)))
        CFI (cfiCond163) R7 load(1, XDATA, add(CFA_XSP16, literal(-6)))
        CFI (cfiCond163) ?RET_LOW load(1, XDATA, add(CFA_XSP16, literal(-5)))
        CFI (cfiCond163) ?RET_HIGH load(1, XDATA, add(CFA_XSP16, literal(-4)))
        CFI (cfiCond163) ?BRET_EXT load(1, XDATA, add(CFA_XSP16, literal(-3)))
        CFI (cfiCond163) DPL0 load(1, XDATA, add(CFA_XSP16, literal(-2)))
        CFI (cfiCond163) DPH0 load(1, XDATA, add(CFA_XSP16, literal(-1)))
        CFI (cfiCond163) CFA_SP SP+0
        CFI (cfiCond163) CFA_XSP16 add(XSP16, 24)
        CFI Block cfiCond164 Using cfiCommon0
        CFI (cfiCond164) NoFunction
        CFI (cfiCond164) Conditional ??CrossCallReturnLabel_75
        CFI (cfiCond164) R6 load(1, XDATA, add(CFA_XSP16, literal(-16)))
        CFI (cfiCond164) VB load(1, XDATA, add(CFA_XSP16, literal(-15)))
        CFI (cfiCond164) V0 load(1, XDATA, add(CFA_XSP16, literal(-14)))
        CFI (cfiCond164) V1 load(1, XDATA, add(CFA_XSP16, literal(-13)))
        CFI (cfiCond164) V2 load(1, XDATA, add(CFA_XSP16, literal(-12)))
        CFI (cfiCond164) V3 load(1, XDATA, add(CFA_XSP16, literal(-11)))
        CFI (cfiCond164) V4 load(1, XDATA, add(CFA_XSP16, literal(-10)))
        CFI (cfiCond164) V5 load(1, XDATA, add(CFA_XSP16, literal(-9)))
        CFI (cfiCond164) V6 load(1, XDATA, add(CFA_XSP16, literal(-8)))
        CFI (cfiCond164) V7 load(1, XDATA, add(CFA_XSP16, literal(-7)))
        CFI (cfiCond164) R7 load(1, XDATA, add(CFA_XSP16, literal(-6)))
        CFI (cfiCond164) ?RET_LOW load(1, XDATA, add(CFA_XSP16, literal(-5)))
        CFI (cfiCond164) ?RET_HIGH load(1, XDATA, add(CFA_XSP16, literal(-4)))
        CFI (cfiCond164) ?BRET_EXT load(1, XDATA, add(CFA_XSP16, literal(-3)))
        CFI (cfiCond164) DPL0 load(1, XDATA, add(CFA_XSP16, literal(-2)))
        CFI (cfiCond164) DPH0 load(1, XDATA, add(CFA_XSP16, literal(-1)))
        CFI (cfiCond164) CFA_SP SP+0
        CFI (cfiCond164) CFA_XSP16 add(XSP16, 16)
        CFI Block cfiCond165 Using cfiCommon0
        CFI (cfiCond165) NoFunction
        CFI (cfiCond165) Conditional ??CrossCallReturnLabel_76
        CFI (cfiCond165) R6 load(1, XDATA, add(CFA_XSP16, literal(-14)))
        CFI (cfiCond165) VB load(1, XDATA, add(CFA_XSP16, literal(-13)))
        CFI (cfiCond165) V0 load(1, XDATA, add(CFA_XSP16, literal(-12)))
        CFI (cfiCond165) V1 load(1, XDATA, add(CFA_XSP16, literal(-11)))
        CFI (cfiCond165) V2 load(1, XDATA, add(CFA_XSP16, literal(-10)))
        CFI (cfiCond165) V3 load(1, XDATA, add(CFA_XSP16, literal(-9)))
        CFI (cfiCond165) V4 load(1, XDATA, add(CFA_XSP16, literal(-8)))
        CFI (cfiCond165) V5 load(1, XDATA, add(CFA_XSP16, literal(-7)))
        CFI (cfiCond165) R7 load(1, XDATA, add(CFA_XSP16, literal(-6)))
        CFI (cfiCond165) ?RET_LOW load(1, XDATA, add(CFA_XSP16, literal(-5)))
        CFI (cfiCond165) ?RET_HIGH load(1, XDATA, add(CFA_XSP16, literal(-4)))
        CFI (cfiCond165) ?BRET_EXT load(1, XDATA, add(CFA_XSP16, literal(-3)))
        CFI (cfiCond165) DPL0 load(1, XDATA, add(CFA_XSP16, literal(-2)))
        CFI (cfiCond165) DPH0 load(1, XDATA, add(CFA_XSP16, literal(-1)))
        CFI (cfiCond165) CFA_SP SP+0
        CFI (cfiCond165) CFA_XSP16 add(XSP16, 19)
        CFI Block cfiPicker166 Using cfiCommon1
        CFI (cfiPicker166) NoFunction
        CFI (cfiPicker166) Picker
        MOVX    A,@DPTR
        MOV     ?V0 + 0,A
        INC     DPTR
        MOVX    A,@DPTR
        MOV     ?V0 + 1,A
        RET
        CFI EndBlock cfiCond162
        CFI EndBlock cfiCond163
        CFI EndBlock cfiCond164
        CFI EndBlock cfiCond165
        CFI EndBlock cfiPicker166

        RSEG BANKED_CODE:CODE:NOROOT(0)
?Subroutine41:
        CFI Block cfiCond167 Using cfiCommon0
        CFI NoFunction
        CFI Conditional ??CrossCallReturnLabel_103
        CFI R6 load(1, XDATA, add(CFA_XSP16, literal(-14)))
        CFI VB load(1, XDATA, add(CFA_XSP16, literal(-13)))
        CFI V0 load(1, XDATA, add(CFA_XSP16, literal(-12)))
        CFI V1 load(1, XDATA, add(CFA_XSP16, literal(-11)))
        CFI V2 load(1, XDATA, add(CFA_XSP16, literal(-10)))
        CFI V3 load(1, XDATA, add(CFA_XSP16, literal(-9)))
        CFI V4 load(1, XDATA, add(CFA_XSP16, literal(-8)))
        CFI V5 load(1, XDATA, add(CFA_XSP16, literal(-7)))
        CFI R7 load(1, XDATA, add(CFA_XSP16, literal(-6)))
        CFI ?RET_LOW load(1, XDATA, add(CFA_XSP16, literal(-5)))
        CFI ?RET_HIGH load(1, XDATA, add(CFA_XSP16, literal(-4)))
        CFI ?BRET_EXT load(1, XDATA, add(CFA_XSP16, literal(-3)))
        CFI DPL0 load(1, XDATA, add(CFA_XSP16, literal(-2)))
        CFI DPH0 load(1, XDATA, add(CFA_XSP16, literal(-1)))
        CFI CFA_SP SP+0
        CFI CFA_XSP16 add(XSP16, 23)
        CFI Block cfiCond168 Using cfiCommon0
        CFI (cfiCond168) NoFunction
        CFI (cfiCond168) Conditional ??CrossCallReturnLabel_107, ??CrossCallReturnLabel_59
        CFI (cfiCond168) DPL0 Frame(CFA_SP, 4)
        CFI (cfiCond168) DPH0 Frame(CFA_SP, 5)
        CFI (cfiCond168) CFA_SP SP+-5
        CFI Block cfiCond169 Using cfiCommon0
        CFI (cfiCond169) NoFunction
        CFI (cfiCond169) Conditional ??CrossCallReturnLabel_107, ??CrossCallReturnLabel_60
        CFI (cfiCond169) DPL0 Frame(CFA_SP, 4)
        CFI (cfiCond169) DPH0 Frame(CFA_SP, 5)
        CFI (cfiCond169) CFA_SP SP+-5
        CFI Block cfiCond170 Using cfiCommon0
        CFI (cfiCond170) NoFunction
        CFI (cfiCond170) Conditional ??CrossCallReturnLabel_107, ??CrossCallReturnLabel_61
        CFI (cfiCond170) DPL0 Frame(CFA_SP, 4)
        CFI (cfiCond170) DPH0 Frame(CFA_SP, 5)
        CFI (cfiCond170) CFA_SP SP+-5
        CFI Block cfiCond171 Using cfiCommon0
        CFI (cfiCond171) NoFunction
        CFI (cfiCond171) Conditional ??CrossCallReturnLabel_107, ??CrossCallReturnLabel_62
        CFI (cfiCond171) DPL0 Frame(CFA_SP, 4)
        CFI (cfiCond171) DPH0 Frame(CFA_SP, 5)
        CFI (cfiCond171) CFA_SP SP+-5
        CFI Block cfiCond172 Using cfiCommon0
        CFI (cfiCond172) NoFunction
        CFI (cfiCond172) Conditional ??CrossCallReturnLabel_107, ??CrossCallReturnLabel_63
        CFI (cfiCond172) DPL0 Frame(CFA_SP, 4)
        CFI (cfiCond172) DPH0 Frame(CFA_SP, 5)
        CFI (cfiCond172) CFA_SP SP+-5
        CFI Block cfiCond173 Using cfiCommon0
        CFI (cfiCond173) NoFunction
        CFI (cfiCond173) Conditional ??CrossCallReturnLabel_107, ??CrossCallReturnLabel_58
        CFI (cfiCond173) R6 load(1, XDATA, add(CFA_XSP16, literal(-14)))
        CFI (cfiCond173) VB load(1, XDATA, add(CFA_XSP16, literal(-13)))
        CFI (cfiCond173) V0 load(1, XDATA, add(CFA_XSP16, literal(-12)))
        CFI (cfiCond173) V1 load(1, XDATA, add(CFA_XSP16, literal(-11)))
        CFI (cfiCond173) V2 load(1, XDATA, add(CFA_XSP16, literal(-10)))
        CFI (cfiCond173) V3 load(1, XDATA, add(CFA_XSP16, literal(-9)))
        CFI (cfiCond173) V4 load(1, XDATA, add(CFA_XSP16, literal(-8)))
        CFI (cfiCond173) V5 load(1, XDATA, add(CFA_XSP16, literal(-7)))
        CFI (cfiCond173) R7 load(1, XDATA, add(CFA_XSP16, literal(-6)))
        CFI (cfiCond173) ?RET_LOW load(1, XDATA, add(CFA_XSP16, literal(-5)))
        CFI (cfiCond173) ?RET_HIGH load(1, XDATA, add(CFA_XSP16, literal(-4)))
        CFI (cfiCond173) ?BRET_EXT load(1, XDATA, add(CFA_XSP16, literal(-3)))
        CFI (cfiCond173) DPL0 load(1, XDATA, add(CFA_XSP16, literal(-2)))
        CFI (cfiCond173) DPH0 load(1, XDATA, add(CFA_XSP16, literal(-1)))
        CFI (cfiCond173) CFA_SP SP+0
        CFI (cfiCond173) CFA_XSP16 add(XSP16, 19)
        CFI Block cfiCond174 Using cfiCommon0
        CFI (cfiCond174) NoFunction
        CFI (cfiCond174) Conditional ??CrossCallReturnLabel_108, ??CrossCallReturnLabel_101, ??CrossCallReturnLabel_71
        CFI (cfiCond174) R6 load(1, XDATA, add(CFA_XSP16, literal(-16)))
        CFI (cfiCond174) VB load(1, XDATA, add(CFA_XSP16, literal(-15)))
        CFI (cfiCond174) V0 load(1, XDATA, add(CFA_XSP16, literal(-14)))
        CFI (cfiCond174) V1 load(1, XDATA, add(CFA_XSP16, literal(-13)))
        CFI (cfiCond174) V2 load(1, XDATA, add(CFA_XSP16, literal(-12)))
        CFI (cfiCond174) V3 load(1, XDATA, add(CFA_XSP16, literal(-11)))
        CFI (cfiCond174) V4 load(1, XDATA, add(CFA_XSP16, literal(-10)))
        CFI (cfiCond174) V5 load(1, XDATA, add(CFA_XSP16, literal(-9)))
        CFI (cfiCond174) V6 load(1, XDATA, add(CFA_XSP16, literal(-8)))
        CFI (cfiCond174) V7 load(1, XDATA, add(CFA_XSP16, literal(-7)))
        CFI (cfiCond174) R7 load(1, XDATA, add(CFA_XSP16, literal(-6)))
        CFI (cfiCond174) ?RET_LOW load(1, XDATA, add(CFA_XSP16, literal(-5)))
        CFI (cfiCond174) ?RET_HIGH load(1, XDATA, add(CFA_XSP16, literal(-4)))
        CFI (cfiCond174) ?BRET_EXT load(1, XDATA, add(CFA_XSP16, literal(-3)))
        CFI (cfiCond174) DPL0 load(1, XDATA, add(CFA_XSP16, literal(-2)))
        CFI (cfiCond174) DPH0 load(1, XDATA, add(CFA_XSP16, literal(-1)))
        CFI (cfiCond174) CFA_SP SP+0
        CFI (cfiCond174) CFA_XSP16 add(XSP16, 33)
        CFI Block cfiCond175 Using cfiCommon0
        CFI (cfiCond175) NoFunction
        CFI (cfiCond175) Conditional ??CrossCallReturnLabel_108, ??CrossCallReturnLabel_101, ??CrossCallReturnLabel_72
        CFI (cfiCond175) R6 load(1, XDATA, add(CFA_XSP16, literal(-16)))
        CFI (cfiCond175) VB load(1, XDATA, add(CFA_XSP16, literal(-15)))
        CFI (cfiCond175) V0 load(1, XDATA, add(CFA_XSP16, literal(-14)))
        CFI (cfiCond175) V1 load(1, XDATA, add(CFA_XSP16, literal(-13)))
        CFI (cfiCond175) V2 load(1, XDATA, add(CFA_XSP16, literal(-12)))
        CFI (cfiCond175) V3 load(1, XDATA, add(CFA_XSP16, literal(-11)))
        CFI (cfiCond175) V4 load(1, XDATA, add(CFA_XSP16, literal(-10)))
        CFI (cfiCond175) V5 load(1, XDATA, add(CFA_XSP16, literal(-9)))
        CFI (cfiCond175) V6 load(1, XDATA, add(CFA_XSP16, literal(-8)))
        CFI (cfiCond175) V7 load(1, XDATA, add(CFA_XSP16, literal(-7)))
        CFI (cfiCond175) R7 load(1, XDATA, add(CFA_XSP16, literal(-6)))
        CFI (cfiCond175) ?RET_LOW load(1, XDATA, add(CFA_XSP16, literal(-5)))
        CFI (cfiCond175) ?RET_HIGH load(1, XDATA, add(CFA_XSP16, literal(-4)))
        CFI (cfiCond175) ?BRET_EXT load(1, XDATA, add(CFA_XSP16, literal(-3)))
        CFI (cfiCond175) DPL0 load(1, XDATA, add(CFA_XSP16, literal(-2)))
        CFI (cfiCond175) DPH0 load(1, XDATA, add(CFA_XSP16, literal(-1)))
        CFI (cfiCond175) CFA_SP SP+0
        CFI (cfiCond175) CFA_XSP16 add(XSP16, 33)
        CFI Block cfiCond176 Using cfiCommon0
        CFI (cfiCond176) NoFunction
        CFI (cfiCond176) Conditional ??CrossCallReturnLabel_108, ??CrossCallReturnLabel_101, ??CrossCallReturnLabel_70
        CFI (cfiCond176) R6 load(1, XDATA, add(CFA_XSP16, literal(-14)))
        CFI (cfiCond176) VB load(1, XDATA, add(CFA_XSP16, literal(-13)))
        CFI (cfiCond176) V0 load(1, XDATA, add(CFA_XSP16, literal(-12)))
        CFI (cfiCond176) V1 load(1, XDATA, add(CFA_XSP16, literal(-11)))
        CFI (cfiCond176) V2 load(1, XDATA, add(CFA_XSP16, literal(-10)))
        CFI (cfiCond176) V3 load(1, XDATA, add(CFA_XSP16, literal(-9)))
        CFI (cfiCond176) V4 load(1, XDATA, add(CFA_XSP16, literal(-8)))
        CFI (cfiCond176) V5 load(1, XDATA, add(CFA_XSP16, literal(-7)))
        CFI (cfiCond176) R7 load(1, XDATA, add(CFA_XSP16, literal(-6)))
        CFI (cfiCond176) ?RET_LOW load(1, XDATA, add(CFA_XSP16, literal(-5)))
        CFI (cfiCond176) ?RET_HIGH load(1, XDATA, add(CFA_XSP16, literal(-4)))
        CFI (cfiCond176) ?BRET_EXT load(1, XDATA, add(CFA_XSP16, literal(-3)))
        CFI (cfiCond176) DPL0 load(1, XDATA, add(CFA_XSP16, literal(-2)))
        CFI (cfiCond176) DPH0 load(1, XDATA, add(CFA_XSP16, literal(-1)))
        CFI (cfiCond176) CFA_SP SP+0
        CFI (cfiCond176) CFA_XSP16 add(XSP16, 23)
        CFI Block cfiCond177 Using cfiCommon0
        CFI (cfiCond177) NoFunction
        CFI (cfiCond177) Conditional ??CrossCallReturnLabel_108, ??CrossCallReturnLabel_100, ??CrossCallReturnLabel_28
        CFI (cfiCond177) R6 load(1, XDATA, add(CFA_XSP16, literal(-16)))
        CFI (cfiCond177) VB load(1, XDATA, add(CFA_XSP16, literal(-15)))
        CFI (cfiCond177) V0 load(1, XDATA, add(CFA_XSP16, literal(-14)))
        CFI (cfiCond177) V1 load(1, XDATA, add(CFA_XSP16, literal(-13)))
        CFI (cfiCond177) V2 load(1, XDATA, add(CFA_XSP16, literal(-12)))
        CFI (cfiCond177) V3 load(1, XDATA, add(CFA_XSP16, literal(-11)))
        CFI (cfiCond177) V4 load(1, XDATA, add(CFA_XSP16, literal(-10)))
        CFI (cfiCond177) V5 load(1, XDATA, add(CFA_XSP16, literal(-9)))
        CFI (cfiCond177) V6 load(1, XDATA, add(CFA_XSP16, literal(-8)))
        CFI (cfiCond177) V7 load(1, XDATA, add(CFA_XSP16, literal(-7)))
        CFI (cfiCond177) R7 load(1, XDATA, add(CFA_XSP16, literal(-6)))
        CFI (cfiCond177) ?RET_LOW load(1, XDATA, add(CFA_XSP16, literal(-5)))
        CFI (cfiCond177) ?RET_HIGH load(1, XDATA, add(CFA_XSP16, literal(-4)))
        CFI (cfiCond177) ?BRET_EXT load(1, XDATA, add(CFA_XSP16, literal(-3)))
        CFI (cfiCond177) DPL0 load(1, XDATA, add(CFA_XSP16, literal(-2)))
        CFI (cfiCond177) DPH0 load(1, XDATA, add(CFA_XSP16, literal(-1)))
        CFI (cfiCond177) CFA_SP SP+0
        CFI (cfiCond177) CFA_XSP16 add(XSP16, 33)
        CFI Block cfiCond178 Using cfiCommon0
        CFI (cfiCond178) NoFunction
        CFI (cfiCond178) Conditional ??CrossCallReturnLabel_108, ??CrossCallReturnLabel_100, ??CrossCallReturnLabel_29
        CFI (cfiCond178) R6 load(1, XDATA, add(CFA_XSP16, literal(-16)))
        CFI (cfiCond178) VB load(1, XDATA, add(CFA_XSP16, literal(-15)))
        CFI (cfiCond178) V0 load(1, XDATA, add(CFA_XSP16, literal(-14)))
        CFI (cfiCond178) V1 load(1, XDATA, add(CFA_XSP16, literal(-13)))
        CFI (cfiCond178) V2 load(1, XDATA, add(CFA_XSP16, literal(-12)))
        CFI (cfiCond178) V3 load(1, XDATA, add(CFA_XSP16, literal(-11)))
        CFI (cfiCond178) V4 load(1, XDATA, add(CFA_XSP16, literal(-10)))
        CFI (cfiCond178) V5 load(1, XDATA, add(CFA_XSP16, literal(-9)))
        CFI (cfiCond178) V6 load(1, XDATA, add(CFA_XSP16, literal(-8)))
        CFI (cfiCond178) V7 load(1, XDATA, add(CFA_XSP16, literal(-7)))
        CFI (cfiCond178) R7 load(1, XDATA, add(CFA_XSP16, literal(-6)))
        CFI (cfiCond178) ?RET_LOW load(1, XDATA, add(CFA_XSP16, literal(-5)))
        CFI (cfiCond178) ?RET_HIGH load(1, XDATA, add(CFA_XSP16, literal(-4)))
        CFI (cfiCond178) ?BRET_EXT load(1, XDATA, add(CFA_XSP16, literal(-3)))
        CFI (cfiCond178) DPL0 load(1, XDATA, add(CFA_XSP16, literal(-2)))
        CFI (cfiCond178) DPH0 load(1, XDATA, add(CFA_XSP16, literal(-1)))
        CFI (cfiCond178) CFA_SP SP+0
        CFI (cfiCond178) CFA_XSP16 add(XSP16, 33)
        CFI Block cfiCond179 Using cfiCommon0
        CFI (cfiCond179) NoFunction
        CFI (cfiCond179) Conditional ??CrossCallReturnLabel_108, ??CrossCallReturnLabel_99, ??CrossCallReturnLabel_45
        CFI (cfiCond179) R6 load(1, XDATA, add(CFA_XSP16, literal(-10)))
        CFI (cfiCond179) VB load(1, XDATA, add(CFA_XSP16, literal(-9)))
        CFI (cfiCond179) V0 load(1, XDATA, add(CFA_XSP16, literal(-8)))
        CFI (cfiCond179) V1 load(1, XDATA, add(CFA_XSP16, literal(-7)))
        CFI (cfiCond179) R7 load(1, XDATA, add(CFA_XSP16, literal(-6)))
        CFI (cfiCond179) ?RET_LOW load(1, XDATA, add(CFA_XSP16, literal(-5)))
        CFI (cfiCond179) ?RET_HIGH load(1, XDATA, add(CFA_XSP16, literal(-4)))
        CFI (cfiCond179) ?BRET_EXT load(1, XDATA, add(CFA_XSP16, literal(-3)))
        CFI (cfiCond179) DPL0 load(1, XDATA, add(CFA_XSP16, literal(-2)))
        CFI (cfiCond179) DPH0 load(1, XDATA, add(CFA_XSP16, literal(-1)))
        CFI (cfiCond179) CFA_SP SP+0
        CFI (cfiCond179) CFA_XSP16 add(XSP16, 14)
        CFI Block cfiCond180 Using cfiCommon0
        CFI (cfiCond180) NoFunction
        CFI (cfiCond180) Conditional ??CrossCallReturnLabel_108, ??CrossCallReturnLabel_99, ??CrossCallReturnLabel_46
        CFI (cfiCond180) R6 load(1, XDATA, add(CFA_XSP16, literal(-10)))
        CFI (cfiCond180) VB load(1, XDATA, add(CFA_XSP16, literal(-9)))
        CFI (cfiCond180) V0 load(1, XDATA, add(CFA_XSP16, literal(-8)))
        CFI (cfiCond180) V1 load(1, XDATA, add(CFA_XSP16, literal(-7)))
        CFI (cfiCond180) R7 load(1, XDATA, add(CFA_XSP16, literal(-6)))
        CFI (cfiCond180) ?RET_LOW load(1, XDATA, add(CFA_XSP16, literal(-5)))
        CFI (cfiCond180) ?RET_HIGH load(1, XDATA, add(CFA_XSP16, literal(-4)))
        CFI (cfiCond180) ?BRET_EXT load(1, XDATA, add(CFA_XSP16, literal(-3)))
        CFI (cfiCond180) DPL0 load(1, XDATA, add(CFA_XSP16, literal(-2)))
        CFI (cfiCond180) DPH0 load(1, XDATA, add(CFA_XSP16, literal(-1)))
        CFI (cfiCond180) CFA_SP SP+0
        CFI (cfiCond180) CFA_XSP16 add(XSP16, 14)
        CFI Block cfiCond181 Using cfiCommon0
        CFI (cfiCond181) NoFunction
        CFI (cfiCond181) Conditional ??CrossCallReturnLabel_108, ??CrossCallReturnLabel_99, ??CrossCallReturnLabel_49
        CFI (cfiCond181) R6 load(1, XDATA, add(CFA_XSP16, literal(-10)))
        CFI (cfiCond181) VB load(1, XDATA, add(CFA_XSP16, literal(-9)))
        CFI (cfiCond181) V0 load(1, XDATA, add(CFA_XSP16, literal(-8)))
        CFI (cfiCond181) V1 load(1, XDATA, add(CFA_XSP16, literal(-7)))
        CFI (cfiCond181) R7 load(1, XDATA, add(CFA_XSP16, literal(-6)))
        CFI (cfiCond181) ?RET_LOW load(1, XDATA, add(CFA_XSP16, literal(-5)))
        CFI (cfiCond181) ?RET_HIGH load(1, XDATA, add(CFA_XSP16, literal(-4)))
        CFI (cfiCond181) ?BRET_EXT load(1, XDATA, add(CFA_XSP16, literal(-3)))
        CFI (cfiCond181) DPL0 load(1, XDATA, add(CFA_XSP16, literal(-2)))
        CFI (cfiCond181) DPH0 load(1, XDATA, add(CFA_XSP16, literal(-1)))
        CFI (cfiCond181) CFA_SP SP+0
        CFI (cfiCond181) CFA_XSP16 add(XSP16, 14)
        CFI Block cfiCond182 Using cfiCommon0
        CFI (cfiCond182) NoFunction
        CFI (cfiCond182) Conditional ??CrossCallReturnLabel_108, ??CrossCallReturnLabel_99, ??CrossCallReturnLabel_50
        CFI (cfiCond182) R6 load(1, XDATA, add(CFA_XSP16, literal(-16)))
        CFI (cfiCond182) VB load(1, XDATA, add(CFA_XSP16, literal(-15)))
        CFI (cfiCond182) V0 load(1, XDATA, add(CFA_XSP16, literal(-14)))
        CFI (cfiCond182) V1 load(1, XDATA, add(CFA_XSP16, literal(-13)))
        CFI (cfiCond182) V2 load(1, XDATA, add(CFA_XSP16, literal(-12)))
        CFI (cfiCond182) V3 load(1, XDATA, add(CFA_XSP16, literal(-11)))
        CFI (cfiCond182) V4 load(1, XDATA, add(CFA_XSP16, literal(-10)))
        CFI (cfiCond182) V5 load(1, XDATA, add(CFA_XSP16, literal(-9)))
        CFI (cfiCond182) V6 load(1, XDATA, add(CFA_XSP16, literal(-8)))
        CFI (cfiCond182) V7 load(1, XDATA, add(CFA_XSP16, literal(-7)))
        CFI (cfiCond182) R7 load(1, XDATA, add(CFA_XSP16, literal(-6)))
        CFI (cfiCond182) ?RET_LOW load(1, XDATA, add(CFA_XSP16, literal(-5)))
        CFI (cfiCond182) ?RET_HIGH load(1, XDATA, add(CFA_XSP16, literal(-4)))
        CFI (cfiCond182) ?BRET_EXT load(1, XDATA, add(CFA_XSP16, literal(-3)))
        CFI (cfiCond182) DPL0 load(1, XDATA, add(CFA_XSP16, literal(-2)))
        CFI (cfiCond182) DPH0 load(1, XDATA, add(CFA_XSP16, literal(-1)))
        CFI (cfiCond182) CFA_SP SP+0
        CFI (cfiCond182) CFA_XSP16 add(XSP16, 16)
        CFI Block cfiCond183 Using cfiCommon0
        CFI (cfiCond183) NoFunction
        CFI (cfiCond183) Conditional ??CrossCallReturnLabel_108, ??CrossCallReturnLabel_99, ??CrossCallReturnLabel_47
        CFI (cfiCond183) R6 load(1, XDATA, add(CFA_XSP16, literal(-14)))
        CFI (cfiCond183) VB load(1, XDATA, add(CFA_XSP16, literal(-13)))
        CFI (cfiCond183) V0 load(1, XDATA, add(CFA_XSP16, literal(-12)))
        CFI (cfiCond183) V1 load(1, XDATA, add(CFA_XSP16, literal(-11)))
        CFI (cfiCond183) V2 load(1, XDATA, add(CFA_XSP16, literal(-10)))
        CFI (cfiCond183) V3 load(1, XDATA, add(CFA_XSP16, literal(-9)))
        CFI (cfiCond183) V4 load(1, XDATA, add(CFA_XSP16, literal(-8)))
        CFI (cfiCond183) V5 load(1, XDATA, add(CFA_XSP16, literal(-7)))
        CFI (cfiCond183) R7 load(1, XDATA, add(CFA_XSP16, literal(-6)))
        CFI (cfiCond183) ?RET_LOW load(1, XDATA, add(CFA_XSP16, literal(-5)))
        CFI (cfiCond183) ?RET_HIGH load(1, XDATA, add(CFA_XSP16, literal(-4)))
        CFI (cfiCond183) ?BRET_EXT load(1, XDATA, add(CFA_XSP16, literal(-3)))
        CFI (cfiCond183) DPL0 load(1, XDATA, add(CFA_XSP16, literal(-2)))
        CFI (cfiCond183) DPH0 load(1, XDATA, add(CFA_XSP16, literal(-1)))
        CFI (cfiCond183) CFA_SP SP+0
        CFI (cfiCond183) CFA_XSP16 add(XSP16, 23)
        CFI Block cfiCond184 Using cfiCommon0
        CFI (cfiCond184) NoFunction
        CFI (cfiCond184) Conditional ??CrossCallReturnLabel_108, ??CrossCallReturnLabel_99, ??CrossCallReturnLabel_48
        CFI (cfiCond184) R6 load(1, XDATA, add(CFA_XSP16, literal(-12)))
        CFI (cfiCond184) VB load(1, XDATA, add(CFA_XSP16, literal(-11)))
        CFI (cfiCond184) V0 load(1, XDATA, add(CFA_XSP16, literal(-10)))
        CFI (cfiCond184) V1 load(1, XDATA, add(CFA_XSP16, literal(-9)))
        CFI (cfiCond184) V2 load(1, XDATA, add(CFA_XSP16, literal(-8)))
        CFI (cfiCond184) V3 load(1, XDATA, add(CFA_XSP16, literal(-7)))
        CFI (cfiCond184) R7 load(1, XDATA, add(CFA_XSP16, literal(-6)))
        CFI (cfiCond184) ?RET_LOW load(1, XDATA, add(CFA_XSP16, literal(-5)))
        CFI (cfiCond184) ?RET_HIGH load(1, XDATA, add(CFA_XSP16, literal(-4)))
        CFI (cfiCond184) ?BRET_EXT load(1, XDATA, add(CFA_XSP16, literal(-3)))
        CFI (cfiCond184) DPL0 load(1, XDATA, add(CFA_XSP16, literal(-2)))
        CFI (cfiCond184) DPH0 load(1, XDATA, add(CFA_XSP16, literal(-1)))
        CFI (cfiCond184) CFA_SP SP+0
        CFI (cfiCond184) CFA_XSP16 add(XSP16, 12)
        CFI Block cfiCond185 Using cfiCommon0
        CFI (cfiCond185) NoFunction
        CFI (cfiCond185) Conditional ??CrossCallReturnLabel_108, ??CrossCallReturnLabel_102, ??CrossCallReturnLabel_97
        CFI (cfiCond185) R6 load(1, XDATA, add(CFA_XSP16, literal(-14)))
        CFI (cfiCond185) VB load(1, XDATA, add(CFA_XSP16, literal(-13)))
        CFI (cfiCond185) V0 load(1, XDATA, add(CFA_XSP16, literal(-12)))
        CFI (cfiCond185) V1 load(1, XDATA, add(CFA_XSP16, literal(-11)))
        CFI (cfiCond185) V2 load(1, XDATA, add(CFA_XSP16, literal(-10)))
        CFI (cfiCond185) V3 load(1, XDATA, add(CFA_XSP16, literal(-9)))
        CFI (cfiCond185) V4 load(1, XDATA, add(CFA_XSP16, literal(-8)))
        CFI (cfiCond185) V5 load(1, XDATA, add(CFA_XSP16, literal(-7)))
        CFI (cfiCond185) R7 load(1, XDATA, add(CFA_XSP16, literal(-6)))
        CFI (cfiCond185) ?RET_LOW load(1, XDATA, add(CFA_XSP16, literal(-5)))
        CFI (cfiCond185) ?RET_HIGH load(1, XDATA, add(CFA_XSP16, literal(-4)))
        CFI (cfiCond185) ?BRET_EXT load(1, XDATA, add(CFA_XSP16, literal(-3)))
        CFI (cfiCond185) DPL0 load(1, XDATA, add(CFA_XSP16, literal(-2)))
        CFI (cfiCond185) DPH0 load(1, XDATA, add(CFA_XSP16, literal(-1)))
        CFI (cfiCond185) CFA_SP SP+0
        CFI (cfiCond185) CFA_XSP16 add(XSP16, 19)
        CFI Block cfiCond186 Using cfiCommon0
        CFI (cfiCond186) NoFunction
        CFI (cfiCond186) Conditional ??CrossCallReturnLabel_108, ??CrossCallReturnLabel_102, ??CrossCallReturnLabel_98
        CFI (cfiCond186) R6 load(1, XDATA, add(CFA_XSP16, literal(-14)))
        CFI (cfiCond186) VB load(1, XDATA, add(CFA_XSP16, literal(-13)))
        CFI (cfiCond186) V0 load(1, XDATA, add(CFA_XSP16, literal(-12)))
        CFI (cfiCond186) V1 load(1, XDATA, add(CFA_XSP16, literal(-11)))
        CFI (cfiCond186) V2 load(1, XDATA, add(CFA_XSP16, literal(-10)))
        CFI (cfiCond186) V3 load(1, XDATA, add(CFA_XSP16, literal(-9)))
        CFI (cfiCond186) V4 load(1, XDATA, add(CFA_XSP16, literal(-8)))
        CFI (cfiCond186) V5 load(1, XDATA, add(CFA_XSP16, literal(-7)))
        CFI (cfiCond186) R7 load(1, XDATA, add(CFA_XSP16, literal(-6)))
        CFI (cfiCond186) ?RET_LOW load(1, XDATA, add(CFA_XSP16, literal(-5)))
        CFI (cfiCond186) ?RET_HIGH load(1, XDATA, add(CFA_XSP16, literal(-4)))
        CFI (cfiCond186) ?BRET_EXT load(1, XDATA, add(CFA_XSP16, literal(-3)))
        CFI (cfiCond186) DPL0 load(1, XDATA, add(CFA_XSP16, literal(-2)))
        CFI (cfiCond186) DPH0 load(1, XDATA, add(CFA_XSP16, literal(-1)))
        CFI (cfiCond186) CFA_SP SP+0
        CFI (cfiCond186) CFA_XSP16 add(XSP16, 21)
        CFI Block cfiCond187 Using cfiCommon0
        CFI (cfiCond187) NoFunction
        CFI (cfiCond187) Conditional ??CrossCallReturnLabel_108, ??CrossCallReturnLabel_102, ??CrossCallReturnLabel_94
        CFI (cfiCond187) R6 load(1, XDATA, add(CFA_XSP16, literal(-14)))
        CFI (cfiCond187) VB load(1, XDATA, add(CFA_XSP16, literal(-13)))
        CFI (cfiCond187) V0 load(1, XDATA, add(CFA_XSP16, literal(-12)))
        CFI (cfiCond187) V1 load(1, XDATA, add(CFA_XSP16, literal(-11)))
        CFI (cfiCond187) V2 load(1, XDATA, add(CFA_XSP16, literal(-10)))
        CFI (cfiCond187) V3 load(1, XDATA, add(CFA_XSP16, literal(-9)))
        CFI (cfiCond187) V4 load(1, XDATA, add(CFA_XSP16, literal(-8)))
        CFI (cfiCond187) V5 load(1, XDATA, add(CFA_XSP16, literal(-7)))
        CFI (cfiCond187) R7 load(1, XDATA, add(CFA_XSP16, literal(-6)))
        CFI (cfiCond187) ?RET_LOW load(1, XDATA, add(CFA_XSP16, literal(-5)))
        CFI (cfiCond187) ?RET_HIGH load(1, XDATA, add(CFA_XSP16, literal(-4)))
        CFI (cfiCond187) ?BRET_EXT load(1, XDATA, add(CFA_XSP16, literal(-3)))
        CFI (cfiCond187) DPL0 load(1, XDATA, add(CFA_XSP16, literal(-2)))
        CFI (cfiCond187) DPH0 load(1, XDATA, add(CFA_XSP16, literal(-1)))
        CFI (cfiCond187) CFA_SP SP+0
        CFI (cfiCond187) CFA_XSP16 add(XSP16, 19)
        CFI Block cfiCond188 Using cfiCommon0
        CFI (cfiCond188) NoFunction
        CFI (cfiCond188) Conditional ??CrossCallReturnLabel_108, ??CrossCallReturnLabel_102, ??CrossCallReturnLabel_95
        CFI (cfiCond188) R6 load(1, XDATA, add(CFA_XSP16, literal(-14)))
        CFI (cfiCond188) VB load(1, XDATA, add(CFA_XSP16, literal(-13)))
        CFI (cfiCond188) V0 load(1, XDATA, add(CFA_XSP16, literal(-12)))
        CFI (cfiCond188) V1 load(1, XDATA, add(CFA_XSP16, literal(-11)))
        CFI (cfiCond188) V2 load(1, XDATA, add(CFA_XSP16, literal(-10)))
        CFI (cfiCond188) V3 load(1, XDATA, add(CFA_XSP16, literal(-9)))
        CFI (cfiCond188) V4 load(1, XDATA, add(CFA_XSP16, literal(-8)))
        CFI (cfiCond188) V5 load(1, XDATA, add(CFA_XSP16, literal(-7)))
        CFI (cfiCond188) R7 load(1, XDATA, add(CFA_XSP16, literal(-6)))
        CFI (cfiCond188) ?RET_LOW load(1, XDATA, add(CFA_XSP16, literal(-5)))
        CFI (cfiCond188) ?RET_HIGH load(1, XDATA, add(CFA_XSP16, literal(-4)))
        CFI (cfiCond188) ?BRET_EXT load(1, XDATA, add(CFA_XSP16, literal(-3)))
        CFI (cfiCond188) DPL0 load(1, XDATA, add(CFA_XSP16, literal(-2)))
        CFI (cfiCond188) DPH0 load(1, XDATA, add(CFA_XSP16, literal(-1)))
        CFI (cfiCond188) CFA_SP SP+0
        CFI (cfiCond188) CFA_XSP16 add(XSP16, 19)
        CFI Block cfiCond189 Using cfiCommon0
        CFI (cfiCond189) NoFunction
        CFI (cfiCond189) Conditional ??CrossCallReturnLabel_108, ??CrossCallReturnLabel_102, ??CrossCallReturnLabel_96
        CFI (cfiCond189) R6 load(1, XDATA, add(CFA_XSP16, literal(-14)))
        CFI (cfiCond189) VB load(1, XDATA, add(CFA_XSP16, literal(-13)))
        CFI (cfiCond189) V0 load(1, XDATA, add(CFA_XSP16, literal(-12)))
        CFI (cfiCond189) V1 load(1, XDATA, add(CFA_XSP16, literal(-11)))
        CFI (cfiCond189) V2 load(1, XDATA, add(CFA_XSP16, literal(-10)))
        CFI (cfiCond189) V3 load(1, XDATA, add(CFA_XSP16, literal(-9)))
        CFI (cfiCond189) V4 load(1, XDATA, add(CFA_XSP16, literal(-8)))
        CFI (cfiCond189) V5 load(1, XDATA, add(CFA_XSP16, literal(-7)))
        CFI (cfiCond189) R7 load(1, XDATA, add(CFA_XSP16, literal(-6)))
        CFI (cfiCond189) ?RET_LOW load(1, XDATA, add(CFA_XSP16, literal(-5)))
        CFI (cfiCond189) ?RET_HIGH load(1, XDATA, add(CFA_XSP16, literal(-4)))
        CFI (cfiCond189) ?BRET_EXT load(1, XDATA, add(CFA_XSP16, literal(-3)))
        CFI (cfiCond189) DPL0 load(1, XDATA, add(CFA_XSP16, literal(-2)))
        CFI (cfiCond189) DPH0 load(1, XDATA, add(CFA_XSP16, literal(-1)))
        CFI (cfiCond189) CFA_SP SP+0
        CFI (cfiCond189) CFA_XSP16 add(XSP16, 19)
        CFI Block cfiCond190 Using cfiCommon0
        CFI (cfiCond190) NoFunction
        CFI (cfiCond190) Conditional ??CrossCallReturnLabel_108, ??CrossCallReturnLabel_102, ??CrossCallReturnLabel_90
        CFI (cfiCond190) R6 load(1, XDATA, add(CFA_XSP16, literal(-14)))
        CFI (cfiCond190) VB load(1, XDATA, add(CFA_XSP16, literal(-13)))
        CFI (cfiCond190) V0 load(1, XDATA, add(CFA_XSP16, literal(-12)))
        CFI (cfiCond190) V1 load(1, XDATA, add(CFA_XSP16, literal(-11)))
        CFI (cfiCond190) V2 load(1, XDATA, add(CFA_XSP16, literal(-10)))
        CFI (cfiCond190) V3 load(1, XDATA, add(CFA_XSP16, literal(-9)))
        CFI (cfiCond190) V4 load(1, XDATA, add(CFA_XSP16, literal(-8)))
        CFI (cfiCond190) V5 load(1, XDATA, add(CFA_XSP16, literal(-7)))
        CFI (cfiCond190) R7 load(1, XDATA, add(CFA_XSP16, literal(-6)))
        CFI (cfiCond190) ?RET_LOW load(1, XDATA, add(CFA_XSP16, literal(-5)))
        CFI (cfiCond190) ?RET_HIGH load(1, XDATA, add(CFA_XSP16, literal(-4)))
        CFI (cfiCond190) ?BRET_EXT load(1, XDATA, add(CFA_XSP16, literal(-3)))
        CFI (cfiCond190) DPL0 load(1, XDATA, add(CFA_XSP16, literal(-2)))
        CFI (cfiCond190) DPH0 load(1, XDATA, add(CFA_XSP16, literal(-1)))
        CFI (cfiCond190) CFA_SP SP+0
        CFI (cfiCond190) CFA_XSP16 add(XSP16, 23)
        CFI Block cfiCond191 Using cfiCommon0
        CFI (cfiCond191) NoFunction
        CFI (cfiCond191) Conditional ??CrossCallReturnLabel_108, ??CrossCallReturnLabel_102, ??CrossCallReturnLabel_91
        CFI (cfiCond191) R6 load(1, XDATA, add(CFA_XSP16, literal(-14)))
        CFI (cfiCond191) VB load(1, XDATA, add(CFA_XSP16, literal(-13)))
        CFI (cfiCond191) V0 load(1, XDATA, add(CFA_XSP16, literal(-12)))
        CFI (cfiCond191) V1 load(1, XDATA, add(CFA_XSP16, literal(-11)))
        CFI (cfiCond191) V2 load(1, XDATA, add(CFA_XSP16, literal(-10)))
        CFI (cfiCond191) V3 load(1, XDATA, add(CFA_XSP16, literal(-9)))
        CFI (cfiCond191) V4 load(1, XDATA, add(CFA_XSP16, literal(-8)))
        CFI (cfiCond191) V5 load(1, XDATA, add(CFA_XSP16, literal(-7)))
        CFI (cfiCond191) R7 load(1, XDATA, add(CFA_XSP16, literal(-6)))
        CFI (cfiCond191) ?RET_LOW load(1, XDATA, add(CFA_XSP16, literal(-5)))
        CFI (cfiCond191) ?RET_HIGH load(1, XDATA, add(CFA_XSP16, literal(-4)))
        CFI (cfiCond191) ?BRET_EXT load(1, XDATA, add(CFA_XSP16, literal(-3)))
        CFI (cfiCond191) DPL0 load(1, XDATA, add(CFA_XSP16, literal(-2)))
        CFI (cfiCond191) DPH0 load(1, XDATA, add(CFA_XSP16, literal(-1)))
        CFI (cfiCond191) CFA_SP SP+0
        CFI (cfiCond191) CFA_XSP16 add(XSP16, 23)
        CFI Block cfiCond192 Using cfiCommon0
        CFI (cfiCond192) NoFunction
        CFI (cfiCond192) Conditional ??CrossCallReturnLabel_108, ??CrossCallReturnLabel_102, ??CrossCallReturnLabel_92
        CFI (cfiCond192) R6 load(1, XDATA, add(CFA_XSP16, literal(-12)))
        CFI (cfiCond192) VB load(1, XDATA, add(CFA_XSP16, literal(-11)))
        CFI (cfiCond192) V0 load(1, XDATA, add(CFA_XSP16, literal(-10)))
        CFI (cfiCond192) V1 load(1, XDATA, add(CFA_XSP16, literal(-9)))
        CFI (cfiCond192) V2 load(1, XDATA, add(CFA_XSP16, literal(-8)))
        CFI (cfiCond192) V3 load(1, XDATA, add(CFA_XSP16, literal(-7)))
        CFI (cfiCond192) R7 load(1, XDATA, add(CFA_XSP16, literal(-6)))
        CFI (cfiCond192) ?RET_LOW load(1, XDATA, add(CFA_XSP16, literal(-5)))
        CFI (cfiCond192) ?RET_HIGH load(1, XDATA, add(CFA_XSP16, literal(-4)))
        CFI (cfiCond192) ?BRET_EXT load(1, XDATA, add(CFA_XSP16, literal(-3)))
        CFI (cfiCond192) DPL0 load(1, XDATA, add(CFA_XSP16, literal(-2)))
        CFI (cfiCond192) DPH0 load(1, XDATA, add(CFA_XSP16, literal(-1)))
        CFI (cfiCond192) CFA_SP SP+0
        CFI (cfiCond192) CFA_XSP16 add(XSP16, 12)
        CFI Block cfiCond193 Using cfiCommon0
        CFI (cfiCond193) NoFunction
        CFI (cfiCond193) Conditional ??CrossCallReturnLabel_108, ??CrossCallReturnLabel_102, ??CrossCallReturnLabel_93
        CFI (cfiCond193) DPL0 Frame(CFA_SP, 4)
        CFI (cfiCond193) DPH0 Frame(CFA_SP, 5)
        CFI (cfiCond193) CFA_SP SP+-5
        CFI Block cfiCond194 Using cfiCommon0
        CFI (cfiCond194) NoFunction
        CFI (cfiCond194) Conditional ??CrossCallReturnLabel_106, ??CrossCallReturnLabel_75
        CFI (cfiCond194) R6 load(1, XDATA, add(CFA_XSP16, literal(-16)))
        CFI (cfiCond194) VB load(1, XDATA, add(CFA_XSP16, literal(-15)))
        CFI (cfiCond194) V0 load(1, XDATA, add(CFA_XSP16, literal(-14)))
        CFI (cfiCond194) V1 load(1, XDATA, add(CFA_XSP16, literal(-13)))
        CFI (cfiCond194) V2 load(1, XDATA, add(CFA_XSP16, literal(-12)))
        CFI (cfiCond194) V3 load(1, XDATA, add(CFA_XSP16, literal(-11)))
        CFI (cfiCond194) V4 load(1, XDATA, add(CFA_XSP16, literal(-10)))
        CFI (cfiCond194) V5 load(1, XDATA, add(CFA_XSP16, literal(-9)))
        CFI (cfiCond194) V6 load(1, XDATA, add(CFA_XSP16, literal(-8)))
        CFI (cfiCond194) V7 load(1, XDATA, add(CFA_XSP16, literal(-7)))
        CFI (cfiCond194) R7 load(1, XDATA, add(CFA_XSP16, literal(-6)))
        CFI (cfiCond194) ?RET_LOW load(1, XDATA, add(CFA_XSP16, literal(-5)))
        CFI (cfiCond194) ?RET_HIGH load(1, XDATA, add(CFA_XSP16, literal(-4)))
        CFI (cfiCond194) ?BRET_EXT load(1, XDATA, add(CFA_XSP16, literal(-3)))
        CFI (cfiCond194) DPL0 load(1, XDATA, add(CFA_XSP16, literal(-2)))
        CFI (cfiCond194) DPH0 load(1, XDATA, add(CFA_XSP16, literal(-1)))
        CFI (cfiCond194) CFA_SP SP+0
        CFI (cfiCond194) CFA_XSP16 add(XSP16, 16)
        CFI Block cfiCond195 Using cfiCommon0
        CFI (cfiCond195) NoFunction
        CFI (cfiCond195) Conditional ??CrossCallReturnLabel_106, ??CrossCallReturnLabel_76
        CFI (cfiCond195) R6 load(1, XDATA, add(CFA_XSP16, literal(-14)))
        CFI (cfiCond195) VB load(1, XDATA, add(CFA_XSP16, literal(-13)))
        CFI (cfiCond195) V0 load(1, XDATA, add(CFA_XSP16, literal(-12)))
        CFI (cfiCond195) V1 load(1, XDATA, add(CFA_XSP16, literal(-11)))
        CFI (cfiCond195) V2 load(1, XDATA, add(CFA_XSP16, literal(-10)))
        CFI (cfiCond195) V3 load(1, XDATA, add(CFA_XSP16, literal(-9)))
        CFI (cfiCond195) V4 load(1, XDATA, add(CFA_XSP16, literal(-8)))
        CFI (cfiCond195) V5 load(1, XDATA, add(CFA_XSP16, literal(-7)))
        CFI (cfiCond195) R7 load(1, XDATA, add(CFA_XSP16, literal(-6)))
        CFI (cfiCond195) ?RET_LOW load(1, XDATA, add(CFA_XSP16, literal(-5)))
        CFI (cfiCond195) ?RET_HIGH load(1, XDATA, add(CFA_XSP16, literal(-4)))
        CFI (cfiCond195) ?BRET_EXT load(1, XDATA, add(CFA_XSP16, literal(-3)))
        CFI (cfiCond195) DPL0 load(1, XDATA, add(CFA_XSP16, literal(-2)))
        CFI (cfiCond195) DPH0 load(1, XDATA, add(CFA_XSP16, literal(-1)))
        CFI (cfiCond195) CFA_SP SP+0
        CFI (cfiCond195) CFA_XSP16 add(XSP16, 19)
        CFI Block cfiCond196 Using cfiCommon0
        CFI (cfiCond196) NoFunction
        CFI (cfiCond196) Conditional ??CrossCallReturnLabel_104
        CFI (cfiCond196) R6 load(1, XDATA, add(CFA_XSP16, literal(-22)))
        CFI (cfiCond196) VB load(1, XDATA, add(CFA_XSP16, literal(-21)))
        CFI (cfiCond196) V0 load(1, XDATA, add(CFA_XSP16, literal(-20)))
        CFI (cfiCond196) V1 load(1, XDATA, add(CFA_XSP16, literal(-19)))
        CFI (cfiCond196) V2 load(1, XDATA, add(CFA_XSP16, literal(-18)))
        CFI (cfiCond196) V3 load(1, XDATA, add(CFA_XSP16, literal(-17)))
        CFI (cfiCond196) V4 load(1, XDATA, add(CFA_XSP16, literal(-16)))
        CFI (cfiCond196) V5 load(1, XDATA, add(CFA_XSP16, literal(-15)))
        CFI (cfiCond196) V6 load(1, XDATA, add(CFA_XSP16, literal(-14)))
        CFI (cfiCond196) V7 load(1, XDATA, add(CFA_XSP16, literal(-13)))
        CFI (cfiCond196) V8 load(1, XDATA, add(CFA_XSP16, literal(-12)))
        CFI (cfiCond196) V9 load(1, XDATA, add(CFA_XSP16, literal(-11)))
        CFI (cfiCond196) V10 load(1, XDATA, add(CFA_XSP16, literal(-10)))
        CFI (cfiCond196) V11 load(1, XDATA, add(CFA_XSP16, literal(-9)))
        CFI (cfiCond196) V12 load(1, XDATA, add(CFA_XSP16, literal(-8)))
        CFI (cfiCond196) V13 load(1, XDATA, add(CFA_XSP16, literal(-7)))
        CFI (cfiCond196) R7 load(1, XDATA, add(CFA_XSP16, literal(-6)))
        CFI (cfiCond196) ?RET_LOW load(1, XDATA, add(CFA_XSP16, literal(-5)))
        CFI (cfiCond196) ?RET_HIGH load(1, XDATA, add(CFA_XSP16, literal(-4)))
        CFI (cfiCond196) ?BRET_EXT load(1, XDATA, add(CFA_XSP16, literal(-3)))
        CFI (cfiCond196) DPL0 load(1, XDATA, add(CFA_XSP16, literal(-2)))
        CFI (cfiCond196) DPH0 load(1, XDATA, add(CFA_XSP16, literal(-1)))
        CFI (cfiCond196) CFA_SP SP+0
        CFI (cfiCond196) CFA_XSP16 add(XSP16, 29)
        CFI Block cfiCond197 Using cfiCommon0
        CFI (cfiCond197) NoFunction
        CFI (cfiCond197) Conditional ??CrossCallReturnLabel_105
        CFI (cfiCond197) R6 load(1, XDATA, add(CFA_XSP16, literal(-14)))
        CFI (cfiCond197) VB load(1, XDATA, add(CFA_XSP16, literal(-13)))
        CFI (cfiCond197) V0 load(1, XDATA, add(CFA_XSP16, literal(-12)))
        CFI (cfiCond197) V1 load(1, XDATA, add(CFA_XSP16, literal(-11)))
        CFI (cfiCond197) V2 load(1, XDATA, add(CFA_XSP16, literal(-10)))
        CFI (cfiCond197) V3 load(1, XDATA, add(CFA_XSP16, literal(-9)))
        CFI (cfiCond197) V4 load(1, XDATA, add(CFA_XSP16, literal(-8)))
        CFI (cfiCond197) V5 load(1, XDATA, add(CFA_XSP16, literal(-7)))
        CFI (cfiCond197) R7 load(1, XDATA, add(CFA_XSP16, literal(-6)))
        CFI (cfiCond197) ?RET_LOW load(1, XDATA, add(CFA_XSP16, literal(-5)))
        CFI (cfiCond197) ?RET_HIGH load(1, XDATA, add(CFA_XSP16, literal(-4)))
        CFI (cfiCond197) ?BRET_EXT load(1, XDATA, add(CFA_XSP16, literal(-3)))
        CFI (cfiCond197) DPL0 load(1, XDATA, add(CFA_XSP16, literal(-2)))
        CFI (cfiCond197) DPH0 load(1, XDATA, add(CFA_XSP16, literal(-1)))
        CFI (cfiCond197) CFA_SP SP+0
        CFI (cfiCond197) CFA_XSP16 add(XSP16, 23)
        CFI Block cfiPicker198 Using cfiCommon1
        CFI (cfiPicker198) NoFunction
        CFI (cfiPicker198) Picker
        ADDC    A,#0x0
        MOV     DPH,A
        RET
        CFI EndBlock cfiCond167
        CFI EndBlock cfiCond168
        CFI EndBlock cfiCond169
        CFI EndBlock cfiCond170
        CFI EndBlock cfiCond171
        CFI EndBlock cfiCond172
        CFI EndBlock cfiCond173
        CFI EndBlock cfiCond174
        CFI EndBlock cfiCond175
        CFI EndBlock cfiCond176
        CFI EndBlock cfiCond177
        CFI EndBlock cfiCond178
        CFI EndBlock cfiCond179
        CFI EndBlock cfiCond180
        CFI EndBlock cfiCond181
        CFI EndBlock cfiCond182
        CFI EndBlock cfiCond183
        CFI EndBlock cfiCond184
        CFI EndBlock cfiCond185
        CFI EndBlock cfiCond186
        CFI EndBlock cfiCond187
        CFI EndBlock cfiCond188
        CFI EndBlock cfiCond189
        CFI EndBlock cfiCond190
        CFI EndBlock cfiCond191
        CFI EndBlock cfiCond192
        CFI EndBlock cfiCond193
        CFI EndBlock cfiCond194
        CFI EndBlock cfiCond195
        CFI EndBlock cfiCond196
        CFI EndBlock cfiCond197
        CFI EndBlock cfiPicker198
//  426 /********************************************************
//  427 call back funtin of the CLUSDISC command
//  428 
//  429 DISCCLUS:<Node ID>,<EndPoint>,<Status>
//  430 Prompt (will show, if <Status> is 00) 
//  431             SERVER:<ClusterID>,<ClusterID>,<ClusterID> 
//  432             CLIENT:<ClusterID>,<ClusterID>,< ClusterI
//  433 *************************************************************/

        RSEG BANKED_CODE:CODE:NOROOT(0)
//  434 void AT_AF_Cmd_HA_CIDDISC_CB(afIncomingMSGPacket_t *pkt ){
AT_AF_Cmd_HA_CIDDISC_CB:
        CFI Block cfiBlock199 Using cfiCommon0
        CFI Function AT_AF_Cmd_HA_CIDDISC_CB
        CODE
        FUNCALL AT_AF_Cmd_HA_CIDDISC_CB, AT_AF_Cmd_HA_CIDDISC_req
        LOCFRAME ISTACK, 2, STACK
        LOCFRAME PSTACK, 0, STACK
        LOCFRAME XSTACK, 0, STACK
        LOCFRAME IOVERLAY, 0, STATIC
        LOCFRAME DOVERLAY, 0, STATIC
        ARGFRAME ISTACK, 2, STACK
        ARGFRAME PSTACK, 0, STACK
        ARGFRAME XSTACK, 0, STACK
        ARGFRAME IOVERLAY, 0, STATIC
        ARGFRAME DOVERLAY, 0, STATIC
        FUNCALL AT_AF_Cmd_HA_CIDDISC_CB, AT_AF_Cmd_HA_CIDDISC_rsp
        LOCFRAME ISTACK, 2, STACK
        LOCFRAME PSTACK, 0, STACK
        LOCFRAME XSTACK, 0, STACK
        LOCFRAME IOVERLAY, 0, STATIC
        LOCFRAME DOVERLAY, 0, STATIC
        ARGFRAME ISTACK, 2, STACK
        ARGFRAME PSTACK, 0, STACK
        ARGFRAME XSTACK, 0, STACK
        ARGFRAME IOVERLAY, 0, STATIC
        ARGFRAME DOVERLAY, 0, STATIC
        PUSH    DPL
        CFI DPL0 Frame(CFA_SP, 4)
        CFI CFA_SP SP+-4
        PUSH    DPH
        CFI DPH0 Frame(CFA_SP, 5)
        CFI CFA_SP SP+-5
        ; Saved register size: 2
        ; Auto size: 0
//  435   AT_AF_hdr *req = (AT_AF_hdr *)pkt->cmd.Data;
//  436   if(req->cmd==AT_AF_Cmd_req){
        LCALL   ?Subroutine9 & 0xFFFF
??CrossCallReturnLabel_62:
        JNZ     ??AT_AF_Cmd_HA_CIDDISC_CB_0
//  437     AT_AF_Cmd_HA_CIDDISC_req(pkt);
        ; Setup parameters for call to function AT_AF_Cmd_HA_CIDDISC_req
        LCALL   ??AT_AF_Cmd_HA_CIDDISC_req?relay
        SJMP    ??AT_AF_Cmd_HA_CIDDISC_CB_1
//  438   }else{
//  439     AT_AF_Cmd_HA_CIDDISC_rsp(pkt);
??AT_AF_Cmd_HA_CIDDISC_CB_0:
        ; Setup parameters for call to function AT_AF_Cmd_HA_CIDDISC_rsp
        LCALL   ??AT_AF_Cmd_HA_CIDDISC_rsp?relay
        CFI EndBlock cfiBlock199
//  440   }
//  441 }
??AT_AF_Cmd_HA_CIDDISC_CB_1:
        REQUIRE ?Subroutine0
        ; // Fall through to label ?Subroutine0

        RSEG BANKED_CODE:CODE:NOROOT(0)
?Subroutine0:
        CFI Block cfiBlock200 Using cfiCommon0
        CFI NoFunction
        CFI CFA_SP SP+-5
        CFI DPL0 Frame(CFA_SP, 4)
        CFI DPH0 Frame(CFA_SP, 5)
        POP     DPH
        CFI CFA_SP SP+-4
        CFI DPH0 SameValue
        POP     DPL
        CFI CFA_SP SP+-3
        CFI DPL0 SameValue
        LJMP    ?BRET
        CFI EndBlock cfiBlock200
//  442 /********************************************************
//  443 process request funtin of the CLUSDISC command
//  444 *************************************************************/

        RSEG BANKED_CODE:CODE:NOROOT(0)
//  445 void AT_AF_Cmd_HA_CIDDISC_req(afIncomingMSGPacket_t *pkt  ){
AT_AF_Cmd_HA_CIDDISC_req:
        CFI Block cfiBlock201 Using cfiCommon0
        CFI Function AT_AF_Cmd_HA_CIDDISC_req
        CODE
        FUNCALL AT_AF_Cmd_HA_CIDDISC_req, AT_is_CMD_EPs
        LOCFRAME ISTACK, 0, STACK
        LOCFRAME PSTACK, 0, STACK
        LOCFRAME XSTACK, 29, STACK
        LOCFRAME IOVERLAY, 0, STATIC
        LOCFRAME DOVERLAY, 0, STATIC
        ARGFRAME ISTACK, 0, STACK
        ARGFRAME PSTACK, 0, STACK
        ARGFRAME XSTACK, 29, STACK
        ARGFRAME IOVERLAY, 0, STATIC
        ARGFRAME DOVERLAY, 0, STATIC
        FUNCALL AT_AF_Cmd_HA_CIDDISC_req, afFindSimpleDesc
        LOCFRAME ISTACK, 0, STACK
        LOCFRAME PSTACK, 0, STACK
        LOCFRAME XSTACK, 29, STACK
        LOCFRAME IOVERLAY, 0, STATIC
        LOCFRAME DOVERLAY, 0, STATIC
        ARGFRAME ISTACK, 0, STACK
        ARGFRAME PSTACK, 0, STACK
        ARGFRAME XSTACK, 29, STACK
        ARGFRAME IOVERLAY, 0, STATIC
        ARGFRAME DOVERLAY, 0, STATIC
        FUNCALL AT_AF_Cmd_HA_CIDDISC_req, osal_mem_alloc
        LOCFRAME ISTACK, 0, STACK
        LOCFRAME PSTACK, 0, STACK
        LOCFRAME XSTACK, 29, STACK
        LOCFRAME IOVERLAY, 0, STATIC
        LOCFRAME DOVERLAY, 0, STATIC
        ARGFRAME ISTACK, 0, STACK
        ARGFRAME PSTACK, 0, STACK
        ARGFRAME XSTACK, 29, STACK
        ARGFRAME IOVERLAY, 0, STATIC
        ARGFRAME DOVERLAY, 0, STATIC
        FUNCALL AT_AF_Cmd_HA_CIDDISC_req, osal_memcpy
        LOCFRAME ISTACK, 0, STACK
        LOCFRAME PSTACK, 0, STACK
        LOCFRAME XSTACK, 32, STACK
        LOCFRAME IOVERLAY, 0, STATIC
        LOCFRAME DOVERLAY, 0, STATIC
        ARGFRAME ISTACK, 0, STACK
        ARGFRAME PSTACK, 0, STACK
        ARGFRAME XSTACK, 32, STACK
        ARGFRAME IOVERLAY, 0, STATIC
        ARGFRAME DOVERLAY, 0, STATIC
        FUNCALL AT_AF_Cmd_HA_CIDDISC_req, osal_memcpy
        LOCFRAME ISTACK, 0, STACK
        LOCFRAME PSTACK, 0, STACK
        LOCFRAME XSTACK, 32, STACK
        LOCFRAME IOVERLAY, 0, STATIC
        LOCFRAME DOVERLAY, 0, STATIC
        ARGFRAME ISTACK, 0, STACK
        ARGFRAME PSTACK, 0, STACK
        ARGFRAME XSTACK, 32, STACK
        ARGFRAME IOVERLAY, 0, STATIC
        ARGFRAME DOVERLAY, 0, STATIC
        FUNCALL AT_AF_Cmd_HA_CIDDISC_req, AF_DataRequest
        LOCFRAME ISTACK, 0, STACK
        LOCFRAME PSTACK, 0, STACK
        LOCFRAME XSTACK, 38, STACK
        LOCFRAME IOVERLAY, 0, STATIC
        LOCFRAME DOVERLAY, 0, STATIC
        ARGFRAME ISTACK, 0, STACK
        ARGFRAME PSTACK, 0, STACK
        ARGFRAME XSTACK, 38, STACK
        ARGFRAME IOVERLAY, 0, STATIC
        ARGFRAME DOVERLAY, 0, STATIC
        FUNCALL AT_AF_Cmd_HA_CIDDISC_req, osal_mem_free
        LOCFRAME ISTACK, 0, STACK
        LOCFRAME PSTACK, 0, STACK
        LOCFRAME XSTACK, 29, STACK
        LOCFRAME IOVERLAY, 0, STATIC
        LOCFRAME DOVERLAY, 0, STATIC
        ARGFRAME ISTACK, 0, STACK
        ARGFRAME PSTACK, 0, STACK
        ARGFRAME XSTACK, 29, STACK
        ARGFRAME IOVERLAY, 0, STATIC
        ARGFRAME DOVERLAY, 0, STATIC
        FUNCALL AT_AF_Cmd_HA_CIDDISC_req, AF_DataRequest
        LOCFRAME ISTACK, 0, STACK
        LOCFRAME PSTACK, 0, STACK
        LOCFRAME XSTACK, 38, STACK
        LOCFRAME IOVERLAY, 0, STATIC
        LOCFRAME DOVERLAY, 0, STATIC
        ARGFRAME ISTACK, 0, STACK
        ARGFRAME PSTACK, 0, STACK
        ARGFRAME XSTACK, 38, STACK
        ARGFRAME IOVERLAY, 0, STATIC
        ARGFRAME DOVERLAY, 0, STATIC
        MOV     A,#-0x16
        LCALL   ?BANKED_ENTER_XDATA
        CFI DPH0 load(1, XDATA, add(CFA_XSP16, literal(-1)))
        CFI DPL0 load(1, XDATA, add(CFA_XSP16, literal(-2)))
        CFI ?BRET_EXT load(1, XDATA, add(CFA_XSP16, literal(-3)))
        CFI ?RET_HIGH load(1, XDATA, add(CFA_XSP16, literal(-4)))
        CFI ?RET_LOW load(1, XDATA, add(CFA_XSP16, literal(-5)))
        CFI R7 load(1, XDATA, add(CFA_XSP16, literal(-6)))
        CFI V13 load(1, XDATA, add(CFA_XSP16, literal(-7)))
        CFI V12 load(1, XDATA, add(CFA_XSP16, literal(-8)))
        CFI V11 load(1, XDATA, add(CFA_XSP16, literal(-9)))
        CFI V10 load(1, XDATA, add(CFA_XSP16, literal(-10)))
        CFI V9 load(1, XDATA, add(CFA_XSP16, literal(-11)))
        CFI V8 load(1, XDATA, add(CFA_XSP16, literal(-12)))
        CFI V7 load(1, XDATA, add(CFA_XSP16, literal(-13)))
        CFI V6 load(1, XDATA, add(CFA_XSP16, literal(-14)))
        CFI V5 load(1, XDATA, add(CFA_XSP16, literal(-15)))
        CFI V4 load(1, XDATA, add(CFA_XSP16, literal(-16)))
        CFI V3 load(1, XDATA, add(CFA_XSP16, literal(-17)))
        CFI V2 load(1, XDATA, add(CFA_XSP16, literal(-18)))
        CFI V1 load(1, XDATA, add(CFA_XSP16, literal(-19)))
        CFI V0 load(1, XDATA, add(CFA_XSP16, literal(-20)))
        CFI VB load(1, XDATA, add(CFA_XSP16, literal(-21)))
        CFI R6 load(1, XDATA, add(CFA_XSP16, literal(-22)))
        CFI CFA_SP SP+0
        CFI CFA_XSP16 add(XSP16, 22)
        ; Saved register size: 22
        ; Auto size: 7
        MOV     A,#-0x7
        LCALL   ?ALLOC_XSTACK8
        CFI CFA_XSP16 add(XSP16, 29)
        MOV     ?V0 + 10,R2
        MOV     ?V0 + 11,R3
//  446     AT_AF_hdr *req = (AT_AF_hdr *)pkt->cmd.Data;
        LCALL   ??Subroutine58_0 & 0xFFFF
??CrossCallReturnLabel_112:
        LCALL   ?Subroutine41 & 0xFFFF
??CrossCallReturnLabel_104:
        LCALL   ??Subroutine53_0 & 0xFFFF
//  447     AT_AF_Cmd_HA_CIDDISC_rsp_t *rsp;
//  448     uint8 status=0;
//  449     uint16 rspLen=0;
//  450     if(AT_is_CMD_EPs(req->ep)){
??CrossCallReturnLabel_77:
        ; Setup parameters for call to function AT_is_CMD_EPs
        MOV     DPL,?V0 + 4
        MOV     DPH,A
        INC     DPTR
        MOVX    A,@DPTR
        MOV     R1,A
        LCALL   ??AT_is_CMD_EPs?relay
        MOV     A,R1
        JNZ     $+5
        LJMP    ??AT_AF_Cmd_HA_CIDDISC_req_0 & 0xFFFF
//  451       SimpleDescriptionFormat_t *pDesc;
//  452       if(SUCCESS == (status=afFindSimpleDesc(&pDesc, req->ep))){
        ; Setup parameters for call to function afFindSimpleDesc
        MOV     DPL,?V0 + 4
        MOV     DPH,?V0 + 5
        INC     DPTR
        MOVX    A,@DPTR
        MOV     R1,A
        MOV     DPL,?XSP + 0
        MOV     DPH,?XSP + 1
        MOV     R2,DPL
        MOV     R3,DPH
        LCALL   ??afFindSimpleDesc?relay
        MOV     A,R1
        MOV     R0,A
        MOV     ?V0 + 2,R0
        JZ      $+5
        LJMP    ??AT_AF_Cmd_HA_CIDDISC_req_1 & 0xFFFF
//  453         rspLen = (pDesc->AppNumInClusters+pDesc->AppNumInClusters)*2 +sizeof(AT_AF_Cmd_HA_CIDDISC_rsp_t);
        LCALL   ?Subroutine14 & 0xFFFF
??CrossCallReturnLabel_13:
        MOV     ?V0 + 0,A
        MOV     ?V0 + 1,#0x0
        MOV     A,#0x2
        MOV     R0,#?V0 + 0
        LCALL   ?S_SHL
        MOV     A,?V0 + 0
        ADD     A,#0x5
        MOV     ?V0 + 0,A
        MOV     A,?V0 + 1
        ADDC    A,#0x0
        MOV     ?V0 + 1,A
//  454         rsp = osal_mem_alloc(rspLen);
        ; Setup parameters for call to function osal_mem_alloc
        MOV     R2,?V0 + 0
        MOV     R3,A
        LCALL   ??osal_mem_alloc?relay
        MOV     ?V0 + 6,R2
        MOV     ?V0 + 7,R3
        MOV     R6,?V0 + 6
        MOV     R7,?V0 + 7
//  455         if(rsp) {
        MOV     A,R6
        ORL     A,R7
        JNZ     $+5
        LJMP    ??AT_AF_Cmd_HA_CIDDISC_req_2 & 0xFFFF
//  456           rsp->status = SUCCESS;
        MOV     DPL,R6
        MOV     DPH,R7
        INC     DPTR
        INC     DPTR
        CLR     A
        MOVX    @DPTR,A
//  457           rsp->serverNum = pDesc->AppNumInClusters;
        MOV     A,R6
        ADD     A,#0x3
        MOV     ?V0 + 8,A
        MOV     A,R7
        ADDC    A,#0x0
        MOV     ?V0 + 9,A
        LCALL   ?Subroutine14 & 0xFFFF
??CrossCallReturnLabel_14:
        MOV     DPL,?V0 + 8
        MOV     DPH,?V0 + 9
        MOVX    @DPTR,A
//  458           rsp->clientNum = pDesc->AppNumOutClusters;
        MOV     A,R6
        ADD     A,#0x4
        MOV     ?V0 + 12,A
        MOV     A,R7
        ADDC    A,#0x0
        MOV     ?V0 + 13,A
        LCALL   ?Subroutine12 & 0xFFFF
??CrossCallReturnLabel_11:
        MOVX    A,@DPTR
        MOV     DPL,?V0 + 12
        MOV     DPH,?V0 + 13
        LCALL   ?Subroutine6 & 0xFFFF
//  459           rsp->hdr.ep = req->ep;
??CrossCallReturnLabel_3:
        MOV     DPL,R6
        MOV     DPH,R7
        INC     DPTR
        MOVX    @DPTR,A
//  460           rsp->hdr.cmd = AT_AF_Cmd_rsp;
        MOV     DPL,R6
        MOV     DPH,R7
        MOV     A,#-0x80
        LCALL   ?Subroutine7 & 0xFFFF
//  461           osal_memcpy(rsp->list,pDesc->pAppInClusterList,rsp->serverNum*2);
??CrossCallReturnLabel_6:
        LCALL   ??Subroutine54_0 & 0xFFFF
??CrossCallReturnLabel_80:
        LCALL   ?Subroutine16 & 0xFFFF
??CrossCallReturnLabel_78:
        MOV     ?V0 + 6,#0x0
        MOV     R0,#?V0 + 4
        LCALL   ?PUSH_XSTACK_I_THREE
        CFI CFA_XSP16 add(XSP16, 32)
        MOV     DPL,?V0 + 8
        MOV     DPH,?V0 + 9
        MOVX    A,@DPTR
        CLR     C
        RLC     A
        MOV     R4,A
        CLR     A
        RLC     A
        MOV     R5,A
        MOV     A,R6
        ADD     A,#0x5
        MOV     R2,A
        MOV     A,R7
        LCALL   ?Subroutine27 & 0xFFFF
??CrossCallReturnLabel_30:
        LCALL   ?DEALLOC_XSTACK8
        CFI CFA_XSP16 add(XSP16, 29)
//  462           osal_memcpy(rsp->list+rsp->serverNum,pDesc->pAppOutClusterList,rsp->clientNum*2);
        ; Setup parameters for call to function osal_memcpy
        LCALL   ?Subroutine12 & 0xFFFF
??CrossCallReturnLabel_12:
        LCALL   ?Subroutine16 & 0xFFFF
??CrossCallReturnLabel_79:
        MOV     R0,#?V0 + 4
        LCALL   ?PUSH_XSTACK_I_THREE
        CFI CFA_XSP16 add(XSP16, 32)
        MOV     DPL,?V0 + 12
        MOV     DPH,?V0 + 13
        MOVX    A,@DPTR
        CLR     C
        RLC     A
        MOV     R4,A
        CLR     A
        RLC     A
        MOV     R5,A
        MOV     DPL,?V0 + 8
        MOV     DPH,?V0 + 9
        MOVX    A,@DPTR
        RLC     A
        MOV     R0,A
        CLR     A
        RLC     A
        MOV     R1,A
        MOV     A,R6
        ADD     A,R0
        MOV     R0,A
        MOV     A,R7
        ADDC    A,R1
        MOV     R1,A
        MOV     A,R0
        ADD     A,#0x5
        MOV     R2,A
        MOV     A,R1
        LCALL   ?Subroutine27 & 0xFFFF
??CrossCallReturnLabel_31:
        LCALL   ?DEALLOC_XSTACK8
        CFI CFA_XSP16 add(XSP16, 29)
//  463           //sent the found data
//  464           AF_DataRequest( & (pkt->srcAddr), & AT_AF_epDesc,
//  465                                AT_AF_Cmd_HA_CIDDISC_CLUSTERID,
//  466                                rspLen,
//  467                                (uint8*)rsp,
//  468                                &AT_AF_TransID,
//  469                                AF_DISCV_ROUTE,
//  470                                AF_DEFAULT_RADIUS );
        ; Setup parameters for call to function AF_DataRequest
        MOV     ?V0 + 3,#0x1e
        MOV     R0,#?V0 + 3
        LCALL   ?PUSH_XSTACK_I_ONE
        CFI CFA_XSP16 add(XSP16, 30)
        MOV     ?V0 + 4,#AT_AF_TransID & 0xff
        MOV     ?V0 + 5,#(AT_AF_TransID >> 8) & 0xff
        MOV     R0,#?V0 + 4
        LCALL   ?PUSH_XSTACK_I_TWO
        CFI CFA_XSP16 add(XSP16, 32)
        MOV     ?V0 + 4,R6
        MOV     ?V0 + 5,R7
        MOV     R0,#?V0 + 4
        LCALL   ?PUSH_XSTACK_I_TWO
        CFI CFA_XSP16 add(XSP16, 34)
        MOV     R0,#?V0 + 0
        LCALL   ?PUSH_XSTACK_I_TWO
        CFI CFA_XSP16 add(XSP16, 36)
        MOV     ?V0 + 0,#0x3
        MOV     ?V0 + 1,#0x0
        MOV     R0,#?V0 + 0
        LCALL   ?PUSH_XSTACK_I_TWO
        CFI CFA_XSP16 add(XSP16, 38)
        MOV     R1,#0x20
        MOV     R4,#AT_AF_epDesc & 0xff
        MOV     R5,#(AT_AF_epDesc >> 8) & 0xff
        MOV     A,?V0 + 10
        ADD     A,#0x6
        MOV     R2,A
        MOV     A,?V0 + 11
        LCALL   ??Subroutine59_0 & 0xFFFF
??CrossCallReturnLabel_118:
        LCALL   ?DEALLOC_XSTACK8
        CFI CFA_XSP16 add(XSP16, 29)
//  471           osal_mem_free(rsp);
        ; Setup parameters for call to function osal_mem_free
        MOV     A,R6
        MOV     R2,A
        MOV     A,R7
        MOV     R3,A
        LCALL   ??osal_mem_free?relay
//  472           return;     //important
        SJMP    ??AT_AF_Cmd_HA_CIDDISC_req_3
//  473         }else{
//  474           status = AT_AF_MEM_ERROR;
??AT_AF_Cmd_HA_CIDDISC_req_2:
        MOV     ?V0 + 2,#0x41
        SJMP    ??AT_AF_Cmd_HA_CIDDISC_req_1
//  475         }
//  476       }else {
//  477         //status = status; //have been done
//  478       }
//  479     }else{
//  480       status = AT_AF_NOTFOUND_ERROR;
??AT_AF_Cmd_HA_CIDDISC_req_0:
        MOV     ?V0 + 2,#0x40
//  481     }
//  482     
//  483     AT_AF_Cmd_HA_CIDDISC_rsp_t dftRsp;
//  484     dftRsp.hdr.cmd = AT_AF_Cmd_rsp;
??AT_AF_Cmd_HA_CIDDISC_req_1:
        MOV     A,#0x2
        LCALL   ?XSTACK_DISP0_8
        MOV     A,#-0x80
        LCALL   ?Subroutine6 & 0xFFFF
//  485     dftRsp.hdr.ep = req->ep;
??CrossCallReturnLabel_4:
        PUSH    A
        CFI CFA_SP SP+-1
        MOV     A,#0x3
        LCALL   ?XSTACK_DISP0_8
        POP     A
        CFI CFA_SP SP+0
        MOVX    @DPTR,A
//  486     dftRsp.status = status;
        MOV     A,#0x4
        LCALL   ?XSTACK_DISP0_8
        MOV     A,?V0 + 2
        LCALL   ?Subroutine5 & 0xFFFF
//  487     rsp = &dftRsp;
//  488     AF_DataRequest( & (pkt->srcAddr), & AT_AF_epDesc,
//  489                          AT_AF_Cmd_HA_CIDDISC_CLUSTERID,
//  490                          sizeof(AT_AF_Cmd_HA_CIDDISC_rsp_t),
//  491                          (uint8*)rsp,
//  492                          &AT_AF_TransID,
//  493                          AF_DISCV_ROUTE,
//  494                          AF_DEFAULT_RADIUS );
??CrossCallReturnLabel_1:
        LCALL   ?PUSH_XSTACK_I_ONE
        CFI CFA_XSP16 add(XSP16, 30)
        MOV     ?V0 + 0,#AT_AF_TransID & 0xff
        MOV     ?V0 + 1,#(AT_AF_TransID >> 8) & 0xff
        MOV     R0,#?V0 + 0
        LCALL   ?PUSH_XSTACK_I_TWO
        CFI CFA_XSP16 add(XSP16, 32)
        MOV     A,#0x5
        LCALL   ?XSTACK_DISP0_8
        MOV     ?V0 + 0,DPL
        MOV     ?V0 + 1,DPH
        MOV     R0,#?V0 + 0
        LCALL   ?PUSH_XSTACK_I_TWO
        CFI CFA_XSP16 add(XSP16, 34)
        MOV     ?V0 + 0,#0x5
        MOV     ?V0 + 1,#0x0
        MOV     R0,#?V0 + 0
        LCALL   ?PUSH_XSTACK_I_TWO
        CFI CFA_XSP16 add(XSP16, 36)
        MOV     ?V0 + 0,#0x3
        MOV     R0,#?V0 + 0
        LCALL   ?PUSH_XSTACK_I_TWO
        CFI CFA_XSP16 add(XSP16, 38)
        MOV     R1,#0x20
        MOV     R4,#AT_AF_epDesc & 0xff
        MOV     R5,#(AT_AF_epDesc >> 8) & 0xff
        MOV     A,?V0 + 10
        ADD     A,#0x6
        MOV     R2,A
        MOV     A,?V0 + 11
        LCALL   ??Subroutine59_0 & 0xFFFF
??CrossCallReturnLabel_119:
        LCALL   ?DEALLOC_XSTACK8
        CFI CFA_XSP16 add(XSP16, 29)
//  495 }
??AT_AF_Cmd_HA_CIDDISC_req_3:
        MOV     A,#0x7
        LCALL   ?DEALLOC_XSTACK8
        CFI CFA_XSP16 add(XSP16, 22)
        MOV     R7,#0xe
        LJMP    ?BANKED_LEAVE_XDATA
        CFI EndBlock cfiBlock201

        RSEG BANKED_CODE:CODE:NOROOT(0)
?Subroutine27:
        CFI Block cfiCond202 Using cfiCommon0
        CFI NoFunction
        CFI Conditional ??CrossCallReturnLabel_30
        CFI R6 load(1, XDATA, add(CFA_XSP16, literal(-22)))
        CFI VB load(1, XDATA, add(CFA_XSP16, literal(-21)))
        CFI V0 load(1, XDATA, add(CFA_XSP16, literal(-20)))
        CFI V1 load(1, XDATA, add(CFA_XSP16, literal(-19)))
        CFI V2 load(1, XDATA, add(CFA_XSP16, literal(-18)))
        CFI V3 load(1, XDATA, add(CFA_XSP16, literal(-17)))
        CFI V4 load(1, XDATA, add(CFA_XSP16, literal(-16)))
        CFI V5 load(1, XDATA, add(CFA_XSP16, literal(-15)))
        CFI V6 load(1, XDATA, add(CFA_XSP16, literal(-14)))
        CFI V7 load(1, XDATA, add(CFA_XSP16, literal(-13)))
        CFI V8 load(1, XDATA, add(CFA_XSP16, literal(-12)))
        CFI V9 load(1, XDATA, add(CFA_XSP16, literal(-11)))
        CFI V10 load(1, XDATA, add(CFA_XSP16, literal(-10)))
        CFI V11 load(1, XDATA, add(CFA_XSP16, literal(-9)))
        CFI V12 load(1, XDATA, add(CFA_XSP16, literal(-8)))
        CFI V13 load(1, XDATA, add(CFA_XSP16, literal(-7)))
        CFI R7 load(1, XDATA, add(CFA_XSP16, literal(-6)))
        CFI ?RET_LOW load(1, XDATA, add(CFA_XSP16, literal(-5)))
        CFI ?RET_HIGH load(1, XDATA, add(CFA_XSP16, literal(-4)))
        CFI ?BRET_EXT load(1, XDATA, add(CFA_XSP16, literal(-3)))
        CFI DPL0 load(1, XDATA, add(CFA_XSP16, literal(-2)))
        CFI DPH0 load(1, XDATA, add(CFA_XSP16, literal(-1)))
        CFI CFA_SP SP+0
        CFI CFA_XSP16 add(XSP16, 32)
        CFI Block cfiCond203 Using cfiCommon0
        CFI (cfiCond203) NoFunction
        CFI (cfiCond203) Conditional ??CrossCallReturnLabel_31
        CFI (cfiCond203) R6 load(1, XDATA, add(CFA_XSP16, literal(-22)))
        CFI (cfiCond203) VB load(1, XDATA, add(CFA_XSP16, literal(-21)))
        CFI (cfiCond203) V0 load(1, XDATA, add(CFA_XSP16, literal(-20)))
        CFI (cfiCond203) V1 load(1, XDATA, add(CFA_XSP16, literal(-19)))
        CFI (cfiCond203) V2 load(1, XDATA, add(CFA_XSP16, literal(-18)))
        CFI (cfiCond203) V3 load(1, XDATA, add(CFA_XSP16, literal(-17)))
        CFI (cfiCond203) V4 load(1, XDATA, add(CFA_XSP16, literal(-16)))
        CFI (cfiCond203) V5 load(1, XDATA, add(CFA_XSP16, literal(-15)))
        CFI (cfiCond203) V6 load(1, XDATA, add(CFA_XSP16, literal(-14)))
        CFI (cfiCond203) V7 load(1, XDATA, add(CFA_XSP16, literal(-13)))
        CFI (cfiCond203) V8 load(1, XDATA, add(CFA_XSP16, literal(-12)))
        CFI (cfiCond203) V9 load(1, XDATA, add(CFA_XSP16, literal(-11)))
        CFI (cfiCond203) V10 load(1, XDATA, add(CFA_XSP16, literal(-10)))
        CFI (cfiCond203) V11 load(1, XDATA, add(CFA_XSP16, literal(-9)))
        CFI (cfiCond203) V12 load(1, XDATA, add(CFA_XSP16, literal(-8)))
        CFI (cfiCond203) V13 load(1, XDATA, add(CFA_XSP16, literal(-7)))
        CFI (cfiCond203) R7 load(1, XDATA, add(CFA_XSP16, literal(-6)))
        CFI (cfiCond203) ?RET_LOW load(1, XDATA, add(CFA_XSP16, literal(-5)))
        CFI (cfiCond203) ?RET_HIGH load(1, XDATA, add(CFA_XSP16, literal(-4)))
        CFI (cfiCond203) ?BRET_EXT load(1, XDATA, add(CFA_XSP16, literal(-3)))
        CFI (cfiCond203) DPL0 load(1, XDATA, add(CFA_XSP16, literal(-2)))
        CFI (cfiCond203) DPH0 load(1, XDATA, add(CFA_XSP16, literal(-1)))
        CFI (cfiCond203) CFA_SP SP+0
        CFI (cfiCond203) CFA_XSP16 add(XSP16, 32)
        CFI Block cfiPicker204 Using cfiCommon1
        CFI (cfiPicker204) NoFunction
        CFI (cfiPicker204) Picker
        ADDC    A,#0x0
        MOV     R3,A
        LCALL   ??osal_memcpy?relay
        MOV     A,#0x3
        RET
        CFI EndBlock cfiCond202
        CFI EndBlock cfiCond203
        CFI EndBlock cfiPicker204

        RSEG BANKED_CODE:CODE:NOROOT(0)
?Subroutine16:
        CFI Block cfiCond205 Using cfiCommon0
        CFI NoFunction
        CFI Conditional ??CrossCallReturnLabel_78
        CFI R6 load(1, XDATA, add(CFA_XSP16, literal(-22)))
        CFI VB load(1, XDATA, add(CFA_XSP16, literal(-21)))
        CFI V0 load(1, XDATA, add(CFA_XSP16, literal(-20)))
        CFI V1 load(1, XDATA, add(CFA_XSP16, literal(-19)))
        CFI V2 load(1, XDATA, add(CFA_XSP16, literal(-18)))
        CFI V3 load(1, XDATA, add(CFA_XSP16, literal(-17)))
        CFI V4 load(1, XDATA, add(CFA_XSP16, literal(-16)))
        CFI V5 load(1, XDATA, add(CFA_XSP16, literal(-15)))
        CFI V6 load(1, XDATA, add(CFA_XSP16, literal(-14)))
        CFI V7 load(1, XDATA, add(CFA_XSP16, literal(-13)))
        CFI V8 load(1, XDATA, add(CFA_XSP16, literal(-12)))
        CFI V9 load(1, XDATA, add(CFA_XSP16, literal(-11)))
        CFI V10 load(1, XDATA, add(CFA_XSP16, literal(-10)))
        CFI V11 load(1, XDATA, add(CFA_XSP16, literal(-9)))
        CFI V12 load(1, XDATA, add(CFA_XSP16, literal(-8)))
        CFI V13 load(1, XDATA, add(CFA_XSP16, literal(-7)))
        CFI R7 load(1, XDATA, add(CFA_XSP16, literal(-6)))
        CFI ?RET_LOW load(1, XDATA, add(CFA_XSP16, literal(-5)))
        CFI ?RET_HIGH load(1, XDATA, add(CFA_XSP16, literal(-4)))
        CFI ?BRET_EXT load(1, XDATA, add(CFA_XSP16, literal(-3)))
        CFI DPL0 load(1, XDATA, add(CFA_XSP16, literal(-2)))
        CFI DPH0 load(1, XDATA, add(CFA_XSP16, literal(-1)))
        CFI CFA_SP SP+0
        CFI CFA_XSP16 add(XSP16, 29)
        CFI Block cfiCond206 Using cfiCommon0
        CFI (cfiCond206) NoFunction
        CFI (cfiCond206) Conditional ??CrossCallReturnLabel_79
        CFI (cfiCond206) R6 load(1, XDATA, add(CFA_XSP16, literal(-22)))
        CFI (cfiCond206) VB load(1, XDATA, add(CFA_XSP16, literal(-21)))
        CFI (cfiCond206) V0 load(1, XDATA, add(CFA_XSP16, literal(-20)))
        CFI (cfiCond206) V1 load(1, XDATA, add(CFA_XSP16, literal(-19)))
        CFI (cfiCond206) V2 load(1, XDATA, add(CFA_XSP16, literal(-18)))
        CFI (cfiCond206) V3 load(1, XDATA, add(CFA_XSP16, literal(-17)))
        CFI (cfiCond206) V4 load(1, XDATA, add(CFA_XSP16, literal(-16)))
        CFI (cfiCond206) V5 load(1, XDATA, add(CFA_XSP16, literal(-15)))
        CFI (cfiCond206) V6 load(1, XDATA, add(CFA_XSP16, literal(-14)))
        CFI (cfiCond206) V7 load(1, XDATA, add(CFA_XSP16, literal(-13)))
        CFI (cfiCond206) V8 load(1, XDATA, add(CFA_XSP16, literal(-12)))
        CFI (cfiCond206) V9 load(1, XDATA, add(CFA_XSP16, literal(-11)))
        CFI (cfiCond206) V10 load(1, XDATA, add(CFA_XSP16, literal(-10)))
        CFI (cfiCond206) V11 load(1, XDATA, add(CFA_XSP16, literal(-9)))
        CFI (cfiCond206) V12 load(1, XDATA, add(CFA_XSP16, literal(-8)))
        CFI (cfiCond206) V13 load(1, XDATA, add(CFA_XSP16, literal(-7)))
        CFI (cfiCond206) R7 load(1, XDATA, add(CFA_XSP16, literal(-6)))
        CFI (cfiCond206) ?RET_LOW load(1, XDATA, add(CFA_XSP16, literal(-5)))
        CFI (cfiCond206) ?RET_HIGH load(1, XDATA, add(CFA_XSP16, literal(-4)))
        CFI (cfiCond206) ?BRET_EXT load(1, XDATA, add(CFA_XSP16, literal(-3)))
        CFI (cfiCond206) DPL0 load(1, XDATA, add(CFA_XSP16, literal(-2)))
        CFI (cfiCond206) DPH0 load(1, XDATA, add(CFA_XSP16, literal(-1)))
        CFI (cfiCond206) CFA_SP SP+0
        CFI (cfiCond206) CFA_XSP16 add(XSP16, 29)
        CFI Block cfiPicker207 Using cfiCommon1
        CFI (cfiPicker207) NoFunction
        CFI (cfiPicker207) Picker
        INC     DPTR
        CFI EndBlock cfiCond205
        CFI EndBlock cfiCond206
        CFI EndBlock cfiPicker207
        REQUIRE ??Subroutine53_0
        ; // Fall through to label ??Subroutine53_0

        RSEG BANKED_CODE:CODE:NOROOT(0)
??Subroutine53_0:
        CFI Block cfiCond208 Using cfiCommon0
        CFI NoFunction
        CFI Conditional ??CrossCallReturnLabel_77
        CFI R6 load(1, XDATA, add(CFA_XSP16, literal(-22)))
        CFI VB load(1, XDATA, add(CFA_XSP16, literal(-21)))
        CFI V0 load(1, XDATA, add(CFA_XSP16, literal(-20)))
        CFI V1 load(1, XDATA, add(CFA_XSP16, literal(-19)))
        CFI V2 load(1, XDATA, add(CFA_XSP16, literal(-18)))
        CFI V3 load(1, XDATA, add(CFA_XSP16, literal(-17)))
        CFI V4 load(1, XDATA, add(CFA_XSP16, literal(-16)))
        CFI V5 load(1, XDATA, add(CFA_XSP16, literal(-15)))
        CFI V6 load(1, XDATA, add(CFA_XSP16, literal(-14)))
        CFI V7 load(1, XDATA, add(CFA_XSP16, literal(-13)))
        CFI V8 load(1, XDATA, add(CFA_XSP16, literal(-12)))
        CFI V9 load(1, XDATA, add(CFA_XSP16, literal(-11)))
        CFI V10 load(1, XDATA, add(CFA_XSP16, literal(-10)))
        CFI V11 load(1, XDATA, add(CFA_XSP16, literal(-9)))
        CFI V12 load(1, XDATA, add(CFA_XSP16, literal(-8)))
        CFI V13 load(1, XDATA, add(CFA_XSP16, literal(-7)))
        CFI R7 load(1, XDATA, add(CFA_XSP16, literal(-6)))
        CFI ?RET_LOW load(1, XDATA, add(CFA_XSP16, literal(-5)))
        CFI ?RET_HIGH load(1, XDATA, add(CFA_XSP16, literal(-4)))
        CFI ?BRET_EXT load(1, XDATA, add(CFA_XSP16, literal(-3)))
        CFI DPL0 load(1, XDATA, add(CFA_XSP16, literal(-2)))
        CFI DPH0 load(1, XDATA, add(CFA_XSP16, literal(-1)))
        CFI CFA_SP SP+0
        CFI CFA_XSP16 add(XSP16, 29)
        CFI Block cfiCond209 Using cfiCommon0
        CFI (cfiCond209) NoFunction
        CFI (cfiCond209) Conditional ??CrossCallReturnLabel_78
        CFI (cfiCond209) R6 load(1, XDATA, add(CFA_XSP16, literal(-22)))
        CFI (cfiCond209) VB load(1, XDATA, add(CFA_XSP16, literal(-21)))
        CFI (cfiCond209) V0 load(1, XDATA, add(CFA_XSP16, literal(-20)))
        CFI (cfiCond209) V1 load(1, XDATA, add(CFA_XSP16, literal(-19)))
        CFI (cfiCond209) V2 load(1, XDATA, add(CFA_XSP16, literal(-18)))
        CFI (cfiCond209) V3 load(1, XDATA, add(CFA_XSP16, literal(-17)))
        CFI (cfiCond209) V4 load(1, XDATA, add(CFA_XSP16, literal(-16)))
        CFI (cfiCond209) V5 load(1, XDATA, add(CFA_XSP16, literal(-15)))
        CFI (cfiCond209) V6 load(1, XDATA, add(CFA_XSP16, literal(-14)))
        CFI (cfiCond209) V7 load(1, XDATA, add(CFA_XSP16, literal(-13)))
        CFI (cfiCond209) V8 load(1, XDATA, add(CFA_XSP16, literal(-12)))
        CFI (cfiCond209) V9 load(1, XDATA, add(CFA_XSP16, literal(-11)))
        CFI (cfiCond209) V10 load(1, XDATA, add(CFA_XSP16, literal(-10)))
        CFI (cfiCond209) V11 load(1, XDATA, add(CFA_XSP16, literal(-9)))
        CFI (cfiCond209) V12 load(1, XDATA, add(CFA_XSP16, literal(-8)))
        CFI (cfiCond209) V13 load(1, XDATA, add(CFA_XSP16, literal(-7)))
        CFI (cfiCond209) R7 load(1, XDATA, add(CFA_XSP16, literal(-6)))
        CFI (cfiCond209) ?RET_LOW load(1, XDATA, add(CFA_XSP16, literal(-5)))
        CFI (cfiCond209) ?RET_HIGH load(1, XDATA, add(CFA_XSP16, literal(-4)))
        CFI (cfiCond209) ?BRET_EXT load(1, XDATA, add(CFA_XSP16, literal(-3)))
        CFI (cfiCond209) DPL0 load(1, XDATA, add(CFA_XSP16, literal(-2)))
        CFI (cfiCond209) DPH0 load(1, XDATA, add(CFA_XSP16, literal(-1)))
        CFI (cfiCond209) CFA_SP SP+0
        CFI (cfiCond209) CFA_XSP16 add(XSP16, 29)
        CFI Block cfiCond210 Using cfiCommon0
        CFI (cfiCond210) NoFunction
        CFI (cfiCond210) Conditional ??CrossCallReturnLabel_79
        CFI (cfiCond210) R6 load(1, XDATA, add(CFA_XSP16, literal(-22)))
        CFI (cfiCond210) VB load(1, XDATA, add(CFA_XSP16, literal(-21)))
        CFI (cfiCond210) V0 load(1, XDATA, add(CFA_XSP16, literal(-20)))
        CFI (cfiCond210) V1 load(1, XDATA, add(CFA_XSP16, literal(-19)))
        CFI (cfiCond210) V2 load(1, XDATA, add(CFA_XSP16, literal(-18)))
        CFI (cfiCond210) V3 load(1, XDATA, add(CFA_XSP16, literal(-17)))
        CFI (cfiCond210) V4 load(1, XDATA, add(CFA_XSP16, literal(-16)))
        CFI (cfiCond210) V5 load(1, XDATA, add(CFA_XSP16, literal(-15)))
        CFI (cfiCond210) V6 load(1, XDATA, add(CFA_XSP16, literal(-14)))
        CFI (cfiCond210) V7 load(1, XDATA, add(CFA_XSP16, literal(-13)))
        CFI (cfiCond210) V8 load(1, XDATA, add(CFA_XSP16, literal(-12)))
        CFI (cfiCond210) V9 load(1, XDATA, add(CFA_XSP16, literal(-11)))
        CFI (cfiCond210) V10 load(1, XDATA, add(CFA_XSP16, literal(-10)))
        CFI (cfiCond210) V11 load(1, XDATA, add(CFA_XSP16, literal(-9)))
        CFI (cfiCond210) V12 load(1, XDATA, add(CFA_XSP16, literal(-8)))
        CFI (cfiCond210) V13 load(1, XDATA, add(CFA_XSP16, literal(-7)))
        CFI (cfiCond210) R7 load(1, XDATA, add(CFA_XSP16, literal(-6)))
        CFI (cfiCond210) ?RET_LOW load(1, XDATA, add(CFA_XSP16, literal(-5)))
        CFI (cfiCond210) ?RET_HIGH load(1, XDATA, add(CFA_XSP16, literal(-4)))
        CFI (cfiCond210) ?BRET_EXT load(1, XDATA, add(CFA_XSP16, literal(-3)))
        CFI (cfiCond210) DPL0 load(1, XDATA, add(CFA_XSP16, literal(-2)))
        CFI (cfiCond210) DPH0 load(1, XDATA, add(CFA_XSP16, literal(-1)))
        CFI (cfiCond210) CFA_SP SP+0
        CFI (cfiCond210) CFA_XSP16 add(XSP16, 29)
        CFI Block cfiPicker211 Using cfiCommon1
        CFI (cfiPicker211) NoFunction
        CFI (cfiPicker211) Picker
        MOVX    A,@DPTR
        MOV     ?V0 + 4,A
        INC     DPTR
        MOVX    A,@DPTR
        MOV     ?V0 + 5,A
        RET
        CFI EndBlock cfiCond208
        CFI EndBlock cfiCond209
        CFI EndBlock cfiCond210
        CFI EndBlock cfiPicker211

        RSEG BANKED_CODE:CODE:NOROOT(0)
?Subroutine14:
        CFI Block cfiCond212 Using cfiCommon0
        CFI NoFunction
        CFI Conditional ??CrossCallReturnLabel_13
        CFI R6 load(1, XDATA, add(CFA_XSP16, literal(-22)))
        CFI VB load(1, XDATA, add(CFA_XSP16, literal(-21)))
        CFI V0 load(1, XDATA, add(CFA_XSP16, literal(-20)))
        CFI V1 load(1, XDATA, add(CFA_XSP16, literal(-19)))
        CFI V2 load(1, XDATA, add(CFA_XSP16, literal(-18)))
        CFI V3 load(1, XDATA, add(CFA_XSP16, literal(-17)))
        CFI V4 load(1, XDATA, add(CFA_XSP16, literal(-16)))
        CFI V5 load(1, XDATA, add(CFA_XSP16, literal(-15)))
        CFI V6 load(1, XDATA, add(CFA_XSP16, literal(-14)))
        CFI V7 load(1, XDATA, add(CFA_XSP16, literal(-13)))
        CFI V8 load(1, XDATA, add(CFA_XSP16, literal(-12)))
        CFI V9 load(1, XDATA, add(CFA_XSP16, literal(-11)))
        CFI V10 load(1, XDATA, add(CFA_XSP16, literal(-10)))
        CFI V11 load(1, XDATA, add(CFA_XSP16, literal(-9)))
        CFI V12 load(1, XDATA, add(CFA_XSP16, literal(-8)))
        CFI V13 load(1, XDATA, add(CFA_XSP16, literal(-7)))
        CFI R7 load(1, XDATA, add(CFA_XSP16, literal(-6)))
        CFI ?RET_LOW load(1, XDATA, add(CFA_XSP16, literal(-5)))
        CFI ?RET_HIGH load(1, XDATA, add(CFA_XSP16, literal(-4)))
        CFI ?BRET_EXT load(1, XDATA, add(CFA_XSP16, literal(-3)))
        CFI DPL0 load(1, XDATA, add(CFA_XSP16, literal(-2)))
        CFI DPH0 load(1, XDATA, add(CFA_XSP16, literal(-1)))
        CFI CFA_SP SP+0
        CFI CFA_XSP16 add(XSP16, 29)
        CFI Block cfiCond213 Using cfiCommon0
        CFI (cfiCond213) NoFunction
        CFI (cfiCond213) Conditional ??CrossCallReturnLabel_14
        CFI (cfiCond213) R6 load(1, XDATA, add(CFA_XSP16, literal(-22)))
        CFI (cfiCond213) VB load(1, XDATA, add(CFA_XSP16, literal(-21)))
        CFI (cfiCond213) V0 load(1, XDATA, add(CFA_XSP16, literal(-20)))
        CFI (cfiCond213) V1 load(1, XDATA, add(CFA_XSP16, literal(-19)))
        CFI (cfiCond213) V2 load(1, XDATA, add(CFA_XSP16, literal(-18)))
        CFI (cfiCond213) V3 load(1, XDATA, add(CFA_XSP16, literal(-17)))
        CFI (cfiCond213) V4 load(1, XDATA, add(CFA_XSP16, literal(-16)))
        CFI (cfiCond213) V5 load(1, XDATA, add(CFA_XSP16, literal(-15)))
        CFI (cfiCond213) V6 load(1, XDATA, add(CFA_XSP16, literal(-14)))
        CFI (cfiCond213) V7 load(1, XDATA, add(CFA_XSP16, literal(-13)))
        CFI (cfiCond213) V8 load(1, XDATA, add(CFA_XSP16, literal(-12)))
        CFI (cfiCond213) V9 load(1, XDATA, add(CFA_XSP16, literal(-11)))
        CFI (cfiCond213) V10 load(1, XDATA, add(CFA_XSP16, literal(-10)))
        CFI (cfiCond213) V11 load(1, XDATA, add(CFA_XSP16, literal(-9)))
        CFI (cfiCond213) V12 load(1, XDATA, add(CFA_XSP16, literal(-8)))
        CFI (cfiCond213) V13 load(1, XDATA, add(CFA_XSP16, literal(-7)))
        CFI (cfiCond213) R7 load(1, XDATA, add(CFA_XSP16, literal(-6)))
        CFI (cfiCond213) ?RET_LOW load(1, XDATA, add(CFA_XSP16, literal(-5)))
        CFI (cfiCond213) ?RET_HIGH load(1, XDATA, add(CFA_XSP16, literal(-4)))
        CFI (cfiCond213) ?BRET_EXT load(1, XDATA, add(CFA_XSP16, literal(-3)))
        CFI (cfiCond213) DPL0 load(1, XDATA, add(CFA_XSP16, literal(-2)))
        CFI (cfiCond213) DPH0 load(1, XDATA, add(CFA_XSP16, literal(-1)))
        CFI (cfiCond213) CFA_SP SP+0
        CFI (cfiCond213) CFA_XSP16 add(XSP16, 29)
        CFI Block cfiPicker214 Using cfiCommon1
        CFI (cfiPicker214) NoFunction
        CFI (cfiPicker214) Picker
        LCALL   ?Subroutine35 & 0xFFFF
??CrossCallReturnLabel_82:
        MOVX    A,@DPTR
        RET
        CFI EndBlock cfiCond212
        CFI EndBlock cfiCond213
        CFI EndBlock cfiPicker214

        RSEG BANKED_CODE:CODE:NOROOT(0)
?Subroutine35:
        CFI Block cfiCond215 Using cfiCommon0
        CFI NoFunction
        CFI Conditional ??CrossCallReturnLabel_82, ??CrossCallReturnLabel_13
        CFI R6 load(1, XDATA, add(CFA_XSP16, literal(-22)))
        CFI VB load(1, XDATA, add(CFA_XSP16, literal(-21)))
        CFI V0 load(1, XDATA, add(CFA_XSP16, literal(-20)))
        CFI V1 load(1, XDATA, add(CFA_XSP16, literal(-19)))
        CFI V2 load(1, XDATA, add(CFA_XSP16, literal(-18)))
        CFI V3 load(1, XDATA, add(CFA_XSP16, literal(-17)))
        CFI V4 load(1, XDATA, add(CFA_XSP16, literal(-16)))
        CFI V5 load(1, XDATA, add(CFA_XSP16, literal(-15)))
        CFI V6 load(1, XDATA, add(CFA_XSP16, literal(-14)))
        CFI V7 load(1, XDATA, add(CFA_XSP16, literal(-13)))
        CFI V8 load(1, XDATA, add(CFA_XSP16, literal(-12)))
        CFI V9 load(1, XDATA, add(CFA_XSP16, literal(-11)))
        CFI V10 load(1, XDATA, add(CFA_XSP16, literal(-10)))
        CFI V11 load(1, XDATA, add(CFA_XSP16, literal(-9)))
        CFI V12 load(1, XDATA, add(CFA_XSP16, literal(-8)))
        CFI V13 load(1, XDATA, add(CFA_XSP16, literal(-7)))
        CFI R7 load(1, XDATA, add(CFA_XSP16, literal(-6)))
        CFI ?RET_LOW load(1, XDATA, add(CFA_XSP16, literal(-5)))
        CFI ?RET_HIGH load(1, XDATA, add(CFA_XSP16, literal(-4)))
        CFI ?BRET_EXT load(1, XDATA, add(CFA_XSP16, literal(-3)))
        CFI DPL0 load(1, XDATA, add(CFA_XSP16, literal(-2)))
        CFI DPH0 load(1, XDATA, add(CFA_XSP16, literal(-1)))
        CFI CFA_SP SP+0
        CFI CFA_XSP16 add(XSP16, 29)
        CFI Block cfiCond216 Using cfiCommon0
        CFI (cfiCond216) NoFunction
        CFI (cfiCond216) Conditional ??CrossCallReturnLabel_82, ??CrossCallReturnLabel_14
        CFI (cfiCond216) R6 load(1, XDATA, add(CFA_XSP16, literal(-22)))
        CFI (cfiCond216) VB load(1, XDATA, add(CFA_XSP16, literal(-21)))
        CFI (cfiCond216) V0 load(1, XDATA, add(CFA_XSP16, literal(-20)))
        CFI (cfiCond216) V1 load(1, XDATA, add(CFA_XSP16, literal(-19)))
        CFI (cfiCond216) V2 load(1, XDATA, add(CFA_XSP16, literal(-18)))
        CFI (cfiCond216) V3 load(1, XDATA, add(CFA_XSP16, literal(-17)))
        CFI (cfiCond216) V4 load(1, XDATA, add(CFA_XSP16, literal(-16)))
        CFI (cfiCond216) V5 load(1, XDATA, add(CFA_XSP16, literal(-15)))
        CFI (cfiCond216) V6 load(1, XDATA, add(CFA_XSP16, literal(-14)))
        CFI (cfiCond216) V7 load(1, XDATA, add(CFA_XSP16, literal(-13)))
        CFI (cfiCond216) V8 load(1, XDATA, add(CFA_XSP16, literal(-12)))
        CFI (cfiCond216) V9 load(1, XDATA, add(CFA_XSP16, literal(-11)))
        CFI (cfiCond216) V10 load(1, XDATA, add(CFA_XSP16, literal(-10)))
        CFI (cfiCond216) V11 load(1, XDATA, add(CFA_XSP16, literal(-9)))
        CFI (cfiCond216) V12 load(1, XDATA, add(CFA_XSP16, literal(-8)))
        CFI (cfiCond216) V13 load(1, XDATA, add(CFA_XSP16, literal(-7)))
        CFI (cfiCond216) R7 load(1, XDATA, add(CFA_XSP16, literal(-6)))
        CFI (cfiCond216) ?RET_LOW load(1, XDATA, add(CFA_XSP16, literal(-5)))
        CFI (cfiCond216) ?RET_HIGH load(1, XDATA, add(CFA_XSP16, literal(-4)))
        CFI (cfiCond216) ?BRET_EXT load(1, XDATA, add(CFA_XSP16, literal(-3)))
        CFI (cfiCond216) DPL0 load(1, XDATA, add(CFA_XSP16, literal(-2)))
        CFI (cfiCond216) DPH0 load(1, XDATA, add(CFA_XSP16, literal(-1)))
        CFI (cfiCond216) CFA_SP SP+0
        CFI (cfiCond216) CFA_XSP16 add(XSP16, 29)
        CFI Block cfiCond217 Using cfiCommon0
        CFI (cfiCond217) NoFunction
        CFI (cfiCond217) Conditional ??CrossCallReturnLabel_81, ??CrossCallReturnLabel_11
        CFI (cfiCond217) R6 load(1, XDATA, add(CFA_XSP16, literal(-22)))
        CFI (cfiCond217) VB load(1, XDATA, add(CFA_XSP16, literal(-21)))
        CFI (cfiCond217) V0 load(1, XDATA, add(CFA_XSP16, literal(-20)))
        CFI (cfiCond217) V1 load(1, XDATA, add(CFA_XSP16, literal(-19)))
        CFI (cfiCond217) V2 load(1, XDATA, add(CFA_XSP16, literal(-18)))
        CFI (cfiCond217) V3 load(1, XDATA, add(CFA_XSP16, literal(-17)))
        CFI (cfiCond217) V4 load(1, XDATA, add(CFA_XSP16, literal(-16)))
        CFI (cfiCond217) V5 load(1, XDATA, add(CFA_XSP16, literal(-15)))
        CFI (cfiCond217) V6 load(1, XDATA, add(CFA_XSP16, literal(-14)))
        CFI (cfiCond217) V7 load(1, XDATA, add(CFA_XSP16, literal(-13)))
        CFI (cfiCond217) V8 load(1, XDATA, add(CFA_XSP16, literal(-12)))
        CFI (cfiCond217) V9 load(1, XDATA, add(CFA_XSP16, literal(-11)))
        CFI (cfiCond217) V10 load(1, XDATA, add(CFA_XSP16, literal(-10)))
        CFI (cfiCond217) V11 load(1, XDATA, add(CFA_XSP16, literal(-9)))
        CFI (cfiCond217) V12 load(1, XDATA, add(CFA_XSP16, literal(-8)))
        CFI (cfiCond217) V13 load(1, XDATA, add(CFA_XSP16, literal(-7)))
        CFI (cfiCond217) R7 load(1, XDATA, add(CFA_XSP16, literal(-6)))
        CFI (cfiCond217) ?RET_LOW load(1, XDATA, add(CFA_XSP16, literal(-5)))
        CFI (cfiCond217) ?RET_HIGH load(1, XDATA, add(CFA_XSP16, literal(-4)))
        CFI (cfiCond217) ?BRET_EXT load(1, XDATA, add(CFA_XSP16, literal(-3)))
        CFI (cfiCond217) DPL0 load(1, XDATA, add(CFA_XSP16, literal(-2)))
        CFI (cfiCond217) DPH0 load(1, XDATA, add(CFA_XSP16, literal(-1)))
        CFI (cfiCond217) CFA_SP SP+0
        CFI (cfiCond217) CFA_XSP16 add(XSP16, 29)
        CFI Block cfiCond218 Using cfiCommon0
        CFI (cfiCond218) NoFunction
        CFI (cfiCond218) Conditional ??CrossCallReturnLabel_81, ??CrossCallReturnLabel_12
        CFI (cfiCond218) R6 load(1, XDATA, add(CFA_XSP16, literal(-22)))
        CFI (cfiCond218) VB load(1, XDATA, add(CFA_XSP16, literal(-21)))
        CFI (cfiCond218) V0 load(1, XDATA, add(CFA_XSP16, literal(-20)))
        CFI (cfiCond218) V1 load(1, XDATA, add(CFA_XSP16, literal(-19)))
        CFI (cfiCond218) V2 load(1, XDATA, add(CFA_XSP16, literal(-18)))
        CFI (cfiCond218) V3 load(1, XDATA, add(CFA_XSP16, literal(-17)))
        CFI (cfiCond218) V4 load(1, XDATA, add(CFA_XSP16, literal(-16)))
        CFI (cfiCond218) V5 load(1, XDATA, add(CFA_XSP16, literal(-15)))
        CFI (cfiCond218) V6 load(1, XDATA, add(CFA_XSP16, literal(-14)))
        CFI (cfiCond218) V7 load(1, XDATA, add(CFA_XSP16, literal(-13)))
        CFI (cfiCond218) V8 load(1, XDATA, add(CFA_XSP16, literal(-12)))
        CFI (cfiCond218) V9 load(1, XDATA, add(CFA_XSP16, literal(-11)))
        CFI (cfiCond218) V10 load(1, XDATA, add(CFA_XSP16, literal(-10)))
        CFI (cfiCond218) V11 load(1, XDATA, add(CFA_XSP16, literal(-9)))
        CFI (cfiCond218) V12 load(1, XDATA, add(CFA_XSP16, literal(-8)))
        CFI (cfiCond218) V13 load(1, XDATA, add(CFA_XSP16, literal(-7)))
        CFI (cfiCond218) R7 load(1, XDATA, add(CFA_XSP16, literal(-6)))
        CFI (cfiCond218) ?RET_LOW load(1, XDATA, add(CFA_XSP16, literal(-5)))
        CFI (cfiCond218) ?RET_HIGH load(1, XDATA, add(CFA_XSP16, literal(-4)))
        CFI (cfiCond218) ?BRET_EXT load(1, XDATA, add(CFA_XSP16, literal(-3)))
        CFI (cfiCond218) DPL0 load(1, XDATA, add(CFA_XSP16, literal(-2)))
        CFI (cfiCond218) DPH0 load(1, XDATA, add(CFA_XSP16, literal(-1)))
        CFI (cfiCond218) CFA_SP SP+0
        CFI (cfiCond218) CFA_XSP16 add(XSP16, 29)
        CFI Block cfiPicker219 Using cfiCommon1
        CFI (cfiPicker219) NoFunction
        CFI (cfiPicker219) Picker
        MOV     DPL,?XSP + 0
        MOV     DPH,?XSP + 1
        MOVX    A,@DPTR
        CFI EndBlock cfiCond215
        CFI EndBlock cfiCond216
        CFI EndBlock cfiCond217
        CFI EndBlock cfiCond218
        CFI EndBlock cfiPicker219
        REQUIRE ??Subroutine54_0
        ; // Fall through to label ??Subroutine54_0

        RSEG BANKED_CODE:CODE:NOROOT(0)
??Subroutine54_0:
        CFI Block cfiCond220 Using cfiCommon0
        CFI NoFunction
        CFI Conditional ??CrossCallReturnLabel_80
        CFI R6 load(1, XDATA, add(CFA_XSP16, literal(-22)))
        CFI VB load(1, XDATA, add(CFA_XSP16, literal(-21)))
        CFI V0 load(1, XDATA, add(CFA_XSP16, literal(-20)))
        CFI V1 load(1, XDATA, add(CFA_XSP16, literal(-19)))
        CFI V2 load(1, XDATA, add(CFA_XSP16, literal(-18)))
        CFI V3 load(1, XDATA, add(CFA_XSP16, literal(-17)))
        CFI V4 load(1, XDATA, add(CFA_XSP16, literal(-16)))
        CFI V5 load(1, XDATA, add(CFA_XSP16, literal(-15)))
        CFI V6 load(1, XDATA, add(CFA_XSP16, literal(-14)))
        CFI V7 load(1, XDATA, add(CFA_XSP16, literal(-13)))
        CFI V8 load(1, XDATA, add(CFA_XSP16, literal(-12)))
        CFI V9 load(1, XDATA, add(CFA_XSP16, literal(-11)))
        CFI V10 load(1, XDATA, add(CFA_XSP16, literal(-10)))
        CFI V11 load(1, XDATA, add(CFA_XSP16, literal(-9)))
        CFI V12 load(1, XDATA, add(CFA_XSP16, literal(-8)))
        CFI V13 load(1, XDATA, add(CFA_XSP16, literal(-7)))
        CFI R7 load(1, XDATA, add(CFA_XSP16, literal(-6)))
        CFI ?RET_LOW load(1, XDATA, add(CFA_XSP16, literal(-5)))
        CFI ?RET_HIGH load(1, XDATA, add(CFA_XSP16, literal(-4)))
        CFI ?BRET_EXT load(1, XDATA, add(CFA_XSP16, literal(-3)))
        CFI DPL0 load(1, XDATA, add(CFA_XSP16, literal(-2)))
        CFI DPH0 load(1, XDATA, add(CFA_XSP16, literal(-1)))
        CFI CFA_SP SP+0
        CFI CFA_XSP16 add(XSP16, 29)
        CFI Block cfiCond221 Using cfiCommon0
        CFI (cfiCond221) NoFunction
        CFI (cfiCond221) Conditional ??CrossCallReturnLabel_82, ??CrossCallReturnLabel_13
        CFI (cfiCond221) R6 load(1, XDATA, add(CFA_XSP16, literal(-22)))
        CFI (cfiCond221) VB load(1, XDATA, add(CFA_XSP16, literal(-21)))
        CFI (cfiCond221) V0 load(1, XDATA, add(CFA_XSP16, literal(-20)))
        CFI (cfiCond221) V1 load(1, XDATA, add(CFA_XSP16, literal(-19)))
        CFI (cfiCond221) V2 load(1, XDATA, add(CFA_XSP16, literal(-18)))
        CFI (cfiCond221) V3 load(1, XDATA, add(CFA_XSP16, literal(-17)))
        CFI (cfiCond221) V4 load(1, XDATA, add(CFA_XSP16, literal(-16)))
        CFI (cfiCond221) V5 load(1, XDATA, add(CFA_XSP16, literal(-15)))
        CFI (cfiCond221) V6 load(1, XDATA, add(CFA_XSP16, literal(-14)))
        CFI (cfiCond221) V7 load(1, XDATA, add(CFA_XSP16, literal(-13)))
        CFI (cfiCond221) V8 load(1, XDATA, add(CFA_XSP16, literal(-12)))
        CFI (cfiCond221) V9 load(1, XDATA, add(CFA_XSP16, literal(-11)))
        CFI (cfiCond221) V10 load(1, XDATA, add(CFA_XSP16, literal(-10)))
        CFI (cfiCond221) V11 load(1, XDATA, add(CFA_XSP16, literal(-9)))
        CFI (cfiCond221) V12 load(1, XDATA, add(CFA_XSP16, literal(-8)))
        CFI (cfiCond221) V13 load(1, XDATA, add(CFA_XSP16, literal(-7)))
        CFI (cfiCond221) R7 load(1, XDATA, add(CFA_XSP16, literal(-6)))
        CFI (cfiCond221) ?RET_LOW load(1, XDATA, add(CFA_XSP16, literal(-5)))
        CFI (cfiCond221) ?RET_HIGH load(1, XDATA, add(CFA_XSP16, literal(-4)))
        CFI (cfiCond221) ?BRET_EXT load(1, XDATA, add(CFA_XSP16, literal(-3)))
        CFI (cfiCond221) DPL0 load(1, XDATA, add(CFA_XSP16, literal(-2)))
        CFI (cfiCond221) DPH0 load(1, XDATA, add(CFA_XSP16, literal(-1)))
        CFI (cfiCond221) CFA_SP SP+0
        CFI (cfiCond221) CFA_XSP16 add(XSP16, 29)
        CFI Block cfiCond222 Using cfiCommon0
        CFI (cfiCond222) NoFunction
        CFI (cfiCond222) Conditional ??CrossCallReturnLabel_82, ??CrossCallReturnLabel_14
        CFI (cfiCond222) R6 load(1, XDATA, add(CFA_XSP16, literal(-22)))
        CFI (cfiCond222) VB load(1, XDATA, add(CFA_XSP16, literal(-21)))
        CFI (cfiCond222) V0 load(1, XDATA, add(CFA_XSP16, literal(-20)))
        CFI (cfiCond222) V1 load(1, XDATA, add(CFA_XSP16, literal(-19)))
        CFI (cfiCond222) V2 load(1, XDATA, add(CFA_XSP16, literal(-18)))
        CFI (cfiCond222) V3 load(1, XDATA, add(CFA_XSP16, literal(-17)))
        CFI (cfiCond222) V4 load(1, XDATA, add(CFA_XSP16, literal(-16)))
        CFI (cfiCond222) V5 load(1, XDATA, add(CFA_XSP16, literal(-15)))
        CFI (cfiCond222) V6 load(1, XDATA, add(CFA_XSP16, literal(-14)))
        CFI (cfiCond222) V7 load(1, XDATA, add(CFA_XSP16, literal(-13)))
        CFI (cfiCond222) V8 load(1, XDATA, add(CFA_XSP16, literal(-12)))
        CFI (cfiCond222) V9 load(1, XDATA, add(CFA_XSP16, literal(-11)))
        CFI (cfiCond222) V10 load(1, XDATA, add(CFA_XSP16, literal(-10)))
        CFI (cfiCond222) V11 load(1, XDATA, add(CFA_XSP16, literal(-9)))
        CFI (cfiCond222) V12 load(1, XDATA, add(CFA_XSP16, literal(-8)))
        CFI (cfiCond222) V13 load(1, XDATA, add(CFA_XSP16, literal(-7)))
        CFI (cfiCond222) R7 load(1, XDATA, add(CFA_XSP16, literal(-6)))
        CFI (cfiCond222) ?RET_LOW load(1, XDATA, add(CFA_XSP16, literal(-5)))
        CFI (cfiCond222) ?RET_HIGH load(1, XDATA, add(CFA_XSP16, literal(-4)))
        CFI (cfiCond222) ?BRET_EXT load(1, XDATA, add(CFA_XSP16, literal(-3)))
        CFI (cfiCond222) DPL0 load(1, XDATA, add(CFA_XSP16, literal(-2)))
        CFI (cfiCond222) DPH0 load(1, XDATA, add(CFA_XSP16, literal(-1)))
        CFI (cfiCond222) CFA_SP SP+0
        CFI (cfiCond222) CFA_XSP16 add(XSP16, 29)
        CFI Block cfiCond223 Using cfiCommon0
        CFI (cfiCond223) NoFunction
        CFI (cfiCond223) Conditional ??CrossCallReturnLabel_81, ??CrossCallReturnLabel_11
        CFI (cfiCond223) R6 load(1, XDATA, add(CFA_XSP16, literal(-22)))
        CFI (cfiCond223) VB load(1, XDATA, add(CFA_XSP16, literal(-21)))
        CFI (cfiCond223) V0 load(1, XDATA, add(CFA_XSP16, literal(-20)))
        CFI (cfiCond223) V1 load(1, XDATA, add(CFA_XSP16, literal(-19)))
        CFI (cfiCond223) V2 load(1, XDATA, add(CFA_XSP16, literal(-18)))
        CFI (cfiCond223) V3 load(1, XDATA, add(CFA_XSP16, literal(-17)))
        CFI (cfiCond223) V4 load(1, XDATA, add(CFA_XSP16, literal(-16)))
        CFI (cfiCond223) V5 load(1, XDATA, add(CFA_XSP16, literal(-15)))
        CFI (cfiCond223) V6 load(1, XDATA, add(CFA_XSP16, literal(-14)))
        CFI (cfiCond223) V7 load(1, XDATA, add(CFA_XSP16, literal(-13)))
        CFI (cfiCond223) V8 load(1, XDATA, add(CFA_XSP16, literal(-12)))
        CFI (cfiCond223) V9 load(1, XDATA, add(CFA_XSP16, literal(-11)))
        CFI (cfiCond223) V10 load(1, XDATA, add(CFA_XSP16, literal(-10)))
        CFI (cfiCond223) V11 load(1, XDATA, add(CFA_XSP16, literal(-9)))
        CFI (cfiCond223) V12 load(1, XDATA, add(CFA_XSP16, literal(-8)))
        CFI (cfiCond223) V13 load(1, XDATA, add(CFA_XSP16, literal(-7)))
        CFI (cfiCond223) R7 load(1, XDATA, add(CFA_XSP16, literal(-6)))
        CFI (cfiCond223) ?RET_LOW load(1, XDATA, add(CFA_XSP16, literal(-5)))
        CFI (cfiCond223) ?RET_HIGH load(1, XDATA, add(CFA_XSP16, literal(-4)))
        CFI (cfiCond223) ?BRET_EXT load(1, XDATA, add(CFA_XSP16, literal(-3)))
        CFI (cfiCond223) DPL0 load(1, XDATA, add(CFA_XSP16, literal(-2)))
        CFI (cfiCond223) DPH0 load(1, XDATA, add(CFA_XSP16, literal(-1)))
        CFI (cfiCond223) CFA_SP SP+0
        CFI (cfiCond223) CFA_XSP16 add(XSP16, 29)
        CFI Block cfiCond224 Using cfiCommon0
        CFI (cfiCond224) NoFunction
        CFI (cfiCond224) Conditional ??CrossCallReturnLabel_81, ??CrossCallReturnLabel_12
        CFI (cfiCond224) R6 load(1, XDATA, add(CFA_XSP16, literal(-22)))
        CFI (cfiCond224) VB load(1, XDATA, add(CFA_XSP16, literal(-21)))
        CFI (cfiCond224) V0 load(1, XDATA, add(CFA_XSP16, literal(-20)))
        CFI (cfiCond224) V1 load(1, XDATA, add(CFA_XSP16, literal(-19)))
        CFI (cfiCond224) V2 load(1, XDATA, add(CFA_XSP16, literal(-18)))
        CFI (cfiCond224) V3 load(1, XDATA, add(CFA_XSP16, literal(-17)))
        CFI (cfiCond224) V4 load(1, XDATA, add(CFA_XSP16, literal(-16)))
        CFI (cfiCond224) V5 load(1, XDATA, add(CFA_XSP16, literal(-15)))
        CFI (cfiCond224) V6 load(1, XDATA, add(CFA_XSP16, literal(-14)))
        CFI (cfiCond224) V7 load(1, XDATA, add(CFA_XSP16, literal(-13)))
        CFI (cfiCond224) V8 load(1, XDATA, add(CFA_XSP16, literal(-12)))
        CFI (cfiCond224) V9 load(1, XDATA, add(CFA_XSP16, literal(-11)))
        CFI (cfiCond224) V10 load(1, XDATA, add(CFA_XSP16, literal(-10)))
        CFI (cfiCond224) V11 load(1, XDATA, add(CFA_XSP16, literal(-9)))
        CFI (cfiCond224) V12 load(1, XDATA, add(CFA_XSP16, literal(-8)))
        CFI (cfiCond224) V13 load(1, XDATA, add(CFA_XSP16, literal(-7)))
        CFI (cfiCond224) R7 load(1, XDATA, add(CFA_XSP16, literal(-6)))
        CFI (cfiCond224) ?RET_LOW load(1, XDATA, add(CFA_XSP16, literal(-5)))
        CFI (cfiCond224) ?RET_HIGH load(1, XDATA, add(CFA_XSP16, literal(-4)))
        CFI (cfiCond224) ?BRET_EXT load(1, XDATA, add(CFA_XSP16, literal(-3)))
        CFI (cfiCond224) DPL0 load(1, XDATA, add(CFA_XSP16, literal(-2)))
        CFI (cfiCond224) DPH0 load(1, XDATA, add(CFA_XSP16, literal(-1)))
        CFI (cfiCond224) CFA_SP SP+0
        CFI (cfiCond224) CFA_XSP16 add(XSP16, 29)
        CFI Block cfiPicker225 Using cfiCommon1
        CFI (cfiPicker225) NoFunction
        CFI (cfiPicker225) Picker
        MOV     R0,A
        INC     DPTR
        MOVX    A,@DPTR
        MOV     DPH,A
        MOV     DPL,R0
        INC     DPTR
        INC     DPTR
        INC     DPTR
        INC     DPTR
        INC     DPTR
        INC     DPTR
        RET
        CFI EndBlock cfiCond220
        CFI EndBlock cfiCond221
        CFI EndBlock cfiCond222
        CFI EndBlock cfiCond223
        CFI EndBlock cfiCond224
        CFI EndBlock cfiPicker225

        RSEG BANKED_CODE:CODE:NOROOT(0)
?Subroutine12:
        CFI Block cfiCond226 Using cfiCommon0
        CFI NoFunction
        CFI Conditional ??CrossCallReturnLabel_11
        CFI R6 load(1, XDATA, add(CFA_XSP16, literal(-22)))
        CFI VB load(1, XDATA, add(CFA_XSP16, literal(-21)))
        CFI V0 load(1, XDATA, add(CFA_XSP16, literal(-20)))
        CFI V1 load(1, XDATA, add(CFA_XSP16, literal(-19)))
        CFI V2 load(1, XDATA, add(CFA_XSP16, literal(-18)))
        CFI V3 load(1, XDATA, add(CFA_XSP16, literal(-17)))
        CFI V4 load(1, XDATA, add(CFA_XSP16, literal(-16)))
        CFI V5 load(1, XDATA, add(CFA_XSP16, literal(-15)))
        CFI V6 load(1, XDATA, add(CFA_XSP16, literal(-14)))
        CFI V7 load(1, XDATA, add(CFA_XSP16, literal(-13)))
        CFI V8 load(1, XDATA, add(CFA_XSP16, literal(-12)))
        CFI V9 load(1, XDATA, add(CFA_XSP16, literal(-11)))
        CFI V10 load(1, XDATA, add(CFA_XSP16, literal(-10)))
        CFI V11 load(1, XDATA, add(CFA_XSP16, literal(-9)))
        CFI V12 load(1, XDATA, add(CFA_XSP16, literal(-8)))
        CFI V13 load(1, XDATA, add(CFA_XSP16, literal(-7)))
        CFI R7 load(1, XDATA, add(CFA_XSP16, literal(-6)))
        CFI ?RET_LOW load(1, XDATA, add(CFA_XSP16, literal(-5)))
        CFI ?RET_HIGH load(1, XDATA, add(CFA_XSP16, literal(-4)))
        CFI ?BRET_EXT load(1, XDATA, add(CFA_XSP16, literal(-3)))
        CFI DPL0 load(1, XDATA, add(CFA_XSP16, literal(-2)))
        CFI DPH0 load(1, XDATA, add(CFA_XSP16, literal(-1)))
        CFI CFA_SP SP+0
        CFI CFA_XSP16 add(XSP16, 29)
        CFI Block cfiCond227 Using cfiCommon0
        CFI (cfiCond227) NoFunction
        CFI (cfiCond227) Conditional ??CrossCallReturnLabel_12
        CFI (cfiCond227) R6 load(1, XDATA, add(CFA_XSP16, literal(-22)))
        CFI (cfiCond227) VB load(1, XDATA, add(CFA_XSP16, literal(-21)))
        CFI (cfiCond227) V0 load(1, XDATA, add(CFA_XSP16, literal(-20)))
        CFI (cfiCond227) V1 load(1, XDATA, add(CFA_XSP16, literal(-19)))
        CFI (cfiCond227) V2 load(1, XDATA, add(CFA_XSP16, literal(-18)))
        CFI (cfiCond227) V3 load(1, XDATA, add(CFA_XSP16, literal(-17)))
        CFI (cfiCond227) V4 load(1, XDATA, add(CFA_XSP16, literal(-16)))
        CFI (cfiCond227) V5 load(1, XDATA, add(CFA_XSP16, literal(-15)))
        CFI (cfiCond227) V6 load(1, XDATA, add(CFA_XSP16, literal(-14)))
        CFI (cfiCond227) V7 load(1, XDATA, add(CFA_XSP16, literal(-13)))
        CFI (cfiCond227) V8 load(1, XDATA, add(CFA_XSP16, literal(-12)))
        CFI (cfiCond227) V9 load(1, XDATA, add(CFA_XSP16, literal(-11)))
        CFI (cfiCond227) V10 load(1, XDATA, add(CFA_XSP16, literal(-10)))
        CFI (cfiCond227) V11 load(1, XDATA, add(CFA_XSP16, literal(-9)))
        CFI (cfiCond227) V12 load(1, XDATA, add(CFA_XSP16, literal(-8)))
        CFI (cfiCond227) V13 load(1, XDATA, add(CFA_XSP16, literal(-7)))
        CFI (cfiCond227) R7 load(1, XDATA, add(CFA_XSP16, literal(-6)))
        CFI (cfiCond227) ?RET_LOW load(1, XDATA, add(CFA_XSP16, literal(-5)))
        CFI (cfiCond227) ?RET_HIGH load(1, XDATA, add(CFA_XSP16, literal(-4)))
        CFI (cfiCond227) ?BRET_EXT load(1, XDATA, add(CFA_XSP16, literal(-3)))
        CFI (cfiCond227) DPL0 load(1, XDATA, add(CFA_XSP16, literal(-2)))
        CFI (cfiCond227) DPH0 load(1, XDATA, add(CFA_XSP16, literal(-1)))
        CFI (cfiCond227) CFA_SP SP+0
        CFI (cfiCond227) CFA_XSP16 add(XSP16, 29)
        CFI Block cfiPicker228 Using cfiCommon1
        CFI (cfiPicker228) NoFunction
        CFI (cfiPicker228) Picker
        LCALL   ?Subroutine35 & 0xFFFF
??CrossCallReturnLabel_81:
        INC     DPTR
        INC     DPTR
        INC     DPTR
        RET
        CFI EndBlock cfiCond226
        CFI EndBlock cfiCond227
        CFI EndBlock cfiPicker228

        RSEG BANKED_CODE:CODE:NOROOT(0)
?Subroutine7:
        CFI Block cfiCond229 Using cfiCommon0
        CFI NoFunction
        CFI Conditional ??CrossCallReturnLabel_5
        CFI R6 load(1, XDATA, add(CFA_XSP16, literal(-14)))
        CFI VB load(1, XDATA, add(CFA_XSP16, literal(-13)))
        CFI V0 load(1, XDATA, add(CFA_XSP16, literal(-12)))
        CFI V1 load(1, XDATA, add(CFA_XSP16, literal(-11)))
        CFI V2 load(1, XDATA, add(CFA_XSP16, literal(-10)))
        CFI V3 load(1, XDATA, add(CFA_XSP16, literal(-9)))
        CFI V4 load(1, XDATA, add(CFA_XSP16, literal(-8)))
        CFI V5 load(1, XDATA, add(CFA_XSP16, literal(-7)))
        CFI R7 load(1, XDATA, add(CFA_XSP16, literal(-6)))
        CFI ?RET_LOW load(1, XDATA, add(CFA_XSP16, literal(-5)))
        CFI ?RET_HIGH load(1, XDATA, add(CFA_XSP16, literal(-4)))
        CFI ?BRET_EXT load(1, XDATA, add(CFA_XSP16, literal(-3)))
        CFI DPL0 load(1, XDATA, add(CFA_XSP16, literal(-2)))
        CFI DPH0 load(1, XDATA, add(CFA_XSP16, literal(-1)))
        CFI CFA_SP SP+0
        CFI CFA_XSP16 add(XSP16, 19)
        CFI Block cfiCond230 Using cfiCommon0
        CFI (cfiCond230) NoFunction
        CFI (cfiCond230) Conditional ??CrossCallReturnLabel_6
        CFI (cfiCond230) R6 load(1, XDATA, add(CFA_XSP16, literal(-22)))
        CFI (cfiCond230) VB load(1, XDATA, add(CFA_XSP16, literal(-21)))
        CFI (cfiCond230) V0 load(1, XDATA, add(CFA_XSP16, literal(-20)))
        CFI (cfiCond230) V1 load(1, XDATA, add(CFA_XSP16, literal(-19)))
        CFI (cfiCond230) V2 load(1, XDATA, add(CFA_XSP16, literal(-18)))
        CFI (cfiCond230) V3 load(1, XDATA, add(CFA_XSP16, literal(-17)))
        CFI (cfiCond230) V4 load(1, XDATA, add(CFA_XSP16, literal(-16)))
        CFI (cfiCond230) V5 load(1, XDATA, add(CFA_XSP16, literal(-15)))
        CFI (cfiCond230) V6 load(1, XDATA, add(CFA_XSP16, literal(-14)))
        CFI (cfiCond230) V7 load(1, XDATA, add(CFA_XSP16, literal(-13)))
        CFI (cfiCond230) V8 load(1, XDATA, add(CFA_XSP16, literal(-12)))
        CFI (cfiCond230) V9 load(1, XDATA, add(CFA_XSP16, literal(-11)))
        CFI (cfiCond230) V10 load(1, XDATA, add(CFA_XSP16, literal(-10)))
        CFI (cfiCond230) V11 load(1, XDATA, add(CFA_XSP16, literal(-9)))
        CFI (cfiCond230) V12 load(1, XDATA, add(CFA_XSP16, literal(-8)))
        CFI (cfiCond230) V13 load(1, XDATA, add(CFA_XSP16, literal(-7)))
        CFI (cfiCond230) R7 load(1, XDATA, add(CFA_XSP16, literal(-6)))
        CFI (cfiCond230) ?RET_LOW load(1, XDATA, add(CFA_XSP16, literal(-5)))
        CFI (cfiCond230) ?RET_HIGH load(1, XDATA, add(CFA_XSP16, literal(-4)))
        CFI (cfiCond230) ?BRET_EXT load(1, XDATA, add(CFA_XSP16, literal(-3)))
        CFI (cfiCond230) DPL0 load(1, XDATA, add(CFA_XSP16, literal(-2)))
        CFI (cfiCond230) DPH0 load(1, XDATA, add(CFA_XSP16, literal(-1)))
        CFI (cfiCond230) CFA_SP SP+0
        CFI (cfiCond230) CFA_XSP16 add(XSP16, 29)
        CFI Block cfiPicker231 Using cfiCommon1
        CFI (cfiPicker231) NoFunction
        CFI (cfiPicker231) Picker
        MOVX    @DPTR,A
        ; Setup parameters for call to function osal_memcpy
        MOV     DPL,?XSP + 0
        MOV     DPH,?XSP + 1
        MOVX    A,@DPTR
        RET
        CFI EndBlock cfiCond229
        CFI EndBlock cfiCond230
        CFI EndBlock cfiPicker231

        RSEG BANKED_CODE:CODE:NOROOT(0)
?Subroutine6:
        CFI Block cfiCond232 Using cfiCommon0
        CFI NoFunction
        CFI Conditional ??CrossCallReturnLabel_3
        CFI R6 load(1, XDATA, add(CFA_XSP16, literal(-22)))
        CFI VB load(1, XDATA, add(CFA_XSP16, literal(-21)))
        CFI V0 load(1, XDATA, add(CFA_XSP16, literal(-20)))
        CFI V1 load(1, XDATA, add(CFA_XSP16, literal(-19)))
        CFI V2 load(1, XDATA, add(CFA_XSP16, literal(-18)))
        CFI V3 load(1, XDATA, add(CFA_XSP16, literal(-17)))
        CFI V4 load(1, XDATA, add(CFA_XSP16, literal(-16)))
        CFI V5 load(1, XDATA, add(CFA_XSP16, literal(-15)))
        CFI V6 load(1, XDATA, add(CFA_XSP16, literal(-14)))
        CFI V7 load(1, XDATA, add(CFA_XSP16, literal(-13)))
        CFI V8 load(1, XDATA, add(CFA_XSP16, literal(-12)))
        CFI V9 load(1, XDATA, add(CFA_XSP16, literal(-11)))
        CFI V10 load(1, XDATA, add(CFA_XSP16, literal(-10)))
        CFI V11 load(1, XDATA, add(CFA_XSP16, literal(-9)))
        CFI V12 load(1, XDATA, add(CFA_XSP16, literal(-8)))
        CFI V13 load(1, XDATA, add(CFA_XSP16, literal(-7)))
        CFI R7 load(1, XDATA, add(CFA_XSP16, literal(-6)))
        CFI ?RET_LOW load(1, XDATA, add(CFA_XSP16, literal(-5)))
        CFI ?RET_HIGH load(1, XDATA, add(CFA_XSP16, literal(-4)))
        CFI ?BRET_EXT load(1, XDATA, add(CFA_XSP16, literal(-3)))
        CFI DPL0 load(1, XDATA, add(CFA_XSP16, literal(-2)))
        CFI DPH0 load(1, XDATA, add(CFA_XSP16, literal(-1)))
        CFI CFA_SP SP+0
        CFI CFA_XSP16 add(XSP16, 29)
        CFI Block cfiCond233 Using cfiCommon0
        CFI (cfiCond233) NoFunction
        CFI (cfiCond233) Conditional ??CrossCallReturnLabel_4
        CFI (cfiCond233) R6 load(1, XDATA, add(CFA_XSP16, literal(-22)))
        CFI (cfiCond233) VB load(1, XDATA, add(CFA_XSP16, literal(-21)))
        CFI (cfiCond233) V0 load(1, XDATA, add(CFA_XSP16, literal(-20)))
        CFI (cfiCond233) V1 load(1, XDATA, add(CFA_XSP16, literal(-19)))
        CFI (cfiCond233) V2 load(1, XDATA, add(CFA_XSP16, literal(-18)))
        CFI (cfiCond233) V3 load(1, XDATA, add(CFA_XSP16, literal(-17)))
        CFI (cfiCond233) V4 load(1, XDATA, add(CFA_XSP16, literal(-16)))
        CFI (cfiCond233) V5 load(1, XDATA, add(CFA_XSP16, literal(-15)))
        CFI (cfiCond233) V6 load(1, XDATA, add(CFA_XSP16, literal(-14)))
        CFI (cfiCond233) V7 load(1, XDATA, add(CFA_XSP16, literal(-13)))
        CFI (cfiCond233) V8 load(1, XDATA, add(CFA_XSP16, literal(-12)))
        CFI (cfiCond233) V9 load(1, XDATA, add(CFA_XSP16, literal(-11)))
        CFI (cfiCond233) V10 load(1, XDATA, add(CFA_XSP16, literal(-10)))
        CFI (cfiCond233) V11 load(1, XDATA, add(CFA_XSP16, literal(-9)))
        CFI (cfiCond233) V12 load(1, XDATA, add(CFA_XSP16, literal(-8)))
        CFI (cfiCond233) V13 load(1, XDATA, add(CFA_XSP16, literal(-7)))
        CFI (cfiCond233) R7 load(1, XDATA, add(CFA_XSP16, literal(-6)))
        CFI (cfiCond233) ?RET_LOW load(1, XDATA, add(CFA_XSP16, literal(-5)))
        CFI (cfiCond233) ?RET_HIGH load(1, XDATA, add(CFA_XSP16, literal(-4)))
        CFI (cfiCond233) ?BRET_EXT load(1, XDATA, add(CFA_XSP16, literal(-3)))
        CFI (cfiCond233) DPL0 load(1, XDATA, add(CFA_XSP16, literal(-2)))
        CFI (cfiCond233) DPH0 load(1, XDATA, add(CFA_XSP16, literal(-1)))
        CFI (cfiCond233) CFA_SP SP+0
        CFI (cfiCond233) CFA_XSP16 add(XSP16, 29)
        CFI Block cfiPicker234 Using cfiCommon1
        CFI (cfiPicker234) NoFunction
        CFI (cfiPicker234) Picker
        MOVX    @DPTR,A
        MOV     DPL,?V0 + 4
        MOV     DPH,?V0 + 5
        INC     DPTR
        MOVX    A,@DPTR
        RET
        CFI EndBlock cfiCond232
        CFI EndBlock cfiCond233
        CFI EndBlock cfiPicker234

        RSEG BANKED_CODE:CODE:NOROOT(0)
?Subroutine5:
        CFI Block cfiCond235 Using cfiCommon0
        CFI NoFunction
        CFI Conditional ??CrossCallReturnLabel_0
        CFI R6 load(1, XDATA, add(CFA_XSP16, literal(-16)))
        CFI VB load(1, XDATA, add(CFA_XSP16, literal(-15)))
        CFI V0 load(1, XDATA, add(CFA_XSP16, literal(-14)))
        CFI V1 load(1, XDATA, add(CFA_XSP16, literal(-13)))
        CFI V2 load(1, XDATA, add(CFA_XSP16, literal(-12)))
        CFI V3 load(1, XDATA, add(CFA_XSP16, literal(-11)))
        CFI V4 load(1, XDATA, add(CFA_XSP16, literal(-10)))
        CFI V5 load(1, XDATA, add(CFA_XSP16, literal(-9)))
        CFI V6 load(1, XDATA, add(CFA_XSP16, literal(-8)))
        CFI V7 load(1, XDATA, add(CFA_XSP16, literal(-7)))
        CFI R7 load(1, XDATA, add(CFA_XSP16, literal(-6)))
        CFI ?RET_LOW load(1, XDATA, add(CFA_XSP16, literal(-5)))
        CFI ?RET_HIGH load(1, XDATA, add(CFA_XSP16, literal(-4)))
        CFI ?BRET_EXT load(1, XDATA, add(CFA_XSP16, literal(-3)))
        CFI DPL0 load(1, XDATA, add(CFA_XSP16, literal(-2)))
        CFI DPH0 load(1, XDATA, add(CFA_XSP16, literal(-1)))
        CFI CFA_SP SP+0
        CFI CFA_XSP16 add(XSP16, 33)
        CFI Block cfiCond236 Using cfiCommon0
        CFI (cfiCond236) NoFunction
        CFI (cfiCond236) Conditional ??CrossCallReturnLabel_1
        CFI (cfiCond236) R6 load(1, XDATA, add(CFA_XSP16, literal(-22)))
        CFI (cfiCond236) VB load(1, XDATA, add(CFA_XSP16, literal(-21)))
        CFI (cfiCond236) V0 load(1, XDATA, add(CFA_XSP16, literal(-20)))
        CFI (cfiCond236) V1 load(1, XDATA, add(CFA_XSP16, literal(-19)))
        CFI (cfiCond236) V2 load(1, XDATA, add(CFA_XSP16, literal(-18)))
        CFI (cfiCond236) V3 load(1, XDATA, add(CFA_XSP16, literal(-17)))
        CFI (cfiCond236) V4 load(1, XDATA, add(CFA_XSP16, literal(-16)))
        CFI (cfiCond236) V5 load(1, XDATA, add(CFA_XSP16, literal(-15)))
        CFI (cfiCond236) V6 load(1, XDATA, add(CFA_XSP16, literal(-14)))
        CFI (cfiCond236) V7 load(1, XDATA, add(CFA_XSP16, literal(-13)))
        CFI (cfiCond236) V8 load(1, XDATA, add(CFA_XSP16, literal(-12)))
        CFI (cfiCond236) V9 load(1, XDATA, add(CFA_XSP16, literal(-11)))
        CFI (cfiCond236) V10 load(1, XDATA, add(CFA_XSP16, literal(-10)))
        CFI (cfiCond236) V11 load(1, XDATA, add(CFA_XSP16, literal(-9)))
        CFI (cfiCond236) V12 load(1, XDATA, add(CFA_XSP16, literal(-8)))
        CFI (cfiCond236) V13 load(1, XDATA, add(CFA_XSP16, literal(-7)))
        CFI (cfiCond236) R7 load(1, XDATA, add(CFA_XSP16, literal(-6)))
        CFI (cfiCond236) ?RET_LOW load(1, XDATA, add(CFA_XSP16, literal(-5)))
        CFI (cfiCond236) ?RET_HIGH load(1, XDATA, add(CFA_XSP16, literal(-4)))
        CFI (cfiCond236) ?BRET_EXT load(1, XDATA, add(CFA_XSP16, literal(-3)))
        CFI (cfiCond236) DPL0 load(1, XDATA, add(CFA_XSP16, literal(-2)))
        CFI (cfiCond236) DPH0 load(1, XDATA, add(CFA_XSP16, literal(-1)))
        CFI (cfiCond236) CFA_SP SP+0
        CFI (cfiCond236) CFA_XSP16 add(XSP16, 29)
        CFI Block cfiCond237 Using cfiCommon0
        CFI (cfiCond237) NoFunction
        CFI (cfiCond237) Conditional ??CrossCallReturnLabel_2
        CFI (cfiCond237) R6 load(1, XDATA, add(CFA_XSP16, literal(-14)))
        CFI (cfiCond237) VB load(1, XDATA, add(CFA_XSP16, literal(-13)))
        CFI (cfiCond237) V0 load(1, XDATA, add(CFA_XSP16, literal(-12)))
        CFI (cfiCond237) V1 load(1, XDATA, add(CFA_XSP16, literal(-11)))
        CFI (cfiCond237) V2 load(1, XDATA, add(CFA_XSP16, literal(-10)))
        CFI (cfiCond237) V3 load(1, XDATA, add(CFA_XSP16, literal(-9)))
        CFI (cfiCond237) V4 load(1, XDATA, add(CFA_XSP16, literal(-8)))
        CFI (cfiCond237) V5 load(1, XDATA, add(CFA_XSP16, literal(-7)))
        CFI (cfiCond237) R7 load(1, XDATA, add(CFA_XSP16, literal(-6)))
        CFI (cfiCond237) ?RET_LOW load(1, XDATA, add(CFA_XSP16, literal(-5)))
        CFI (cfiCond237) ?RET_HIGH load(1, XDATA, add(CFA_XSP16, literal(-4)))
        CFI (cfiCond237) ?BRET_EXT load(1, XDATA, add(CFA_XSP16, literal(-3)))
        CFI (cfiCond237) DPL0 load(1, XDATA, add(CFA_XSP16, literal(-2)))
        CFI (cfiCond237) DPH0 load(1, XDATA, add(CFA_XSP16, literal(-1)))
        CFI (cfiCond237) CFA_SP SP+0
        CFI (cfiCond237) CFA_XSP16 add(XSP16, 19)
        CFI Block cfiPicker238 Using cfiCommon1
        CFI (cfiPicker238) NoFunction
        CFI (cfiPicker238) Picker
        MOVX    @DPTR,A
        ; Setup parameters for call to function AF_DataRequest
        ; Setup parameters for call to function AF_DataRequest
        ; Setup parameters for call to function AF_DataRequest
        MOV     ?V0 + 0,#0x1e
        MOV     R0,#?V0 + 0
        RET
        CFI EndBlock cfiCond235
        CFI EndBlock cfiCond236
        CFI EndBlock cfiCond237
        CFI EndBlock cfiPicker238
//  496 
//  497 /********************************************************
//  498 process response funtin of the CLUSDISC command
//  499 
//  500 DISCCLUS:<Node ID>,<EndPoint>,<Status>
//  501 Prompt (will show, if <Status> is 00) 
//  502             SERVER:<ClusterID>,<ClusterID>,<ClusterID> 
//  503             CLIENT:<ClusterID>,<ClusterID>,< ClusterI
//  504 *************************************************************/

        RSEG BANKED_CODE:CODE:NOROOT(0)
//  505 void AT_AF_Cmd_HA_CIDDISC_rsp(afIncomingMSGPacket_t *pkt ){
AT_AF_Cmd_HA_CIDDISC_rsp:
        CFI Block cfiBlock239 Using cfiCommon0
        CFI Function AT_AF_Cmd_HA_CIDDISC_rsp
        CODE
        FUNCALL AT_AF_Cmd_HA_CIDDISC_rsp, AT_HalUARTWrite
        LOCFRAME ISTACK, 0, STACK
        LOCFRAME PSTACK, 0, STACK
        LOCFRAME XSTACK, 12, STACK
        LOCFRAME IOVERLAY, 0, STATIC
        LOCFRAME DOVERLAY, 0, STATIC
        ARGFRAME ISTACK, 0, STACK
        ARGFRAME PSTACK, 0, STACK
        ARGFRAME XSTACK, 12, STACK
        ARGFRAME IOVERLAY, 0, STATIC
        ARGFRAME DOVERLAY, 0, STATIC
        FUNCALL AT_AF_Cmd_HA_CIDDISC_rsp, AT_HalUARTWrite
        LOCFRAME ISTACK, 0, STACK
        LOCFRAME PSTACK, 0, STACK
        LOCFRAME XSTACK, 12, STACK
        LOCFRAME IOVERLAY, 0, STATIC
        LOCFRAME DOVERLAY, 0, STATIC
        ARGFRAME ISTACK, 0, STACK
        ARGFRAME PSTACK, 0, STACK
        ARGFRAME XSTACK, 12, STACK
        ARGFRAME IOVERLAY, 0, STATIC
        ARGFRAME DOVERLAY, 0, STATIC
        FUNCALL AT_AF_Cmd_HA_CIDDISC_rsp, AT_HalUARTWrite
        LOCFRAME ISTACK, 0, STACK
        LOCFRAME PSTACK, 0, STACK
        LOCFRAME XSTACK, 12, STACK
        LOCFRAME IOVERLAY, 0, STATIC
        LOCFRAME DOVERLAY, 0, STATIC
        ARGFRAME ISTACK, 0, STACK
        ARGFRAME PSTACK, 0, STACK
        ARGFRAME XSTACK, 12, STACK
        ARGFRAME IOVERLAY, 0, STATIC
        ARGFRAME DOVERLAY, 0, STATIC
        FUNCALL AT_AF_Cmd_HA_CIDDISC_rsp, printf
        LOCFRAME ISTACK, 0, STACK
        LOCFRAME PSTACK, 0, STACK
        LOCFRAME XSTACK, 14, STACK
        LOCFRAME IOVERLAY, 0, STATIC
        LOCFRAME DOVERLAY, 0, STATIC
        ARGFRAME ISTACK, 0, STACK
        ARGFRAME PSTACK, 0, STACK
        ARGFRAME XSTACK, 14, STACK
        ARGFRAME IOVERLAY, 0, STATIC
        ARGFRAME DOVERLAY, 0, STATIC
        FUNCALL AT_AF_Cmd_HA_CIDDISC_rsp, printf
        LOCFRAME ISTACK, 0, STACK
        LOCFRAME PSTACK, 0, STACK
        LOCFRAME XSTACK, 12, STACK
        LOCFRAME IOVERLAY, 0, STATIC
        LOCFRAME DOVERLAY, 0, STATIC
        ARGFRAME ISTACK, 0, STACK
        ARGFRAME PSTACK, 0, STACK
        ARGFRAME XSTACK, 12, STACK
        ARGFRAME IOVERLAY, 0, STATIC
        ARGFRAME DOVERLAY, 0, STATIC
        FUNCALL AT_AF_Cmd_HA_CIDDISC_rsp, printf
        LOCFRAME ISTACK, 0, STACK
        LOCFRAME PSTACK, 0, STACK
        LOCFRAME XSTACK, 16, STACK
        LOCFRAME IOVERLAY, 0, STATIC
        LOCFRAME DOVERLAY, 0, STATIC
        ARGFRAME ISTACK, 0, STACK
        ARGFRAME PSTACK, 0, STACK
        ARGFRAME XSTACK, 16, STACK
        ARGFRAME IOVERLAY, 0, STATIC
        ARGFRAME DOVERLAY, 0, STATIC
        FUNCALL AT_AF_Cmd_HA_CIDDISC_rsp, AT_HalUARTWrite
        LOCFRAME ISTACK, 0, STACK
        LOCFRAME PSTACK, 0, STACK
        LOCFRAME XSTACK, 12, STACK
        LOCFRAME IOVERLAY, 0, STATIC
        LOCFRAME DOVERLAY, 0, STATIC
        ARGFRAME ISTACK, 0, STACK
        ARGFRAME PSTACK, 0, STACK
        ARGFRAME XSTACK, 12, STACK
        ARGFRAME IOVERLAY, 0, STATIC
        ARGFRAME DOVERLAY, 0, STATIC
        FUNCALL AT_AF_Cmd_HA_CIDDISC_rsp, printf
        LOCFRAME ISTACK, 0, STACK
        LOCFRAME PSTACK, 0, STACK
        LOCFRAME XSTACK, 12, STACK
        LOCFRAME IOVERLAY, 0, STATIC
        LOCFRAME DOVERLAY, 0, STATIC
        ARGFRAME ISTACK, 0, STACK
        ARGFRAME PSTACK, 0, STACK
        ARGFRAME XSTACK, 12, STACK
        ARGFRAME IOVERLAY, 0, STATIC
        ARGFRAME DOVERLAY, 0, STATIC
        FUNCALL AT_AF_Cmd_HA_CIDDISC_rsp, printf
        LOCFRAME ISTACK, 0, STACK
        LOCFRAME PSTACK, 0, STACK
        LOCFRAME XSTACK, 14, STACK
        LOCFRAME IOVERLAY, 0, STATIC
        LOCFRAME DOVERLAY, 0, STATIC
        ARGFRAME ISTACK, 0, STACK
        ARGFRAME PSTACK, 0, STACK
        ARGFRAME XSTACK, 14, STACK
        ARGFRAME IOVERLAY, 0, STATIC
        ARGFRAME DOVERLAY, 0, STATIC
        FUNCALL AT_AF_Cmd_HA_CIDDISC_rsp, AT_HalUARTWrite
        LOCFRAME ISTACK, 0, STACK
        LOCFRAME PSTACK, 0, STACK
        LOCFRAME XSTACK, 12, STACK
        LOCFRAME IOVERLAY, 0, STATIC
        LOCFRAME DOVERLAY, 0, STATIC
        ARGFRAME ISTACK, 0, STACK
        ARGFRAME PSTACK, 0, STACK
        ARGFRAME XSTACK, 12, STACK
        ARGFRAME IOVERLAY, 0, STATIC
        ARGFRAME DOVERLAY, 0, STATIC
        FUNCALL AT_AF_Cmd_HA_CIDDISC_rsp, printf
        LOCFRAME ISTACK, 0, STACK
        LOCFRAME PSTACK, 0, STACK
        LOCFRAME XSTACK, 12, STACK
        LOCFRAME IOVERLAY, 0, STATIC
        LOCFRAME DOVERLAY, 0, STATIC
        ARGFRAME ISTACK, 0, STACK
        ARGFRAME PSTACK, 0, STACK
        ARGFRAME XSTACK, 12, STACK
        ARGFRAME IOVERLAY, 0, STATIC
        ARGFRAME DOVERLAY, 0, STATIC
        FUNCALL AT_AF_Cmd_HA_CIDDISC_rsp, printf
        LOCFRAME ISTACK, 0, STACK
        LOCFRAME PSTACK, 0, STACK
        LOCFRAME XSTACK, 14, STACK
        LOCFRAME IOVERLAY, 0, STATIC
        LOCFRAME DOVERLAY, 0, STATIC
        ARGFRAME ISTACK, 0, STACK
        ARGFRAME PSTACK, 0, STACK
        ARGFRAME XSTACK, 14, STACK
        ARGFRAME IOVERLAY, 0, STATIC
        ARGFRAME DOVERLAY, 0, STATIC
        FUNCALL AT_AF_Cmd_HA_CIDDISC_rsp, AT_HalUARTWrite
        LOCFRAME ISTACK, 0, STACK
        LOCFRAME PSTACK, 0, STACK
        LOCFRAME XSTACK, 12, STACK
        LOCFRAME IOVERLAY, 0, STATIC
        LOCFRAME DOVERLAY, 0, STATIC
        ARGFRAME ISTACK, 0, STACK
        ARGFRAME PSTACK, 0, STACK
        ARGFRAME XSTACK, 12, STACK
        ARGFRAME IOVERLAY, 0, STATIC
        ARGFRAME DOVERLAY, 0, STATIC
        MOV     A,#-0xc
        LCALL   ?BANKED_ENTER_XDATA
        CFI DPH0 load(1, XDATA, add(CFA_XSP16, literal(-1)))
        CFI DPL0 load(1, XDATA, add(CFA_XSP16, literal(-2)))
        CFI ?BRET_EXT load(1, XDATA, add(CFA_XSP16, literal(-3)))
        CFI ?RET_HIGH load(1, XDATA, add(CFA_XSP16, literal(-4)))
        CFI ?RET_LOW load(1, XDATA, add(CFA_XSP16, literal(-5)))
        CFI R7 load(1, XDATA, add(CFA_XSP16, literal(-6)))
        CFI V3 load(1, XDATA, add(CFA_XSP16, literal(-7)))
        CFI V2 load(1, XDATA, add(CFA_XSP16, literal(-8)))
        CFI V1 load(1, XDATA, add(CFA_XSP16, literal(-9)))
        CFI V0 load(1, XDATA, add(CFA_XSP16, literal(-10)))
        CFI VB load(1, XDATA, add(CFA_XSP16, literal(-11)))
        CFI R6 load(1, XDATA, add(CFA_XSP16, literal(-12)))
        CFI CFA_SP SP+0
        CFI CFA_XSP16 add(XSP16, 12)
        ; Saved register size: 12
        ; Auto size: 0
        LCALL   ?Subroutine30 & 0xFFFF
//  506     AT_AF_Cmd_HA_CIDDISC_rsp_t *rsp = (AT_AF_Cmd_HA_CIDDISC_rsp_t *) pkt->cmd.Data;
??CrossCallReturnLabel_110:
        LCALL   ??Subroutine57_0 & 0xFFFF
??CrossCallReturnLabel_92:
        MOV     R6,A
        INC     DPTR
        MOVX    A,@DPTR
        MOV     R7,A
//  507     AT_RESP_START();
        ; Setup parameters for call to function AT_HalUARTWrite
        MOV     R4,#0x2
        MOV     R5,#0x0
        MOV     R2,#`?<Constant "\\r\\n">` & 0xff
        MOV     R3,#(`?<Constant "\\r\\n">` >> 8) & 0xff
        MOV     R1,#0x0
        LCALL   ??AT_HalUARTWrite?relay
//  508     AT_DEBUG("DISCCLUS:<Node ID>,<EndPoint>,<Status>",sizeof("       <Node ID>,<EndPoint>,<Status>"));
        ; Setup parameters for call to function AT_HalUARTWrite
        MOV     R4,#0x25
        MOV     R5,#0x0
        MOV     R2,#`?<Constant "DISCCLUS:<Node ID>,<E...">` & 0xff
        MOV     R3,#(`?<Constant "DISCCLUS:<Node ID>,<E...">` >> 8) & 0xff
        MOV     R1,#0x0
        LCALL   ??AT_HalUARTWrite?relay
//  509     AT_NEXT_LINE();
        ; Setup parameters for call to function AT_HalUARTWrite
        MOV     R4,#0x2
        MOV     R5,#0x0
        MOV     R2,#`?<Constant "\\n\\r">` & 0xff
        MOV     R3,#(`?<Constant "\\n\\r">` >> 8) & 0xff
        MOV     R1,#0x0
        LCALL   ??AT_HalUARTWrite?relay
//  510     if(pkt->srcAddr.addrMode==(afAddrMode_t)Addr16Bit){
        MOV     A,?V0 + 0
        ADD     A,#0xe
        MOV     DPL,A
        MOV     A,?V0 + 1
        LCALL   ??Subroutine44_0 & 0xFFFF
??CrossCallReturnLabel_48:
        JNZ     ??AT_AF_Cmd_HA_CIDDISC_rsp_0
//  511       printf("DISCCLUS:%04X",pkt->srcAddr.addr.shortAddr);
        ; Setup parameters for call to function printf
        MOV     DPL,?V0 + 0
        MOV     DPH,?V0 + 1
        INC     DPTR
        INC     DPTR
        INC     DPTR
        INC     DPTR
        INC     DPTR
        INC     DPTR
        LCALL   ?PUSH_XSTACK8_X_TWO
        CFI CFA_XSP16 add(XSP16, 14)
        MOV     R2,#`?<Constant "DISCCLUS:%04X">` & 0xff
        MOV     R3,#(`?<Constant "DISCCLUS:%04X">` >> 8) & 0xff
        LCALL   ??Subroutine55_0 & 0xFFFF
//  512     }else printf("DISCCLUS:UNKNOWN");
??CrossCallReturnLabel_87:
        LCALL   ?DEALLOC_XSTACK8
        CFI CFA_XSP16 add(XSP16, 12)
        SJMP    ??AT_AF_Cmd_HA_CIDDISC_rsp_1
??AT_AF_Cmd_HA_CIDDISC_rsp_0:
        ; Setup parameters for call to function printf
        MOV     R2,#`?<Constant "DISCCLUS:UNKNOWN">` & 0xff
        MOV     R3,#(`?<Constant "DISCCLUS:UNKNOWN">` >> 8) & 0xff
        LCALL   ??printf?relay
//  513     
//  514     printf(",%02X,%02X",rsp->hdr.ep,rsp->status);
??AT_AF_Cmd_HA_CIDDISC_rsp_1:
        MOV     A,R6
        ADD     A,#0x2
        MOV     R0,A
        MOV     A,R7
        ADDC    A,#0x0
        MOV     R1,A
        MOV     ?V0 + 0,R0
        MOV     ?V0 + 1,R1
        ; Setup parameters for call to function printf
        MOV     DPL,R0
        MOV     DPH,A
        MOVX    A,@DPTR
        MOV     ?V0 + 2,A
        MOV     ?V0 + 3,#0x0
        MOV     R0,#?V0 + 2
        LCALL   ?PUSH_XSTACK_I_TWO
        CFI CFA_XSP16 add(XSP16, 14)
        MOV     DPL,R6
        MOV     DPH,R7
        INC     DPTR
        MOVX    A,@DPTR
        MOV     ?V0 + 2,A
        MOV     R0,#?V0 + 2
        LCALL   ?PUSH_XSTACK_I_TWO
        CFI CFA_XSP16 add(XSP16, 16)
        MOV     R2,#`?<Constant ",%02X,%02X">` & 0xff
        MOV     R3,#(`?<Constant ",%02X,%02X">` >> 8) & 0xff
        LCALL   ??printf?relay
        MOV     A,#0x4
        LCALL   ?DEALLOC_XSTACK8
        CFI CFA_XSP16 add(XSP16, 12)
//  515     
//  516     if(rsp->status==SUCCESS){
        MOV     DPL,?V0 + 0
        MOV     DPH,?V0 + 1
        MOVX    A,@DPTR
        JZ      $+5
        LJMP    ??AT_AF_Cmd_HA_CIDDISC_rsp_2 & 0xFFFF
//  517       AT_NEXT_LINE();
        ; Setup parameters for call to function AT_HalUARTWrite
        MOV     R4,#0x2
        MOV     R5,#0x0
        MOV     R2,#`?<Constant "\\n\\r">` & 0xff
        MOV     R3,#(`?<Constant "\\n\\r">` >> 8) & 0xff
        MOV     R1,#0x0
        LCALL   ??AT_HalUARTWrite?relay
//  518       printf("SERVER:");
        ; Setup parameters for call to function printf
        MOV     R2,#`?<Constant "SERVER:">` & 0xff
        MOV     R3,#(`?<Constant "SERVER:">` >> 8) & 0xff
        LCALL   ??printf?relay
//  519       uint8 i;
//  520       for(i=0;i<rsp->serverNum;i++) printf(",%04X",rsp->list[i]);
        MOV     ?V0 + 2,#0x0
        SJMP    ??AT_AF_Cmd_HA_CIDDISC_rsp_3
??AT_AF_Cmd_HA_CIDDISC_rsp_4:
        ; Setup parameters for call to function printf
        MOV     A,?V0 + 2
        CLR     C
        RLC     A
        MOV     R0,A
        CLR     A
        LCALL   ?Subroutine23 & 0xFFFF
??CrossCallReturnLabel_26:
        LCALL   ?PUSH_XSTACK8_X_TWO
        CFI CFA_XSP16 add(XSP16, 14)
        LCALL   ?Subroutine34 & 0xFFFF
??CrossCallReturnLabel_83:
        LCALL   ?DEALLOC_XSTACK8
        CFI CFA_XSP16 add(XSP16, 12)
        INC     ?V0 + 2
??AT_AF_Cmd_HA_CIDDISC_rsp_3:
        MOV     DPL,R6
        MOV     DPH,R7
        INC     DPTR
        INC     DPTR
        INC     DPTR
        MOVX    A,@DPTR
        MOV     R0,A
        MOV     A,?V0 + 2
        CLR     C
        SUBB    A,R0
        JC      ??AT_AF_Cmd_HA_CIDDISC_rsp_4
//  521       AT_NEXT_LINE();
        ; Setup parameters for call to function AT_HalUARTWrite
        MOV     R4,#0x2
        MOV     R5,#0x0
        MOV     R2,#`?<Constant "\\n\\r">` & 0xff
        MOV     R3,#(`?<Constant "\\n\\r">` >> 8) & 0xff
        MOV     R1,#0x0
        LCALL   ??AT_HalUARTWrite?relay
//  522       printf("CLIENT:");
        ; Setup parameters for call to function printf
        MOV     R2,#`?<Constant "CLIENT:">` & 0xff
        MOV     R3,#(`?<Constant "CLIENT:">` >> 8) & 0xff
        LCALL   ??printf?relay
//  523       for(i=0;i<rsp->clientNum;i++) printf(",%04X",rsp->list[i+rsp->serverNum]);
        MOV     ?V0 + 2,#0x0
        SJMP    ??AT_AF_Cmd_HA_CIDDISC_rsp_5
??AT_AF_Cmd_HA_CIDDISC_rsp_6:
        ; Setup parameters for call to function printf
        MOV     ?V0 + 0,?V0 + 2
        MOV     DPL,R6
        MOV     DPH,R7
        INC     DPTR
        INC     DPTR
        INC     DPTR
        MOVX    A,@DPTR
        MOV     R0,A
        MOV     A,?V0 + 0
        ADD     A,R0
        MOV     R0,A
        CLR     A
        ADDC    A,#0x0
        MOV     R1,A
        MOV     A,R0
        RLC     A
        MOV     R0,A
        MOV     A,R1
        LCALL   ?Subroutine23 & 0xFFFF
??CrossCallReturnLabel_27:
        LCALL   ?PUSH_XSTACK8_X_TWO
        CFI CFA_XSP16 add(XSP16, 14)
        LCALL   ?Subroutine34 & 0xFFFF
??CrossCallReturnLabel_84:
        LCALL   ?DEALLOC_XSTACK8
        CFI CFA_XSP16 add(XSP16, 12)
        INC     ?V0 + 2
??AT_AF_Cmd_HA_CIDDISC_rsp_5:
        MOV     DPL,R6
        MOV     DPH,R7
        INC     DPTR
        INC     DPTR
        INC     DPTR
        INC     DPTR
        MOVX    A,@DPTR
        MOV     R0,A
        MOV     A,?V0 + 2
        CLR     C
        SUBB    A,R0
        JC      ??AT_AF_Cmd_HA_CIDDISC_rsp_6
//  524     }
//  525     AT_RESP_END();
??AT_AF_Cmd_HA_CIDDISC_rsp_2:
        ; Setup parameters for call to function AT_HalUARTWrite
        MOV     R4,#0x2
        MOV     R5,#0x0
        MOV     R2,#`?<Constant "\\r\\n">` & 0xff
        MOV     R3,#(`?<Constant "\\r\\n">` >> 8) & 0xff
        MOV     R1,#0x0
        LCALL   ??AT_HalUARTWrite?relay
//  526 }
        LJMP    ?Subroutine2 & 0xFFFF
        CFI EndBlock cfiBlock239

        RSEG BANKED_CODE:CODE:NOROOT(0)
?Subroutine34:
        CFI Block cfiCond240 Using cfiCommon0
        CFI NoFunction
        CFI Conditional ??CrossCallReturnLabel_83
        CFI R6 load(1, XDATA, add(CFA_XSP16, literal(-12)))
        CFI VB load(1, XDATA, add(CFA_XSP16, literal(-11)))
        CFI V0 load(1, XDATA, add(CFA_XSP16, literal(-10)))
        CFI V1 load(1, XDATA, add(CFA_XSP16, literal(-9)))
        CFI V2 load(1, XDATA, add(CFA_XSP16, literal(-8)))
        CFI V3 load(1, XDATA, add(CFA_XSP16, literal(-7)))
        CFI R7 load(1, XDATA, add(CFA_XSP16, literal(-6)))
        CFI ?RET_LOW load(1, XDATA, add(CFA_XSP16, literal(-5)))
        CFI ?RET_HIGH load(1, XDATA, add(CFA_XSP16, literal(-4)))
        CFI ?BRET_EXT load(1, XDATA, add(CFA_XSP16, literal(-3)))
        CFI DPL0 load(1, XDATA, add(CFA_XSP16, literal(-2)))
        CFI DPH0 load(1, XDATA, add(CFA_XSP16, literal(-1)))
        CFI CFA_SP SP+0
        CFI CFA_XSP16 add(XSP16, 14)
        CFI Block cfiCond241 Using cfiCommon0
        CFI (cfiCond241) NoFunction
        CFI (cfiCond241) Conditional ??CrossCallReturnLabel_84
        CFI (cfiCond241) R6 load(1, XDATA, add(CFA_XSP16, literal(-12)))
        CFI (cfiCond241) VB load(1, XDATA, add(CFA_XSP16, literal(-11)))
        CFI (cfiCond241) V0 load(1, XDATA, add(CFA_XSP16, literal(-10)))
        CFI (cfiCond241) V1 load(1, XDATA, add(CFA_XSP16, literal(-9)))
        CFI (cfiCond241) V2 load(1, XDATA, add(CFA_XSP16, literal(-8)))
        CFI (cfiCond241) V3 load(1, XDATA, add(CFA_XSP16, literal(-7)))
        CFI (cfiCond241) R7 load(1, XDATA, add(CFA_XSP16, literal(-6)))
        CFI (cfiCond241) ?RET_LOW load(1, XDATA, add(CFA_XSP16, literal(-5)))
        CFI (cfiCond241) ?RET_HIGH load(1, XDATA, add(CFA_XSP16, literal(-4)))
        CFI (cfiCond241) ?BRET_EXT load(1, XDATA, add(CFA_XSP16, literal(-3)))
        CFI (cfiCond241) DPL0 load(1, XDATA, add(CFA_XSP16, literal(-2)))
        CFI (cfiCond241) DPH0 load(1, XDATA, add(CFA_XSP16, literal(-1)))
        CFI (cfiCond241) CFA_SP SP+0
        CFI (cfiCond241) CFA_XSP16 add(XSP16, 14)
        CFI Block cfiPicker242 Using cfiCommon1
        CFI (cfiPicker242) NoFunction
        CFI (cfiPicker242) Picker
        MOV     R2,#`?<Constant ",%04X">` & 0xff
        MOV     R3,#(`?<Constant ",%04X">` >> 8) & 0xff
        CFI EndBlock cfiCond240
        CFI EndBlock cfiCond241
        CFI EndBlock cfiPicker242
        REQUIRE ??Subroutine55_0
        ; // Fall through to label ??Subroutine55_0

        RSEG BANKED_CODE:CODE:NOROOT(0)
??Subroutine55_0:
        CFI Block cfiCond243 Using cfiCommon0
        CFI NoFunction
        CFI Conditional ??CrossCallReturnLabel_85
        CFI R6 load(1, XDATA, add(CFA_XSP16, literal(-16)))
        CFI VB load(1, XDATA, add(CFA_XSP16, literal(-15)))
        CFI V0 load(1, XDATA, add(CFA_XSP16, literal(-14)))
        CFI V1 load(1, XDATA, add(CFA_XSP16, literal(-13)))
        CFI V2 load(1, XDATA, add(CFA_XSP16, literal(-12)))
        CFI V3 load(1, XDATA, add(CFA_XSP16, literal(-11)))
        CFI V4 load(1, XDATA, add(CFA_XSP16, literal(-10)))
        CFI V5 load(1, XDATA, add(CFA_XSP16, literal(-9)))
        CFI V6 load(1, XDATA, add(CFA_XSP16, literal(-8)))
        CFI V7 load(1, XDATA, add(CFA_XSP16, literal(-7)))
        CFI R7 load(1, XDATA, add(CFA_XSP16, literal(-6)))
        CFI ?RET_LOW load(1, XDATA, add(CFA_XSP16, literal(-5)))
        CFI ?RET_HIGH load(1, XDATA, add(CFA_XSP16, literal(-4)))
        CFI ?BRET_EXT load(1, XDATA, add(CFA_XSP16, literal(-3)))
        CFI DPL0 load(1, XDATA, add(CFA_XSP16, literal(-2)))
        CFI DPH0 load(1, XDATA, add(CFA_XSP16, literal(-1)))
        CFI CFA_SP SP+0
        CFI CFA_XSP16 add(XSP16, 18)
        CFI Block cfiCond244 Using cfiCommon0
        CFI (cfiCond244) NoFunction
        CFI (cfiCond244) Conditional ??CrossCallReturnLabel_86
        CFI (cfiCond244) R6 load(1, XDATA, add(CFA_XSP16, literal(-16)))
        CFI (cfiCond244) VB load(1, XDATA, add(CFA_XSP16, literal(-15)))
        CFI (cfiCond244) V0 load(1, XDATA, add(CFA_XSP16, literal(-14)))
        CFI (cfiCond244) V1 load(1, XDATA, add(CFA_XSP16, literal(-13)))
        CFI (cfiCond244) V2 load(1, XDATA, add(CFA_XSP16, literal(-12)))
        CFI (cfiCond244) V3 load(1, XDATA, add(CFA_XSP16, literal(-11)))
        CFI (cfiCond244) V4 load(1, XDATA, add(CFA_XSP16, literal(-10)))
        CFI (cfiCond244) V5 load(1, XDATA, add(CFA_XSP16, literal(-9)))
        CFI (cfiCond244) V6 load(1, XDATA, add(CFA_XSP16, literal(-8)))
        CFI (cfiCond244) V7 load(1, XDATA, add(CFA_XSP16, literal(-7)))
        CFI (cfiCond244) R7 load(1, XDATA, add(CFA_XSP16, literal(-6)))
        CFI (cfiCond244) ?RET_LOW load(1, XDATA, add(CFA_XSP16, literal(-5)))
        CFI (cfiCond244) ?RET_HIGH load(1, XDATA, add(CFA_XSP16, literal(-4)))
        CFI (cfiCond244) ?BRET_EXT load(1, XDATA, add(CFA_XSP16, literal(-3)))
        CFI (cfiCond244) DPL0 load(1, XDATA, add(CFA_XSP16, literal(-2)))
        CFI (cfiCond244) DPH0 load(1, XDATA, add(CFA_XSP16, literal(-1)))
        CFI (cfiCond244) CFA_SP SP+0
        CFI (cfiCond244) CFA_XSP16 add(XSP16, 18)
        CFI Block cfiCond245 Using cfiCommon0
        CFI (cfiCond245) NoFunction
        CFI (cfiCond245) Conditional ??CrossCallReturnLabel_87
        CFI (cfiCond245) R6 load(1, XDATA, add(CFA_XSP16, literal(-12)))
        CFI (cfiCond245) VB load(1, XDATA, add(CFA_XSP16, literal(-11)))
        CFI (cfiCond245) V0 load(1, XDATA, add(CFA_XSP16, literal(-10)))
        CFI (cfiCond245) V1 load(1, XDATA, add(CFA_XSP16, literal(-9)))
        CFI (cfiCond245) V2 load(1, XDATA, add(CFA_XSP16, literal(-8)))
        CFI (cfiCond245) V3 load(1, XDATA, add(CFA_XSP16, literal(-7)))
        CFI (cfiCond245) R7 load(1, XDATA, add(CFA_XSP16, literal(-6)))
        CFI (cfiCond245) ?RET_LOW load(1, XDATA, add(CFA_XSP16, literal(-5)))
        CFI (cfiCond245) ?RET_HIGH load(1, XDATA, add(CFA_XSP16, literal(-4)))
        CFI (cfiCond245) ?BRET_EXT load(1, XDATA, add(CFA_XSP16, literal(-3)))
        CFI (cfiCond245) DPL0 load(1, XDATA, add(CFA_XSP16, literal(-2)))
        CFI (cfiCond245) DPH0 load(1, XDATA, add(CFA_XSP16, literal(-1)))
        CFI (cfiCond245) CFA_SP SP+0
        CFI (cfiCond245) CFA_XSP16 add(XSP16, 14)
        CFI Block cfiCond246 Using cfiCommon0
        CFI (cfiCond246) NoFunction
        CFI (cfiCond246) Conditional ??CrossCallReturnLabel_88
        CFI (cfiCond246) R6 load(1, XDATA, add(CFA_XSP16, literal(-10)))
        CFI (cfiCond246) VB load(1, XDATA, add(CFA_XSP16, literal(-9)))
        CFI (cfiCond246) V0 load(1, XDATA, add(CFA_XSP16, literal(-8)))
        CFI (cfiCond246) V1 load(1, XDATA, add(CFA_XSP16, literal(-7)))
        CFI (cfiCond246) R7 load(1, XDATA, add(CFA_XSP16, literal(-6)))
        CFI (cfiCond246) ?RET_LOW load(1, XDATA, add(CFA_XSP16, literal(-5)))
        CFI (cfiCond246) ?RET_HIGH load(1, XDATA, add(CFA_XSP16, literal(-4)))
        CFI (cfiCond246) ?BRET_EXT load(1, XDATA, add(CFA_XSP16, literal(-3)))
        CFI (cfiCond246) DPL0 load(1, XDATA, add(CFA_XSP16, literal(-2)))
        CFI (cfiCond246) DPH0 load(1, XDATA, add(CFA_XSP16, literal(-1)))
        CFI (cfiCond246) CFA_SP SP+0
        CFI (cfiCond246) CFA_XSP16 add(XSP16, 12)
        CFI Block cfiCond247 Using cfiCommon0
        CFI (cfiCond247) NoFunction
        CFI (cfiCond247) Conditional ??CrossCallReturnLabel_89
        CFI (cfiCond247) R6 load(1, XDATA, add(CFA_XSP16, literal(-10)))
        CFI (cfiCond247) VB load(1, XDATA, add(CFA_XSP16, literal(-9)))
        CFI (cfiCond247) V0 load(1, XDATA, add(CFA_XSP16, literal(-8)))
        CFI (cfiCond247) V1 load(1, XDATA, add(CFA_XSP16, literal(-7)))
        CFI (cfiCond247) R7 load(1, XDATA, add(CFA_XSP16, literal(-6)))
        CFI (cfiCond247) ?RET_LOW load(1, XDATA, add(CFA_XSP16, literal(-5)))
        CFI (cfiCond247) ?RET_HIGH load(1, XDATA, add(CFA_XSP16, literal(-4)))
        CFI (cfiCond247) ?BRET_EXT load(1, XDATA, add(CFA_XSP16, literal(-3)))
        CFI (cfiCond247) DPL0 load(1, XDATA, add(CFA_XSP16, literal(-2)))
        CFI (cfiCond247) DPH0 load(1, XDATA, add(CFA_XSP16, literal(-1)))
        CFI (cfiCond247) CFA_SP SP+0
        CFI (cfiCond247) CFA_XSP16 add(XSP16, 12)
        CFI Block cfiCond248 Using cfiCommon0
        CFI (cfiCond248) NoFunction
        CFI (cfiCond248) Conditional ??CrossCallReturnLabel_83
        CFI (cfiCond248) R6 load(1, XDATA, add(CFA_XSP16, literal(-12)))
        CFI (cfiCond248) VB load(1, XDATA, add(CFA_XSP16, literal(-11)))
        CFI (cfiCond248) V0 load(1, XDATA, add(CFA_XSP16, literal(-10)))
        CFI (cfiCond248) V1 load(1, XDATA, add(CFA_XSP16, literal(-9)))
        CFI (cfiCond248) V2 load(1, XDATA, add(CFA_XSP16, literal(-8)))
        CFI (cfiCond248) V3 load(1, XDATA, add(CFA_XSP16, literal(-7)))
        CFI (cfiCond248) R7 load(1, XDATA, add(CFA_XSP16, literal(-6)))
        CFI (cfiCond248) ?RET_LOW load(1, XDATA, add(CFA_XSP16, literal(-5)))
        CFI (cfiCond248) ?RET_HIGH load(1, XDATA, add(CFA_XSP16, literal(-4)))
        CFI (cfiCond248) ?BRET_EXT load(1, XDATA, add(CFA_XSP16, literal(-3)))
        CFI (cfiCond248) DPL0 load(1, XDATA, add(CFA_XSP16, literal(-2)))
        CFI (cfiCond248) DPH0 load(1, XDATA, add(CFA_XSP16, literal(-1)))
        CFI (cfiCond248) CFA_SP SP+0
        CFI (cfiCond248) CFA_XSP16 add(XSP16, 14)
        CFI Block cfiCond249 Using cfiCommon0
        CFI (cfiCond249) NoFunction
        CFI (cfiCond249) Conditional ??CrossCallReturnLabel_84
        CFI (cfiCond249) R6 load(1, XDATA, add(CFA_XSP16, literal(-12)))
        CFI (cfiCond249) VB load(1, XDATA, add(CFA_XSP16, literal(-11)))
        CFI (cfiCond249) V0 load(1, XDATA, add(CFA_XSP16, literal(-10)))
        CFI (cfiCond249) V1 load(1, XDATA, add(CFA_XSP16, literal(-9)))
        CFI (cfiCond249) V2 load(1, XDATA, add(CFA_XSP16, literal(-8)))
        CFI (cfiCond249) V3 load(1, XDATA, add(CFA_XSP16, literal(-7)))
        CFI (cfiCond249) R7 load(1, XDATA, add(CFA_XSP16, literal(-6)))
        CFI (cfiCond249) ?RET_LOW load(1, XDATA, add(CFA_XSP16, literal(-5)))
        CFI (cfiCond249) ?RET_HIGH load(1, XDATA, add(CFA_XSP16, literal(-4)))
        CFI (cfiCond249) ?BRET_EXT load(1, XDATA, add(CFA_XSP16, literal(-3)))
        CFI (cfiCond249) DPL0 load(1, XDATA, add(CFA_XSP16, literal(-2)))
        CFI (cfiCond249) DPH0 load(1, XDATA, add(CFA_XSP16, literal(-1)))
        CFI (cfiCond249) CFA_SP SP+0
        CFI (cfiCond249) CFA_XSP16 add(XSP16, 14)
        CFI Block cfiPicker250 Using cfiCommon1
        CFI (cfiPicker250) NoFunction
        CFI (cfiPicker250) Picker
        LCALL   ??printf?relay
        MOV     A,#0x2
        RET
        CFI EndBlock cfiCond243
        CFI EndBlock cfiCond244
        CFI EndBlock cfiCond245
        CFI EndBlock cfiCond246
        CFI EndBlock cfiCond247
        CFI EndBlock cfiCond248
        CFI EndBlock cfiCond249
        CFI EndBlock cfiPicker250

        RSEG BANKED_CODE:CODE:NOROOT(0)
?Subroutine23:
        CFI Block cfiCond251 Using cfiCommon0
        CFI NoFunction
        CFI Conditional ??CrossCallReturnLabel_26
        CFI R6 load(1, XDATA, add(CFA_XSP16, literal(-12)))
        CFI VB load(1, XDATA, add(CFA_XSP16, literal(-11)))
        CFI V0 load(1, XDATA, add(CFA_XSP16, literal(-10)))
        CFI V1 load(1, XDATA, add(CFA_XSP16, literal(-9)))
        CFI V2 load(1, XDATA, add(CFA_XSP16, literal(-8)))
        CFI V3 load(1, XDATA, add(CFA_XSP16, literal(-7)))
        CFI R7 load(1, XDATA, add(CFA_XSP16, literal(-6)))
        CFI ?RET_LOW load(1, XDATA, add(CFA_XSP16, literal(-5)))
        CFI ?RET_HIGH load(1, XDATA, add(CFA_XSP16, literal(-4)))
        CFI ?BRET_EXT load(1, XDATA, add(CFA_XSP16, literal(-3)))
        CFI DPL0 load(1, XDATA, add(CFA_XSP16, literal(-2)))
        CFI DPH0 load(1, XDATA, add(CFA_XSP16, literal(-1)))
        CFI CFA_SP SP+0
        CFI CFA_XSP16 add(XSP16, 12)
        CFI Block cfiCond252 Using cfiCommon0
        CFI (cfiCond252) NoFunction
        CFI (cfiCond252) Conditional ??CrossCallReturnLabel_27
        CFI (cfiCond252) R6 load(1, XDATA, add(CFA_XSP16, literal(-12)))
        CFI (cfiCond252) VB load(1, XDATA, add(CFA_XSP16, literal(-11)))
        CFI (cfiCond252) V0 load(1, XDATA, add(CFA_XSP16, literal(-10)))
        CFI (cfiCond252) V1 load(1, XDATA, add(CFA_XSP16, literal(-9)))
        CFI (cfiCond252) V2 load(1, XDATA, add(CFA_XSP16, literal(-8)))
        CFI (cfiCond252) V3 load(1, XDATA, add(CFA_XSP16, literal(-7)))
        CFI (cfiCond252) R7 load(1, XDATA, add(CFA_XSP16, literal(-6)))
        CFI (cfiCond252) ?RET_LOW load(1, XDATA, add(CFA_XSP16, literal(-5)))
        CFI (cfiCond252) ?RET_HIGH load(1, XDATA, add(CFA_XSP16, literal(-4)))
        CFI (cfiCond252) ?BRET_EXT load(1, XDATA, add(CFA_XSP16, literal(-3)))
        CFI (cfiCond252) DPL0 load(1, XDATA, add(CFA_XSP16, literal(-2)))
        CFI (cfiCond252) DPH0 load(1, XDATA, add(CFA_XSP16, literal(-1)))
        CFI (cfiCond252) CFA_SP SP+0
        CFI (cfiCond252) CFA_XSP16 add(XSP16, 12)
        CFI Block cfiPicker253 Using cfiCommon1
        CFI (cfiPicker253) NoFunction
        CFI (cfiPicker253) Picker
        RLC     A
        MOV     R1,A
        MOV     A,R6
        ADD     A,R0
        MOV     DPL,A
        MOV     A,R7
        ADDC    A,R1
        MOV     DPH,A
        INC     DPTR
        INC     DPTR
        INC     DPTR
        INC     DPTR
        INC     DPTR
        RET
        CFI EndBlock cfiCond251
        CFI EndBlock cfiCond252
        CFI EndBlock cfiPicker253
//  527 
//  528 
//  529 
//  530 

        RSEG BANKED_CODE:CODE:NOROOT(0)
//  531 void AT_AF_Cmd_R_CIDDISC_CB(afIncomingMSGPacket_t *pkt ){
AT_AF_Cmd_R_CIDDISC_CB:
        CFI Block cfiBlock254 Using cfiCommon0
        CFI Function AT_AF_Cmd_R_CIDDISC_CB
        CODE
        FUNCALL AT_AF_Cmd_R_CIDDISC_CB, AT_AF_Cmd_R_CIDDISC_req
        LOCFRAME ISTACK, 2, STACK
        LOCFRAME PSTACK, 0, STACK
        LOCFRAME XSTACK, 0, STACK
        LOCFRAME IOVERLAY, 0, STATIC
        LOCFRAME DOVERLAY, 0, STATIC
        ARGFRAME ISTACK, 2, STACK
        ARGFRAME PSTACK, 0, STACK
        ARGFRAME XSTACK, 0, STACK
        ARGFRAME IOVERLAY, 0, STATIC
        ARGFRAME DOVERLAY, 0, STATIC
        PUSH    DPL
        CFI DPL0 Frame(CFA_SP, 4)
        CFI CFA_SP SP+-4
        PUSH    DPH
        CFI DPH0 Frame(CFA_SP, 5)
        CFI CFA_SP SP+-5
        ; Saved register size: 2
        ; Auto size: 0
//  532   AT_AF_hdr *req = (AT_AF_hdr *)pkt->cmd.Data;
//  533   if(req->cmd==AT_AF_Cmd_req){
        LCALL   ?Subroutine9 & 0xFFFF
??CrossCallReturnLabel_63:
        JNZ     ??AT_AF_Cmd_R_CIDDISC_CB_0
//  534     AT_AF_Cmd_R_CIDDISC_req(pkt);
        ; Setup parameters for call to function AT_AF_Cmd_R_CIDDISC_req
        LCALL   ??AT_AF_Cmd_R_CIDDISC_req?relay
//  535   }else{
//  536     AT_AF_Cmd_R_CIDDISC_rsp(pkt);
//  537   }
//  538 }
??AT_AF_Cmd_R_CIDDISC_CB_0:
        LJMP    ?Subroutine0 & 0xFFFF
        CFI EndBlock cfiBlock254

        RSEG BANKED_CODE:CODE:NOROOT(0)
//  539 void AT_AF_Cmd_R_CIDDISC_req(afIncomingMSGPacket_t *pkt  ){
AT_AF_Cmd_R_CIDDISC_req:
        CFI Block cfiBlock255 Using cfiCommon0
        CFI Function AT_AF_Cmd_R_CIDDISC_req
        CODE
        FUNCALL AT_AF_Cmd_R_CIDDISC_req, AT_HandleCMD
        LOCFRAME ISTACK, 2, STACK
        LOCFRAME PSTACK, 0, STACK
        LOCFRAME XSTACK, 0, STACK
        LOCFRAME IOVERLAY, 0, STATIC
        LOCFRAME DOVERLAY, 0, STATIC
        ARGFRAME ISTACK, 2, STACK
        ARGFRAME PSTACK, 0, STACK
        ARGFRAME XSTACK, 0, STACK
        ARGFRAME IOVERLAY, 0, STATIC
        ARGFRAME DOVERLAY, 0, STATIC
        PUSH    DPL
        CFI DPL0 Frame(CFA_SP, 4)
        CFI CFA_SP SP+-4
        PUSH    DPH
        CFI DPH0 Frame(CFA_SP, 5)
        CFI CFA_SP SP+-5
        ; Saved register size: 2
        ; Auto size: 0
//  540   
//  541   AT_AF_Cmd_RCIDDISC_req_t *req = (AT_AF_Cmd_RCIDDISC_req_t *) pkt->cmd.Data;
//  542   AT_HandleCMD(req->list);
        ; Setup parameters for call to function AT_HandleCMD
        LCALL   ??Subroutine58_0 & 0xFFFF
??CrossCallReturnLabel_113:
        LCALL   ??Subroutine57_0 & 0xFFFF
??CrossCallReturnLabel_93:
        ADD     A,#0x2
        MOV     R2,A
        INC     DPTR
        MOVX    A,@DPTR
        ADDC    A,#0x0
        MOV     R3,A
        LCALL   ??AT_HandleCMD?relay
//  543 }
        LJMP    ?Subroutine0 & 0xFFFF
        CFI EndBlock cfiBlock255

        RSEG BANKED_CODE:CODE:NOROOT(0)
?Subroutine26:
        CFI Block cfiCond256 Using cfiCommon0
        CFI NoFunction
        CFI Conditional ??CrossCallReturnLabel_97
        CFI R6 load(1, XDATA, add(CFA_XSP16, literal(-14)))
        CFI VB load(1, XDATA, add(CFA_XSP16, literal(-13)))
        CFI V0 load(1, XDATA, add(CFA_XSP16, literal(-12)))
        CFI V1 load(1, XDATA, add(CFA_XSP16, literal(-11)))
        CFI V2 load(1, XDATA, add(CFA_XSP16, literal(-10)))
        CFI V3 load(1, XDATA, add(CFA_XSP16, literal(-9)))
        CFI V4 load(1, XDATA, add(CFA_XSP16, literal(-8)))
        CFI V5 load(1, XDATA, add(CFA_XSP16, literal(-7)))
        CFI R7 load(1, XDATA, add(CFA_XSP16, literal(-6)))
        CFI ?RET_LOW load(1, XDATA, add(CFA_XSP16, literal(-5)))
        CFI ?RET_HIGH load(1, XDATA, add(CFA_XSP16, literal(-4)))
        CFI ?BRET_EXT load(1, XDATA, add(CFA_XSP16, literal(-3)))
        CFI DPL0 load(1, XDATA, add(CFA_XSP16, literal(-2)))
        CFI DPH0 load(1, XDATA, add(CFA_XSP16, literal(-1)))
        CFI CFA_SP SP+0
        CFI CFA_XSP16 add(XSP16, 19)
        CFI Block cfiCond257 Using cfiCommon0
        CFI (cfiCond257) NoFunction
        CFI (cfiCond257) Conditional ??CrossCallReturnLabel_98
        CFI (cfiCond257) R6 load(1, XDATA, add(CFA_XSP16, literal(-14)))
        CFI (cfiCond257) VB load(1, XDATA, add(CFA_XSP16, literal(-13)))
        CFI (cfiCond257) V0 load(1, XDATA, add(CFA_XSP16, literal(-12)))
        CFI (cfiCond257) V1 load(1, XDATA, add(CFA_XSP16, literal(-11)))
        CFI (cfiCond257) V2 load(1, XDATA, add(CFA_XSP16, literal(-10)))
        CFI (cfiCond257) V3 load(1, XDATA, add(CFA_XSP16, literal(-9)))
        CFI (cfiCond257) V4 load(1, XDATA, add(CFA_XSP16, literal(-8)))
        CFI (cfiCond257) V5 load(1, XDATA, add(CFA_XSP16, literal(-7)))
        CFI (cfiCond257) R7 load(1, XDATA, add(CFA_XSP16, literal(-6)))
        CFI (cfiCond257) ?RET_LOW load(1, XDATA, add(CFA_XSP16, literal(-5)))
        CFI (cfiCond257) ?RET_HIGH load(1, XDATA, add(CFA_XSP16, literal(-4)))
        CFI (cfiCond257) ?BRET_EXT load(1, XDATA, add(CFA_XSP16, literal(-3)))
        CFI (cfiCond257) DPL0 load(1, XDATA, add(CFA_XSP16, literal(-2)))
        CFI (cfiCond257) DPH0 load(1, XDATA, add(CFA_XSP16, literal(-1)))
        CFI (cfiCond257) CFA_SP SP+0
        CFI (cfiCond257) CFA_XSP16 add(XSP16, 21)
        CFI Block cfiPicker258 Using cfiCommon1
        CFI (cfiPicker258) NoFunction
        CFI (cfiPicker258) Picker
        MOV     A,R6
        ADD     A,#0x18
        CFI EndBlock cfiCond256
        CFI EndBlock cfiCond257
        CFI EndBlock cfiPicker258
        REQUIRE ??Subroutine56_0
        ; // Fall through to label ??Subroutine56_0

        RSEG BANKED_CODE:CODE:NOROOT(0)
??Subroutine56_0:
        CFI Block cfiCond259 Using cfiCommon0
        CFI NoFunction
        CFI Conditional ??CrossCallReturnLabel_94
        CFI R6 load(1, XDATA, add(CFA_XSP16, literal(-14)))
        CFI VB load(1, XDATA, add(CFA_XSP16, literal(-13)))
        CFI V0 load(1, XDATA, add(CFA_XSP16, literal(-12)))
        CFI V1 load(1, XDATA, add(CFA_XSP16, literal(-11)))
        CFI V2 load(1, XDATA, add(CFA_XSP16, literal(-10)))
        CFI V3 load(1, XDATA, add(CFA_XSP16, literal(-9)))
        CFI V4 load(1, XDATA, add(CFA_XSP16, literal(-8)))
        CFI V5 load(1, XDATA, add(CFA_XSP16, literal(-7)))
        CFI R7 load(1, XDATA, add(CFA_XSP16, literal(-6)))
        CFI ?RET_LOW load(1, XDATA, add(CFA_XSP16, literal(-5)))
        CFI ?RET_HIGH load(1, XDATA, add(CFA_XSP16, literal(-4)))
        CFI ?BRET_EXT load(1, XDATA, add(CFA_XSP16, literal(-3)))
        CFI DPL0 load(1, XDATA, add(CFA_XSP16, literal(-2)))
        CFI DPH0 load(1, XDATA, add(CFA_XSP16, literal(-1)))
        CFI CFA_SP SP+0
        CFI CFA_XSP16 add(XSP16, 19)
        CFI Block cfiCond260 Using cfiCommon0
        CFI (cfiCond260) NoFunction
        CFI (cfiCond260) Conditional ??CrossCallReturnLabel_95
        CFI (cfiCond260) R6 load(1, XDATA, add(CFA_XSP16, literal(-14)))
        CFI (cfiCond260) VB load(1, XDATA, add(CFA_XSP16, literal(-13)))
        CFI (cfiCond260) V0 load(1, XDATA, add(CFA_XSP16, literal(-12)))
        CFI (cfiCond260) V1 load(1, XDATA, add(CFA_XSP16, literal(-11)))
        CFI (cfiCond260) V2 load(1, XDATA, add(CFA_XSP16, literal(-10)))
        CFI (cfiCond260) V3 load(1, XDATA, add(CFA_XSP16, literal(-9)))
        CFI (cfiCond260) V4 load(1, XDATA, add(CFA_XSP16, literal(-8)))
        CFI (cfiCond260) V5 load(1, XDATA, add(CFA_XSP16, literal(-7)))
        CFI (cfiCond260) R7 load(1, XDATA, add(CFA_XSP16, literal(-6)))
        CFI (cfiCond260) ?RET_LOW load(1, XDATA, add(CFA_XSP16, literal(-5)))
        CFI (cfiCond260) ?RET_HIGH load(1, XDATA, add(CFA_XSP16, literal(-4)))
        CFI (cfiCond260) ?BRET_EXT load(1, XDATA, add(CFA_XSP16, literal(-3)))
        CFI (cfiCond260) DPL0 load(1, XDATA, add(CFA_XSP16, literal(-2)))
        CFI (cfiCond260) DPH0 load(1, XDATA, add(CFA_XSP16, literal(-1)))
        CFI (cfiCond260) CFA_SP SP+0
        CFI (cfiCond260) CFA_XSP16 add(XSP16, 19)
        CFI Block cfiCond261 Using cfiCommon0
        CFI (cfiCond261) NoFunction
        CFI (cfiCond261) Conditional ??CrossCallReturnLabel_96
        CFI (cfiCond261) R6 load(1, XDATA, add(CFA_XSP16, literal(-14)))
        CFI (cfiCond261) VB load(1, XDATA, add(CFA_XSP16, literal(-13)))
        CFI (cfiCond261) V0 load(1, XDATA, add(CFA_XSP16, literal(-12)))
        CFI (cfiCond261) V1 load(1, XDATA, add(CFA_XSP16, literal(-11)))
        CFI (cfiCond261) V2 load(1, XDATA, add(CFA_XSP16, literal(-10)))
        CFI (cfiCond261) V3 load(1, XDATA, add(CFA_XSP16, literal(-9)))
        CFI (cfiCond261) V4 load(1, XDATA, add(CFA_XSP16, literal(-8)))
        CFI (cfiCond261) V5 load(1, XDATA, add(CFA_XSP16, literal(-7)))
        CFI (cfiCond261) R7 load(1, XDATA, add(CFA_XSP16, literal(-6)))
        CFI (cfiCond261) ?RET_LOW load(1, XDATA, add(CFA_XSP16, literal(-5)))
        CFI (cfiCond261) ?RET_HIGH load(1, XDATA, add(CFA_XSP16, literal(-4)))
        CFI (cfiCond261) ?BRET_EXT load(1, XDATA, add(CFA_XSP16, literal(-3)))
        CFI (cfiCond261) DPL0 load(1, XDATA, add(CFA_XSP16, literal(-2)))
        CFI (cfiCond261) DPH0 load(1, XDATA, add(CFA_XSP16, literal(-1)))
        CFI (cfiCond261) CFA_SP SP+0
        CFI (cfiCond261) CFA_XSP16 add(XSP16, 19)
        CFI Block cfiCond262 Using cfiCommon0
        CFI (cfiCond262) NoFunction
        CFI (cfiCond262) Conditional ??CrossCallReturnLabel_97
        CFI (cfiCond262) R6 load(1, XDATA, add(CFA_XSP16, literal(-14)))
        CFI (cfiCond262) VB load(1, XDATA, add(CFA_XSP16, literal(-13)))
        CFI (cfiCond262) V0 load(1, XDATA, add(CFA_XSP16, literal(-12)))
        CFI (cfiCond262) V1 load(1, XDATA, add(CFA_XSP16, literal(-11)))
        CFI (cfiCond262) V2 load(1, XDATA, add(CFA_XSP16, literal(-10)))
        CFI (cfiCond262) V3 load(1, XDATA, add(CFA_XSP16, literal(-9)))
        CFI (cfiCond262) V4 load(1, XDATA, add(CFA_XSP16, literal(-8)))
        CFI (cfiCond262) V5 load(1, XDATA, add(CFA_XSP16, literal(-7)))
        CFI (cfiCond262) R7 load(1, XDATA, add(CFA_XSP16, literal(-6)))
        CFI (cfiCond262) ?RET_LOW load(1, XDATA, add(CFA_XSP16, literal(-5)))
        CFI (cfiCond262) ?RET_HIGH load(1, XDATA, add(CFA_XSP16, literal(-4)))
        CFI (cfiCond262) ?BRET_EXT load(1, XDATA, add(CFA_XSP16, literal(-3)))
        CFI (cfiCond262) DPL0 load(1, XDATA, add(CFA_XSP16, literal(-2)))
        CFI (cfiCond262) DPH0 load(1, XDATA, add(CFA_XSP16, literal(-1)))
        CFI (cfiCond262) CFA_SP SP+0
        CFI (cfiCond262) CFA_XSP16 add(XSP16, 19)
        CFI Block cfiCond263 Using cfiCommon0
        CFI (cfiCond263) NoFunction
        CFI (cfiCond263) Conditional ??CrossCallReturnLabel_98
        CFI (cfiCond263) R6 load(1, XDATA, add(CFA_XSP16, literal(-14)))
        CFI (cfiCond263) VB load(1, XDATA, add(CFA_XSP16, literal(-13)))
        CFI (cfiCond263) V0 load(1, XDATA, add(CFA_XSP16, literal(-12)))
        CFI (cfiCond263) V1 load(1, XDATA, add(CFA_XSP16, literal(-11)))
        CFI (cfiCond263) V2 load(1, XDATA, add(CFA_XSP16, literal(-10)))
        CFI (cfiCond263) V3 load(1, XDATA, add(CFA_XSP16, literal(-9)))
        CFI (cfiCond263) V4 load(1, XDATA, add(CFA_XSP16, literal(-8)))
        CFI (cfiCond263) V5 load(1, XDATA, add(CFA_XSP16, literal(-7)))
        CFI (cfiCond263) R7 load(1, XDATA, add(CFA_XSP16, literal(-6)))
        CFI (cfiCond263) ?RET_LOW load(1, XDATA, add(CFA_XSP16, literal(-5)))
        CFI (cfiCond263) ?RET_HIGH load(1, XDATA, add(CFA_XSP16, literal(-4)))
        CFI (cfiCond263) ?BRET_EXT load(1, XDATA, add(CFA_XSP16, literal(-3)))
        CFI (cfiCond263) DPL0 load(1, XDATA, add(CFA_XSP16, literal(-2)))
        CFI (cfiCond263) DPH0 load(1, XDATA, add(CFA_XSP16, literal(-1)))
        CFI (cfiCond263) CFA_SP SP+0
        CFI (cfiCond263) CFA_XSP16 add(XSP16, 21)
        CFI Block cfiPicker264 Using cfiCommon1
        CFI (cfiPicker264) NoFunction
        CFI (cfiPicker264) Picker
        MOV     DPL,A
        MOV     A,R7
        CFI EndBlock cfiCond259
        CFI EndBlock cfiCond260
        CFI EndBlock cfiCond261
        CFI EndBlock cfiCond262
        CFI EndBlock cfiCond263
        CFI EndBlock cfiPicker264
        REQUIRE ??Subroutine57_0
        ; // Fall through to label ??Subroutine57_0

        RSEG BANKED_CODE:CODE:NOROOT(0)
??Subroutine57_0:
        CFI Block cfiCond265 Using cfiCommon0
        CFI NoFunction
        CFI Conditional ??CrossCallReturnLabel_90
        CFI R6 load(1, XDATA, add(CFA_XSP16, literal(-14)))
        CFI VB load(1, XDATA, add(CFA_XSP16, literal(-13)))
        CFI V0 load(1, XDATA, add(CFA_XSP16, literal(-12)))
        CFI V1 load(1, XDATA, add(CFA_XSP16, literal(-11)))
        CFI V2 load(1, XDATA, add(CFA_XSP16, literal(-10)))
        CFI V3 load(1, XDATA, add(CFA_XSP16, literal(-9)))
        CFI V4 load(1, XDATA, add(CFA_XSP16, literal(-8)))
        CFI V5 load(1, XDATA, add(CFA_XSP16, literal(-7)))
        CFI R7 load(1, XDATA, add(CFA_XSP16, literal(-6)))
        CFI ?RET_LOW load(1, XDATA, add(CFA_XSP16, literal(-5)))
        CFI ?RET_HIGH load(1, XDATA, add(CFA_XSP16, literal(-4)))
        CFI ?BRET_EXT load(1, XDATA, add(CFA_XSP16, literal(-3)))
        CFI DPL0 load(1, XDATA, add(CFA_XSP16, literal(-2)))
        CFI DPH0 load(1, XDATA, add(CFA_XSP16, literal(-1)))
        CFI CFA_SP SP+0
        CFI CFA_XSP16 add(XSP16, 23)
        CFI Block cfiCond266 Using cfiCommon0
        CFI (cfiCond266) NoFunction
        CFI (cfiCond266) Conditional ??CrossCallReturnLabel_91
        CFI (cfiCond266) R6 load(1, XDATA, add(CFA_XSP16, literal(-14)))
        CFI (cfiCond266) VB load(1, XDATA, add(CFA_XSP16, literal(-13)))
        CFI (cfiCond266) V0 load(1, XDATA, add(CFA_XSP16, literal(-12)))
        CFI (cfiCond266) V1 load(1, XDATA, add(CFA_XSP16, literal(-11)))
        CFI (cfiCond266) V2 load(1, XDATA, add(CFA_XSP16, literal(-10)))
        CFI (cfiCond266) V3 load(1, XDATA, add(CFA_XSP16, literal(-9)))
        CFI (cfiCond266) V4 load(1, XDATA, add(CFA_XSP16, literal(-8)))
        CFI (cfiCond266) V5 load(1, XDATA, add(CFA_XSP16, literal(-7)))
        CFI (cfiCond266) R7 load(1, XDATA, add(CFA_XSP16, literal(-6)))
        CFI (cfiCond266) ?RET_LOW load(1, XDATA, add(CFA_XSP16, literal(-5)))
        CFI (cfiCond266) ?RET_HIGH load(1, XDATA, add(CFA_XSP16, literal(-4)))
        CFI (cfiCond266) ?BRET_EXT load(1, XDATA, add(CFA_XSP16, literal(-3)))
        CFI (cfiCond266) DPL0 load(1, XDATA, add(CFA_XSP16, literal(-2)))
        CFI (cfiCond266) DPH0 load(1, XDATA, add(CFA_XSP16, literal(-1)))
        CFI (cfiCond266) CFA_SP SP+0
        CFI (cfiCond266) CFA_XSP16 add(XSP16, 23)
        CFI Block cfiCond267 Using cfiCommon0
        CFI (cfiCond267) NoFunction
        CFI (cfiCond267) Conditional ??CrossCallReturnLabel_92
        CFI (cfiCond267) R6 load(1, XDATA, add(CFA_XSP16, literal(-12)))
        CFI (cfiCond267) VB load(1, XDATA, add(CFA_XSP16, literal(-11)))
        CFI (cfiCond267) V0 load(1, XDATA, add(CFA_XSP16, literal(-10)))
        CFI (cfiCond267) V1 load(1, XDATA, add(CFA_XSP16, literal(-9)))
        CFI (cfiCond267) V2 load(1, XDATA, add(CFA_XSP16, literal(-8)))
        CFI (cfiCond267) V3 load(1, XDATA, add(CFA_XSP16, literal(-7)))
        CFI (cfiCond267) R7 load(1, XDATA, add(CFA_XSP16, literal(-6)))
        CFI (cfiCond267) ?RET_LOW load(1, XDATA, add(CFA_XSP16, literal(-5)))
        CFI (cfiCond267) ?RET_HIGH load(1, XDATA, add(CFA_XSP16, literal(-4)))
        CFI (cfiCond267) ?BRET_EXT load(1, XDATA, add(CFA_XSP16, literal(-3)))
        CFI (cfiCond267) DPL0 load(1, XDATA, add(CFA_XSP16, literal(-2)))
        CFI (cfiCond267) DPH0 load(1, XDATA, add(CFA_XSP16, literal(-1)))
        CFI (cfiCond267) CFA_SP SP+0
        CFI (cfiCond267) CFA_XSP16 add(XSP16, 12)
        CFI Block cfiCond268 Using cfiCommon0
        CFI (cfiCond268) NoFunction
        CFI (cfiCond268) Conditional ??CrossCallReturnLabel_93
        CFI (cfiCond268) DPL0 Frame(CFA_SP, 4)
        CFI (cfiCond268) DPH0 Frame(CFA_SP, 5)
        CFI (cfiCond268) CFA_SP SP+-5
        CFI Block cfiCond269 Using cfiCommon0
        CFI (cfiCond269) NoFunction
        CFI (cfiCond269) Conditional ??CrossCallReturnLabel_94
        CFI (cfiCond269) R6 load(1, XDATA, add(CFA_XSP16, literal(-14)))
        CFI (cfiCond269) VB load(1, XDATA, add(CFA_XSP16, literal(-13)))
        CFI (cfiCond269) V0 load(1, XDATA, add(CFA_XSP16, literal(-12)))
        CFI (cfiCond269) V1 load(1, XDATA, add(CFA_XSP16, literal(-11)))
        CFI (cfiCond269) V2 load(1, XDATA, add(CFA_XSP16, literal(-10)))
        CFI (cfiCond269) V3 load(1, XDATA, add(CFA_XSP16, literal(-9)))
        CFI (cfiCond269) V4 load(1, XDATA, add(CFA_XSP16, literal(-8)))
        CFI (cfiCond269) V5 load(1, XDATA, add(CFA_XSP16, literal(-7)))
        CFI (cfiCond269) R7 load(1, XDATA, add(CFA_XSP16, literal(-6)))
        CFI (cfiCond269) ?RET_LOW load(1, XDATA, add(CFA_XSP16, literal(-5)))
        CFI (cfiCond269) ?RET_HIGH load(1, XDATA, add(CFA_XSP16, literal(-4)))
        CFI (cfiCond269) ?BRET_EXT load(1, XDATA, add(CFA_XSP16, literal(-3)))
        CFI (cfiCond269) DPL0 load(1, XDATA, add(CFA_XSP16, literal(-2)))
        CFI (cfiCond269) DPH0 load(1, XDATA, add(CFA_XSP16, literal(-1)))
        CFI (cfiCond269) CFA_SP SP+0
        CFI (cfiCond269) CFA_XSP16 add(XSP16, 19)
        CFI Block cfiCond270 Using cfiCommon0
        CFI (cfiCond270) NoFunction
        CFI (cfiCond270) Conditional ??CrossCallReturnLabel_95
        CFI (cfiCond270) R6 load(1, XDATA, add(CFA_XSP16, literal(-14)))
        CFI (cfiCond270) VB load(1, XDATA, add(CFA_XSP16, literal(-13)))
        CFI (cfiCond270) V0 load(1, XDATA, add(CFA_XSP16, literal(-12)))
        CFI (cfiCond270) V1 load(1, XDATA, add(CFA_XSP16, literal(-11)))
        CFI (cfiCond270) V2 load(1, XDATA, add(CFA_XSP16, literal(-10)))
        CFI (cfiCond270) V3 load(1, XDATA, add(CFA_XSP16, literal(-9)))
        CFI (cfiCond270) V4 load(1, XDATA, add(CFA_XSP16, literal(-8)))
        CFI (cfiCond270) V5 load(1, XDATA, add(CFA_XSP16, literal(-7)))
        CFI (cfiCond270) R7 load(1, XDATA, add(CFA_XSP16, literal(-6)))
        CFI (cfiCond270) ?RET_LOW load(1, XDATA, add(CFA_XSP16, literal(-5)))
        CFI (cfiCond270) ?RET_HIGH load(1, XDATA, add(CFA_XSP16, literal(-4)))
        CFI (cfiCond270) ?BRET_EXT load(1, XDATA, add(CFA_XSP16, literal(-3)))
        CFI (cfiCond270) DPL0 load(1, XDATA, add(CFA_XSP16, literal(-2)))
        CFI (cfiCond270) DPH0 load(1, XDATA, add(CFA_XSP16, literal(-1)))
        CFI (cfiCond270) CFA_SP SP+0
        CFI (cfiCond270) CFA_XSP16 add(XSP16, 19)
        CFI Block cfiCond271 Using cfiCommon0
        CFI (cfiCond271) NoFunction
        CFI (cfiCond271) Conditional ??CrossCallReturnLabel_96
        CFI (cfiCond271) R6 load(1, XDATA, add(CFA_XSP16, literal(-14)))
        CFI (cfiCond271) VB load(1, XDATA, add(CFA_XSP16, literal(-13)))
        CFI (cfiCond271) V0 load(1, XDATA, add(CFA_XSP16, literal(-12)))
        CFI (cfiCond271) V1 load(1, XDATA, add(CFA_XSP16, literal(-11)))
        CFI (cfiCond271) V2 load(1, XDATA, add(CFA_XSP16, literal(-10)))
        CFI (cfiCond271) V3 load(1, XDATA, add(CFA_XSP16, literal(-9)))
        CFI (cfiCond271) V4 load(1, XDATA, add(CFA_XSP16, literal(-8)))
        CFI (cfiCond271) V5 load(1, XDATA, add(CFA_XSP16, literal(-7)))
        CFI (cfiCond271) R7 load(1, XDATA, add(CFA_XSP16, literal(-6)))
        CFI (cfiCond271) ?RET_LOW load(1, XDATA, add(CFA_XSP16, literal(-5)))
        CFI (cfiCond271) ?RET_HIGH load(1, XDATA, add(CFA_XSP16, literal(-4)))
        CFI (cfiCond271) ?BRET_EXT load(1, XDATA, add(CFA_XSP16, literal(-3)))
        CFI (cfiCond271) DPL0 load(1, XDATA, add(CFA_XSP16, literal(-2)))
        CFI (cfiCond271) DPH0 load(1, XDATA, add(CFA_XSP16, literal(-1)))
        CFI (cfiCond271) CFA_SP SP+0
        CFI (cfiCond271) CFA_XSP16 add(XSP16, 19)
        CFI Block cfiCond272 Using cfiCommon0
        CFI (cfiCond272) NoFunction
        CFI (cfiCond272) Conditional ??CrossCallReturnLabel_97
        CFI (cfiCond272) R6 load(1, XDATA, add(CFA_XSP16, literal(-14)))
        CFI (cfiCond272) VB load(1, XDATA, add(CFA_XSP16, literal(-13)))
        CFI (cfiCond272) V0 load(1, XDATA, add(CFA_XSP16, literal(-12)))
        CFI (cfiCond272) V1 load(1, XDATA, add(CFA_XSP16, literal(-11)))
        CFI (cfiCond272) V2 load(1, XDATA, add(CFA_XSP16, literal(-10)))
        CFI (cfiCond272) V3 load(1, XDATA, add(CFA_XSP16, literal(-9)))
        CFI (cfiCond272) V4 load(1, XDATA, add(CFA_XSP16, literal(-8)))
        CFI (cfiCond272) V5 load(1, XDATA, add(CFA_XSP16, literal(-7)))
        CFI (cfiCond272) R7 load(1, XDATA, add(CFA_XSP16, literal(-6)))
        CFI (cfiCond272) ?RET_LOW load(1, XDATA, add(CFA_XSP16, literal(-5)))
        CFI (cfiCond272) ?RET_HIGH load(1, XDATA, add(CFA_XSP16, literal(-4)))
        CFI (cfiCond272) ?BRET_EXT load(1, XDATA, add(CFA_XSP16, literal(-3)))
        CFI (cfiCond272) DPL0 load(1, XDATA, add(CFA_XSP16, literal(-2)))
        CFI (cfiCond272) DPH0 load(1, XDATA, add(CFA_XSP16, literal(-1)))
        CFI (cfiCond272) CFA_SP SP+0
        CFI (cfiCond272) CFA_XSP16 add(XSP16, 19)
        CFI Block cfiCond273 Using cfiCommon0
        CFI (cfiCond273) NoFunction
        CFI (cfiCond273) Conditional ??CrossCallReturnLabel_98
        CFI (cfiCond273) R6 load(1, XDATA, add(CFA_XSP16, literal(-14)))
        CFI (cfiCond273) VB load(1, XDATA, add(CFA_XSP16, literal(-13)))
        CFI (cfiCond273) V0 load(1, XDATA, add(CFA_XSP16, literal(-12)))
        CFI (cfiCond273) V1 load(1, XDATA, add(CFA_XSP16, literal(-11)))
        CFI (cfiCond273) V2 load(1, XDATA, add(CFA_XSP16, literal(-10)))
        CFI (cfiCond273) V3 load(1, XDATA, add(CFA_XSP16, literal(-9)))
        CFI (cfiCond273) V4 load(1, XDATA, add(CFA_XSP16, literal(-8)))
        CFI (cfiCond273) V5 load(1, XDATA, add(CFA_XSP16, literal(-7)))
        CFI (cfiCond273) R7 load(1, XDATA, add(CFA_XSP16, literal(-6)))
        CFI (cfiCond273) ?RET_LOW load(1, XDATA, add(CFA_XSP16, literal(-5)))
        CFI (cfiCond273) ?RET_HIGH load(1, XDATA, add(CFA_XSP16, literal(-4)))
        CFI (cfiCond273) ?BRET_EXT load(1, XDATA, add(CFA_XSP16, literal(-3)))
        CFI (cfiCond273) DPL0 load(1, XDATA, add(CFA_XSP16, literal(-2)))
        CFI (cfiCond273) DPH0 load(1, XDATA, add(CFA_XSP16, literal(-1)))
        CFI (cfiCond273) CFA_SP SP+0
        CFI (cfiCond273) CFA_XSP16 add(XSP16, 21)
        CFI Block cfiPicker274 Using cfiCommon1
        CFI (cfiPicker274) NoFunction
        CFI (cfiPicker274) Picker
        LCALL   ??Subroutine51_0 & 0xFFFF
??CrossCallReturnLabel_102:
        RET
        CFI EndBlock cfiCond265
        CFI EndBlock cfiCond266
        CFI EndBlock cfiCond267
        CFI EndBlock cfiCond268
        CFI EndBlock cfiCond269
        CFI EndBlock cfiCond270
        CFI EndBlock cfiCond271
        CFI EndBlock cfiCond272
        CFI EndBlock cfiCond273
        CFI EndBlock cfiPicker274
//  544 

        RSEG BANKED_CODE:CODE:NOROOT(0)
//  545 void AT_AF_Cmd_R_CIDDISC_rsp(afIncomingMSGPacket_t *pkt ){
AT_AF_Cmd_R_CIDDISC_rsp:
        CFI Block cfiBlock275 Using cfiCommon0
        CFI Function AT_AF_Cmd_R_CIDDISC_rsp
        CODE
        ; Saved register size: 0
        ; Auto size: 0
//  546 }
        LJMP    ?BRET
        CFI EndBlock cfiBlock275
//  547 
//  548 /**********************************************************************
//  549 flashing the led_2 to indication which device in the PAN
//  550 ***********************************************************************/

        RSEG BANKED_CODE:CODE:NOROOT(0)
//  551 void AT_AF_TEST_KEY_CB(afIncomingMSGPacket_t *pkt ){
AT_AF_TEST_KEY_CB:
        CFI Block cfiBlock276 Using cfiCommon0
        CFI Function AT_AF_TEST_KEY_CB
        CODE
        FUNCALL AT_AF_TEST_KEY_CB, HalLedBlink
        LOCFRAME ISTACK, 2, STACK
        LOCFRAME PSTACK, 0, STACK
        LOCFRAME XSTACK, 0, STACK
        LOCFRAME IOVERLAY, 0, STATIC
        LOCFRAME DOVERLAY, 0, STATIC
        ARGFRAME ISTACK, 2, STACK
        ARGFRAME PSTACK, 0, STACK
        ARGFRAME XSTACK, 0, STACK
        ARGFRAME IOVERLAY, 0, STATIC
        ARGFRAME DOVERLAY, 0, STATIC
        PUSH    DPL
        CFI DPL0 Frame(CFA_SP, 4)
        CFI CFA_SP SP+-4
        PUSH    DPH
        CFI DPH0 Frame(CFA_SP, 5)
        CFI CFA_SP SP+-5
        ; Saved register size: 2
        ; Auto size: 0
//  552   HalLedBlink( HAL_LED_2, 4, 50, 250 );
        ; Setup parameters for call to function HalLedBlink
        MOV     R4,#-0x6
        MOV     R5,#0x0
        MOV     R3,#0x32
        MOV     R2,#0x4
        MOV     R1,#0x2
        LCALL   ??HalLedBlink?relay
//  553 }
        LJMP    ?Subroutine0 & 0xFFFF
        CFI EndBlock cfiBlock276
//  554 
//  555 
//  556 /**************************************************************************
//  557 Power saving experiment for the Papper of power efficiency in ZigBee
//  558 ******************************************************************************/
//  559 static void AT_AF_Cmd_RSSI_req(afIncomingMSGPacket_t *pkt  );
//  560 static void AT_AF_Cmd_RSSI_rsp(afIncomingMSGPacket_t *pkt );
//  561 static void AT_AF_Cmd_PSE_req(afIncomingMSGPacket_t *pkt);
//  562 
//  563 static void AT_AF_Cmd_RSSI_req(afIncomingMSGPacket_t *pkt  ){
//  564   AT_AF_Cmd_POWER_SAVING_rssi_t buf;
//  565   buf.hdr.cmd =AT_AT_PSE_RSSI_rsp;
//  566   buf.rssi = pkt->rssi;
//  567   buf.lqi = pkt->LinkQuality;
//  568   buf.correlation =pkt->correlation;
//  569   AF_DataRequest( & (pkt->srcAddr), & AT_AF_epDesc,
//  570                          AT_AF_POWER_SVING_EXP_CLUSTERID,
//  571                          sizeof(buf),
//  572                          (uint8*)&buf,
//  573                          &AT_AF_TransID,
//  574                          AF_DISCV_ROUTE,
//  575                          AF_DEFAULT_RADIUS );
//  576 }
//  577 
//  578 static void AT_AF_Cmd_RSSI_rsp(afIncomingMSGPacket_t *pkt ){
//  579   AT_AF_Cmd_POWER_SAVING_rssi_t* rsp = (AT_AF_Cmd_POWER_SAVING_rssi_t*)pkt->cmd.Data;
//  580   AT_RESP_START();
//  581   printf("RSSIRESP:LQI_send=%d,RSSI_send=%d,correlation_send=%d",
//  582          rsp->lqi,
//  583          rsp->rssi,
//  584          rsp->correlation);
//  585   AT_NEXT_LINE();
//  586   printf("RSSIRESP:LQI_receive=%d,RSSI_receive=%d,correlation_receive=%d",
//  587          pkt->LinkQuality,
//  588          pkt->rssi,
//  589          pkt->correlation);
//  590   AT_RESP_END();
//  591 }

        RSEG BANKED_CODE:CODE:NOROOT(0)
//  592 static void AT_AF_Cmd_PSE_req(afIncomingMSGPacket_t *pkt){
AT_AF_Cmd_PSE_req:
        CFI Block cfiBlock277 Using cfiCommon0
        CFI Function AT_AF_Cmd_PSE_req
        CODE
        FUNCALL AT_AF_Cmd_PSE_req, AT_HalUARTWrite
        LOCFRAME ISTACK, 0, STACK
        LOCFRAME PSTACK, 0, STACK
        LOCFRAME XSTACK, 10, STACK
        LOCFRAME IOVERLAY, 0, STATIC
        LOCFRAME DOVERLAY, 0, STATIC
        ARGFRAME ISTACK, 0, STACK
        ARGFRAME PSTACK, 0, STACK
        ARGFRAME XSTACK, 10, STACK
        ARGFRAME IOVERLAY, 0, STATIC
        ARGFRAME DOVERLAY, 0, STATIC
        FUNCALL AT_AF_Cmd_PSE_req, printf
        LOCFRAME ISTACK, 0, STACK
        LOCFRAME PSTACK, 0, STACK
        LOCFRAME XSTACK, 14, STACK
        LOCFRAME IOVERLAY, 0, STATIC
        LOCFRAME DOVERLAY, 0, STATIC
        ARGFRAME ISTACK, 0, STACK
        ARGFRAME PSTACK, 0, STACK
        ARGFRAME XSTACK, 14, STACK
        ARGFRAME IOVERLAY, 0, STATIC
        ARGFRAME DOVERLAY, 0, STATIC
        FUNCALL AT_AF_Cmd_PSE_req, AT_HalUARTWrite
        LOCFRAME ISTACK, 0, STACK
        LOCFRAME PSTACK, 0, STACK
        LOCFRAME XSTACK, 10, STACK
        LOCFRAME IOVERLAY, 0, STATIC
        LOCFRAME DOVERLAY, 0, STATIC
        ARGFRAME ISTACK, 0, STACK
        ARGFRAME PSTACK, 0, STACK
        ARGFRAME XSTACK, 10, STACK
        ARGFRAME IOVERLAY, 0, STATIC
        ARGFRAME DOVERLAY, 0, STATIC
        FUNCALL AT_AF_Cmd_PSE_req, printf
        LOCFRAME ISTACK, 0, STACK
        LOCFRAME PSTACK, 0, STACK
        LOCFRAME XSTACK, 10, STACK
        LOCFRAME IOVERLAY, 0, STATIC
        LOCFRAME DOVERLAY, 0, STATIC
        ARGFRAME ISTACK, 0, STACK
        ARGFRAME PSTACK, 0, STACK
        ARGFRAME XSTACK, 10, STACK
        ARGFRAME IOVERLAY, 0, STATIC
        ARGFRAME DOVERLAY, 0, STATIC
        FUNCALL AT_AF_Cmd_PSE_req, AT_HalUARTWrite
        LOCFRAME ISTACK, 0, STACK
        LOCFRAME PSTACK, 0, STACK
        LOCFRAME XSTACK, 10, STACK
        LOCFRAME IOVERLAY, 0, STATIC
        LOCFRAME DOVERLAY, 0, STATIC
        ARGFRAME ISTACK, 0, STACK
        ARGFRAME PSTACK, 0, STACK
        ARGFRAME XSTACK, 10, STACK
        ARGFRAME IOVERLAY, 0, STATIC
        ARGFRAME DOVERLAY, 0, STATIC
        FUNCALL AT_AF_Cmd_PSE_req, HalLedSet
        LOCFRAME ISTACK, 0, STACK
        LOCFRAME PSTACK, 0, STACK
        LOCFRAME XSTACK, 10, STACK
        LOCFRAME IOVERLAY, 0, STATIC
        LOCFRAME DOVERLAY, 0, STATIC
        ARGFRAME ISTACK, 0, STACK
        ARGFRAME PSTACK, 0, STACK
        ARGFRAME XSTACK, 10, STACK
        ARGFRAME IOVERLAY, 0, STATIC
        ARGFRAME DOVERLAY, 0, STATIC
        FUNCALL AT_AF_Cmd_PSE_req, printf
        LOCFRAME ISTACK, 0, STACK
        LOCFRAME PSTACK, 0, STACK
        LOCFRAME XSTACK, 12, STACK
        LOCFRAME IOVERLAY, 0, STATIC
        LOCFRAME DOVERLAY, 0, STATIC
        ARGFRAME ISTACK, 0, STACK
        ARGFRAME PSTACK, 0, STACK
        ARGFRAME XSTACK, 12, STACK
        ARGFRAME IOVERLAY, 0, STATIC
        ARGFRAME DOVERLAY, 0, STATIC
        FUNCALL AT_AF_Cmd_PSE_req, printf
        LOCFRAME ISTACK, 0, STACK
        LOCFRAME PSTACK, 0, STACK
        LOCFRAME XSTACK, 12, STACK
        LOCFRAME IOVERLAY, 0, STATIC
        LOCFRAME DOVERLAY, 0, STATIC
        ARGFRAME ISTACK, 0, STACK
        ARGFRAME PSTACK, 0, STACK
        ARGFRAME XSTACK, 12, STACK
        ARGFRAME IOVERLAY, 0, STATIC
        ARGFRAME DOVERLAY, 0, STATIC
        FUNCALL AT_AF_Cmd_PSE_req, HalLedSet
        LOCFRAME ISTACK, 0, STACK
        LOCFRAME PSTACK, 0, STACK
        LOCFRAME XSTACK, 10, STACK
        LOCFRAME IOVERLAY, 0, STATIC
        LOCFRAME DOVERLAY, 0, STATIC
        ARGFRAME ISTACK, 0, STACK
        ARGFRAME PSTACK, 0, STACK
        ARGFRAME XSTACK, 10, STACK
        ARGFRAME IOVERLAY, 0, STATIC
        ARGFRAME DOVERLAY, 0, STATIC
        FUNCALL AT_AF_Cmd_PSE_req, AT_HalUARTWrite
        LOCFRAME ISTACK, 0, STACK
        LOCFRAME PSTACK, 0, STACK
        LOCFRAME XSTACK, 10, STACK
        LOCFRAME IOVERLAY, 0, STATIC
        LOCFRAME DOVERLAY, 0, STATIC
        ARGFRAME ISTACK, 0, STACK
        ARGFRAME PSTACK, 0, STACK
        ARGFRAME XSTACK, 10, STACK
        ARGFRAME IOVERLAY, 0, STATIC
        ARGFRAME DOVERLAY, 0, STATIC
        FUNCALL AT_AF_Cmd_PSE_req, printf
        LOCFRAME ISTACK, 0, STACK
        LOCFRAME PSTACK, 0, STACK
        LOCFRAME XSTACK, 10, STACK
        LOCFRAME IOVERLAY, 0, STATIC
        LOCFRAME DOVERLAY, 0, STATIC
        ARGFRAME ISTACK, 0, STACK
        ARGFRAME PSTACK, 0, STACK
        ARGFRAME XSTACK, 10, STACK
        ARGFRAME IOVERLAY, 0, STATIC
        ARGFRAME DOVERLAY, 0, STATIC
        FUNCALL AT_AF_Cmd_PSE_req, AT_HalUARTWrite
        LOCFRAME ISTACK, 0, STACK
        LOCFRAME PSTACK, 0, STACK
        LOCFRAME XSTACK, 10, STACK
        LOCFRAME IOVERLAY, 0, STATIC
        LOCFRAME DOVERLAY, 0, STATIC
        ARGFRAME ISTACK, 0, STACK
        ARGFRAME PSTACK, 0, STACK
        ARGFRAME XSTACK, 10, STACK
        ARGFRAME IOVERLAY, 0, STATIC
        ARGFRAME DOVERLAY, 0, STATIC
        MOV     A,#-0xa
        LCALL   ?BANKED_ENTER_XDATA
        CFI DPH0 load(1, XDATA, add(CFA_XSP16, literal(-1)))
        CFI DPL0 load(1, XDATA, add(CFA_XSP16, literal(-2)))
        CFI ?BRET_EXT load(1, XDATA, add(CFA_XSP16, literal(-3)))
        CFI ?RET_HIGH load(1, XDATA, add(CFA_XSP16, literal(-4)))
        CFI ?RET_LOW load(1, XDATA, add(CFA_XSP16, literal(-5)))
        CFI R7 load(1, XDATA, add(CFA_XSP16, literal(-6)))
        CFI V1 load(1, XDATA, add(CFA_XSP16, literal(-7)))
        CFI V0 load(1, XDATA, add(CFA_XSP16, literal(-8)))
        CFI VB load(1, XDATA, add(CFA_XSP16, literal(-9)))
        CFI R6 load(1, XDATA, add(CFA_XSP16, literal(-10)))
        CFI CFA_SP SP+0
        CFI CFA_XSP16 add(XSP16, 10)
        ; Saved register size: 10
        ; Auto size: 0
//  593   AT_AF_Cmd_POWER_SAVING_EXP_t *req = (AT_AF_Cmd_POWER_SAVING_EXP_t *)pkt->cmd.Data;
        LCALL   ??Subroutine58_0 & 0xFFFF
??CrossCallReturnLabel_114:
        LCALL   ?Subroutine18 & 0xFFFF
//  594   static uint16 package_count=0;
//  595   switch(req->hdr.info){
??CrossCallReturnLabel_20:
        MOV     DPL,R0
        MOV     DPH,A
        INC     DPTR
        MOVX    A,@DPTR
        DEC     A
        JZ      ??AT_AF_Cmd_PSE_req_0
        ADD     A,#-0x2
        JZ      ??AT_AF_Cmd_PSE_req_1
        DEC     A
        JZ      ??AT_AF_Cmd_PSE_req_2
        LJMP    ??CrossCallReturnLabel_42 & 0xFFFF
//  596   case AT_AF_PSE_info_pre:
//  597     package_count=0;
??AT_AF_Cmd_PSE_req_0:
        MOV     DPTR,#??package_count
        CLR     A
        MOVX    @DPTR,A
        INC     DPTR
        MOVX    @DPTR,A
//  598     AT_RESP_START();
        ; Setup parameters for call to function AT_HalUARTWrite
        MOV     R4,#0x2
        MOV     R5,A
        MOV     R2,#`?<Constant "\\r\\n">` & 0xff
        MOV     R3,#(`?<Constant "\\r\\n">` >> 8) & 0xff
        MOV     R1,A
        LCALL   ?Subroutine31 & 0xFFFF
//  599     printf("%d packages are coming with interval %dms...",
//  600            req->count,
//  601            req->interval);
??CrossCallReturnLabel_37:
        LCALL   ?PUSH_XSTACK8_X_TWO
        CFI CFA_XSP16 add(XSP16, 12)
        MOV     DPL,?V0 + 0
        MOV     DPH,?V0 + 1
        INC     DPTR
        INC     DPTR
        LCALL   ?PUSH_XSTACK8_X_TWO
        CFI CFA_XSP16 add(XSP16, 14)
        MOV     R2,#`?<Constant "%d packages are comin...">` & 0xff
        MOV     R3,#(`?<Constant "%d packages are comin...">` >> 8) & 0xff
        LCALL   ??printf?relay
        MOV     A,#0x4
        LCALL   ?DEALLOC_XSTACK8
        CFI CFA_XSP16 add(XSP16, 10)
//  602     AT_RESP_END();
        ; Setup parameters for call to function AT_HalUARTWrite
        MOV     R4,#0x2
        MOV     R5,#0x0
        MOV     R2,#`?<Constant "\\r\\n">` & 0xff
        MOV     R3,#(`?<Constant "\\r\\n">` >> 8) & 0xff
        MOV     R1,#0x0
        LCALL   ??AT_HalUARTWrite?relay
//  603     
//  604     printf("Package Received:");
        ; Setup parameters for call to function printf
        MOV     R2,#`?<Constant "Package Received:">` & 0xff
        MOV     R3,#(`?<Constant "Package Received:">` >> 8) & 0xff
        SJMP    ??AT_AF_Cmd_PSE_req_3
//  605     AT_NEXT_LINE();
//  606     break;
//  607   case AT_AF_PSE_info_start:
//  608     break;
//  609   case AT_AF_PSE_info_ing:
//  610     package_count++;
??AT_AF_Cmd_PSE_req_1:
        MOV     DPTR,#??package_count
        MOVX    A,@DPTR
        ADD     A,#0x1
        MOVX    @DPTR,A
        INC     DPTR
        MOVX    A,@DPTR
        ADDC    A,#0x0
        MOVX    @DPTR,A
//  611     
//  612     HalLedSet ( HAL_LED_1, HAL_LED_MODE_TOGGLE );
        ; Setup parameters for call to function HalLedSet
        MOV     R2,#0x8
        MOV     R1,#0x1
        LCALL   ??HalLedSet?relay
//  613     printf("\r%d",package_count);
        ; Setup parameters for call to function printf
        MOV     DPTR,#??package_count
        LCALL   ?PUSH_XSTACK8_X_TWO
        CFI CFA_XSP16 add(XSP16, 12)
        MOV     R2,#`?<Constant "\\r%d">` & 0xff
        MOV     R3,#(`?<Constant "\\r%d">` >> 8) & 0xff
        LCALL   ??Subroutine55_0 & 0xFFFF
??CrossCallReturnLabel_88:
        LCALL   ?DEALLOC_XSTACK8
        CFI CFA_XSP16 add(XSP16, 10)
//  614     break;
        SJMP    ??CrossCallReturnLabel_42
//  615   case AT_AF_PSE_info_end:
//  616     printf("\r%d",package_count);
??AT_AF_Cmd_PSE_req_2:
        ; Setup parameters for call to function printf
        MOV     DPTR,#??package_count
        LCALL   ?PUSH_XSTACK8_X_TWO
        CFI CFA_XSP16 add(XSP16, 12)
        MOV     R2,#`?<Constant "\\r%d">` & 0xff
        MOV     R3,#(`?<Constant "\\r%d">` >> 8) & 0xff
        LCALL   ??Subroutine55_0 & 0xFFFF
??CrossCallReturnLabel_89:
        LCALL   ?DEALLOC_XSTACK8
        CFI CFA_XSP16 add(XSP16, 10)
//  617     
//  618     HalLedSet ( HAL_LED_1, HAL_LED_MODE_OFF );
        ; Setup parameters for call to function HalLedSet
        MOV     R2,#0x0
        MOV     R1,#0x1
        LCALL   ??HalLedSet?relay
//  619     AT_NEXT_LINE();
        ; Setup parameters for call to function AT_HalUARTWrite
        MOV     R4,#0x2
        MOV     R5,#0x0
        MOV     R2,#`?<Constant "\\n\\r">` & 0xff
        MOV     R3,#(`?<Constant "\\n\\r">` >> 8) & 0xff
        MOV     R1,#0x0
        LCALL   ??AT_HalUARTWrite?relay
//  620     printf("Receive finished!");
        ; Setup parameters for call to function printf
        MOV     R2,#`?<Constant "Receive finished!">` & 0xff
        MOV     R3,#(`?<Constant "Receive finished!">` >> 8) & 0xff
??AT_AF_Cmd_PSE_req_3:
        LCALL   ?Subroutine33 & 0xFFFF
//  621     AT_NEXT_LINE();
//  622     break;
//  623   }
//  624 }
??CrossCallReturnLabel_42:
        LJMP    ?Subroutine1 & 0xFFFF
        CFI EndBlock cfiBlock277

        RSEG BANKED_CODE:CODE:NOROOT(0)
?Subroutine33:
        CFI Block cfiCond278 Using cfiCommon0
        CFI NoFunction
        CFI Conditional ??CrossCallReturnLabel_41
        CFI R6 load(1, XDATA, add(CFA_XSP16, literal(-16)))
        CFI VB load(1, XDATA, add(CFA_XSP16, literal(-15)))
        CFI V0 load(1, XDATA, add(CFA_XSP16, literal(-14)))
        CFI V1 load(1, XDATA, add(CFA_XSP16, literal(-13)))
        CFI V2 load(1, XDATA, add(CFA_XSP16, literal(-12)))
        CFI V3 load(1, XDATA, add(CFA_XSP16, literal(-11)))
        CFI V4 load(1, XDATA, add(CFA_XSP16, literal(-10)))
        CFI V5 load(1, XDATA, add(CFA_XSP16, literal(-9)))
        CFI V6 load(1, XDATA, add(CFA_XSP16, literal(-8)))
        CFI V7 load(1, XDATA, add(CFA_XSP16, literal(-7)))
        CFI R7 load(1, XDATA, add(CFA_XSP16, literal(-6)))
        CFI ?RET_LOW load(1, XDATA, add(CFA_XSP16, literal(-5)))
        CFI ?RET_HIGH load(1, XDATA, add(CFA_XSP16, literal(-4)))
        CFI ?BRET_EXT load(1, XDATA, add(CFA_XSP16, literal(-3)))
        CFI DPL0 load(1, XDATA, add(CFA_XSP16, literal(-2)))
        CFI DPH0 load(1, XDATA, add(CFA_XSP16, literal(-1)))
        CFI CFA_SP SP+0
        CFI CFA_XSP16 add(XSP16, 16)
        CFI Block cfiCond279 Using cfiCommon0
        CFI (cfiCond279) NoFunction
        CFI (cfiCond279) Conditional ??CrossCallReturnLabel_42
        CFI (cfiCond279) R6 load(1, XDATA, add(CFA_XSP16, literal(-10)))
        CFI (cfiCond279) VB load(1, XDATA, add(CFA_XSP16, literal(-9)))
        CFI (cfiCond279) V0 load(1, XDATA, add(CFA_XSP16, literal(-8)))
        CFI (cfiCond279) V1 load(1, XDATA, add(CFA_XSP16, literal(-7)))
        CFI (cfiCond279) R7 load(1, XDATA, add(CFA_XSP16, literal(-6)))
        CFI (cfiCond279) ?RET_LOW load(1, XDATA, add(CFA_XSP16, literal(-5)))
        CFI (cfiCond279) ?RET_HIGH load(1, XDATA, add(CFA_XSP16, literal(-4)))
        CFI (cfiCond279) ?BRET_EXT load(1, XDATA, add(CFA_XSP16, literal(-3)))
        CFI (cfiCond279) DPL0 load(1, XDATA, add(CFA_XSP16, literal(-2)))
        CFI (cfiCond279) DPH0 load(1, XDATA, add(CFA_XSP16, literal(-1)))
        CFI (cfiCond279) CFA_SP SP+0
        CFI (cfiCond279) CFA_XSP16 add(XSP16, 10)
        CFI Block cfiPicker280 Using cfiCommon1
        CFI (cfiPicker280) NoFunction
        CFI (cfiPicker280) Picker
        LCALL   ??printf?relay
        ; Setup parameters for call to function AT_HalUARTWrite
        ; Setup parameters for call to function AT_HalUARTWrite
        MOV     R4,#0x2
        MOV     R5,#0x0
        MOV     R2,#`?<Constant "\\n\\r">` & 0xff
        MOV     R3,#(`?<Constant "\\n\\r">` >> 8) & 0xff
        MOV     R1,#0x0
        LCALL   ??AT_HalUARTWrite?relay
        RET
        CFI EndBlock cfiCond278
        CFI EndBlock cfiCond279
        CFI EndBlock cfiPicker280

        RSEG BANKED_CODE:CODE:NOROOT(0)
?Subroutine30:
        CFI Block cfiCond281 Using cfiCommon0
        CFI NoFunction
        CFI Conditional ??CrossCallReturnLabel_109
        CFI R6 load(1, XDATA, add(CFA_XSP16, literal(-14)))
        CFI VB load(1, XDATA, add(CFA_XSP16, literal(-13)))
        CFI V0 load(1, XDATA, add(CFA_XSP16, literal(-12)))
        CFI V1 load(1, XDATA, add(CFA_XSP16, literal(-11)))
        CFI V2 load(1, XDATA, add(CFA_XSP16, literal(-10)))
        CFI V3 load(1, XDATA, add(CFA_XSP16, literal(-9)))
        CFI V4 load(1, XDATA, add(CFA_XSP16, literal(-8)))
        CFI V5 load(1, XDATA, add(CFA_XSP16, literal(-7)))
        CFI R7 load(1, XDATA, add(CFA_XSP16, literal(-6)))
        CFI ?RET_LOW load(1, XDATA, add(CFA_XSP16, literal(-5)))
        CFI ?RET_HIGH load(1, XDATA, add(CFA_XSP16, literal(-4)))
        CFI ?BRET_EXT load(1, XDATA, add(CFA_XSP16, literal(-3)))
        CFI DPL0 load(1, XDATA, add(CFA_XSP16, literal(-2)))
        CFI DPH0 load(1, XDATA, add(CFA_XSP16, literal(-1)))
        CFI CFA_SP SP+0
        CFI CFA_XSP16 add(XSP16, 19)
        CFI Block cfiCond282 Using cfiCommon0
        CFI (cfiCond282) NoFunction
        CFI (cfiCond282) Conditional ??CrossCallReturnLabel_110
        CFI (cfiCond282) R6 load(1, XDATA, add(CFA_XSP16, literal(-12)))
        CFI (cfiCond282) VB load(1, XDATA, add(CFA_XSP16, literal(-11)))
        CFI (cfiCond282) V0 load(1, XDATA, add(CFA_XSP16, literal(-10)))
        CFI (cfiCond282) V1 load(1, XDATA, add(CFA_XSP16, literal(-9)))
        CFI (cfiCond282) V2 load(1, XDATA, add(CFA_XSP16, literal(-8)))
        CFI (cfiCond282) V3 load(1, XDATA, add(CFA_XSP16, literal(-7)))
        CFI (cfiCond282) R7 load(1, XDATA, add(CFA_XSP16, literal(-6)))
        CFI (cfiCond282) ?RET_LOW load(1, XDATA, add(CFA_XSP16, literal(-5)))
        CFI (cfiCond282) ?RET_HIGH load(1, XDATA, add(CFA_XSP16, literal(-4)))
        CFI (cfiCond282) ?BRET_EXT load(1, XDATA, add(CFA_XSP16, literal(-3)))
        CFI (cfiCond282) DPL0 load(1, XDATA, add(CFA_XSP16, literal(-2)))
        CFI (cfiCond282) DPH0 load(1, XDATA, add(CFA_XSP16, literal(-1)))
        CFI (cfiCond282) CFA_SP SP+0
        CFI (cfiCond282) CFA_XSP16 add(XSP16, 12)
        CFI Block cfiPicker283 Using cfiCommon1
        CFI (cfiPicker283) NoFunction
        CFI (cfiPicker283) Picker
        MOV     ?V0 + 0,R2
        MOV     ?V0 + 1,R3
        CFI EndBlock cfiCond281
        CFI EndBlock cfiCond282
        CFI EndBlock cfiPicker283
        REQUIRE ??Subroutine58_0
        ; // Fall through to label ??Subroutine58_0

        RSEG BANKED_CODE:CODE:NOROOT(0)
??Subroutine58_0:
        CFI Block cfiCond284 Using cfiCommon0
        CFI NoFunction
        CFI Conditional ??CrossCallReturnLabel_111
        CFI R6 load(1, XDATA, add(CFA_XSP16, literal(-14)))
        CFI VB load(1, XDATA, add(CFA_XSP16, literal(-13)))
        CFI V0 load(1, XDATA, add(CFA_XSP16, literal(-12)))
        CFI V1 load(1, XDATA, add(CFA_XSP16, literal(-11)))
        CFI V2 load(1, XDATA, add(CFA_XSP16, literal(-10)))
        CFI V3 load(1, XDATA, add(CFA_XSP16, literal(-9)))
        CFI V4 load(1, XDATA, add(CFA_XSP16, literal(-8)))
        CFI V5 load(1, XDATA, add(CFA_XSP16, literal(-7)))
        CFI R7 load(1, XDATA, add(CFA_XSP16, literal(-6)))
        CFI ?RET_LOW load(1, XDATA, add(CFA_XSP16, literal(-5)))
        CFI ?RET_HIGH load(1, XDATA, add(CFA_XSP16, literal(-4)))
        CFI ?BRET_EXT load(1, XDATA, add(CFA_XSP16, literal(-3)))
        CFI DPL0 load(1, XDATA, add(CFA_XSP16, literal(-2)))
        CFI DPH0 load(1, XDATA, add(CFA_XSP16, literal(-1)))
        CFI CFA_SP SP+0
        CFI CFA_XSP16 add(XSP16, 23)
        CFI Block cfiCond285 Using cfiCommon0
        CFI (cfiCond285) NoFunction
        CFI (cfiCond285) Conditional ??CrossCallReturnLabel_112
        CFI (cfiCond285) R6 load(1, XDATA, add(CFA_XSP16, literal(-22)))
        CFI (cfiCond285) VB load(1, XDATA, add(CFA_XSP16, literal(-21)))
        CFI (cfiCond285) V0 load(1, XDATA, add(CFA_XSP16, literal(-20)))
        CFI (cfiCond285) V1 load(1, XDATA, add(CFA_XSP16, literal(-19)))
        CFI (cfiCond285) V2 load(1, XDATA, add(CFA_XSP16, literal(-18)))
        CFI (cfiCond285) V3 load(1, XDATA, add(CFA_XSP16, literal(-17)))
        CFI (cfiCond285) V4 load(1, XDATA, add(CFA_XSP16, literal(-16)))
        CFI (cfiCond285) V5 load(1, XDATA, add(CFA_XSP16, literal(-15)))
        CFI (cfiCond285) V6 load(1, XDATA, add(CFA_XSP16, literal(-14)))
        CFI (cfiCond285) V7 load(1, XDATA, add(CFA_XSP16, literal(-13)))
        CFI (cfiCond285) V8 load(1, XDATA, add(CFA_XSP16, literal(-12)))
        CFI (cfiCond285) V9 load(1, XDATA, add(CFA_XSP16, literal(-11)))
        CFI (cfiCond285) V10 load(1, XDATA, add(CFA_XSP16, literal(-10)))
        CFI (cfiCond285) V11 load(1, XDATA, add(CFA_XSP16, literal(-9)))
        CFI (cfiCond285) V12 load(1, XDATA, add(CFA_XSP16, literal(-8)))
        CFI (cfiCond285) V13 load(1, XDATA, add(CFA_XSP16, literal(-7)))
        CFI (cfiCond285) R7 load(1, XDATA, add(CFA_XSP16, literal(-6)))
        CFI (cfiCond285) ?RET_LOW load(1, XDATA, add(CFA_XSP16, literal(-5)))
        CFI (cfiCond285) ?RET_HIGH load(1, XDATA, add(CFA_XSP16, literal(-4)))
        CFI (cfiCond285) ?BRET_EXT load(1, XDATA, add(CFA_XSP16, literal(-3)))
        CFI (cfiCond285) DPL0 load(1, XDATA, add(CFA_XSP16, literal(-2)))
        CFI (cfiCond285) DPH0 load(1, XDATA, add(CFA_XSP16, literal(-1)))
        CFI (cfiCond285) CFA_SP SP+0
        CFI (cfiCond285) CFA_XSP16 add(XSP16, 29)
        CFI Block cfiCond286 Using cfiCommon0
        CFI (cfiCond286) NoFunction
        CFI (cfiCond286) Conditional ??CrossCallReturnLabel_113
        CFI (cfiCond286) DPL0 Frame(CFA_SP, 4)
        CFI (cfiCond286) DPH0 Frame(CFA_SP, 5)
        CFI (cfiCond286) CFA_SP SP+-5
        CFI Block cfiCond287 Using cfiCommon0
        CFI (cfiCond287) NoFunction
        CFI (cfiCond287) Conditional ??CrossCallReturnLabel_114
        CFI (cfiCond287) R6 load(1, XDATA, add(CFA_XSP16, literal(-10)))
        CFI (cfiCond287) VB load(1, XDATA, add(CFA_XSP16, literal(-9)))
        CFI (cfiCond287) V0 load(1, XDATA, add(CFA_XSP16, literal(-8)))
        CFI (cfiCond287) V1 load(1, XDATA, add(CFA_XSP16, literal(-7)))
        CFI (cfiCond287) R7 load(1, XDATA, add(CFA_XSP16, literal(-6)))
        CFI (cfiCond287) ?RET_LOW load(1, XDATA, add(CFA_XSP16, literal(-5)))
        CFI (cfiCond287) ?RET_HIGH load(1, XDATA, add(CFA_XSP16, literal(-4)))
        CFI (cfiCond287) ?BRET_EXT load(1, XDATA, add(CFA_XSP16, literal(-3)))
        CFI (cfiCond287) DPL0 load(1, XDATA, add(CFA_XSP16, literal(-2)))
        CFI (cfiCond287) DPH0 load(1, XDATA, add(CFA_XSP16, literal(-1)))
        CFI (cfiCond287) CFA_SP SP+0
        CFI (cfiCond287) CFA_XSP16 add(XSP16, 10)
        CFI Block cfiCond288 Using cfiCommon0
        CFI (cfiCond288) NoFunction
        CFI (cfiCond288) Conditional ??CrossCallReturnLabel_109
        CFI (cfiCond288) R6 load(1, XDATA, add(CFA_XSP16, literal(-14)))
        CFI (cfiCond288) VB load(1, XDATA, add(CFA_XSP16, literal(-13)))
        CFI (cfiCond288) V0 load(1, XDATA, add(CFA_XSP16, literal(-12)))
        CFI (cfiCond288) V1 load(1, XDATA, add(CFA_XSP16, literal(-11)))
        CFI (cfiCond288) V2 load(1, XDATA, add(CFA_XSP16, literal(-10)))
        CFI (cfiCond288) V3 load(1, XDATA, add(CFA_XSP16, literal(-9)))
        CFI (cfiCond288) V4 load(1, XDATA, add(CFA_XSP16, literal(-8)))
        CFI (cfiCond288) V5 load(1, XDATA, add(CFA_XSP16, literal(-7)))
        CFI (cfiCond288) R7 load(1, XDATA, add(CFA_XSP16, literal(-6)))
        CFI (cfiCond288) ?RET_LOW load(1, XDATA, add(CFA_XSP16, literal(-5)))
        CFI (cfiCond288) ?RET_HIGH load(1, XDATA, add(CFA_XSP16, literal(-4)))
        CFI (cfiCond288) ?BRET_EXT load(1, XDATA, add(CFA_XSP16, literal(-3)))
        CFI (cfiCond288) DPL0 load(1, XDATA, add(CFA_XSP16, literal(-2)))
        CFI (cfiCond288) DPH0 load(1, XDATA, add(CFA_XSP16, literal(-1)))
        CFI (cfiCond288) CFA_SP SP+0
        CFI (cfiCond288) CFA_XSP16 add(XSP16, 19)
        CFI Block cfiCond289 Using cfiCommon0
        CFI (cfiCond289) NoFunction
        CFI (cfiCond289) Conditional ??CrossCallReturnLabel_110
        CFI (cfiCond289) R6 load(1, XDATA, add(CFA_XSP16, literal(-12)))
        CFI (cfiCond289) VB load(1, XDATA, add(CFA_XSP16, literal(-11)))
        CFI (cfiCond289) V0 load(1, XDATA, add(CFA_XSP16, literal(-10)))
        CFI (cfiCond289) V1 load(1, XDATA, add(CFA_XSP16, literal(-9)))
        CFI (cfiCond289) V2 load(1, XDATA, add(CFA_XSP16, literal(-8)))
        CFI (cfiCond289) V3 load(1, XDATA, add(CFA_XSP16, literal(-7)))
        CFI (cfiCond289) R7 load(1, XDATA, add(CFA_XSP16, literal(-6)))
        CFI (cfiCond289) ?RET_LOW load(1, XDATA, add(CFA_XSP16, literal(-5)))
        CFI (cfiCond289) ?RET_HIGH load(1, XDATA, add(CFA_XSP16, literal(-4)))
        CFI (cfiCond289) ?BRET_EXT load(1, XDATA, add(CFA_XSP16, literal(-3)))
        CFI (cfiCond289) DPL0 load(1, XDATA, add(CFA_XSP16, literal(-2)))
        CFI (cfiCond289) DPH0 load(1, XDATA, add(CFA_XSP16, literal(-1)))
        CFI (cfiCond289) CFA_SP SP+0
        CFI (cfiCond289) CFA_XSP16 add(XSP16, 12)
        CFI Block cfiPicker290 Using cfiCommon1
        CFI (cfiPicker290) NoFunction
        CFI (cfiPicker290) Picker
        MOV     A,R2
        ADD     A,#0x22
        MOV     DPL,A
        MOV     A,R3
        RET
        CFI EndBlock cfiCond284
        CFI EndBlock cfiCond285
        CFI EndBlock cfiCond286
        CFI EndBlock cfiCond287
        CFI EndBlock cfiCond288
        CFI EndBlock cfiCond289
        CFI EndBlock cfiPicker290

        RSEG BANKED_CODE:CODE:NOROOT(0)
?Subroutine18:
        CFI Block cfiCond291 Using cfiCommon0
        CFI NoFunction
        CFI Conditional ??CrossCallReturnLabel_19
        CFI R6 load(1, XDATA, add(CFA_XSP16, literal(-16)))
        CFI VB load(1, XDATA, add(CFA_XSP16, literal(-15)))
        CFI V0 load(1, XDATA, add(CFA_XSP16, literal(-14)))
        CFI V1 load(1, XDATA, add(CFA_XSP16, literal(-13)))
        CFI V2 load(1, XDATA, add(CFA_XSP16, literal(-12)))
        CFI V3 load(1, XDATA, add(CFA_XSP16, literal(-11)))
        CFI V4 load(1, XDATA, add(CFA_XSP16, literal(-10)))
        CFI V5 load(1, XDATA, add(CFA_XSP16, literal(-9)))
        CFI V6 load(1, XDATA, add(CFA_XSP16, literal(-8)))
        CFI V7 load(1, XDATA, add(CFA_XSP16, literal(-7)))
        CFI R7 load(1, XDATA, add(CFA_XSP16, literal(-6)))
        CFI ?RET_LOW load(1, XDATA, add(CFA_XSP16, literal(-5)))
        CFI ?RET_HIGH load(1, XDATA, add(CFA_XSP16, literal(-4)))
        CFI ?BRET_EXT load(1, XDATA, add(CFA_XSP16, literal(-3)))
        CFI DPL0 load(1, XDATA, add(CFA_XSP16, literal(-2)))
        CFI DPH0 load(1, XDATA, add(CFA_XSP16, literal(-1)))
        CFI CFA_SP SP+0
        CFI CFA_XSP16 add(XSP16, 33)
        CFI Block cfiCond292 Using cfiCommon0
        CFI (cfiCond292) NoFunction
        CFI (cfiCond292) Conditional ??CrossCallReturnLabel_20
        CFI (cfiCond292) R6 load(1, XDATA, add(CFA_XSP16, literal(-10)))
        CFI (cfiCond292) VB load(1, XDATA, add(CFA_XSP16, literal(-9)))
        CFI (cfiCond292) V0 load(1, XDATA, add(CFA_XSP16, literal(-8)))
        CFI (cfiCond292) V1 load(1, XDATA, add(CFA_XSP16, literal(-7)))
        CFI (cfiCond292) R7 load(1, XDATA, add(CFA_XSP16, literal(-6)))
        CFI (cfiCond292) ?RET_LOW load(1, XDATA, add(CFA_XSP16, literal(-5)))
        CFI (cfiCond292) ?RET_HIGH load(1, XDATA, add(CFA_XSP16, literal(-4)))
        CFI (cfiCond292) ?BRET_EXT load(1, XDATA, add(CFA_XSP16, literal(-3)))
        CFI (cfiCond292) DPL0 load(1, XDATA, add(CFA_XSP16, literal(-2)))
        CFI (cfiCond292) DPH0 load(1, XDATA, add(CFA_XSP16, literal(-1)))
        CFI (cfiCond292) CFA_SP SP+0
        CFI (cfiCond292) CFA_XSP16 add(XSP16, 10)
        CFI Block cfiPicker293 Using cfiCommon1
        CFI (cfiPicker293) NoFunction
        CFI (cfiPicker293) Picker
        LCALL   ?Subroutine36 & 0xFFFF
??CrossCallReturnLabel_54:
        MOV     ?V0 + 0,R0
        MOV     ?V0 + 1,R1
        RET
        CFI EndBlock cfiCond291
        CFI EndBlock cfiCond292
        CFI EndBlock cfiPicker293

        RSEG XDATA_Z:XDATA:NOROOT(0)
        DATA16
??package_count:
        DS 2
        REQUIRE __INIT_XDATA_Z
//  625 

        RSEG BANKED_CODE:CODE:NOROOT(0)
//  626 void AT_AF_Cmd_POWER_SVING_EXP_CB(afIncomingMSGPacket_t *pkt ){
AT_AF_Cmd_POWER_SVING_EXP_CB:
        CFI Block cfiBlock294 Using cfiCommon0
        CFI Function AT_AF_Cmd_POWER_SVING_EXP_CB
        CODE
        FUNCALL AT_AF_Cmd_POWER_SVING_EXP_CB, AF_DataRequest
        LOCFRAME ISTACK, 0, STACK
        LOCFRAME PSTACK, 0, STACK
        LOCFRAME XSTACK, 28, STACK
        LOCFRAME IOVERLAY, 0, STATIC
        LOCFRAME DOVERLAY, 0, STATIC
        ARGFRAME ISTACK, 0, STACK
        ARGFRAME PSTACK, 0, STACK
        ARGFRAME XSTACK, 28, STACK
        ARGFRAME IOVERLAY, 0, STATIC
        ARGFRAME DOVERLAY, 0, STATIC
        FUNCALL AT_AF_Cmd_POWER_SVING_EXP_CB, AT_HalUARTWrite
        LOCFRAME ISTACK, 0, STACK
        LOCFRAME PSTACK, 0, STACK
        LOCFRAME XSTACK, 19, STACK
        LOCFRAME IOVERLAY, 0, STATIC
        LOCFRAME DOVERLAY, 0, STATIC
        ARGFRAME ISTACK, 0, STACK
        ARGFRAME PSTACK, 0, STACK
        ARGFRAME XSTACK, 19, STACK
        ARGFRAME IOVERLAY, 0, STATIC
        ARGFRAME DOVERLAY, 0, STATIC
        FUNCALL AT_AF_Cmd_POWER_SVING_EXP_CB, printf
        LOCFRAME ISTACK, 0, STACK
        LOCFRAME PSTACK, 0, STACK
        LOCFRAME XSTACK, 25, STACK
        LOCFRAME IOVERLAY, 0, STATIC
        LOCFRAME DOVERLAY, 0, STATIC
        ARGFRAME ISTACK, 0, STACK
        ARGFRAME PSTACK, 0, STACK
        ARGFRAME XSTACK, 25, STACK
        ARGFRAME IOVERLAY, 0, STATIC
        ARGFRAME DOVERLAY, 0, STATIC
        FUNCALL AT_AF_Cmd_POWER_SVING_EXP_CB, AT_HalUARTWrite
        LOCFRAME ISTACK, 0, STACK
        LOCFRAME PSTACK, 0, STACK
        LOCFRAME XSTACK, 19, STACK
        LOCFRAME IOVERLAY, 0, STATIC
        LOCFRAME DOVERLAY, 0, STATIC
        ARGFRAME ISTACK, 0, STACK
        ARGFRAME PSTACK, 0, STACK
        ARGFRAME XSTACK, 19, STACK
        ARGFRAME IOVERLAY, 0, STATIC
        ARGFRAME DOVERLAY, 0, STATIC
        FUNCALL AT_AF_Cmd_POWER_SVING_EXP_CB, printf
        LOCFRAME ISTACK, 0, STACK
        LOCFRAME PSTACK, 0, STACK
        LOCFRAME XSTACK, 25, STACK
        LOCFRAME IOVERLAY, 0, STATIC
        LOCFRAME DOVERLAY, 0, STATIC
        ARGFRAME ISTACK, 0, STACK
        ARGFRAME PSTACK, 0, STACK
        ARGFRAME XSTACK, 25, STACK
        ARGFRAME IOVERLAY, 0, STATIC
        ARGFRAME DOVERLAY, 0, STATIC
        FUNCALL AT_AF_Cmd_POWER_SVING_EXP_CB, AT_HalUARTWrite
        LOCFRAME ISTACK, 0, STACK
        LOCFRAME PSTACK, 0, STACK
        LOCFRAME XSTACK, 19, STACK
        LOCFRAME IOVERLAY, 0, STATIC
        LOCFRAME DOVERLAY, 0, STATIC
        ARGFRAME ISTACK, 0, STACK
        ARGFRAME PSTACK, 0, STACK
        ARGFRAME XSTACK, 19, STACK
        ARGFRAME IOVERLAY, 0, STATIC
        ARGFRAME DOVERLAY, 0, STATIC
        FUNCALL AT_AF_Cmd_POWER_SVING_EXP_CB, AT_AF_Cmd_PSE_req
        LOCFRAME ISTACK, 0, STACK
        LOCFRAME PSTACK, 0, STACK
        LOCFRAME XSTACK, 19, STACK
        LOCFRAME IOVERLAY, 0, STATIC
        LOCFRAME DOVERLAY, 0, STATIC
        ARGFRAME ISTACK, 0, STACK
        ARGFRAME PSTACK, 0, STACK
        ARGFRAME XSTACK, 19, STACK
        ARGFRAME IOVERLAY, 0, STATIC
        ARGFRAME DOVERLAY, 0, STATIC
        MOV     A,#-0xe
        LCALL   ?BANKED_ENTER_XDATA
        CFI DPH0 load(1, XDATA, add(CFA_XSP16, literal(-1)))
        CFI DPL0 load(1, XDATA, add(CFA_XSP16, literal(-2)))
        CFI ?BRET_EXT load(1, XDATA, add(CFA_XSP16, literal(-3)))
        CFI ?RET_HIGH load(1, XDATA, add(CFA_XSP16, literal(-4)))
        CFI ?RET_LOW load(1, XDATA, add(CFA_XSP16, literal(-5)))
        CFI R7 load(1, XDATA, add(CFA_XSP16, literal(-6)))
        CFI V5 load(1, XDATA, add(CFA_XSP16, literal(-7)))
        CFI V4 load(1, XDATA, add(CFA_XSP16, literal(-8)))
        CFI V3 load(1, XDATA, add(CFA_XSP16, literal(-9)))
        CFI V2 load(1, XDATA, add(CFA_XSP16, literal(-10)))
        CFI V1 load(1, XDATA, add(CFA_XSP16, literal(-11)))
        CFI V0 load(1, XDATA, add(CFA_XSP16, literal(-12)))
        CFI VB load(1, XDATA, add(CFA_XSP16, literal(-13)))
        CFI R6 load(1, XDATA, add(CFA_XSP16, literal(-14)))
        CFI CFA_SP SP+0
        CFI CFA_XSP16 add(XSP16, 14)
        ; Saved register size: 14
        ; Auto size: 5
        MOV     A,#-0x5
        LCALL   ?ALLOC_XSTACK8
        CFI CFA_XSP16 add(XSP16, 19)
        LCALL   ?Subroutine39 & 0xFFFF
//  627    AT_AF_hdr *req = (AT_AF_hdr *)pkt->cmd.Data;
//  628   switch (req->cmd){
??CrossCallReturnLabel_68:
        LCALL   ??Subroutine48_0 & 0xFFFF
??CrossCallReturnLabel_58:
        DEC     A
        JZ      ??AT_AF_Cmd_POWER_SVING_EXP_CB_0
        DEC     A
        JNZ     $+5
        LJMP    ??AT_AF_Cmd_POWER_SVING_EXP_CB_1 & 0xFFFF
        ADD     A,#-0x7f
        JNZ     $+5
        LJMP    ??AT_AF_Cmd_POWER_SVING_EXP_CB_2 & 0xFFFF
        LJMP    ??AT_AF_Cmd_POWER_SVING_EXP_CB_3 & 0xFFFF
//  629   case AT_AT_PSE_RSSI_req:
//  630     AT_AF_Cmd_RSSI_req(pkt);
??AT_AF_Cmd_POWER_SVING_EXP_CB_0:
        MOV     DPL,?XSP + 0
        MOV     DPH,?XSP + 1
        MOV     A,#-0x7f
        MOVX    @DPTR,A
        LCALL   ?Subroutine26 & 0xFFFF
??CrossCallReturnLabel_97:
        PUSH    A
        CFI CFA_SP SP+-1
        MOV     A,#0x3
        LCALL   ?XSTACK_DISP0_8
        POP     A
        CFI CFA_SP SP+0
        MOVX    @DPTR,A
        MOV     A,R6
        ADD     A,#0x16
        LCALL   ??Subroutine56_0 & 0xFFFF
??CrossCallReturnLabel_94:
        PUSH    A
        CFI CFA_SP SP+-1
        MOV     A,#0x2
        LCALL   ?XSTACK_DISP0_8
        POP     A
        CFI CFA_SP SP+0
        MOVX    @DPTR,A
        MOV     A,R6
        ADD     A,#0x17
        LCALL   ??Subroutine56_0 & 0xFFFF
??CrossCallReturnLabel_95:
        PUSH    A
        CFI CFA_SP SP+-1
        MOV     A,#0x4
        LCALL   ?XSTACK_DISP0_8
        POP     A
        CFI CFA_SP SP+0
        LCALL   ?Subroutine5 & 0xFFFF
??CrossCallReturnLabel_2:
        LCALL   ?PUSH_XSTACK_I_ONE
        CFI CFA_XSP16 add(XSP16, 20)
        MOV     ?V0 + 0,#AT_AF_TransID & 0xff
        MOV     ?V0 + 1,#(AT_AF_TransID >> 8) & 0xff
        MOV     R0,#?V0 + 0
        LCALL   ?PUSH_XSTACK_I_TWO
        CFI CFA_XSP16 add(XSP16, 22)
        MOV     A,#0x3
        LCALL   ?XSTACK_DISP0_8
        MOV     ?V0 + 0,DPL
        MOV     ?V0 + 1,DPH
        MOV     R0,#?V0 + 0
        LCALL   ?PUSH_XSTACK_I_TWO
        CFI CFA_XSP16 add(XSP16, 24)
        MOV     ?V0 + 0,#0x5
        MOV     ?V0 + 1,#0x0
        MOV     R0,#?V0 + 0
        LCALL   ?PUSH_XSTACK_I_TWO
        CFI CFA_XSP16 add(XSP16, 26)
        MOV     ?V0 + 0,#0x6
        MOV     R0,#?V0 + 0
        LCALL   ?PUSH_XSTACK_I_TWO
        CFI CFA_XSP16 add(XSP16, 28)
        MOV     R1,#0x20
        MOV     R4,#AT_AF_epDesc & 0xff
        MOV     R5,#(AT_AF_epDesc >> 8) & 0xff
        MOV     A,R6
        ADD     A,#0x6
        MOV     R2,A
        MOV     A,R7
        LCALL   ??Subroutine59_0 & 0xFFFF
??CrossCallReturnLabel_120:
        LCALL   ?DEALLOC_XSTACK8
        CFI CFA_XSP16 add(XSP16, 19)
//  631     break;
        LJMP    ??AT_AF_Cmd_POWER_SVING_EXP_CB_3 & 0xFFFF
//  632   case AT_AT_PSE_RSSI_rsp:
//  633     AT_AF_Cmd_RSSI_rsp(pkt);
??AT_AF_Cmd_POWER_SVING_EXP_CB_2:
        LCALL   ?Subroutine13 & 0xFFFF
??CrossCallReturnLabel_76:
        MOV     ?V0 + 2,#`?<Constant "\\r\\n">` & 0xff
        MOV     ?V0 + 3,#(`?<Constant "\\r\\n">` >> 8) & 0xff
        ; Setup parameters for call to function AT_HalUARTWrite
        MOV     R4,#0x2
        MOV     R5,#0x0
        MOV     R2,?V0 + 2
        MOV     R3,?V0 + 3
        MOV     R1,#0x0
        LCALL   ?Subroutine31 & 0xFFFF
??CrossCallReturnLabel_38:
        MOVX    A,@DPTR
        MOV     ?V0 + 4,A
        MOV     ?V0 + 5,#0x0
        MOV     R0,#?V0 + 4
        LCALL   ?PUSH_XSTACK_I_TWO
        CFI CFA_XSP16 add(XSP16, 21)
        MOV     DPL,?V0 + 0
        MOV     DPH,?V0 + 1
        INC     DPTR
        INC     DPTR
        INC     DPTR
        MOVX    A,@DPTR
        MOV     ?V0 + 4,A
        RLC     A
        SUBB    A,0xE0 /* A   */
        MOV     ?V0 + 5,A
        MOV     R0,#?V0 + 4
        LCALL   ?PUSH_XSTACK_I_TWO
        CFI CFA_XSP16 add(XSP16, 23)
        MOV     DPL,?V0 + 0
        MOV     DPH,?V0 + 1
        INC     DPTR
        INC     DPTR
        LCALL   ?Subroutine19 & 0xFFFF
??CrossCallReturnLabel_21:
        LCALL   ?PUSH_XSTACK_I_TWO
        CFI CFA_XSP16 add(XSP16, 25)
        MOV     R2,#`?<Constant "RSSIRESP:LQI_send=%d,...">` & 0xff
        MOV     R3,#(`?<Constant "RSSIRESP:LQI_send=%d,...">` >> 8) & 0xff
        LCALL   ??printf?relay
        MOV     A,#0x6
        LCALL   ?DEALLOC_XSTACK8
        CFI CFA_XSP16 add(XSP16, 19)
        ; Setup parameters for call to function AT_HalUARTWrite
        MOV     R4,#0x2
        MOV     R5,#0x0
        MOV     R2,#`?<Constant "\\n\\r">` & 0xff
        MOV     R3,#(`?<Constant "\\n\\r">` >> 8) & 0xff
        MOV     R1,#0x0
        LCALL   ??AT_HalUARTWrite?relay
        ; Setup parameters for call to function printf
        MOV     A,R6
        ADD     A,#0x17
        LCALL   ??Subroutine56_0 & 0xFFFF
??CrossCallReturnLabel_96:
        MOV     ?V0 + 0,A
        MOV     R0,#?V0 + 0
        LCALL   ?PUSH_XSTACK_I_TWO
        CFI CFA_XSP16 add(XSP16, 21)
        LCALL   ?Subroutine26 & 0xFFFF
??CrossCallReturnLabel_98:
        MOV     ?V0 + 0,A
        RLC     A
        SUBB    A,0xE0 /* A   */
        MOV     ?V0 + 1,A
        MOV     R0,#?V0 + 0
        LCALL   ?PUSH_XSTACK_I_TWO
        CFI CFA_XSP16 add(XSP16, 23)
        MOV     A,R6
        ADD     A,#0x16
        MOV     DPL,A
        MOV     A,R7
        LCALL   ?Subroutine41 & 0xFFFF
??CrossCallReturnLabel_105:
        LCALL   ?Subroutine19 & 0xFFFF
??CrossCallReturnLabel_22:
        LCALL   ?PUSH_XSTACK_I_TWO
        CFI CFA_XSP16 add(XSP16, 25)
        MOV     R2,#`?<Constant "RSSIRESP:LQI_receive=...">` & 0xff
        MOV     R3,#(`?<Constant "RSSIRESP:LQI_receive=...">` >> 8) & 0xff
        LCALL   ??printf?relay
        MOV     A,#0x6
        LCALL   ?DEALLOC_XSTACK8
        CFI CFA_XSP16 add(XSP16, 19)
        ; Setup parameters for call to function AT_HalUARTWrite
        MOV     R4,#0x2
        MOV     R5,#0x0
        MOV     R2,?V0 + 2
        MOV     R3,?V0 + 3
        MOV     R1,#0x0
        LCALL   ??AT_HalUARTWrite?relay
//  634     break;
        SJMP    ??AT_AF_Cmd_POWER_SVING_EXP_CB_3
//  635   case AT_AT_PSE_EXP_req:
//  636     AT_AF_Cmd_PSE_req(pkt);
??AT_AF_Cmd_POWER_SVING_EXP_CB_1:
        ; Setup parameters for call to function AT_AF_Cmd_PSE_req
        LCALL   ??AT_AF_Cmd_PSE_req?relay
//  637     break;
//  638   }
//  639 }
??AT_AF_Cmd_POWER_SVING_EXP_CB_3:
        LJMP    ?Subroutine3 & 0xFFFF
        CFI EndBlock cfiBlock294

        RSEG BANKED_CODE:CODE:NOROOT(0)
?Subroutine31:
        CFI Block cfiCond295 Using cfiCommon0
        CFI NoFunction
        CFI Conditional ??CrossCallReturnLabel_37
        CFI R6 load(1, XDATA, add(CFA_XSP16, literal(-10)))
        CFI VB load(1, XDATA, add(CFA_XSP16, literal(-9)))
        CFI V0 load(1, XDATA, add(CFA_XSP16, literal(-8)))
        CFI V1 load(1, XDATA, add(CFA_XSP16, literal(-7)))
        CFI R7 load(1, XDATA, add(CFA_XSP16, literal(-6)))
        CFI ?RET_LOW load(1, XDATA, add(CFA_XSP16, literal(-5)))
        CFI ?RET_HIGH load(1, XDATA, add(CFA_XSP16, literal(-4)))
        CFI ?BRET_EXT load(1, XDATA, add(CFA_XSP16, literal(-3)))
        CFI DPL0 load(1, XDATA, add(CFA_XSP16, literal(-2)))
        CFI DPH0 load(1, XDATA, add(CFA_XSP16, literal(-1)))
        CFI CFA_SP SP+0
        CFI CFA_XSP16 add(XSP16, 10)
        CFI Block cfiCond296 Using cfiCommon0
        CFI (cfiCond296) NoFunction
        CFI (cfiCond296) Conditional ??CrossCallReturnLabel_38
        CFI (cfiCond296) R6 load(1, XDATA, add(CFA_XSP16, literal(-14)))
        CFI (cfiCond296) VB load(1, XDATA, add(CFA_XSP16, literal(-13)))
        CFI (cfiCond296) V0 load(1, XDATA, add(CFA_XSP16, literal(-12)))
        CFI (cfiCond296) V1 load(1, XDATA, add(CFA_XSP16, literal(-11)))
        CFI (cfiCond296) V2 load(1, XDATA, add(CFA_XSP16, literal(-10)))
        CFI (cfiCond296) V3 load(1, XDATA, add(CFA_XSP16, literal(-9)))
        CFI (cfiCond296) V4 load(1, XDATA, add(CFA_XSP16, literal(-8)))
        CFI (cfiCond296) V5 load(1, XDATA, add(CFA_XSP16, literal(-7)))
        CFI (cfiCond296) R7 load(1, XDATA, add(CFA_XSP16, literal(-6)))
        CFI (cfiCond296) ?RET_LOW load(1, XDATA, add(CFA_XSP16, literal(-5)))
        CFI (cfiCond296) ?RET_HIGH load(1, XDATA, add(CFA_XSP16, literal(-4)))
        CFI (cfiCond296) ?BRET_EXT load(1, XDATA, add(CFA_XSP16, literal(-3)))
        CFI (cfiCond296) DPL0 load(1, XDATA, add(CFA_XSP16, literal(-2)))
        CFI (cfiCond296) DPH0 load(1, XDATA, add(CFA_XSP16, literal(-1)))
        CFI (cfiCond296) CFA_SP SP+0
        CFI (cfiCond296) CFA_XSP16 add(XSP16, 19)
        CFI Block cfiPicker297 Using cfiCommon1
        CFI (cfiPicker297) NoFunction
        CFI (cfiPicker297) Picker
        LCALL   ??AT_HalUARTWrite?relay
        ; Setup parameters for call to function printf
        ; Setup parameters for call to function printf
        MOV     DPL,?V0 + 0
        MOV     DPH,?V0 + 1
        INC     DPTR
        INC     DPTR
        INC     DPTR
        INC     DPTR
        RET
        CFI EndBlock cfiCond295
        CFI EndBlock cfiCond296
        CFI EndBlock cfiPicker297

        RSEG BANKED_CODE:CODE:NOROOT(0)
?Subroutine20:
        CFI Block cfiCond298 Using cfiCommon0
        CFI NoFunction
        CFI Conditional ??CrossCallReturnLabel_115
        CFI R6 load(1, XDATA, add(CFA_XSP16, literal(-13)))
        CFI VB load(1, XDATA, add(CFA_XSP16, literal(-12)))
        CFI V0 load(1, XDATA, add(CFA_XSP16, literal(-11)))
        CFI V1 load(1, XDATA, add(CFA_XSP16, literal(-10)))
        CFI V2 load(1, XDATA, add(CFA_XSP16, literal(-9)))
        CFI V3 load(1, XDATA, add(CFA_XSP16, literal(-8)))
        CFI V4 load(1, XDATA, add(CFA_XSP16, literal(-7)))
        CFI R7 load(1, XDATA, add(CFA_XSP16, literal(-6)))
        CFI ?RET_LOW load(1, XDATA, add(CFA_XSP16, literal(-5)))
        CFI ?RET_HIGH load(1, XDATA, add(CFA_XSP16, literal(-4)))
        CFI ?BRET_EXT load(1, XDATA, add(CFA_XSP16, literal(-3)))
        CFI DPL0 load(1, XDATA, add(CFA_XSP16, literal(-2)))
        CFI DPH0 load(1, XDATA, add(CFA_XSP16, literal(-1)))
        CFI CFA_SP SP+0
        CFI CFA_XSP16 add(XSP16, 34)
        CFI Block cfiCond299 Using cfiCommon0
        CFI (cfiCond299) NoFunction
        CFI (cfiCond299) Conditional ??CrossCallReturnLabel_116
        CFI (cfiCond299) R6 load(1, XDATA, add(CFA_XSP16, literal(-14)))
        CFI (cfiCond299) VB load(1, XDATA, add(CFA_XSP16, literal(-13)))
        CFI (cfiCond299) V0 load(1, XDATA, add(CFA_XSP16, literal(-12)))
        CFI (cfiCond299) V1 load(1, XDATA, add(CFA_XSP16, literal(-11)))
        CFI (cfiCond299) V2 load(1, XDATA, add(CFA_XSP16, literal(-10)))
        CFI (cfiCond299) V3 load(1, XDATA, add(CFA_XSP16, literal(-9)))
        CFI (cfiCond299) V4 load(1, XDATA, add(CFA_XSP16, literal(-8)))
        CFI (cfiCond299) V5 load(1, XDATA, add(CFA_XSP16, literal(-7)))
        CFI (cfiCond299) R7 load(1, XDATA, add(CFA_XSP16, literal(-6)))
        CFI (cfiCond299) ?RET_LOW load(1, XDATA, add(CFA_XSP16, literal(-5)))
        CFI (cfiCond299) ?RET_HIGH load(1, XDATA, add(CFA_XSP16, literal(-4)))
        CFI (cfiCond299) ?BRET_EXT load(1, XDATA, add(CFA_XSP16, literal(-3)))
        CFI (cfiCond299) DPL0 load(1, XDATA, add(CFA_XSP16, literal(-2)))
        CFI (cfiCond299) DPH0 load(1, XDATA, add(CFA_XSP16, literal(-1)))
        CFI (cfiCond299) CFA_SP SP+0
        CFI (cfiCond299) CFA_XSP16 add(XSP16, 28)
        CFI Block cfiPicker300 Using cfiCommon1
        CFI (cfiPicker300) NoFunction
        CFI (cfiPicker300) Picker
        MOV     R1,#0x20
        MOV     R4,#AT_AF_epDesc & 0xff
        MOV     R5,#(AT_AF_epDesc >> 8) & 0xff
        MOV     A,?V0 + 0
        ADD     A,#0x6
        MOV     R2,A
        MOV     A,?V0 + 1
        CFI EndBlock cfiCond298
        CFI EndBlock cfiCond299
        CFI EndBlock cfiPicker300
        REQUIRE ??Subroutine59_0
        ; // Fall through to label ??Subroutine59_0

        RSEG BANKED_CODE:CODE:NOROOT(0)
??Subroutine59_0:
        CFI Block cfiCond301 Using cfiCommon0
        CFI NoFunction
        CFI Conditional ??CrossCallReturnLabel_117
        CFI R6 load(1, XDATA, add(CFA_XSP16, literal(-16)))
        CFI VB load(1, XDATA, add(CFA_XSP16, literal(-15)))
        CFI V0 load(1, XDATA, add(CFA_XSP16, literal(-14)))
        CFI V1 load(1, XDATA, add(CFA_XSP16, literal(-13)))
        CFI V2 load(1, XDATA, add(CFA_XSP16, literal(-12)))
        CFI V3 load(1, XDATA, add(CFA_XSP16, literal(-11)))
        CFI V4 load(1, XDATA, add(CFA_XSP16, literal(-10)))
        CFI V5 load(1, XDATA, add(CFA_XSP16, literal(-9)))
        CFI V6 load(1, XDATA, add(CFA_XSP16, literal(-8)))
        CFI V7 load(1, XDATA, add(CFA_XSP16, literal(-7)))
        CFI R7 load(1, XDATA, add(CFA_XSP16, literal(-6)))
        CFI ?RET_LOW load(1, XDATA, add(CFA_XSP16, literal(-5)))
        CFI ?RET_HIGH load(1, XDATA, add(CFA_XSP16, literal(-4)))
        CFI ?BRET_EXT load(1, XDATA, add(CFA_XSP16, literal(-3)))
        CFI DPL0 load(1, XDATA, add(CFA_XSP16, literal(-2)))
        CFI DPH0 load(1, XDATA, add(CFA_XSP16, literal(-1)))
        CFI CFA_SP SP+0
        CFI CFA_XSP16 add(XSP16, 42)
        CFI Block cfiCond302 Using cfiCommon0
        CFI (cfiCond302) NoFunction
        CFI (cfiCond302) Conditional ??CrossCallReturnLabel_118
        CFI (cfiCond302) R6 load(1, XDATA, add(CFA_XSP16, literal(-22)))
        CFI (cfiCond302) VB load(1, XDATA, add(CFA_XSP16, literal(-21)))
        CFI (cfiCond302) V0 load(1, XDATA, add(CFA_XSP16, literal(-20)))
        CFI (cfiCond302) V1 load(1, XDATA, add(CFA_XSP16, literal(-19)))
        CFI (cfiCond302) V2 load(1, XDATA, add(CFA_XSP16, literal(-18)))
        CFI (cfiCond302) V3 load(1, XDATA, add(CFA_XSP16, literal(-17)))
        CFI (cfiCond302) V4 load(1, XDATA, add(CFA_XSP16, literal(-16)))
        CFI (cfiCond302) V5 load(1, XDATA, add(CFA_XSP16, literal(-15)))
        CFI (cfiCond302) V6 load(1, XDATA, add(CFA_XSP16, literal(-14)))
        CFI (cfiCond302) V7 load(1, XDATA, add(CFA_XSP16, literal(-13)))
        CFI (cfiCond302) V8 load(1, XDATA, add(CFA_XSP16, literal(-12)))
        CFI (cfiCond302) V9 load(1, XDATA, add(CFA_XSP16, literal(-11)))
        CFI (cfiCond302) V10 load(1, XDATA, add(CFA_XSP16, literal(-10)))
        CFI (cfiCond302) V11 load(1, XDATA, add(CFA_XSP16, literal(-9)))
        CFI (cfiCond302) V12 load(1, XDATA, add(CFA_XSP16, literal(-8)))
        CFI (cfiCond302) V13 load(1, XDATA, add(CFA_XSP16, literal(-7)))
        CFI (cfiCond302) R7 load(1, XDATA, add(CFA_XSP16, literal(-6)))
        CFI (cfiCond302) ?RET_LOW load(1, XDATA, add(CFA_XSP16, literal(-5)))
        CFI (cfiCond302) ?RET_HIGH load(1, XDATA, add(CFA_XSP16, literal(-4)))
        CFI (cfiCond302) ?BRET_EXT load(1, XDATA, add(CFA_XSP16, literal(-3)))
        CFI (cfiCond302) DPL0 load(1, XDATA, add(CFA_XSP16, literal(-2)))
        CFI (cfiCond302) DPH0 load(1, XDATA, add(CFA_XSP16, literal(-1)))
        CFI (cfiCond302) CFA_SP SP+0
        CFI (cfiCond302) CFA_XSP16 add(XSP16, 38)
        CFI Block cfiCond303 Using cfiCommon0
        CFI (cfiCond303) NoFunction
        CFI (cfiCond303) Conditional ??CrossCallReturnLabel_119
        CFI (cfiCond303) R6 load(1, XDATA, add(CFA_XSP16, literal(-22)))
        CFI (cfiCond303) VB load(1, XDATA, add(CFA_XSP16, literal(-21)))
        CFI (cfiCond303) V0 load(1, XDATA, add(CFA_XSP16, literal(-20)))
        CFI (cfiCond303) V1 load(1, XDATA, add(CFA_XSP16, literal(-19)))
        CFI (cfiCond303) V2 load(1, XDATA, add(CFA_XSP16, literal(-18)))
        CFI (cfiCond303) V3 load(1, XDATA, add(CFA_XSP16, literal(-17)))
        CFI (cfiCond303) V4 load(1, XDATA, add(CFA_XSP16, literal(-16)))
        CFI (cfiCond303) V5 load(1, XDATA, add(CFA_XSP16, literal(-15)))
        CFI (cfiCond303) V6 load(1, XDATA, add(CFA_XSP16, literal(-14)))
        CFI (cfiCond303) V7 load(1, XDATA, add(CFA_XSP16, literal(-13)))
        CFI (cfiCond303) V8 load(1, XDATA, add(CFA_XSP16, literal(-12)))
        CFI (cfiCond303) V9 load(1, XDATA, add(CFA_XSP16, literal(-11)))
        CFI (cfiCond303) V10 load(1, XDATA, add(CFA_XSP16, literal(-10)))
        CFI (cfiCond303) V11 load(1, XDATA, add(CFA_XSP16, literal(-9)))
        CFI (cfiCond303) V12 load(1, XDATA, add(CFA_XSP16, literal(-8)))
        CFI (cfiCond303) V13 load(1, XDATA, add(CFA_XSP16, literal(-7)))
        CFI (cfiCond303) R7 load(1, XDATA, add(CFA_XSP16, literal(-6)))
        CFI (cfiCond303) ?RET_LOW load(1, XDATA, add(CFA_XSP16, literal(-5)))
        CFI (cfiCond303) ?RET_HIGH load(1, XDATA, add(CFA_XSP16, literal(-4)))
        CFI (cfiCond303) ?BRET_EXT load(1, XDATA, add(CFA_XSP16, literal(-3)))
        CFI (cfiCond303) DPL0 load(1, XDATA, add(CFA_XSP16, literal(-2)))
        CFI (cfiCond303) DPH0 load(1, XDATA, add(CFA_XSP16, literal(-1)))
        CFI (cfiCond303) CFA_SP SP+0
        CFI (cfiCond303) CFA_XSP16 add(XSP16, 38)
        CFI Block cfiCond304 Using cfiCommon0
        CFI (cfiCond304) NoFunction
        CFI (cfiCond304) Conditional ??CrossCallReturnLabel_120
        CFI (cfiCond304) R6 load(1, XDATA, add(CFA_XSP16, literal(-14)))
        CFI (cfiCond304) VB load(1, XDATA, add(CFA_XSP16, literal(-13)))
        CFI (cfiCond304) V0 load(1, XDATA, add(CFA_XSP16, literal(-12)))
        CFI (cfiCond304) V1 load(1, XDATA, add(CFA_XSP16, literal(-11)))
        CFI (cfiCond304) V2 load(1, XDATA, add(CFA_XSP16, literal(-10)))
        CFI (cfiCond304) V3 load(1, XDATA, add(CFA_XSP16, literal(-9)))
        CFI (cfiCond304) V4 load(1, XDATA, add(CFA_XSP16, literal(-8)))
        CFI (cfiCond304) V5 load(1, XDATA, add(CFA_XSP16, literal(-7)))
        CFI (cfiCond304) R7 load(1, XDATA, add(CFA_XSP16, literal(-6)))
        CFI (cfiCond304) ?RET_LOW load(1, XDATA, add(CFA_XSP16, literal(-5)))
        CFI (cfiCond304) ?RET_HIGH load(1, XDATA, add(CFA_XSP16, literal(-4)))
        CFI (cfiCond304) ?BRET_EXT load(1, XDATA, add(CFA_XSP16, literal(-3)))
        CFI (cfiCond304) DPL0 load(1, XDATA, add(CFA_XSP16, literal(-2)))
        CFI (cfiCond304) DPH0 load(1, XDATA, add(CFA_XSP16, literal(-1)))
        CFI (cfiCond304) CFA_SP SP+0
        CFI (cfiCond304) CFA_XSP16 add(XSP16, 28)
        CFI Block cfiCond305 Using cfiCommon0
        CFI (cfiCond305) NoFunction
        CFI (cfiCond305) Conditional ??CrossCallReturnLabel_115
        CFI (cfiCond305) R6 load(1, XDATA, add(CFA_XSP16, literal(-13)))
        CFI (cfiCond305) VB load(1, XDATA, add(CFA_XSP16, literal(-12)))
        CFI (cfiCond305) V0 load(1, XDATA, add(CFA_XSP16, literal(-11)))
        CFI (cfiCond305) V1 load(1, XDATA, add(CFA_XSP16, literal(-10)))
        CFI (cfiCond305) V2 load(1, XDATA, add(CFA_XSP16, literal(-9)))
        CFI (cfiCond305) V3 load(1, XDATA, add(CFA_XSP16, literal(-8)))
        CFI (cfiCond305) V4 load(1, XDATA, add(CFA_XSP16, literal(-7)))
        CFI (cfiCond305) R7 load(1, XDATA, add(CFA_XSP16, literal(-6)))
        CFI (cfiCond305) ?RET_LOW load(1, XDATA, add(CFA_XSP16, literal(-5)))
        CFI (cfiCond305) ?RET_HIGH load(1, XDATA, add(CFA_XSP16, literal(-4)))
        CFI (cfiCond305) ?BRET_EXT load(1, XDATA, add(CFA_XSP16, literal(-3)))
        CFI (cfiCond305) DPL0 load(1, XDATA, add(CFA_XSP16, literal(-2)))
        CFI (cfiCond305) DPH0 load(1, XDATA, add(CFA_XSP16, literal(-1)))
        CFI (cfiCond305) CFA_SP SP+0
        CFI (cfiCond305) CFA_XSP16 add(XSP16, 34)
        CFI Block cfiCond306 Using cfiCommon0
        CFI (cfiCond306) NoFunction
        CFI (cfiCond306) Conditional ??CrossCallReturnLabel_116
        CFI (cfiCond306) R6 load(1, XDATA, add(CFA_XSP16, literal(-14)))
        CFI (cfiCond306) VB load(1, XDATA, add(CFA_XSP16, literal(-13)))
        CFI (cfiCond306) V0 load(1, XDATA, add(CFA_XSP16, literal(-12)))
        CFI (cfiCond306) V1 load(1, XDATA, add(CFA_XSP16, literal(-11)))
        CFI (cfiCond306) V2 load(1, XDATA, add(CFA_XSP16, literal(-10)))
        CFI (cfiCond306) V3 load(1, XDATA, add(CFA_XSP16, literal(-9)))
        CFI (cfiCond306) V4 load(1, XDATA, add(CFA_XSP16, literal(-8)))
        CFI (cfiCond306) V5 load(1, XDATA, add(CFA_XSP16, literal(-7)))
        CFI (cfiCond306) R7 load(1, XDATA, add(CFA_XSP16, literal(-6)))
        CFI (cfiCond306) ?RET_LOW load(1, XDATA, add(CFA_XSP16, literal(-5)))
        CFI (cfiCond306) ?RET_HIGH load(1, XDATA, add(CFA_XSP16, literal(-4)))
        CFI (cfiCond306) ?BRET_EXT load(1, XDATA, add(CFA_XSP16, literal(-3)))
        CFI (cfiCond306) DPL0 load(1, XDATA, add(CFA_XSP16, literal(-2)))
        CFI (cfiCond306) DPH0 load(1, XDATA, add(CFA_XSP16, literal(-1)))
        CFI (cfiCond306) CFA_SP SP+0
        CFI (cfiCond306) CFA_XSP16 add(XSP16, 28)
        CFI Block cfiPicker307 Using cfiCommon1
        CFI (cfiPicker307) NoFunction
        CFI (cfiPicker307) Picker
        ADDC    A,#0x0
        MOV     R3,A
        LCALL   ??AF_DataRequest?relay
        MOV     A,#0x9
        RET
        CFI EndBlock cfiCond301
        CFI EndBlock cfiCond302
        CFI EndBlock cfiCond303
        CFI EndBlock cfiCond304
        CFI EndBlock cfiCond305
        CFI EndBlock cfiCond306
        CFI EndBlock cfiPicker307

        RSEG BANKED_CODE:CODE:NOROOT(0)
?Subroutine19:
        CFI Block cfiCond308 Using cfiCommon0
        CFI NoFunction
        CFI Conditional ??CrossCallReturnLabel_21
        CFI R6 load(1, XDATA, add(CFA_XSP16, literal(-14)))
        CFI VB load(1, XDATA, add(CFA_XSP16, literal(-13)))
        CFI V0 load(1, XDATA, add(CFA_XSP16, literal(-12)))
        CFI V1 load(1, XDATA, add(CFA_XSP16, literal(-11)))
        CFI V2 load(1, XDATA, add(CFA_XSP16, literal(-10)))
        CFI V3 load(1, XDATA, add(CFA_XSP16, literal(-9)))
        CFI V4 load(1, XDATA, add(CFA_XSP16, literal(-8)))
        CFI V5 load(1, XDATA, add(CFA_XSP16, literal(-7)))
        CFI R7 load(1, XDATA, add(CFA_XSP16, literal(-6)))
        CFI ?RET_LOW load(1, XDATA, add(CFA_XSP16, literal(-5)))
        CFI ?RET_HIGH load(1, XDATA, add(CFA_XSP16, literal(-4)))
        CFI ?BRET_EXT load(1, XDATA, add(CFA_XSP16, literal(-3)))
        CFI DPL0 load(1, XDATA, add(CFA_XSP16, literal(-2)))
        CFI DPH0 load(1, XDATA, add(CFA_XSP16, literal(-1)))
        CFI CFA_SP SP+0
        CFI CFA_XSP16 add(XSP16, 23)
        CFI Block cfiCond309 Using cfiCommon0
        CFI (cfiCond309) NoFunction
        CFI (cfiCond309) Conditional ??CrossCallReturnLabel_22
        CFI (cfiCond309) R6 load(1, XDATA, add(CFA_XSP16, literal(-14)))
        CFI (cfiCond309) VB load(1, XDATA, add(CFA_XSP16, literal(-13)))
        CFI (cfiCond309) V0 load(1, XDATA, add(CFA_XSP16, literal(-12)))
        CFI (cfiCond309) V1 load(1, XDATA, add(CFA_XSP16, literal(-11)))
        CFI (cfiCond309) V2 load(1, XDATA, add(CFA_XSP16, literal(-10)))
        CFI (cfiCond309) V3 load(1, XDATA, add(CFA_XSP16, literal(-9)))
        CFI (cfiCond309) V4 load(1, XDATA, add(CFA_XSP16, literal(-8)))
        CFI (cfiCond309) V5 load(1, XDATA, add(CFA_XSP16, literal(-7)))
        CFI (cfiCond309) R7 load(1, XDATA, add(CFA_XSP16, literal(-6)))
        CFI (cfiCond309) ?RET_LOW load(1, XDATA, add(CFA_XSP16, literal(-5)))
        CFI (cfiCond309) ?RET_HIGH load(1, XDATA, add(CFA_XSP16, literal(-4)))
        CFI (cfiCond309) ?BRET_EXT load(1, XDATA, add(CFA_XSP16, literal(-3)))
        CFI (cfiCond309) DPL0 load(1, XDATA, add(CFA_XSP16, literal(-2)))
        CFI (cfiCond309) DPH0 load(1, XDATA, add(CFA_XSP16, literal(-1)))
        CFI (cfiCond309) CFA_SP SP+0
        CFI (cfiCond309) CFA_XSP16 add(XSP16, 23)
        CFI Block cfiPicker310 Using cfiCommon1
        CFI (cfiPicker310) NoFunction
        CFI (cfiPicker310) Picker
        MOVX    A,@DPTR
        MOV     ?V0 + 0,A
        MOV     ?V0 + 1,#0x0
        MOV     R0,#?V0 + 0
        RET
        CFI EndBlock cfiCond308
        CFI EndBlock cfiCond309
        CFI EndBlock cfiPicker310

        RSEG XDATA_ID:CODE:NOROOT(0)
`?<Initializer for AT_AF_Group>`:
        DATA16
        DW 32768
        DATA8
        DB 65
        DB 84
        DB 95
        DB 65
        DB 70
        DB 95
        DB 103
        DB 114
        DB 111
        DB 117
        DB 112
        DB 0
        DB 0
        DB 0
        DB 0
        DB 0

        RSEG BANK_RELAYS:CODE:REORDER:NOROOT(0)
??AT_AF_Register?relay:
        LCALL   ?BDISPATCH
        DATA
        DC24    AT_AF_Register

        RSEG BANK_RELAYS:CODE:REORDER:NOROOT(0)
??AT_AF_MessageMSGCB?relay:
        LCALL   ?BDISPATCH
        DATA
        DC24    AT_AF_MessageMSGCB

        RSEG BANK_RELAYS:CODE:REORDER:NOROOT(0)
??AT_AF_Cmd_send_simple_?relay:
        LCALL   ?BDISPATCH
        DATA
        DC24    AT_AF_Cmd_send_simple_

        RSEG BANK_RELAYS:CODE:REORDER:NOROOT(0)
??AT_AF_Cmd_REPPRINT_req?relay:
        LCALL   ?BDISPATCH
        DATA
        DC24    AT_AF_Cmd_REPPRINT_req

        RSEG BANK_RELAYS:CODE:REORDER:NOROOT(0)
??AT_AF_Cmd_REPPRINT_rsp?relay:
        LCALL   ?BDISPATCH
        DATA
        DC24    AT_AF_Cmd_REPPRINT_rsp

        RSEG BANK_RELAYS:CODE:REORDER:NOROOT(0)
??AT_AF_Cmd_REPPRINT_CB?relay:
        LCALL   ?BDISPATCH
        DATA
        DC24    AT_AF_Cmd_REPPRINT_CB

        RSEG BANK_RELAYS:CODE:REORDER:NOROOT(0)
??AT_AF_Cmd_REPENABLE_req?relay:
        LCALL   ?BDISPATCH
        DATA
        DC24    AT_AF_Cmd_REPENABLE_req

        RSEG BANK_RELAYS:CODE:REORDER:NOROOT(0)
??AT_AF_Cmd_REPENABLE_rsp?relay:
        LCALL   ?BDISPATCH
        DATA
        DC24    AT_AF_Cmd_REPENABLE_rsp

        RSEG BANK_RELAYS:CODE:REORDER:NOROOT(0)
??AT_AF_Cmd_REPENABLE_CB?relay:
        LCALL   ?BDISPATCH
        DATA
        DC24    AT_AF_Cmd_REPENABLE_CB

        RSEG BANK_RELAYS:CODE:REORDER:NOROOT(0)
??AT_AF_Cmd_HA_DISC_CB?relay:
        LCALL   ?BDISPATCH
        DATA
        DC24    AT_AF_Cmd_HA_DISC_CB

        RSEG BANK_RELAYS:CODE:REORDER:NOROOT(0)
??AT_AF_Cmd_HA_DISC_req?relay:
        LCALL   ?BDISPATCH
        DATA
        DC24    AT_AF_Cmd_HA_DISC_req

        RSEG BANK_RELAYS:CODE:REORDER:NOROOT(0)
??AT_AF_Cmd_HA_DISC_rsp?relay:
        LCALL   ?BDISPATCH
        DATA
        DC24    AT_AF_Cmd_HA_DISC_rsp

        RSEG BANK_RELAYS:CODE:REORDER:NOROOT(0)
??AT_AF_Cmd_HA_CIDDISC_CB?relay:
        LCALL   ?BDISPATCH
        DATA
        DC24    AT_AF_Cmd_HA_CIDDISC_CB

        RSEG BANK_RELAYS:CODE:REORDER:NOROOT(0)
??AT_AF_Cmd_HA_CIDDISC_req?relay:
        LCALL   ?BDISPATCH
        DATA
        DC24    AT_AF_Cmd_HA_CIDDISC_req

        RSEG BANK_RELAYS:CODE:REORDER:NOROOT(0)
??AT_AF_Cmd_HA_CIDDISC_rsp?relay:
        LCALL   ?BDISPATCH
        DATA
        DC24    AT_AF_Cmd_HA_CIDDISC_rsp

        RSEG BANK_RELAYS:CODE:REORDER:NOROOT(0)
??AT_AF_Cmd_R_CIDDISC_CB?relay:
        LCALL   ?BDISPATCH
        DATA
        DC24    AT_AF_Cmd_R_CIDDISC_CB

        RSEG BANK_RELAYS:CODE:REORDER:NOROOT(0)
??AT_AF_Cmd_R_CIDDISC_req?relay:
        LCALL   ?BDISPATCH
        DATA
        DC24    AT_AF_Cmd_R_CIDDISC_req

        RSEG BANK_RELAYS:CODE:REORDER:NOROOT(0)
??AT_AF_Cmd_R_CIDDISC_rsp?relay:
        LCALL   ?BDISPATCH
        DATA
        DC24    AT_AF_Cmd_R_CIDDISC_rsp

        RSEG BANK_RELAYS:CODE:REORDER:NOROOT(0)
??AT_AF_TEST_KEY_CB?relay:
        LCALL   ?BDISPATCH
        DATA
        DC24    AT_AF_TEST_KEY_CB

        RSEG BANK_RELAYS:CODE:REORDER:NOROOT(0)
??AT_AF_Cmd_PSE_req?relay:
        LCALL   ?BDISPATCH
        DATA
        DC24    AT_AF_Cmd_PSE_req

        RSEG BANK_RELAYS:CODE:REORDER:NOROOT(0)
??AT_AF_Cmd_POWER_SVING_EXP_CB?relay:
        LCALL   ?BDISPATCH
        DATA
        DC24    AT_AF_Cmd_POWER_SVING_EXP_CB

        RSEG XDATA_ROM_C:CONST:REORDER:NOROOT(0)
        DATA8
`?<Constant {1, 4, 5, 6, 7}>`:
        DB 1
        DB 4
        DB 5
        DB 6
        DB 7

        RSEG XDATA_ROM_C:CONST:REORDER:NOROOT(0)
        DATA8
`?<Constant {1, 4, 5, 6, 7}>_1`:
        DB 1
        DB 4
        DB 5
        DB 6
        DB 7

        RSEG XDATA_ROM_C:CONST:REORDER:NOROOT(0)
        DATA8
`?<Constant "\\r\\n">`:
        DB "\015\012"

        RSEG XDATA_ROM_C:CONST:REORDER:NOROOT(0)
        DATA8
`?<Constant "<nodeID>,<EndPoint>:<...">`:
        DB "<nodeID>,<EndPoint>:<Status>"

        RSEG XDATA_ROM_C:CONST:REORDER:NOROOT(0)
        DATA8
`?<Constant "\\n\\r">`:
        DB "\012\015"

        RSEG XDATA_ROM_C:CONST:REORDER:NOROOT(0)
        DATA8
`?<Constant "UNKNOWN">`:
        DB "UNKNOWN"

        RSEG XDATA_ROM_C:CONST:REORDER:NOROOT(0)
        DATA16
`?<Constant ",">`:
        DB ","

        RSEG XDATA_ROM_C:CONST:REORDER:NOROOT(0)
        DATA8
`?<Constant ":ENABLED">`:
        DB ":ENABLED"

        RSEG XDATA_ROM_C:CONST:REORDER:NOROOT(0)
        DATA8
`?<Constant ":DISABLED">`:
        DB ":DISABLED"

        RSEG XDATA_ROM_C:CONST:REORDER:NOROOT(0)
        DATA8
`?<Constant "ENABLED:">`:
        DB "ENABLED:"

        RSEG XDATA_ROM_C:CONST:REORDER:NOROOT(0)
        DATA8
`?<Constant "DISABLED:">`:
        DB "DISABLED:"

        RSEG XDATA_ROM_C:CONST:REORDER:NOROOT(0)
        DATA8
`?<Constant "UNKNOWNEP">`:
        DB "UNKNOWNEP"

        RSEG XDATA_ROM_C:CONST:REORDER:NOROOT(0)
        DATA8
`?<Constant {1, 4, 5, 6, 7}>_2`:
        DB 1
        DB 4
        DB 5
        DB 6
        DB 7

        RSEG XDATA_ROM_C:CONST:REORDER:NOROOT(0)
        DATA8
`?<Constant "DEV:%04X,">`:
        DB "DEV:%04X,"

        RSEG XDATA_ROM_C:CONST:REORDER:NOROOT(0)
        DATA8
`?<Constant "%02X,">`:
        DB "%02X,"

        RSEG XDATA_ROM_C:CONST:REORDER:NOROOT(0)
        DATA8
`?<Constant "ENABLED">`:
        DB "ENABLED"

        RSEG XDATA_ROM_C:CONST:REORDER:NOROOT(0)
        DATA8
`?<Constant "DISABLED">`:
        DB "DISABLED"

        RSEG XDATA_ROM_C:CONST:REORDER:NOROOT(0)
        DATA8
`?<Constant "DISCCLUS:<Node ID>,<E...">`:
        DB "DISCCLUS:<Node ID>,<EndPoint>,<Status>"

        RSEG XDATA_ROM_C:CONST:REORDER:NOROOT(0)
        DATA8
`?<Constant "DISCCLUS:%04X">`:
        DB "DISCCLUS:%04X"

        RSEG XDATA_ROM_C:CONST:REORDER:NOROOT(0)
        DATA8
`?<Constant "DISCCLUS:UNKNOWN">`:
        DB "DISCCLUS:UNKNOWN"

        RSEG XDATA_ROM_C:CONST:REORDER:NOROOT(0)
        DATA8
`?<Constant ",%02X,%02X">`:
        DB ",%02X,%02X"

        RSEG XDATA_ROM_C:CONST:REORDER:NOROOT(0)
        DATA8
`?<Constant "SERVER:">`:
        DB "SERVER:"

        RSEG XDATA_ROM_C:CONST:REORDER:NOROOT(0)
        DATA8
`?<Constant ",%04X">`:
        DB ",%04X"

        RSEG XDATA_ROM_C:CONST:REORDER:NOROOT(0)
        DATA8
`?<Constant "CLIENT:">`:
        DB "CLIENT:"

        RSEG XDATA_ROM_C:CONST:REORDER:NOROOT(0)
        DATA8
`?<Constant "RSSIRESP:LQI_send=%d,...">`:
        DB 52H, 53H, 53H, 49H, 52H, 45H, 53H, 50H
        DB 3AH, 4CH, 51H, 49H, 5FH, 73H, 65H, 6EH
        DB 64H, 3DH, 25H, 64H, 2CH, 52H, 53H, 53H
        DB 49H, 5FH, 73H, 65H, 6EH, 64H, 3DH, 25H
        DB 64H, 2CH, 63H, 6FH, 72H, 72H, 65H, 6CH
        DB 61H, 74H, 69H, 6FH, 6EH, 5FH, 73H, 65H
        DB 6EH, 64H, 3DH, 25H, 64H, 0

        RSEG XDATA_ROM_C:CONST:REORDER:NOROOT(0)
        DATA8
`?<Constant "RSSIRESP:LQI_receive=...">`:
        DB 52H, 53H, 53H, 49H, 52H, 45H, 53H, 50H
        DB 3AH, 4CH, 51H, 49H, 5FH, 72H, 65H, 63H
        DB 65H, 69H, 76H, 65H, 3DH, 25H, 64H, 2CH
        DB 52H, 53H, 53H, 49H, 5FH, 72H, 65H, 63H
        DB 65H, 69H, 76H, 65H, 3DH, 25H, 64H, 2CH
        DB 63H, 6FH, 72H, 72H, 65H, 6CH, 61H, 74H
        DB 69H, 6FH, 6EH, 5FH, 72H, 65H, 63H, 65H
        DB 69H, 76H, 65H, 3DH, 25H, 64H, 0

        RSEG XDATA_ROM_C:CONST:REORDER:NOROOT(0)
        DATA8
`?<Constant "%d packages are comin...">`:
        DB "%d packages are coming with interval %dms..."

        RSEG XDATA_ROM_C:CONST:REORDER:NOROOT(0)
        DATA8
`?<Constant "Package Received:">`:
        DB "Package Received:"

        RSEG XDATA_ROM_C:CONST:REORDER:NOROOT(0)
        DATA32
`?<Constant "\\r%d">`:
        DB "\015%d"

        RSEG XDATA_ROM_C:CONST:REORDER:NOROOT(0)
        DATA8
`?<Constant "Receive finished!">`:
        DB "Receive finished!"

        END
// 
// 3 668 bytes in segment BANKED_CODE
//   126 bytes in segment BANK_RELAYS
//    18 bytes in segment XDATA_I
//    18 bytes in segment XDATA_ID
//   472 bytes in segment XDATA_ROM_C
//     9 bytes in segment XDATA_Z
// 
// 3 812 bytes of CODE  memory
//   472 bytes of CONST memory
//    27 bytes of XDATA memory
//
//Errors: none
//Warnings: none
