///////////////////////////////////////////////////////////////////////////////
//                                                                            /
// IAR C/C++ Compiler V8.10.3.10338/W32 for 8051        15/Jun/2015  20:13:05 /
// Copyright 2004-2011 IAR Systems AB.                                        /
//                                                                            /
//    Core               =  plain                                             /
//    Code model         =  banked                                            /
//    Data model         =  large                                             /
//    Calling convention =  xdata reentrant                                   /
//    Constant location  =  data_rom                                          /
//    Dptr setup         =  1,16                                              /
//    Source file        =  S:\zigbee\Myzigbe\version 3.0 for new             /
//                          ZStack-CC2530-2.5.1a\Projects\zstack\AT           /
//                          commands\AT command 3.2\Source\AT_ONOFF_output.c  /
//    Command line       =  -f "S:\zigbee\Myzigbe\version 3.0 for new         /
//                          ZStack-CC2530-2.5.1a\Projects\zstack\AT           /
//                          commands\AT command 3.2\CC2530DB\..\..\..\Tools\C /
//                          C2530DB\f8wCoord.cfg" (-DCPU32MHZ                 /
//                          -DROOT=__near_func -DMAC_CFG_APP_PENDING_QUEUE=TR /
//                          UE -DMAC_CFG_TX_DATA_MAX=5 -DMAC_CFG_TX_MAX=8     /
//                          -DMAC_CFG_RX_MAX=5 -DZDO_COORDINATOR -DRTR_NWK)   /
//                          -f "S:\zigbee\Myzigbe\version 3.0 for new         /
//                          ZStack-CC2530-2.5.1a\Projects\zstack\AT           /
//                          commands\AT command 3.2\CC2530DB\..\..\..\Tools\C /
//                          C2530DB\f8wConfig.cfg" (-DZIGBEEPRO -DSECURE=0    /
//                          -DZG_SECURE_DYNAMIC=0 -DREFLECTOR                 /
//                          -DDEFAULT_CHANLIST=0x00000800                     /
//                          -DZDAPP_CONFIG_PAN_ID=0x2015                      /
//                          -DNWK_START_DELAY=100 -DEXTENDED_JOINING_RANDOM_M /
//                          ASK=0x007F -DBEACON_REQUEST_DELAY=100             /
//                          -DBEACON_REQ_DELAY_MASK=0x00FF                    /
//                          -DLINK_STATUS_JITTER_MASK=0x007F                  /
//                          -DROUTE_EXPIRY_TIME=30 -DAPSC_ACK_WAIT_DURATION_P /
//                          OLLED=3000 -DNWK_INDIRECT_MSG_TIMEOUT=7           /
//                          -DMAX_RREQ_ENTRIES=8 -DAPSC_MAX_FRAME_RETRIES=3   /
//                          -DNWK_MAX_DATA_RETRIES=2                          /
//                          -DMAX_POLL_FAILURE_RETRIES=2 -DMAX_BCAST=9        /
//                          -DAPS_MAX_GROUPS=16 -DMAX_RTG_ENTRIES=40          /
//                          -DNWK_MAX_BINDING_ENTRIES=4                       /
//                          -DMAX_BINDING_CLUSTER_IDS=4                       /
//                          "-DDEFAULT_KEY={0x01, 0x03, 0x05, 0x07, 0x09,     /
//                          0x0B, 0x0D, 0x0F, 0x00, 0x02, 0x04, 0x06, 0x08,   /
//                          0x0A, 0x0C, 0x0D}" -DMAC_MAX_FRAME_SIZE=116       /
//                          -DZDNWKMGR_MIN_TRANSMISSIONS=20 "-DCONST=const    /
//                          __code" -DGENERIC=__generic                       /
//                          -DRFD_RCVC_ALWAYS_ON=FALSE -DPOLL_RATE=1000       /
//                          -DQUEUED_POLL_RATE=100 -DRESPONSE_POLL_RATE=100)  /
//                          -DREJOIN_POLL_RATE=440 "S:\zigbee\Myzigbe\version /
//                           3.0 for new ZStack-CC2530-2.5.1a\Projects\zstack /
//                          \AT commands\AT command                           /
//                          3.2\Source\AT_ONOFF_output.c" -D ZIGBEEPRO -D     /
//                          NWK_AUTO_POLL -D HAL_UART=TRUE -D                 /
//                          HOLD_AUTO_START -D NV_RESTORE -D REFLECTOR -D     /
//                          HAL_UART_ISR=1 -D HAL_UART_DMA=0 -D               /
//                          xHAL_UART_ISR_TX_MAX=200 -D xPOWER_SAVING -D      /
//                          ZCL_READ -D ZCL_WRITE -D ZCL_IDENTIFY -D          /
//                          ZCL_ON_OFF -D ZCL_DISCOVER -D xZTOOL_P1 -D        /
//                          xMT_TASK -D xMT_SYS_FUNC -D xMT_ZDO_FUNC -D       /
//                          xLCD_SUPPORTED=DEBUG -D                           /
//                          xMT_UART_DEFAULT_OVERFLOW=FALSE -lC               /
//                          "S:\zigbee\Myzigbe\version 3.0 for new            /
//                          ZStack-CC2530-2.5.1a\Projects\zstack\AT           /
//                          commands\AT command 3.2\CC2530DB\CoordinatorEB\Li /
//                          st\" -lA "S:\zigbee\Myzigbe\version 3.0 for new   /
//                          ZStack-CC2530-2.5.1a\Projects\zstack\AT           /
//                          commands\AT command 3.2\CC2530DB\CoordinatorEB\Li /
//                          st\" --diag_suppress Pe001,Pa010 -o               /
//                          "S:\zigbee\Myzigbe\version 3.0 for new            /
//                          ZStack-CC2530-2.5.1a\Projects\zstack\AT           /
//                          commands\AT command 3.2\CC2530DB\CoordinatorEB\Ob /
//                          j\" -e --no_code_motion --debug --core=plain      /
//                          --dptr=16,1 --data_model=large                    /
//                          --code_model=banked --calling_convention=xdata_re /
//                          entrant --place_constants=data_rom                /
//                          --nr_virtual_regs 16 -I                           /
//                          "S:\zigbee\Myzigbe\version 3.0 for new            /
//                          ZStack-CC2530-2.5.1a\Projects\zstack\AT           /
//                          commands\AT command 3.2\CC2530DB\" -I             /
//                          "S:\zigbee\Myzigbe\version 3.0 for new            /
//                          ZStack-CC2530-2.5.1a\Projects\zstack\AT           /
//                          commands\AT command 3.2\CC2530DB\..\Source\" -I   /
//                          "S:\zigbee\Myzigbe\version 3.0 for new            /
//                          ZStack-CC2530-2.5.1a\Projects\zstack\AT           /
//                          commands\AT command 3.2\CC2530DB\..\..\..\ZMain\T /
//                          I2530DB\" -I "S:\zigbee\Myzigbe\version 3.0 for   /
//                          new ZStack-CC2530-2.5.1a\Projects\zstack\AT       /
//                          commands\AT command 3.2\CC2530DB\..\..\..\..\..\C /
//                          omponents\hal\include\" -I                        /
//                          "S:\zigbee\Myzigbe\version 3.0 for new            /
//                          ZStack-CC2530-2.5.1a\Projects\zstack\AT           /
//                          commands\AT command 3.2\CC2530DB\..\..\..\..\..\C /
//                          omponents\hal\target\CC2530EB\" -I                /
//                          "S:\zigbee\Myzigbe\version 3.0 for new            /
//                          ZStack-CC2530-2.5.1a\Projects\zstack\AT           /
//                          commands\AT command 3.2\CC2530DB\..\..\..\..\..\C /
//                          omponents\mac\include\" -I                        /
//                          "S:\zigbee\Myzigbe\version 3.0 for new            /
//                          ZStack-CC2530-2.5.1a\Projects\zstack\AT           /
//                          commands\AT command 3.2\CC2530DB\..\..\..\..\..\C /
//                          omponents\mac\high_level\" -I                     /
//                          "S:\zigbee\Myzigbe\version 3.0 for new            /
//                          ZStack-CC2530-2.5.1a\Projects\zstack\AT           /
//                          commands\AT command 3.2\CC2530DB\..\..\..\..\..\C /
//                          omponents\mac\low_level\srf04\" -I                /
//                          "S:\zigbee\Myzigbe\version 3.0 for new            /
//                          ZStack-CC2530-2.5.1a\Projects\zstack\AT           /
//                          commands\AT command 3.2\CC2530DB\..\..\..\..\..\C /
//                          omponents\mac\low_level\srf04\single_chip\" -I    /
//                          "S:\zigbee\Myzigbe\version 3.0 for new            /
//                          ZStack-CC2530-2.5.1a\Projects\zstack\AT           /
//                          commands\AT command 3.2\CC2530DB\..\..\..\..\..\C /
//                          omponents\mt\" -I "S:\zigbee\Myzigbe\version 3.0  /
//                          for new ZStack-CC2530-2.5.1a\Projects\zstack\AT   /
//                          commands\AT command 3.2\CC2530DB\..\..\..\..\..\C /
//                          omponents\osal\include\" -I                       /
//                          "S:\zigbee\Myzigbe\version 3.0 for new            /
//                          ZStack-CC2530-2.5.1a\Projects\zstack\AT           /
//                          commands\AT command 3.2\CC2530DB\..\..\..\..\..\C /
//                          omponents\services\saddr\" -I                     /
//                          "S:\zigbee\Myzigbe\version 3.0 for new            /
//                          ZStack-CC2530-2.5.1a\Projects\zstack\AT           /
//                          commands\AT command 3.2\CC2530DB\..\..\..\..\..\C /
//                          omponents\services\sdata\" -I                     /
//                          "S:\zigbee\Myzigbe\version 3.0 for new            /
//                          ZStack-CC2530-2.5.1a\Projects\zstack\AT           /
//                          commands\AT command 3.2\CC2530DB\..\..\..\..\..\C /
//                          omponents\stack\af\" -I                           /
//                          "S:\zigbee\Myzigbe\version 3.0 for new            /
//                          ZStack-CC2530-2.5.1a\Projects\zstack\AT           /
//                          commands\AT command 3.2\CC2530DB\..\..\..\..\..\C /
//                          omponents\stack\nwk\" -I                          /
//                          "S:\zigbee\Myzigbe\version 3.0 for new            /
//                          ZStack-CC2530-2.5.1a\Projects\zstack\AT           /
//                          commands\AT command 3.2\CC2530DB\..\..\..\..\..\C /
//                          omponents\stack\sapi\" -I                         /
//                          "S:\zigbee\Myzigbe\version 3.0 for new            /
//                          ZStack-CC2530-2.5.1a\Projects\zstack\AT           /
//                          commands\AT command 3.2\CC2530DB\..\..\..\..\..\C /
//                          omponents\stack\sec\" -I                          /
//                          "S:\zigbee\Myzigbe\version 3.0 for new            /
//                          ZStack-CC2530-2.5.1a\Projects\zstack\AT           /
//                          commands\AT command 3.2\CC2530DB\..\..\..\..\..\C /
//                          omponents\stack\sys\" -I                          /
//                          "S:\zigbee\Myzigbe\version 3.0 for new            /
//                          ZStack-CC2530-2.5.1a\Projects\zstack\AT           /
//                          commands\AT command 3.2\CC2530DB\..\..\..\..\..\C /
//                          omponents\stack\zdo\" -I                          /
//                          "S:\zigbee\Myzigbe\version 3.0 for new            /
//                          ZStack-CC2530-2.5.1a\Projects\zstack\AT           /
//                          commands\AT command 3.2\CC2530DB\..\..\..\..\..\C /
//                          omponents\stack\zcl\" -I                          /
//                          "S:\zigbee\Myzigbe\version 3.0 for new            /
//                          ZStack-CC2530-2.5.1a\Projects\zstack\AT           /
//                          commands\AT command 3.2\CC2530DB\..\..\..\..\..\C /
//                          omponents\zmac\" -I "S:\zigbee\Myzigbe\version    /
//                          3.0 for new ZStack-CC2530-2.5.1a\Projects\zstack\ /
//                          AT commands\AT command 3.2\CC2530DB\..\..\..\..\. /
//                          .\Components\zmac\f8w\" -Ohz --require_prototypes /
//    List file          =  S:\zigbee\Myzigbe\version 3.0 for new             /
//                          ZStack-CC2530-2.5.1a\Projects\zstack\AT           /
//                          commands\AT command 3.2\CC2530DB\CoordinatorEB\Li /
//                          st\AT_ONOFF_output.s51                            /
//                                                                            /
//                                                                            /
///////////////////////////////////////////////////////////////////////////////

        NAME AT_ONOFF_output

        RTMODEL "__SystemLibrary", "CLib"
        RTMODEL "__calling_convention", "xdata_reentrant"
        RTMODEL "__code_model", "banked"
        RTMODEL "__core", "plain"
        RTMODEL "__data_model", "large"
        RTMODEL "__dptr_size", "16"
        RTMODEL "__extended_stack", "disabled"
        RTMODEL "__location_for_constants", "data"
        RTMODEL "__number_of_dptrs", "1"
        RTMODEL "__rt_version", "1"

        RSEG DOVERLAY:DATA:NOROOT(0)
        RSEG IOVERLAY:IDATA:NOROOT(0)
        RSEG ISTACK:IDATA:NOROOT(0)
        RSEG PSTACK:XDATA:NOROOT(0)
        RSEG XSTACK:XDATA:NOROOT(0)

        EXTERN ?ALLOC_XSTACK8
        EXTERN ?BANKED_ENTER_XDATA
        EXTERN ?BANKED_LEAVE_XDATA
        EXTERN ?BDISPATCH
        EXTERN ?BRET
        EXTERN ?DEALLOC_XSTACK8
        EXTERN ?PUSH_XSTACK_I_ONE
        EXTERN ?PUSH_XSTACK_I_TWO
        EXTERN ?V0
        EXTERN ?XSP
        EXTERN ?XSTACK_DISP0_8
        EXTERN __INIT_XDATA_Z

        PUBLIC ??AT_ONOFF_OUTPUT_Cmd_RONOFF?relay
        FUNCTION ??AT_ONOFF_OUTPUT_Cmd_RONOFF?relay,0203H
        PUBLIC ??AT_ONOFF_OUTPUT_MessageMSGCB?relay
        FUNCTION ??AT_ONOFF_OUTPUT_MessageMSGCB?relay,0203H
        PUBLIC ??AT_ONOFF_OUTPUT_Register?relay
        FUNCTION ??AT_ONOFF_OUTPUT_Register?relay,0203H
        PUBLIC AT_AF_error_state
        PUBLIC AT_ONOFF_OUTPUT_ClusterList
        PUBLIC AT_ONOFF_OUTPUT_Cmd_RONOFF
        FUNCTION AT_ONOFF_OUTPUT_Cmd_RONOFF,021203H
        ARGFRAME XSTACK, 0, STACK
        LOCFRAME ISTACK, 1, STACK
        LOCFRAME XSTACK, 20, STACK
        PUBLIC AT_ONOFF_OUTPUT_MessageMSGCB
        FUNCTION AT_ONOFF_OUTPUT_MessageMSGCB,021203H
        ARGFRAME XSTACK, 0, STACK
        LOCFRAME ISTACK, 2, STACK
        PUBLIC AT_ONOFF_OUTPUT_Register
        FUNCTION AT_ONOFF_OUTPUT_Register,021203H
        ARGFRAME XSTACK, 0, STACK
        LOCFRAME ISTACK, 2, STACK
        PUBLIC AT_ONOFF_OUTPUT_SimpleDesc
        PUBLIC AT_ONOFF_OUTPUT_TransID
        PUBLIC AT_ONOFF_OUTPUT_epDesc
        
        CFI Names cfiNames0
        CFI StackFrame CFA_SP SP IDATA
        CFI StackFrame CFA_PSP16 PSP16 XDATA
        CFI StackFrame CFA_XSP16 XSP16 XDATA
        CFI StaticOverlayFrame CFA_IOVERLAY IOVERLAY
        CFI StaticOverlayFrame CFA_DOVERLAY DOVERLAY
        CFI Resource `PSW.CY`:1, `B.BR0`:1, `B.BR1`:1, `B.BR2`:1, `B.BR3`:1
        CFI Resource `B.BR4`:1, `B.BR5`:1, `B.BR6`:1, `B.BR7`:1, `VB.BR8`:1
        CFI Resource `VB.BR9`:1, `VB.BR10`:1, `VB.BR11`:1, `VB.BR12`:1
        CFI Resource `VB.BR13`:1, `VB.BR14`:1, `VB.BR15`:1, VB:8, B:8, A:8
        CFI Resource PSW:8, DPL0:8, DPH0:8, R0:8, R1:8, R2:8, R3:8, R4:8, R5:8
        CFI Resource R6:8, R7:8, V0:8, V1:8, V2:8, V3:8, V4:8, V5:8, V6:8, V7:8
        CFI Resource V8:8, V9:8, V10:8, V11:8, V12:8, V13:8, V14:8, V15:8, SP:8
        CFI Resource PSPH:8, PSPL:8, PSP16:16, XSPH:8, XSPL:8, XSP16:16
        CFI VirtualResource ?RET:24
        CFI Resource ?BRET_EXT:8
        CFI VirtualResource ?RET_HIGH:8, ?RET_LOW:8
        CFI ResourceParts PSP16 PSPH, PSPL
        CFI ResourceParts XSP16 XSPH, XSPL
        CFI ResourceParts ?RET ?BRET_EXT, ?RET_HIGH, ?RET_LOW
        CFI EndNames cfiNames0
        
        CFI Common cfiCommon0 Using cfiNames0
        CFI CodeAlign 1
        CFI DataAlign -1
        CFI ReturnAddress ?RET CODE
        CFI CFA_DOVERLAY Used
        CFI CFA_IOVERLAY Used
        CFI CFA_SP SP+-3
        CFI CFA_PSP16 PSP16+0
        CFI CFA_XSP16 XSP16+0
        CFI `PSW.CY` SameValue
        CFI `B.BR0` SameValue
        CFI `B.BR1` SameValue
        CFI `B.BR2` SameValue
        CFI `B.BR3` SameValue
        CFI `B.BR4` SameValue
        CFI `B.BR5` SameValue
        CFI `B.BR6` SameValue
        CFI `B.BR7` SameValue
        CFI `VB.BR8` SameValue
        CFI `VB.BR9` SameValue
        CFI `VB.BR10` SameValue
        CFI `VB.BR11` SameValue
        CFI `VB.BR12` SameValue
        CFI `VB.BR13` SameValue
        CFI `VB.BR14` SameValue
        CFI `VB.BR15` SameValue
        CFI VB SameValue
        CFI B Undefined
        CFI A Undefined
        CFI PSW SameValue
        CFI DPL0 SameValue
        CFI DPH0 SameValue
        CFI R0 Undefined
        CFI R1 Undefined
        CFI R2 Undefined
        CFI R3 Undefined
        CFI R4 Undefined
        CFI R5 Undefined
        CFI R6 SameValue
        CFI R7 SameValue
        CFI V0 SameValue
        CFI V1 SameValue
        CFI V2 SameValue
        CFI V3 SameValue
        CFI V4 SameValue
        CFI V5 SameValue
        CFI V6 SameValue
        CFI V7 SameValue
        CFI V8 SameValue
        CFI V9 SameValue
        CFI V10 SameValue
        CFI V11 SameValue
        CFI V12 SameValue
        CFI V13 SameValue
        CFI V14 SameValue
        CFI V15 SameValue
        CFI PSPH Undefined
        CFI PSPL Undefined
        CFI XSPH Undefined
        CFI XSPL Undefined
        CFI ?RET Concat
        CFI ?BRET_EXT Frame(CFA_SP, 3)
        CFI ?RET_HIGH Frame(CFA_SP, 2)
        CFI ?RET_LOW Frame(CFA_SP, 1)
        CFI EndCommon cfiCommon0
        
afRegister          SYMBOL "afRegister"
HalLedSet           SYMBOL "HalLedSet"
AF_DataRequest      SYMBOL "AF_DataRequest"
AT_HalUARTWrite     SYMBOL "AT_HalUARTWrite"
AT_UARTWriteErrMsg  SYMBOL "AT_UARTWriteErrMsg"
??AF_DataRequest?relay SYMBOL "?relay", AF_DataRequest
??AT_HalUARTWrite?relay SYMBOL "?relay", AT_HalUARTWrite
??AT_UARTWriteErrMsg?relay SYMBOL "?relay", AT_UARTWriteErrMsg
??HalLedSet?relay   SYMBOL "?relay", HalLedSet
??afRegister?relay  SYMBOL "?relay", afRegister
AT_ONOFF_OUTPUT_Cmd_RONOFF SYMBOL "AT_ONOFF_OUTPUT_Cmd_RONOFF"
??AT_ONOFF_OUTPUT_Cmd_RONOFF?relay SYMBOL "?relay", AT_ONOFF_OUTPUT_Cmd_RONOFF
AT_ONOFF_OUTPUT_MessageMSGCB SYMBOL "AT_ONOFF_OUTPUT_MessageMSGCB"
??AT_ONOFF_OUTPUT_MessageMSGCB?relay SYMBOL "?relay", AT_ONOFF_OUTPUT_MessageMSGCB
AT_ONOFF_OUTPUT_Register SYMBOL "AT_ONOFF_OUTPUT_Register"
??AT_ONOFF_OUTPUT_Register?relay SYMBOL "?relay", AT_ONOFF_OUTPUT_Register

        EXTERN afRegister
        FUNCTION afRegister,0202H
        ARGFRAME ISTACK, 2, STACK
        ARGFRAME PSTACK, 0, STACK
        ARGFRAME XSTACK, 0, STACK
        ARGFRAME IOVERLAY, 0, STATIC
        ARGFRAME DOVERLAY, 0, STATIC
        EXTERN HalLedSet
        FUNCTION HalLedSet,0202H
        ARGFRAME ISTACK, 2, STACK
        ARGFRAME PSTACK, 0, STACK
        ARGFRAME XSTACK, 0, STACK
        ARGFRAME IOVERLAY, 0, STATIC
        ARGFRAME DOVERLAY, 0, STATIC
        EXTERN AF_DataRequest
        FUNCTION AF_DataRequest,0202H
        ARGFRAME ISTACK, 0, STACK
        ARGFRAME PSTACK, 0, STACK
        ARGFRAME XSTACK, 20, STACK
        ARGFRAME IOVERLAY, 0, STATIC
        ARGFRAME DOVERLAY, 0, STATIC
        EXTERN AT_HalUARTWrite
        FUNCTION AT_HalUARTWrite,0202H
        ARGFRAME ISTACK, 0, STACK
        ARGFRAME PSTACK, 0, STACK
        ARGFRAME XSTACK, 11, STACK
        ARGFRAME IOVERLAY, 0, STATIC
        ARGFRAME DOVERLAY, 0, STATIC
        EXTERN AT_UARTWriteErrMsg
        FUNCTION AT_UARTWriteErrMsg,0202H
        ARGFRAME ISTACK, 0, STACK
        ARGFRAME PSTACK, 0, STACK
        ARGFRAME XSTACK, 11, STACK
        ARGFRAME IOVERLAY, 0, STATIC
        ARGFRAME DOVERLAY, 0, STATIC
        EXTERN ??AF_DataRequest?relay
        FUNCTION ??AF_DataRequest?relay,00H
        EXTERN ??AT_HalUARTWrite?relay
        FUNCTION ??AT_HalUARTWrite?relay,00H
        EXTERN ??AT_UARTWriteErrMsg?relay
        FUNCTION ??AT_UARTWriteErrMsg?relay,00H
        EXTERN ??HalLedSet?relay
        FUNCTION ??HalLedSet?relay,00H
        EXTERN ??afRegister?relay
        FUNCTION ??afRegister?relay,00H

// S:\zigbee\Myzigbe\version 3.0 for new ZStack-CC2530-2.5.1a\Projects\zstack\AT commands\AT command 3.2\Source\AT_ONOFF_output.c
//    1 /**************************************************************************************************
//    2   Filename:       AT_ONOFF_output.c
//    3 
//    4   Description:    AT command module
//    5   Author:         Xiao Wang
//    6 **************************************************************************************************/
//    7 
//    8 
//    9 #include "OSAL.h"
//   10 #include "ZGlobals.h"
//   11 #include "AF.h"
//   12 #include "aps_groups.h"
//   13 #include "ZDApp.h"
//   14 
//   15 #include "AT_ONOFF_output.h"
//   16 #include "At_include.h"
//   17 #include "hal_led.h"
//   18 
//   19 

        RSEG XDATA_ROM_C:CONST:REORDER:NOROOT(0)
        DATA8
//   20 const cId_t AT_ONOFF_OUTPUT_ClusterList[AT_ONOFF_OUTPUT_MAX_CLUSTERS] =
AT_ONOFF_OUTPUT_ClusterList:
        DATA16
        DW 0
        DW 1
        DW 2
        DW 3
        DW 4
        DW 5
        DW 6
//   21 {
//   22  AT_ONOFF_OUTPUT_Basic_CLUSTERID,                       
//   23  AT_ONOFF_OUTPUT_Power_configuration_CLUSTERID,         
//   24  AT_ONOFF_OUTPUT_Device_temperature_cfg_CLUSTERID,      
//   25  AT_ONOFF_OUTPUT_Identify_CLUSTERID ,                   
//   26  AT_ONOFF_OUTPUT_Group_CLUSTERID    ,                  
//   27  AT_ONOFF_OUTPUT_Scenes_CLUSTERID    ,            
//   28  AT_ONOFF_OUTPUT_On_Off_CLUSTERID ,
//   29 };
//   30 

        RSEG XDATA_ROM_C:CONST:REORDER:NOROOT(0)
        DATA8
//   31 const SimpleDescriptionFormat_t AT_ONOFF_OUTPUT_SimpleDesc =
AT_ONOFF_OUTPUT_SimpleDesc:
        DB 201
        DATA16
        DW 7
        DW 2
        DATA8
        DB 0
        DB 7
        DATA16
        DW AT_ONOFF_OUTPUT_ClusterList
        DATA8
        DB 7
        DATA16
        DW AT_ONOFF_OUTPUT_ClusterList
//   32 {
//   33   AT_ONOFF_OUTPUT_ENDPOINT,              //  int Endpoint;
//   34   AT_ONOFF_OUTPUT_PROFID,                //  uint16 AppProfId[2];
//   35   AT_ONOFF_OUTPUT_DEVICEID,              //  uint16 AppDeviceId[2];
//   36   AT_ONOFF_OUTPUT_DEVICE_VERSION,        //  int   AppDevVer:4;
//   37   AT_ONOFF_OUTPUT_FLAGS,                 //  int   AppFlags:4;
//   38   AT_ONOFF_OUTPUT_MAX_CLUSTERS,                                     //  uint8  AppNumInClusters;
//   39   (cId_t *)AT_ONOFF_OUTPUT_ClusterList,                            //  uint8 *pAppInClusterList;
//   40   AT_ONOFF_OUTPUT_MAX_CLUSTERS,          //  uint8  AppNumInClusters;
//   41   (cId_t *)AT_ONOFF_OUTPUT_ClusterList   //  uint8 *pAppInClusterList;
//   42 };
//   43 

        RSEG XDATA_Z:XDATA:NOROOT(0)
        DATA8
//   44 endPointDesc_t AT_ONOFF_OUTPUT_epDesc;
AT_ONOFF_OUTPUT_epDesc:
        DS 6
        REQUIRE __INIT_XDATA_Z

        RSEG XDATA_Z:XDATA:NOROOT(0)
        DATA8
//   45 uint8 AT_ONOFF_OUTPUT_TransID;  // This is the unique message ID (counter)
AT_ONOFF_OUTPUT_TransID:
        DS 1
        REQUIRE __INIT_XDATA_Z
//   46 

        RSEG BANKED_CODE:CODE:NOROOT(0)
//   47 void AT_ONOFF_OUTPUT_Register(uint8 *task_id){
AT_ONOFF_OUTPUT_Register:
        CFI Block cfiBlock0 Using cfiCommon0
        CFI Function AT_ONOFF_OUTPUT_Register
        CODE
        FUNCALL AT_ONOFF_OUTPUT_Register, afRegister
        LOCFRAME ISTACK, 2, STACK
        LOCFRAME PSTACK, 0, STACK
        LOCFRAME XSTACK, 0, STACK
        LOCFRAME IOVERLAY, 0, STATIC
        LOCFRAME DOVERLAY, 0, STATIC
        ARGFRAME ISTACK, 2, STACK
        ARGFRAME PSTACK, 0, STACK
        ARGFRAME XSTACK, 0, STACK
        ARGFRAME IOVERLAY, 0, STATIC
        ARGFRAME DOVERLAY, 0, STATIC
        PUSH    DPL
        CFI DPL0 Frame(CFA_SP, 4)
        CFI CFA_SP SP+-4
        PUSH    DPH
        CFI DPH0 Frame(CFA_SP, 5)
        CFI CFA_SP SP+-5
        ; Saved register size: 2
        ; Auto size: 0
//   48  // Fill out the endpoint description.
//   49   AT_ONOFF_OUTPUT_epDesc.endPoint = AT_ONOFF_OUTPUT_ENDPOINT;
        MOV     DPTR,#AT_ONOFF_OUTPUT_epDesc
        MOV     A,#-0x37
        MOVX    @DPTR,A
//   50   AT_ONOFF_OUTPUT_epDesc.task_id = task_id;
        INC     DPTR
        MOV     A,R2
        MOVX    @DPTR,A
        INC     DPTR
        MOV     A,R3
        MOVX    @DPTR,A
//   51   AT_ONOFF_OUTPUT_epDesc.simpleDesc
//   52             = (SimpleDescriptionFormat_t *)&AT_ONOFF_OUTPUT_SimpleDesc;
        INC     DPTR
        MOV     A,#AT_ONOFF_OUTPUT_SimpleDesc & 0xff
        MOVX    @DPTR,A
        INC     DPTR
        MOV     A,#(AT_ONOFF_OUTPUT_SimpleDesc >> 8) & 0xff
        MOVX    @DPTR,A
//   53   AT_ONOFF_OUTPUT_epDesc.latencyReq = noLatencyReqs;
        INC     DPTR
        CLR     A
        MOVX    @DPTR,A
//   54   
//   55   // Register the endpoint description with the AF
//   56   afRegister( &AT_ONOFF_OUTPUT_epDesc );
        ; Setup parameters for call to function afRegister
        MOV     R2,#AT_ONOFF_OUTPUT_epDesc & 0xff
        MOV     R3,#(AT_ONOFF_OUTPUT_epDesc >> 8) & 0xff
        LCALL   ??afRegister?relay
        CFI EndBlock cfiBlock0
//   57 }
        REQUIRE ?Subroutine0
        ; // Fall through to label ?Subroutine0

        RSEG BANKED_CODE:CODE:NOROOT(0)
?Subroutine0:
        CFI Block cfiBlock1 Using cfiCommon0
        CFI NoFunction
        CFI CFA_SP SP+-5
        CFI DPL0 Frame(CFA_SP, 4)
        CFI DPH0 Frame(CFA_SP, 5)
        POP     DPH
        CFI CFA_SP SP+-4
        CFI DPH0 SameValue
        POP     DPL
        CFI CFA_SP SP+-3
        CFI DPL0 SameValue
        LJMP    ?BRET
        CFI EndBlock cfiBlock1
//   58 
//   59 

        RSEG BANKED_CODE:CODE:NOROOT(0)
//   60 void AT_ONOFF_OUTPUT_MessageMSGCB( afIncomingMSGPacket_t *pkt )
AT_ONOFF_OUTPUT_MessageMSGCB:
        CFI Block cfiBlock2 Using cfiCommon0
        CFI Function AT_ONOFF_OUTPUT_MessageMSGCB
        CODE
//   61 {
        FUNCALL AT_ONOFF_OUTPUT_MessageMSGCB, HalLedSet
        LOCFRAME ISTACK, 2, STACK
        LOCFRAME PSTACK, 0, STACK
        LOCFRAME XSTACK, 0, STACK
        LOCFRAME IOVERLAY, 0, STATIC
        LOCFRAME DOVERLAY, 0, STATIC
        ARGFRAME ISTACK, 2, STACK
        ARGFRAME PSTACK, 0, STACK
        ARGFRAME XSTACK, 0, STACK
        ARGFRAME IOVERLAY, 0, STATIC
        ARGFRAME DOVERLAY, 0, STATIC
        FUNCALL AT_ONOFF_OUTPUT_MessageMSGCB, HalLedSet
        LOCFRAME ISTACK, 2, STACK
        LOCFRAME PSTACK, 0, STACK
        LOCFRAME XSTACK, 0, STACK
        LOCFRAME IOVERLAY, 0, STATIC
        LOCFRAME DOVERLAY, 0, STATIC
        ARGFRAME ISTACK, 2, STACK
        ARGFRAME PSTACK, 0, STACK
        ARGFRAME XSTACK, 0, STACK
        ARGFRAME IOVERLAY, 0, STATIC
        ARGFRAME DOVERLAY, 0, STATIC
        FUNCALL AT_ONOFF_OUTPUT_MessageMSGCB, HalLedSet
        LOCFRAME ISTACK, 2, STACK
        LOCFRAME PSTACK, 0, STACK
        LOCFRAME XSTACK, 0, STACK
        LOCFRAME IOVERLAY, 0, STATIC
        LOCFRAME DOVERLAY, 0, STATIC
        ARGFRAME ISTACK, 2, STACK
        ARGFRAME PSTACK, 0, STACK
        ARGFRAME XSTACK, 0, STACK
        ARGFRAME IOVERLAY, 0, STATIC
        ARGFRAME DOVERLAY, 0, STATIC
        PUSH    DPL
        CFI DPL0 Frame(CFA_SP, 4)
        CFI CFA_SP SP+-4
        PUSH    DPH
        CFI DPH0 Frame(CFA_SP, 5)
        CFI CFA_SP SP+-5
        ; Saved register size: 2
        ; Auto size: 0
//   62   
//   63   uint8 on_off = (uint8)pkt->cmd.Data[0];
//   64   switch ( pkt->clusterId )
        MOV     DPL,R2
        MOV     DPH,R3
        INC     DPTR
        INC     DPTR
        INC     DPTR
        INC     DPTR
        MOVX    A,@DPTR
        XRL     A,#0x6
        JNZ     ??AT_ONOFF_OUTPUT_MessageMSGCB_0
        INC     DPTR
        MOVX    A,@DPTR
??AT_ONOFF_OUTPUT_MessageMSGCB_0:
        JNZ     ??AT_ONOFF_OUTPUT_MessageMSGCB_1
//   65   {
//   66     case AT_ONOFF_OUTPUT_Basic_CLUSTERID:
//   67       break;   
//   68     case AT_ONOFF_OUTPUT_Power_configuration_CLUSTERID:
//   69       break;
//   70     case AT_ONOFF_OUTPUT_Device_temperature_cfg_CLUSTERID:
//   71       break;
//   72     case AT_ONOFF_OUTPUT_Identify_CLUSTERID:
//   73       break;
//   74     case AT_ONOFF_OUTPUT_Group_CLUSTERID :
//   75       break;
//   76     case AT_ONOFF_OUTPUT_Scenes_CLUSTERID :
//   77       break;
//   78       
//   79     case AT_ONOFF_OUTPUT_On_Off_CLUSTERID:
//   80       switch(on_off){
        MOV     A,R2
        ADD     A,#0x22
        MOV     DPL,A
        MOV     A,R3
        ADDC    A,#0x0
        MOV     DPH,A
        MOVX    A,@DPTR
        MOV     R0,A
        INC     DPTR
        MOVX    A,@DPTR
        MOV     DPH,A
        MOV     DPL,R0
        MOVX    A,@DPTR
        JZ      ??AT_ONOFF_OUTPUT_MessageMSGCB_2
        DEC     A
        JZ      ??AT_ONOFF_OUTPUT_MessageMSGCB_3
        DEC     A
        JZ      ??AT_ONOFF_OUTPUT_MessageMSGCB_4
        SJMP    ??AT_ONOFF_OUTPUT_MessageMSGCB_1
//   81         case 0:
//   82           HalLedSet( HAL_LED_1,HAL_LED_MODE_OFF);
??AT_ONOFF_OUTPUT_MessageMSGCB_2:
        ; Setup parameters for call to function HalLedSet
        MOV     R2,#0x0
        SJMP    ??AT_ONOFF_OUTPUT_MessageMSGCB_5
//   83           break;
//   84         case 1:
//   85           HalLedSet( HAL_LED_1,HAL_LED_MODE_ON);
??AT_ONOFF_OUTPUT_MessageMSGCB_3:
        ; Setup parameters for call to function HalLedSet
        MOV     R2,#0x1
        SJMP    ??AT_ONOFF_OUTPUT_MessageMSGCB_5
//   86           break;
//   87         case 2:
//   88           HalLedSet( HAL_LED_1,HAL_LED_MODE_TOGGLE);
??AT_ONOFF_OUTPUT_MessageMSGCB_4:
        ; Setup parameters for call to function HalLedSet
        MOV     R2,#0x8
??AT_ONOFF_OUTPUT_MessageMSGCB_5:
        MOV     R1,#0x1
        LCALL   ??HalLedSet?relay
//   89           break;
//   90           
//   91       }
//   92       break;
//   93   }
//   94 }
??AT_ONOFF_OUTPUT_MessageMSGCB_1:
        SJMP    ?Subroutine0
        CFI EndBlock cfiBlock2
//   95 

        RSEG XDATA_Z:XDATA:NOROOT(0)
        DATA8
//   96 uint8 AT_AF_error_state;
AT_AF_error_state:
        DS 1
        REQUIRE __INIT_XDATA_Z

        RSEG BANKED_CODE:CODE:NOROOT(0)
//   97 void AT_ONOFF_OUTPUT_Cmd_RONOFF(afAddrType_t* dstAddr,uint8 on_off){
AT_ONOFF_OUTPUT_Cmd_RONOFF:
        CFI Block cfiBlock3 Using cfiCommon0
        CFI Function AT_ONOFF_OUTPUT_Cmd_RONOFF
        CODE
        FUNCALL AT_ONOFF_OUTPUT_Cmd_RONOFF, AF_DataRequest
        LOCFRAME ISTACK, 0, STACK
        LOCFRAME PSTACK, 0, STACK
        LOCFRAME XSTACK, 20, STACK
        LOCFRAME IOVERLAY, 0, STATIC
        LOCFRAME DOVERLAY, 0, STATIC
        ARGFRAME ISTACK, 0, STACK
        ARGFRAME PSTACK, 0, STACK
        ARGFRAME XSTACK, 20, STACK
        ARGFRAME IOVERLAY, 0, STATIC
        ARGFRAME DOVERLAY, 0, STATIC
        FUNCALL AT_ONOFF_OUTPUT_Cmd_RONOFF, AT_HalUARTWrite
        LOCFRAME ISTACK, 0, STACK
        LOCFRAME PSTACK, 0, STACK
        LOCFRAME XSTACK, 11, STACK
        LOCFRAME IOVERLAY, 0, STATIC
        LOCFRAME DOVERLAY, 0, STATIC
        ARGFRAME ISTACK, 0, STACK
        ARGFRAME PSTACK, 0, STACK
        ARGFRAME XSTACK, 11, STACK
        ARGFRAME IOVERLAY, 0, STATIC
        ARGFRAME DOVERLAY, 0, STATIC
        FUNCALL AT_ONOFF_OUTPUT_Cmd_RONOFF, AT_UARTWriteErrMsg
        LOCFRAME ISTACK, 0, STACK
        LOCFRAME PSTACK, 0, STACK
        LOCFRAME XSTACK, 11, STACK
        LOCFRAME IOVERLAY, 0, STATIC
        LOCFRAME DOVERLAY, 0, STATIC
        ARGFRAME ISTACK, 0, STACK
        ARGFRAME PSTACK, 0, STACK
        ARGFRAME XSTACK, 11, STACK
        ARGFRAME IOVERLAY, 0, STATIC
        ARGFRAME DOVERLAY, 0, STATIC
        MOV     A,#-0xa
        LCALL   ?BANKED_ENTER_XDATA
        CFI DPH0 load(1, XDATA, add(CFA_XSP16, literal(-1)))
        CFI DPL0 load(1, XDATA, add(CFA_XSP16, literal(-2)))
        CFI ?BRET_EXT load(1, XDATA, add(CFA_XSP16, literal(-3)))
        CFI ?RET_HIGH load(1, XDATA, add(CFA_XSP16, literal(-4)))
        CFI ?RET_LOW load(1, XDATA, add(CFA_XSP16, literal(-5)))
        CFI R7 load(1, XDATA, add(CFA_XSP16, literal(-6)))
        CFI V1 load(1, XDATA, add(CFA_XSP16, literal(-7)))
        CFI V0 load(1, XDATA, add(CFA_XSP16, literal(-8)))
        CFI VB load(1, XDATA, add(CFA_XSP16, literal(-9)))
        CFI R6 load(1, XDATA, add(CFA_XSP16, literal(-10)))
        CFI CFA_SP SP+0
        CFI CFA_XSP16 add(XSP16, 10)
        ; Saved register size: 10
        ; Auto size: 1
        MOV     A,#-0x1
        LCALL   ?ALLOC_XSTACK8
        CFI CFA_XSP16 add(XSP16, 11)
        MOV     A,R1
        MOV     DPL,?XSP + 0
        MOV     DPH,?XSP + 1
        MOVX    @DPTR,A
//   98    if ( (AT_AF_error_state=AF_DataRequest( dstAddr, & AT_ONOFF_OUTPUT_epDesc,
//   99                        AT_ONOFF_OUTPUT_On_Off_CLUSTERID,
//  100                        1,
//  101                        (uint8*)&on_off,
//  102                        &AT_ONOFF_OUTPUT_TransID,
//  103                        AF_DISCV_ROUTE,
//  104                        AF_DEFAULT_RADIUS )) == afStatus_SUCCESS )
        ; Setup parameters for call to function AF_DataRequest
        MOV     ?V0 + 0,#0x1e
        MOV     R0,#?V0 + 0
        LCALL   ?PUSH_XSTACK_I_ONE
        CFI CFA_XSP16 add(XSP16, 12)
        MOV     ?V0 + 0,#AT_ONOFF_OUTPUT_TransID & 0xff
        MOV     ?V0 + 1,#(AT_ONOFF_OUTPUT_TransID >> 8) & 0xff
        MOV     R0,#?V0 + 0
        LCALL   ?PUSH_XSTACK_I_TWO
        CFI CFA_XSP16 add(XSP16, 14)
        MOV     A,#0x3
        LCALL   ?XSTACK_DISP0_8
        MOV     ?V0 + 0,DPL
        MOV     ?V0 + 1,DPH
        MOV     R0,#?V0 + 0
        LCALL   ?PUSH_XSTACK_I_TWO
        CFI CFA_XSP16 add(XSP16, 16)
        MOV     ?V0 + 0,#0x1
        MOV     ?V0 + 1,#0x0
        MOV     R0,#?V0 + 0
        LCALL   ?PUSH_XSTACK_I_TWO
        CFI CFA_XSP16 add(XSP16, 18)
        MOV     ?V0 + 0,#0x6
        MOV     R0,#?V0 + 0
        LCALL   ?PUSH_XSTACK_I_TWO
        CFI CFA_XSP16 add(XSP16, 20)
        MOV     R1,#0x20
        MOV     R4,#AT_ONOFF_OUTPUT_epDesc & 0xff
        MOV     R5,#(AT_ONOFF_OUTPUT_epDesc >> 8) & 0xff
        LCALL   ??AF_DataRequest?relay
        MOV     A,#0x9
        LCALL   ?DEALLOC_XSTACK8
        CFI CFA_XSP16 add(XSP16, 11)
        MOV     A,R1
        MOV     DPTR,#AT_AF_error_state
        MOVX    @DPTR,A
        JNZ     ??AT_ONOFF_OUTPUT_Cmd_RONOFF_0
//  105   {
//  106     AT_OK();
        ; Setup parameters for call to function AT_HalUARTWrite
        MOV     R4,#0x7
        MOV     R5,#0x0
        MOV     R2,#`?<Constant "\\r\\nOK\\r\\n">` & 0xff
        MOV     R3,#(`?<Constant "\\r\\nOK\\r\\n">` >> 8) & 0xff
        MOV     R1,#0x0
        LCALL   ??AT_HalUARTWrite?relay
        SJMP    ??AT_ONOFF_OUTPUT_Cmd_RONOFF_1
//  107   }
//  108   else
//  109   {
//  110     AT_ERROR(AT_AF_error_state);
??AT_ONOFF_OUTPUT_Cmd_RONOFF_0:
        ; Setup parameters for call to function AT_UARTWriteErrMsg
        LCALL   ??AT_UARTWriteErrMsg?relay
//  111   }
//  112 }
??AT_ONOFF_OUTPUT_Cmd_RONOFF_1:
        MOV     A,#0x1
        LCALL   ?DEALLOC_XSTACK8
        CFI CFA_XSP16 add(XSP16, 10)
        MOV     R7,#0x2
        LJMP    ?BANKED_LEAVE_XDATA
        CFI EndBlock cfiBlock3

        RSEG BANK_RELAYS:CODE:REORDER:NOROOT(0)
??AT_ONOFF_OUTPUT_Register?relay:
        LCALL   ?BDISPATCH
        DATA
        DC24    AT_ONOFF_OUTPUT_Register

        RSEG BANK_RELAYS:CODE:REORDER:NOROOT(0)
??AT_ONOFF_OUTPUT_MessageMSGCB?relay:
        LCALL   ?BDISPATCH
        DATA
        DC24    AT_ONOFF_OUTPUT_MessageMSGCB

        RSEG BANK_RELAYS:CODE:REORDER:NOROOT(0)
??AT_ONOFF_OUTPUT_Cmd_RONOFF?relay:
        LCALL   ?BDISPATCH
        DATA
        DC24    AT_ONOFF_OUTPUT_Cmd_RONOFF

        RSEG XDATA_ROM_C:CONST:REORDER:NOROOT(0)
        DATA8
`?<Constant "\\r\\nOK\\r\\n">`:
        DB "\015\012OK\015\012"

        END
// 
// 229 bytes in segment BANKED_CODE
//  18 bytes in segment BANK_RELAYS
//  33 bytes in segment XDATA_ROM_C
//   8 bytes in segment XDATA_Z
// 
// 247 bytes of CODE  memory
//  33 bytes of CONST memory
//   8 bytes of XDATA memory
//
//Errors: none
//Warnings: none
