###############################################################################
#                                                                             #
# IAR C/C++ Compiler V8.10.3.10338/W32 for 8051         15/Jun/2015  20:21:35 #
# Copyright 2004-2011 IAR Systems AB.                                         #
#                                                                             #
#    Core               =  plain                                              #
#    Code model         =  banked                                             #
#    Data model         =  large                                              #
#    Calling convention =  xdata reentrant                                    #
#    Constant location  =  data_rom                                           #
#    Dptr setup         =  1,16                                               #
#    Source file        =  S:\zigbee\Myzigbe\version 3.0 for new              #
#                          ZStack-CC2530-2.5.1a\Projects\zstack\AT            #
#                          commands\AT command 3.2\Source\AT_uart.c           #
#    Command line       =  -f "S:\zigbee\Myzigbe\version 3.0 for new          #
#                          ZStack-CC2530-2.5.1a\Projects\zstack\AT            #
#                          commands\AT command 3.2\CC2530DB\..\..\..\Tools\CC #
#                          2530DB\f8wCoord.cfg" (-DCPU32MHZ                   #
#                          -DROOT=__near_func -DMAC_CFG_APP_PENDING_QUEUE=TRU #
#                          E -DMAC_CFG_TX_DATA_MAX=5 -DMAC_CFG_TX_MAX=8       #
#                          -DMAC_CFG_RX_MAX=5 -DZDO_COORDINATOR -DRTR_NWK)    #
#                          -f "S:\zigbee\Myzigbe\version 3.0 for new          #
#                          ZStack-CC2530-2.5.1a\Projects\zstack\AT            #
#                          commands\AT command 3.2\CC2530DB\..\..\..\Tools\CC #
#                          2530DB\f8wConfig.cfg" (-DZIGBEEPRO -DSECURE=0      #
#                          -DZG_SECURE_DYNAMIC=0 -DREFLECTOR                  #
#                          -DDEFAULT_CHANLIST=0x00000800                      #
#                          -DZDAPP_CONFIG_PAN_ID=0x2015                       #
#                          -DNWK_START_DELAY=100 -DEXTENDED_JOINING_RANDOM_MA #
#                          SK=0x007F -DBEACON_REQUEST_DELAY=100               #
#                          -DBEACON_REQ_DELAY_MASK=0x00FF                     #
#                          -DLINK_STATUS_JITTER_MASK=0x007F                   #
#                          -DROUTE_EXPIRY_TIME=30 -DAPSC_ACK_WAIT_DURATION_PO #
#                          LLED=3000 -DNWK_INDIRECT_MSG_TIMEOUT=7             #
#                          -DMAX_RREQ_ENTRIES=8 -DAPSC_MAX_FRAME_RETRIES=3    #
#                          -DNWK_MAX_DATA_RETRIES=2                           #
#                          -DMAX_POLL_FAILURE_RETRIES=2 -DMAX_BCAST=9         #
#                          -DAPS_MAX_GROUPS=16 -DMAX_RTG_ENTRIES=40           #
#                          -DNWK_MAX_BINDING_ENTRIES=4                        #
#                          -DMAX_BINDING_CLUSTER_IDS=4 "-DDEFAULT_KEY={0x01,  #
#                          0x03, 0x05, 0x07, 0x09, 0x0B, 0x0D, 0x0F, 0x00,    #
#                          0x02, 0x04, 0x06, 0x08, 0x0A, 0x0C, 0x0D}"         #
#                          -DMAC_MAX_FRAME_SIZE=116                           #
#                          -DZDNWKMGR_MIN_TRANSMISSIONS=20 "-DCONST=const     #
#                          __code" -DGENERIC=__generic                        #
#                          -DRFD_RCVC_ALWAYS_ON=FALSE -DPOLL_RATE=1000        #
#                          -DQUEUED_POLL_RATE=100 -DRESPONSE_POLL_RATE=100)   #
#                          -DREJOIN_POLL_RATE=440 "S:\zigbee\Myzigbe\version  #
#                          3.0 for new ZStack-CC2530-2.5.1a\Projects\zstack\A #
#                          T commands\AT command 3.2\Source\AT_uart.c" -D     #
#                          ZIGBEEPRO -D NWK_AUTO_POLL -D HAL_UART=TRUE -D     #
#                          HOLD_AUTO_START -D NV_RESTORE -D REFLECTOR -D      #
#                          HAL_UART_ISR=1 -D HAL_UART_DMA=0 -D                #
#                          xHAL_UART_ISR_TX_MAX=200 -D xPOWER_SAVING -D       #
#                          ZCL_READ -D ZCL_WRITE -D ZCL_IDENTIFY -D           #
#                          ZCL_ON_OFF -D ZCL_DISCOVER -D xZTOOL_P1 -D         #
#                          xMT_TASK -D xMT_SYS_FUNC -D xMT_ZDO_FUNC -D        #
#                          xLCD_SUPPORTED=DEBUG -D xMT_UART_DEFAULT_OVERFLOW= #
#                          FALSE -lC "S:\zigbee\Myzigbe\version 3.0 for new   #
#                          ZStack-CC2530-2.5.1a\Projects\zstack\AT            #
#                          commands\AT command 3.2\CC2530DB\CoordinatorEB\Lis #
#                          t\" -lA "S:\zigbee\Myzigbe\version 3.0 for new     #
#                          ZStack-CC2530-2.5.1a\Projects\zstack\AT            #
#                          commands\AT command 3.2\CC2530DB\CoordinatorEB\Lis #
#                          t\" --diag_suppress Pe001,Pa010 -o                 #
#                          "S:\zigbee\Myzigbe\version 3.0 for new             #
#                          ZStack-CC2530-2.5.1a\Projects\zstack\AT            #
#                          commands\AT command 3.2\CC2530DB\CoordinatorEB\Obj #
#                          \" -e --no_code_motion --debug --core=plain        #
#                          --dptr=16,1 --data_model=large                     #
#                          --code_model=banked --calling_convention=xdata_ree #
#                          ntrant --place_constants=data_rom                  #
#                          --nr_virtual_regs 16 -I "S:\zigbee\Myzigbe\version #
#                           3.0 for new ZStack-CC2530-2.5.1a\Projects\zstack\ #
#                          AT commands\AT command 3.2\CC2530DB\" -I           #
#                          "S:\zigbee\Myzigbe\version 3.0 for new             #
#                          ZStack-CC2530-2.5.1a\Projects\zstack\AT            #
#                          commands\AT command 3.2\CC2530DB\..\Source\" -I    #
#                          "S:\zigbee\Myzigbe\version 3.0 for new             #
#                          ZStack-CC2530-2.5.1a\Projects\zstack\AT            #
#                          commands\AT command 3.2\CC2530DB\..\..\..\ZMain\TI #
#                          2530DB\" -I "S:\zigbee\Myzigbe\version 3.0 for     #
#                          new ZStack-CC2530-2.5.1a\Projects\zstack\AT        #
#                          commands\AT command 3.2\CC2530DB\..\..\..\..\..\Co #
#                          mponents\hal\include\" -I                          #
#                          "S:\zigbee\Myzigbe\version 3.0 for new             #
#                          ZStack-CC2530-2.5.1a\Projects\zstack\AT            #
#                          commands\AT command 3.2\CC2530DB\..\..\..\..\..\Co #
#                          mponents\hal\target\CC2530EB\" -I                  #
#                          "S:\zigbee\Myzigbe\version 3.0 for new             #
#                          ZStack-CC2530-2.5.1a\Projects\zstack\AT            #
#                          commands\AT command 3.2\CC2530DB\..\..\..\..\..\Co #
#                          mponents\mac\include\" -I                          #
#                          "S:\zigbee\Myzigbe\version 3.0 for new             #
#                          ZStack-CC2530-2.5.1a\Projects\zstack\AT            #
#                          commands\AT command 3.2\CC2530DB\..\..\..\..\..\Co #
#                          mponents\mac\high_level\" -I                       #
#                          "S:\zigbee\Myzigbe\version 3.0 for new             #
#                          ZStack-CC2530-2.5.1a\Projects\zstack\AT            #
#                          commands\AT command 3.2\CC2530DB\..\..\..\..\..\Co #
#                          mponents\mac\low_level\srf04\" -I                  #
#                          "S:\zigbee\Myzigbe\version 3.0 for new             #
#                          ZStack-CC2530-2.5.1a\Projects\zstack\AT            #
#                          commands\AT command 3.2\CC2530DB\..\..\..\..\..\Co #
#                          mponents\mac\low_level\srf04\single_chip\" -I      #
#                          "S:\zigbee\Myzigbe\version 3.0 for new             #
#                          ZStack-CC2530-2.5.1a\Projects\zstack\AT            #
#                          commands\AT command 3.2\CC2530DB\..\..\..\..\..\Co #
#                          mponents\mt\" -I "S:\zigbee\Myzigbe\version 3.0    #
#                          for new ZStack-CC2530-2.5.1a\Projects\zstack\AT    #
#                          commands\AT command 3.2\CC2530DB\..\..\..\..\..\Co #
#                          mponents\osal\include\" -I                         #
#                          "S:\zigbee\Myzigbe\version 3.0 for new             #
#                          ZStack-CC2530-2.5.1a\Projects\zstack\AT            #
#                          commands\AT command 3.2\CC2530DB\..\..\..\..\..\Co #
#                          mponents\services\saddr\" -I                       #
#                          "S:\zigbee\Myzigbe\version 3.0 for new             #
#                          ZStack-CC2530-2.5.1a\Projects\zstack\AT            #
#                          commands\AT command 3.2\CC2530DB\..\..\..\..\..\Co #
#                          mponents\services\sdata\" -I                       #
#                          "S:\zigbee\Myzigbe\version 3.0 for new             #
#                          ZStack-CC2530-2.5.1a\Projects\zstack\AT            #
#                          commands\AT command 3.2\CC2530DB\..\..\..\..\..\Co #
#                          mponents\stack\af\" -I "S:\zigbee\Myzigbe\version  #
#                          3.0 for new ZStack-CC2530-2.5.1a\Projects\zstack\A #
#                          T commands\AT command 3.2\CC2530DB\..\..\..\..\..\ #
#                          Components\stack\nwk\" -I                          #
#                          "S:\zigbee\Myzigbe\version 3.0 for new             #
#                          ZStack-CC2530-2.5.1a\Projects\zstack\AT            #
#                          commands\AT command 3.2\CC2530DB\..\..\..\..\..\Co #
#                          mponents\stack\sapi\" -I                           #
#                          "S:\zigbee\Myzigbe\version 3.0 for new             #
#                          ZStack-CC2530-2.5.1a\Projects\zstack\AT            #
#                          commands\AT command 3.2\CC2530DB\..\..\..\..\..\Co #
#                          mponents\stack\sec\" -I "S:\zigbee\Myzigbe\version #
#                           3.0 for new ZStack-CC2530-2.5.1a\Projects\zstack\ #
#                          AT commands\AT command 3.2\CC2530DB\..\..\..\..\.. #
#                          \Components\stack\sys\" -I                         #
#                          "S:\zigbee\Myzigbe\version 3.0 for new             #
#                          ZStack-CC2530-2.5.1a\Projects\zstack\AT            #
#                          commands\AT command 3.2\CC2530DB\..\..\..\..\..\Co #
#                          mponents\stack\zdo\" -I "S:\zigbee\Myzigbe\version #
#                           3.0 for new ZStack-CC2530-2.5.1a\Projects\zstack\ #
#                          AT commands\AT command 3.2\CC2530DB\..\..\..\..\.. #
#                          \Components\stack\zcl\" -I                         #
#                          "S:\zigbee\Myzigbe\version 3.0 for new             #
#                          ZStack-CC2530-2.5.1a\Projects\zstack\AT            #
#                          commands\AT command 3.2\CC2530DB\..\..\..\..\..\Co #
#                          mponents\zmac\" -I "S:\zigbee\Myzigbe\version 3.0  #
#                          for new ZStack-CC2530-2.5.1a\Projects\zstack\AT    #
#                          commands\AT command 3.2\CC2530DB\..\..\..\..\..\Co #
#                          mponents\zmac\f8w\" -Ohz --require_prototypes      #
#    List file          =  S:\zigbee\Myzigbe\version 3.0 for new              #
#                          ZStack-CC2530-2.5.1a\Projects\zstack\AT            #
#                          commands\AT command 3.2\CC2530DB\CoordinatorEB\Lis #
#                          t\AT_uart.lst                                      #
#    Object file        =  S:\zigbee\Myzigbe\version 3.0 for new              #
#                          ZStack-CC2530-2.5.1a\Projects\zstack\AT            #
#                          commands\AT command 3.2\CC2530DB\CoordinatorEB\Obj #
#                          \AT_uart.r51                                       #
#                                                                             #
#                                                                             #
###############################################################################

S:\zigbee\Myzigbe\version 3.0 for new ZStack-CC2530-2.5.1a\Projects\zstack\AT commands\AT command 3.2\Source\AT_uart.c
      1          /**************************************************************************************************
      2            Filename:       AT_uart.c
      3          
      4            Description:    AT command module
      5            Author:         Xiao Wang
      6          **************************************************************************************************/
      7          
      8          
      9          #include "ZComDef.h"
     10          #include "OSAL.h"
     11          #include "OSAL_Nv.h"
     12          #include "OSAL_Memory.h"
     13          #include "ZDNwkMgr.h"
     14          #include "ZDProfile.h"
     15          #include "hal_led.h"
     16          #include "zcl_general.h"
     17          #include "BindingTable.h"
     18          #include "AddrMgr.h"
     19          #include "zcl.h"
     20          #include "ZDObject.h"
     21          
     22          #include "At_include.h"
     23          

   \                                 In  segment XDATA_I, align 1, keep-with-next
     24          const char* Revision = "Private Revision:3.1 \n\rThe New Stack";
   \                     Revision:
   \   000000                DS 2
   \   000002                REQUIRE `?<Initializer for Revision>`
   \   000002                REQUIRE __INIT_XDATA_I

   \                                 In  segment XDATA_Z, align 1, keep-with-next
     25          byte AT_Uart_TaskID;
   \                     AT_Uart_TaskID:
   \   000000                DS 1
   \   000001                REQUIRE __INIT_XDATA_Z

   \                                 In  segment XDATA_ROM_C, align 1
     26          const uint8 AT_CMD_EP_ARRAY[]=AT_CMD_EPs;
   \                     AT_CMD_EP_ARRAY:
   \   000000   01           DB 1
   \   000001   04           DB 4
   \   000002   05           DB 5
   \   000003   06           DB 6
   \   000004   07           DB 7

   \                                 In  segment XDATA_ROM_C, align 1
     27          const uint8 AT_CMD_EPs_Num = sizeof(AT_CMD_EP_ARRAY);
   \                     AT_CMD_EPs_Num:
   \   000000   05           DB 5
     28          extern uint8 continueJoining;
     29          extern uint8 zdoDiscCounter;

   \                                 In  segment XDATA_Z, align 1, keep-with-next
     30          uint8 AT_state =0;
   \                     AT_state:
   \   000000                DS 1
   \   000001                REQUIRE __INIT_XDATA_Z

   \                                 In  segment XDATA_Z, align 1, keep-with-next
     31          uint8 AT_tempLen =0;
   \                     AT_tempLen:
   \   000000                DS 1
   \   000001                REQUIRE __INIT_XDATA_Z

   \                                 In  segment XDATA_Z, align 1, keep-with-next
     32          atOSALSerialData_t  *pAT_Msg;
   \                     pAT_Msg:
   \   000000                DS 2
   \   000002                REQUIRE __INIT_XDATA_Z

   \                                 In  segment XDATA_Z, align 1, keep-with-next
     33          uint8 AT_RxBuffer[MT_UART_RX_BUFF_MAX];
   \                     AT_RxBuffer:
   \   000000                DS 128
   \   000080                REQUIRE __INIT_XDATA_Z
     34          #if AT_ENABLE_PASSWORDS_MODE
     35            uint8 AT_enable=0;
     36            const char* const AT_passwords =  AT_ENABLE_PASSWORDS;
     37          #endif
     38          

   \                                 In  segment XDATA_ROM_C, align 1
     39          const AT_Cmd_t AT_Cmd_Arr[]={
   \                     AT_Cmd_Arr:
   \   000000   ....         DW `?<Constant "EPENABLE">`
   \   000002   ....         DW ??AT_Cmd_EPENABLE?relay
   \   000004   ....         DW `?<Constant "Enable/Disable Local ...">`
   \   000006   ....         DW `?<Constant "REPENABLE">`
   \   000008   ....         DW ??AT_Cmd_REPENABLE?relay
   \   00000A   ....         DW `?<Constant "Enable/Disable Remote...">`
   \   00000C   ....         DW `?<Constant "EPPRINT">`
   \   00000E   ....         DW ??AT_Cmd_EPPRINT?relay
   \   000010   ....         DW `?<Constant "Print Local Endpoints...">`
   \   000012   ....         DW `?<Constant "REPPRINT">`
   \   000014   ....         DW ??AT_Cmd_REPPRINT?relay
   \   000016   ....         DW `?<Constant "Print Remote Endpoint...">`
   \   000018   ....         DW `?<Constant "LONOFF">`
   \   00001A   ....         DW ??AT_Cmd_LONOFF?relay
   \   00001C   ....         DW `?<Constant "Switch Local Device O...">`
   \   00001E   ....         DW `?<Constant "EN">`
   \   000020   ....         DW ??AT_Cmd_EN?relay
   \   000022   ....         DW `?<Constant "Establish Network EN:...">`
   \   000024   ....         DW `?<Constant "N">`
   \   000026   ....         DW ??AT_Cmd_N?relay
   \   000028   ....         DW `?<Constant "Display Network Infor...">`
   \   00002A   ....         DW `?<Constant "DASSL">`
   \   00002C   ....         DW ??AT_Cmd_DASSL?relay
   \   00002E   ....         DW `?<Constant "Disassociate Local De...">`
   \   000030   ....         DW `?<Constant "DASSR">`
   \   000032   ....         DW ??AT_Cmd_DASSR?relay
   \   000034   ....         DW `?<Constant "Disassociate Remote N...">`
   \   000036   ....         DW `?<Constant "ESCAN">`
   \   000038   ....         DW ??AT_Cmd_ESCAN?relay
   \   00003A   ....         DW `?<Constant "Scan The Energy Of Al...">`
   \   00003C   ....         DW `?<Constant "PANSCAN">`
   \   00003E   ....         DW ??AT_Cmd_PANSCAN?relay
   \   000040   ....         DW `?<Constant "Scan For Active PANs">`
   \   000042   ....         DW `?<Constant "PJOIN">`
   \   000044   ....         DW ??AT_Cmd_PJOIN?relay
   \   000046   ....         DW `?<Constant "Permit joining cmmman...">`
   \   000048   ....         DW `?<Constant "JPAN">`
   \   00004A   ....         DW ??AT_Cmd_JPAN?relay
   \   00004C   ....         DW `?<Constant "Join Specific JPAN:[<...">`
   \   00004E   ....         DW `?<Constant "JN">`
   \   000050   ....         DW ??AT_Cmd_JN?relay
   \   000052   ....         DW `?<Constant "Join Network">`
   \   000054   ....         DW `?<Constant "NTABLE">`
   \   000056   ....         DW ??AT_Cmd_NTABLE?relay
   \   000058   ....         DW `?<Constant "Display Neighbour Tab...">`
   \   00005A   ....         DW `?<Constant "RTABLE">`
   \   00005C   ....         DW ??AT_Cmd_RTABLE?relay
   \   00005E   ....         DW `?<Constant "Display Routing Table...">`
   \   000060   ....         DW `?<Constant "IDREQ">`
   \   000062   ....         DW ??AT_Cmd_IDREQ?relay
   \   000064   ....         DW `?<Constant "Request network addre...">`
   \   000066   ....         DW `?<Constant "EUIREQ">`
   \   000068   ....         DW ??AT_Cmd_EUIREQ?relay
   \   00006A   ....         DW `?<Constant "Request Node\\'s EUI64 ...">`
   \   00006C   ....         DW `?<Constant "NODEDESC">`
   \   00006E   ....         DW ??AT_Cmd_NODEDESC?relay
   \   000070   ....         DW `?<Constant "Request Node\\'s Descri...">`
   \   000072   ....         DW `?<Constant "POWERDESC">`
   \   000074   ....         DW ??AT_Cmd_POWERDESC?relay
   \   000076   ....         DW `?<Constant "Request Node\\'s Power ...">`
   \   000078   ....         DW `?<Constant "ACTEPDESC">`
   \   00007A   ....         DW ??AT_Cmd_ACTEPDESC?relay
   \   00007C   ....         DW `?<Constant "Request Node\\'s Active...">`
   \   00007E   ....         DW `?<Constant "SIMPLEDESC">`
   \   000080   ....         DW ??AT_Cmd_SIMPLEDESC?relay
   \   000082   ....         DW `?<Constant "Request Endpoint\\'s Si...">`
   \   000084   ....         DW `?<Constant "MATCHREQ">`
   \   000086   ....         DW ??AT_Cmd_MATCHREQ?relay
   \   000088   ....         DW `?<Constant "Find Nodes which Matc...">`
   \   00008A   ....         DW `?<Constant "ANNCE">`
   \   00008C   ....         DW ??AT_Cmd_ANNCE?relay
   \   00008E   ....         DW `?<Constant "Announce Local Device...">`
   \   000090   ....         DW `?<Constant "ATABLE">`
   \   000092   ....         DW ??AT_Cmd_ATABLE?relay
   \   000094   ....         DW `?<Constant "Display Address Table">`
   \   000096   ....         DW `?<Constant "LBTABLE">`
   \   000098   ....         DW ??AT_Cmd_LBTABLE?relay
   \   00009A   ....         DW `?<Constant "Display Local Binding...">`
   \   00009C   ....         DW `?<Constant "BSET">`
   \   00009E   ....         DW ??AT_Cmd_BSET?relay
   \   0000A0   ....         DW `?<Constant "Set local Binding Tab...">`
   \   0000A2   ....         DW `?<Constant "BCLR">`
   \   0000A4   ....         DW ??AT_Cmd_BCLR?relay
   \   0000A6   ....         DW `?<Constant "Clear local Binding T...">`
   \   0000A8   ....         DW `?<Constant "BTABLE">`
   \   0000AA   ....         DW ??AT_Cmd_BTABLE?relay
   \   0000AC   ....         DW `?<Constant "Display Binding Table...">`
   \   0000AE   ....         DW `?<Constant "BIND">`
   \   0000B0   ....         DW ??AT_Cmd_BIND?relay
   \   0000B2   ....         DW `?<Constant "Create Binding on Rem...">`
   \   0000B4   ....         DW `?<Constant "UNBIND">`
   \   0000B6   ....         DW ??AT_Cmd_UNBIND?relay
   \   0000B8   ....         DW `?<Constant "Delete Binding on Rem...">`
   \   0000BA   ....         DW `?<Constant "EBIND">`
   \   0000BC   ....         DW ??AT_Cmd_EBIND?relay
   \   0000BE   ....         DW `?<Constant "End Device Bind EBIND...">`
   \   0000C0   ....         DW `?<Constant "CLEARBIND">`
   \   0000C2   ....         DW ??AT_Cmd_CLEARBIND?relay
   \   0000C4   ....         DW `?<Constant "Clear Local Binding T...">`
   \   0000C6   ....         DW `?<Constant "READATR">`
   \   0000C8   ....         DW ??AT_Cmd_READATR?relay
   \   0000CA   ....         DW `?<Constant "READATR:<Address>,<EP...">`
   \   0000CC   ....         DW `?<Constant "WRITEATR">`
   \   0000CE   ....         DW ??AT_Cmd_WRITEATR?relay
   \   0000D0   ....         DW `?<Constant "WRITEATR:<Address>,<E...">`
   \   0000D2   ....         DW `?<Constant "DISCOVER">`
   \   0000D4   ....         DW ??AT_Cmd_DISCOVER?relay
   \   0000D6   ....         DW `?<Constant "Discover HA Devices O...">`
   \   0000D8   ....         DW `?<Constant "CLUSDISC">`
   \   0000DA   ....         DW ??AT_Cmd_CLUSDISC?relay
   \   0000DC   ....         DW `?<Constant "Discover All Supporte...">`
   \   0000DE   ....         DW `?<Constant "ATTRDISC">`
   \   0000E0   ....         DW ??AT_Cmd_ATTRDISC?relay
   \   0000E2   ....         DW `?<Constant "Find Supported Attrib...">`
   \   0000E4   ....         DW `?<Constant "IDENTIFY">`
   \   0000E6   ....         DW ??AT_Cmd_IDENTIFY?relay
   \   0000E8   ....         DW `?<Constant "Identify Claster IDEN...">`
   \   0000EA   ....         DW `?<Constant "IDQUERY">`
   \   0000EC   ....         DW ??AT_Cmd_IDQUERY?relay
   \   0000EE   ....         DW `?<Constant "Query If Target Devic...">`
   \   0000F0   ....         DW `?<Constant "RONOFF">`
   \   0000F2   ....         DW ??AT_Cmd_RONOFF?relay
   \   0000F4   ....         DW `?<Constant "RONOFF:[<Address>],<E...">`
   \   0000F6   ....         DW `?<Constant "READNV">`
   \   0000F8   ....         DW ??AT_Cmd_READNV?relay
   \   0000FA   ....         DW `?<Constant "Read NV READNV:<ID>,<...">`
   \   0000FC   ....         DW `?<Constant "WRITENV">`
   \   0000FE   ....         DW ??AT_Cmd_WRITENV?relay
   \   000100   ....         DW `?<Constant "WRITE NV WRITENV:<ID>...">`
   \   000102   ....         DW `?<Constant "INITNV">`
   \   000104   ....         DW ??AT_Cmd_INITNV?relay
   \   000106   ....         DW `?<Constant "Initialize NV INITNV:...">`
   \   000108   ....         DW `?<Constant "STP">`
   \   00010A   ....         DW ??AT_Cmd_STP?relay
   \   00010C   ....         DW `?<Constant "Set Transmit Power ST...">`
   \   00010E   ....         DW `?<Constant "GTP">`
   \   000110   ....         DW ??AT_Cmd_GTP?relay
   \   000112   ....         DW `?<Constant "Get Transmit Power">`
   \   000114   ....         DW `?<Constant "RSSIREQ">`
   \   000116   ....         DW ??AT_Cmd_RSSIREQ?relay
   \   000118   ....         DW `?<Constant "RSSI request RSSIREQ:...">`
   \   00011A   ....         DW `?<Constant "PSEXP">`
   \   00011C   ....         DW ??AT_Cmd_PSEXP?relay
   \   00011E   ....         DW `?<Constant "Power Saving Experime...">`
   \   000120   ....         DW `?<Constant "SPSEXP">`
   \   000122   ....         DW ??AT_Cmd_SPSEXP?relay
   \   000124   ....         DW `?<Constant "Stop Power Saving Exp...">`
   \   000126   ....         DW `?<Constant "R">`
   \   000128   ....         DW ??AT_Cmd_R?relay
   \   00012A   ....         DW `?<Constant "execute command on re...">`
   \   00012C   ....         DW `?<Constant "HELP">`
   \   00012E   ....         DW ??AT_Cmd_HELP?relay
   \   000130   ....         DW `?<Constant "all the AT commands:">`
   \   000132   ....         DW `?<Constant "RONOFF1">`
   \   000134   ....         DW ??AT_Cmd_RONOFF1?relay
   \   000136   ....         DW `?<Constant "RONOFF1:<Address>,<EP...">`
   \   000138   ....         DW `?<Constant "ESCAN1">`
   \   00013A   ....         DW ??AT_Cmd_ESCAN1?relay
   \   00013C   ....         DW `?<Constant "Scan The Energy Of Al...">`
   \   00013E   ....         DW `?<Constant "TEST">`
   \   000140   ....         DW ??AT_Cmd_TEST?relay
   \   000142   ....         DW `?<Constant "JUST for test and dev...">`
     40          #if AT_ENABLE_PASSWORDS_MODE
     41            {"DISABLE", AT_Cmd_DISABLE, "Disable the AT command"},
     42            {"ENABLE",  AT_Cmd_ENABLE,  "Enable the AT command AT+ENABLE:<password>"},
     43          #endif
     44            {"EPENABLE",AT_Cmd_EPENABLE,"Enable/Disable Local Endpoint EPENABLE:<Enable/Disable>,<EP>"},
     45            {"REPENABLE",AT_Cmd_REPENABLE,"Enable/Disable Remote Endpoint EPENABLE:[<nodeID>],<Enable/Disable>,<EP>"},
     46            {"EPPRINT" ,AT_Cmd_EPPRINT, "Print Local Endpoints Status"},
     47            {"REPPRINT",AT_Cmd_REPPRINT,"Print Remote Endpoints Status REPPRIN:<noteID>"},
     48            {"LONOFF",  AT_Cmd_LONOFF,  "Switch Local Device On/Off LONOFF:[ON/OFF]"},
     49            {"EN" ,     AT_Cmd_EN,      "Establish Network EN:[<channel>],[<POWER>],[<PANID>]"},
     50            {"N",       AT_Cmd_N,       "Display Network Information"},
     51            {"DASSL",   AT_Cmd_DASSL,   "Disassociate Local Device From PAN cmmmand"},
     52            {"DASSR",   AT_Cmd_DASSR,   "Disassociate Remote Node from PAN AT+DASSR:<address>"},
     53            {"ESCAN",   AT_Cmd_ESCAN,   "Scan The Energy Of All Channels"},
     54            {"PANSCAN", AT_Cmd_PANSCAN, "Scan For Active PANs"},
     55            {"PJOIN",   AT_Cmd_PJOIN,   "Permit joining cmmmand PJOIN:<sec>"},
     56            {"JPAN",    AT_Cmd_JPAN,    "Join Specific JPAN:[<channel>],[<PANID>],[<EPANID>]"},
     57            {"JN",      AT_Cmd_JN,      "Join Network"},
     58            {"NTABLE",  AT_Cmd_NTABLE,  "Display Neighbour Table NTABLE:XX,<address>"},
     59            {"RTABLE",  AT_Cmd_RTABLE,  "Display Routing Table   RTABLE:XX,<address>"},
     60            {"IDREQ",   AT_Cmd_IDREQ,   "Request network address (nodeID) IDREQ:[<Address>][,XX]"},
     61            {"EUIREQ",  AT_Cmd_EUIREQ,  "Request Node's EUI64 EUIREQ:[< Address>,<NodeID>][,XX]"},
     62            {"NODEDESC",AT_Cmd_NODEDESC,"Request Node's Descriptor NODEDESC:<Address>,<NodeID>"},
     63            {"POWERDESC",AT_Cmd_POWERDESC,"Request Node's Power Descriptor POWERDESC:<Address>,<NodeID>"},
     64            {"ACTEPDESC",AT_Cmd_ACTEPDESC,"Request Node's Active Endpoint List ACTEPDESC:<Address>,<NodeID>"},
     65            {"SIMPLEDESC",AT_Cmd_SIMPLEDESC,"Request Endpoint's Simple Descriptor SIMPLEDESC:<Address>,<NodeID>,<XX>"},
     66            {"MATCHREQ",AT_Cmd_MATCHREQ,"Find Nodes which Match a Specific Descriptor MATCHREQ:<ProfileID>,<NumInClusters>[,<InClusterList>],<NumOutClusters>[,<OutClusterList>]"},
     67            {"ANNCE",   AT_Cmd_ANNCE,   "Announce Local Device In The Network"},
     68            {"ATABLE",  AT_Cmd_ATABLE,  "Display Address Table"},
     69            {"LBTABLE", AT_Cmd_LBTABLE, "Display Local Binding Table"},
     70            {"BSET",    AT_Cmd_BSET,    "Set local Binding Table Entry BSET:<type>,<LocalEP>,<ClusterID>,<DstAddress>[,<DstEP>]"},
     71            {"BCLR",    AT_Cmd_BCLR,    "Clear local Binding Table Entry BCLR:XX[,<ClusterID>]"},
     72            {"BTABLE",  AT_Cmd_BTABLE,  "Display Binding Table BTABLE:XX,<address>"},
     73            {"BIND",    AT_Cmd_BIND,    "Create Binding on Remote Device BIND:[<address>],[<SrcAddress>],<SrcEP>,<ClusterID>,[<DstAddress>][,<DstEP>]"},
     74            {"UNBIND",  AT_Cmd_UNBIND,  "Delete Binding on Remote Device UNBIND:[<address>],[<SrcAddress>],<SrcEP>,<ClusterID>,[<DstAddress>][,<DstEP>]"},
     75            {"EBIND",   AT_Cmd_EBIND,    "End Device Bind EBIND:<EP>"},
     76            {"CLEARBIND",AT_Cmd_CLEARBIND,"Clear Local Binding Table"},
     77            {"READATR", AT_Cmd_READATR, "READATR:<Address>,<EP>,[<SendMode>],<ClusterID>,<AttrID>,...,< AttrID >"},
     78            {"WRITEATR",AT_Cmd_WRITEATR,"WRITEATR:<Address>,<EP>,[<SendMode>],<ClusterID>,<AttrID>,<DataType>,<Data>"},
     79            {"DISCOVER",AT_Cmd_DISCOVER,"Discover HA Devices On The HAN DISCOVER:<Cluster ID>[,<option>]"},
     80            {"CLUSDISC",AT_Cmd_CLUSDISC,"Discover All Supported Clusters on A Remote Device CLUSDISC:[<Node ID>],<EndPoint>"},
     81            {"ATTRDISC",AT_Cmd_ATTRDISC,"Find Supported Attributs On A Remote Device End Poin ATTRDISC:[<NodeID>],<EP>,<ClusterID>,<AttributeID>,<MaxNumofAttr>"},
     82            {"IDENTIFY",AT_Cmd_IDENTIFY,"Identify Claster IDENTIFY:[<Address>],<EP>,[<SendMode>],<Time>"},
     83            {"IDQUERY", AT_Cmd_IDQUERY, "Query If Target Device(s) In Identifying Mode IDQUERY:[<Address>],<EP>,[<SendMode>]"},
     84            {"RONOFF",  AT_Cmd_RONOFF,  "RONOFF:[<Address>],<EP>,[<SendMode>][,<ON/OFF>]"},
     85            {"READNV",  AT_Cmd_READNV,  "Read NV READNV:<ID>,<offset>,<lenth>"},
     86            {"WRITENV", AT_Cmd_WRITENV, "WRITE NV WRITENV:<ID>,<offset>,<hex>"},
     87            {"INITNV",  AT_Cmd_INITNV,  "Initialize NV INITNV:<ID>,<lenth>"},
     88            {"STP",     AT_Cmd_STP,     "Set Transmit Power STP:<power level> "},
     89            {"GTP",     AT_Cmd_GTP,     "Get Transmit Power"},
     90            {"RSSIREQ", AT_Cmd_RSSIREQ, "RSSI request RSSIREQ:<address>"},
     91            {"PSEXP",   AT_Cmd_PSEXP,   "Power Saving Experiment PSEXP:<address>,<count>,<interval>"},
     92            {"SPSEXP",  AT_Cmd_SPSEXP,  "Stop Power Saving Experiment"},
     93            {"R",       AT_Cmd_R,       "execute command on remote device R:<nodeID>[,SendMode]|<AT command>"},
     94            {"HELP",    AT_Cmd_HELP,    "all the AT commands:"}, 
     95            {"RONOFF1", AT_Cmd_RONOFF1, "RONOFF1:<Address>,<EP>,[<SendMode>][,<ON/OFF>]"},
     96            {"ESCAN1",   AT_Cmd_ESCAN1,   "Scan The Energy Of All Channels"},
     97            {"TEST",    AT_Cmd_TEST,    "JUST for test and development"}
     98          };
     99            

   \                                 In  segment XDATA_ROM_C, align 1
    100          const AT_smap_unit_t AT_smap[] = {
   \                     AT_smap:
   \   000000   00           DB 0
   \   000001   80           DB 128
   \   000002   FF           DB 255
   \   000003   04           DB 4
   \   000004   03           DB 3
   \   000005   00           DB 0
   \   000006   01           DB 1
   \   000007   03           DB 3
   \   000008   01           DB 1
   \   000009   02           DB 2
   \   00000A   03           DB 3
   \   00000B   02           DB 2
   \   00000C   08           DB 8
   \   00000D   03           DB 3
   \   00000E   03           DB 3
   \   00000F   08           DB 8
   \   000010   02           DB 2
   \   000011   04           DB 4
   \   000012   02           DB 2
   \   000013   02           DB 2
   \   000014   05           DB 5
   \   000015   08           DB 8
   \   000016   02           DB 2
   \   000017   06           DB 6
   \   000018   02           DB 2
   \   000019   02           DB 2
   \   00001A   07           DB 7
   \   00001B   10           DB 16
   \   00001C   81           DB 129
   \   00001D   08           DB 8
   \   00001E   10           DB 16
   \   00001F   81           DB 129
   \   000020   09           DB 9
   \   000021   02           DB 2
   \   000022   83           DB 131
   \   000023   0A           DB 10
   \   000024   08           DB 8
   \   000025   83           DB 131
   \   000026   0B           DB 11
   \   000027   08           DB 8
   \   000028   81           DB 129
   \   000029   0C           DB 12
   \   00002A   00           DB 0
   \   00002B   02           DB 2
   \   00002C   0D           DB 13
   \   00002D   00           DB 0
   \   00002E   03           DB 3
   \   00002F   12           DB 18
   \   000030   00           DB 0
   \   000031   03           DB 3
   \   000032   60           DB 96
   \   000033   00           DB 0
   \   000034   03           DB 3
   \   000035   62           DB 98
   \   000036   00           DB 0
   \   000037   03           DB 3
   \   000038   63           DB 99
    101            {0,AT_SMAP_PROTECTED, AT_S_NULL_ID},
    102            {4,AT_SMAP_READ|AT_SMAP_WRITTEN , AT_S_CHANNEL_MASK_ID},
    103            {1,AT_SMAP_READ|AT_SMAP_WRITTEN , AT_S_TRANSMIT_POWER_ID},
    104            {2,AT_SMAP_READ|AT_SMAP_WRITTEN , AT_S_PREFERRED_PANID_ID},
    105            {8,AT_SMAP_READ|AT_SMAP_WRITTEN , AT_S_PREFERRED_EXT_PANID_ID},
    106            {8,AT_SMAP_READ , AT_S_LOCAL_EUI_ID},
    107            {2,AT_SMAP_READ , AT_S_LOCAL_NODEID_ID},
    108            {8,AT_SMAP_READ , AT_S_PARENT_EUI_ID},
    109            {2,AT_SMAP_READ , AT_S_PARENT_NODEID_ID},
    110            {16,AT_SMAP_WRITTEN|AT_SMAP_PROTECTED , AT_S_NET_KEY_ID},
    111            {16,AT_SMAP_WRITTEN|AT_SMAP_PROTECTED , AT_S_LINK_KEY_ID},
    112            {2,AT_SMAP_READ|AT_SMAP_WRITTEN|AT_SMAP_PROTECTED , AT_S_MAIN_FUN_ID},
    113            {8,AT_SMAP_READ|AT_SMAP_WRITTEN|AT_SMAP_PROTECTED , AT_S_USER_NAME_ID},
    114            {8,AT_SMAP_WRITTEN|AT_SMAP_PROTECTED  , AT_S_PASSWORD_ID},
    115            {0,AT_SMAP_READ , AT_S_DEVICE_INF_ID},
    116            {0,AT_SMAP_READ|AT_SMAP_WRITTEN , AT_S_UART_SETUP_ID},
    117            {0,AT_SMAP_READ|AT_SMAP_WRITTEN , AT_S_MANUFACTURE_CODE_ID},
    118            {0,AT_SMAP_READ|AT_SMAP_WRITTEN , AT_S_PMW_PRESCALER_VAL_ID},
    119            {0,AT_SMAP_READ|AT_SMAP_WRITTEN , AT_S_BUTTON_FUN_ID}
    120          };
    121          
    122          /*********************************************************************
    123           * LOCAL FUNCTIONS
    124           *******************************************************************/
    125          static int8 AT_CmpCmd(AT_CmdUnit* cmdUnit,uint8* str2);
    126          static uint8 AT_get_next_cmdUnit(AT_CmdUnit* cmdUnit,uint8 start_point, uint8* msg);
    127          static uint8 getAT_CMDlength(uint8 *msg);
    128          static uint8 AT_strLen(char * str);
    129          static uint8 AT_get_smap_index(uint8 S_ID);
    130          static uint8 AT_display_pre_cmd(void);
    131          
    132          

   \                                 In  segment BANKED_CODE, align 1, keep-with-next
    133          uint8 AT_UartInit( uint8 taskID )
   \                     AT_UartInit:
    134          {
   \   000000   74F7         MOV     A,#-0x9
   \   000002   12....       LCALL   ?BANKED_ENTER_XDATA
   \   000005                ; Saved register size: 9
   \   000005                ; Auto size: 29
   \   000005   74E3         MOV     A,#-0x1d
   \   000007   12....       LCALL   ?ALLOC_XSTACK8
   \   00000A   E9           MOV     A,R1
   \   00000B   FE           MOV     R6,A
    135            halUARTCfg_t uartConfig;
    136          
    137            AT_Uart_TaskID = 0;
    138          
    139            /* UART Configuration */
    140            uartConfig.configured           = TRUE;
   \   00000C   85..82       MOV     DPL,?XSP + 0
   \   00000F   85..83       MOV     DPH,?XSP + 1
   \   000012   7401         MOV     A,#0x1
   \   000014   F0           MOVX    @DPTR,A
    141            uartConfig.baudRate             = AT_UART_BR;
   \   000015   12....       LCALL   ?XSTACK_DISP0_8
   \   000018   7404         MOV     A,#0x4
   \   00001A   F0           MOVX    @DPTR,A
    142            uartConfig.flowControl          = FALSE;
   \   00001B   7402         MOV     A,#0x2
   \   00001D   12....       LCALL   ?XSTACK_DISP0_8
   \   000020   E4           CLR     A
   \   000021   F0           MOVX    @DPTR,A
    143            uartConfig.flowControlThreshold = MT_UART_THRESHOLD;
   \   000022   7403         MOV     A,#0x3
   \   000024   12....       LCALL   ?XSTACK_DISP0_8
   \   000027   7440         MOV     A,#0x40
   \   000029   12....       LCALL   ??Subroutine210_0 & 0xFFFF
    144            uartConfig.rx.maxBufSize        = AT_UART_RX_BUFF_MAX;
   \                     ??CrossCallReturnLabel_535:
   \   00002C   740A         MOV     A,#0xa
   \   00002E   12....       LCALL   ?XSTACK_DISP0_8
   \   000031   12....       LCALL   ?Subroutine28 & 0xFFFF
    145            uartConfig.tx.maxBufSize        = AT_UART_TX_BUFF_MAX;
   \                     ??CrossCallReturnLabel_538:
   \   000034   7412         MOV     A,#0x12
   \   000036   12....       LCALL   ?XSTACK_DISP0_8
   \   000039   12....       LCALL   ?Subroutine28 & 0xFFFF
    146            uartConfig.idleTimeout          = MT_UART_IDLE_TIMEOUT;
   \                     ??CrossCallReturnLabel_539:
   \   00003C   7405         MOV     A,#0x5
   \   00003E   12....       LCALL   ?XSTACK_DISP0_8
   \   000041   7406         MOV     A,#0x6
   \   000043   F0           MOVX    @DPTR,A
    147            uartConfig.intEnable            = TRUE;
   \   000044   7416         MOV     A,#0x16
   \   000046   12....       LCALL   ?XSTACK_DISP0_8
   \   000049   7401         MOV     A,#0x1
   \   00004B   F0           MOVX    @DPTR,A
    148            uartConfig.callBackFunc         = AT_UartProcess;
   \   00004C   741B         MOV     A,#0x1b
   \   00004E   12....       LCALL   ?XSTACK_DISP0_8
   \   000051   74..         MOV     A,#??AT_UartProcess?relay & 0xff
   \   000053   F0           MOVX    @DPTR,A
   \   000054   A3           INC     DPTR
   \   000055   74..         MOV     A,#(??AT_UartProcess?relay >> 8) & 0xff
   \   000057   F0           MOVX    @DPTR,A
    149            
    150            AT_Uart_TaskID = taskID;
   \   000058   EE           MOV     A,R6
   \   000059   90....       MOV     DPTR,#AT_Uart_TaskID
   \   00005C   F0           MOVX    @DPTR,A
    151            AT_RxBuffer[0]='\r';          //label the buffer's initial status
   \   00005D   90....       MOV     DPTR,#AT_RxBuffer
   \   000060   740D         MOV     A,#0xd
   \   000062   12....       LCALL   ?Subroutine25 & 0xFFFF
    152            return HalUARTOpen ( AT_UART_PORT, &uartConfig);
   \                     ??CrossCallReturnLabel_15:
   \   000065   7900         MOV     R1,#0x0
   \   000067   12....       LCALL   ??HalUARTOpen?relay
   \   00006A   741D         MOV     A,#0x1d
   \   00006C   02....       LJMP    ??Subroutine172_0 & 0xFFFF
    153          }

   \                                 In  segment BANKED_CODE, align 1, keep-with-next
   \                     ??Subroutine172_0:
   \   000000   12....       LCALL   ?DEALLOC_XSTACK8
   \   000003                REQUIRE ??Subroutine173_0
   \   000003                ; // Fall through to label ??Subroutine173_0

   \                                 In  segment BANKED_CODE, align 1, keep-with-next
   \                     ??Subroutine173_0:
   \   000000   7F01         MOV     R7,#0x1
   \   000002   02....       LJMP    ?BANKED_LEAVE_XDATA

   \                                 In  segment BANKED_CODE, align 1, keep-with-next
   \                     ?Subroutine25:
   \   000000   12....       LCALL   ?Subroutine134 & 0xFFFF
   \                     ??CrossCallReturnLabel_259:
   \   000003   AA82         MOV     R2,DPL
   \   000005   AB83         MOV     R3,DPH
   \   000007   22           RET

   \                                 In  segment BANKED_CODE, align 1, keep-with-next
   \                     ?Subroutine134:
   \   000000   F0           MOVX    @DPTR,A
   \   000001                ; Setup parameters for call to function HalUARTOpen
   \   000001                ; Setup parameters for call to function NLME_NwkDiscReq2
   \   000001                ; Setup parameters for call to function AT_AF_Cmd_send_simple_
   \   000001                ; Setup parameters for call to function AT_AF_Cmd_send_simple_
   \   000001   85..82       MOV     DPL,?XSP + 0
   \   000004   85..83       MOV     DPH,?XSP + 1
   \   000007   22           RET

   \                                 In  segment BANKED_CODE, align 1, keep-with-next
   \                     ?Subroutine28:
   \   000000   7480         MOV     A,#-0x80
   \   000002                REQUIRE ??Subroutine210_0
   \   000002                ; // Fall through to label ??Subroutine210_0

   \                                 In  segment BANKED_CODE, align 1, keep-with-next
   \                     ??Subroutine210_0:
   \   000000   F0           MOVX    @DPTR,A
   \   000001   A3           INC     DPTR
   \   000002   E4           CLR     A
   \   000003   F0           MOVX    @DPTR,A
   \   000004   22           RET
    154          
    155          
    156          
    157          /***************************************************************************************************
    158           *
    159           * @brief   | Head  |   Data   |  End  |   FCS  |
    160           *          |   2   |  0-Len   |   1   |    1   |
    161           *          |   AT  |    ?     |  <CR> | verify |
    162           *
    163           *          Parses the data and determine either is SPI or just simply serial data
    164           *          then send the data to correct place (MT or APP)
    165           *
    166           * @param   port     - UART port
    167           *          event    - Event that causes the callback
    168           *
    169           *
    170           * @return  None
    171           ***************************************************************************************************/

   \                                 In  segment BANKED_CODE, align 1, keep-with-next
    172          void AT_UartProcess( uint8 port, uint8 event ){
   \                     AT_UartProcess:
   \   000000   74F6         MOV     A,#-0xa
   \   000002   12....       LCALL   ?BANKED_ENTER_XDATA
   \   000005                ; Saved register size: 10
   \   000005                ; Auto size: 1
   \   000005   74FF         MOV     A,#-0x1
   \   000007   12....       LCALL   ?ALLOC_XSTACK8
   \   00000A   E9           MOV     A,R1
   \   00000B   FE           MOV     R6,A
    173            uint8 ch;
    174            (void) event;
   \   00000C   02....       LJMP    ??AT_UartProcess_0 & 0xFFFF
    175          #if AT_ENABLE_PASSWORDS_MODE
    176            uint8 start_point=0;
    177            AT_CmdUnit cmdUnit;
    178          #endif
    179            while(Hal_UART_RxBufLen( port )){
    180              HalUARTRead(port,&ch,1);   
    181              switch(AT_state){
    182              case AT_HEAD_STATE1:
    183                if(ch =='A' || ch=='a') AT_state = AT_HEAD_STATE2;
    184          #if AT_re_input_key != '\0'
    185                else if(ch==AT_re_input_key){
   \                     ??AT_UartProcess_1:
   \   00000F   E0           MOVX    A,@DPTR
   \   000010   640D         XRL     A,#0xd
   \   000012   6003         JZ      $+5
   \   000014   02....       LJMP    ??AT_UartProcess_0 & 0xFFFF
    186          #if AT_ENABLE_PASSWORDS_MODE
    187                  if(AT_enable)
    188          #endif
    189                  {
    190                    AT_tempLen=AT_display_pre_cmd();
   \   000017   7F00         MOV     R7,#0x0
   \   000019   8001         SJMP    ??AT_UartProcess_2
   \                     ??AT_UartProcess_3:
   \   00001B   0F           INC     R7
   \                     ??AT_UartProcess_2:
   \   00001C   8F..         MOV     ?V0 + 0,R7
   \   00001E   74..         MOV     A,#AT_RxBuffer & 0xff
   \   000020   12....       LCALL   ??Subroutine180_0 & 0xFFFF
   \                     ??CrossCallReturnLabel_326:
   \   000023   74..         MOV     A,#(AT_RxBuffer >> 8) & 0xff
   \   000025   12....       LCALL   ??Subroutine178_0 & 0xFFFF
   \                     ??CrossCallReturnLabel_320:
   \   000028   640D         XRL     A,#0xd
   \   00002A   70EF         JNZ     ??AT_UartProcess_3
   \   00002C                ; Setup parameters for call to function AT_HalUARTWrite
   \   00002C   7C02         MOV     R4,#0x2
   \   00002E   7D00         MOV     R5,#0x0
   \   000030   7A..         MOV     R2,#`?<Constant "AT">` & 0xff
   \   000032   7B..         MOV     R3,#(`?<Constant "AT">` >> 8) & 0xff
   \   000034   7900         MOV     R1,#0x0
   \   000036   12....       LCALL   ??AT_HalUARTWrite?relay
   \   000039                ; Setup parameters for call to function AT_HalUARTWrite
   \   000039   AC..         MOV     R4,?V0 + 0
   \   00003B   7D00         MOV     R5,#0x0
   \   00003D   7A..         MOV     R2,#AT_RxBuffer & 0xff
   \   00003F   7B..         MOV     R3,#(AT_RxBuffer >> 8) & 0xff
   \   000041   7900         MOV     R1,#0x0
   \   000043   12....       LCALL   ??AT_HalUARTWrite?relay
   \   000046   EF           MOV     A,R7
   \   000047   90....       MOV     DPTR,#AT_tempLen
   \   00004A   F0           MOVX    @DPTR,A
    191                    AT_state = AT_DATA_STATE;
   \                     ??AT_UartProcess_4:
   \   00004B   90....       MOV     DPTR,#AT_state
   \   00004E   7402         MOV     A,#0x2
   \   000050   8053         SJMP    ??AT_UartProcess_5
    192                  }
    193                }
    194          #endif
    195                AT_UART_ECHO();    //very important for cc2530, cause this can avoid uart to die in very harsh envionment.
    196                break;
    197                
    198                
    199              case AT_HEAD_STATE2:
    200                if(ch =='T' || ch=='t') AT_state = AT_DATA_STATE;
   \                     ??AT_UartProcess_6:
   \   000052   85..82       MOV     DPL,?XSP + 0
   \   000055   85..83       MOV     DPH,?XSP + 1
   \   000058   E0           MOVX    A,@DPTR
   \   000059   6454         XRL     A,#0x54
   \   00005B   60EE         JZ      ??AT_UartProcess_4
   \   00005D   E0           MOVX    A,@DPTR
   \   00005E   6474         XRL     A,#0x74
   \   000060   60E9         JZ      ??AT_UartProcess_4
    201                   else if(ch =='A' || ch=='a') AT_state = AT_HEAD_STATE2;
   \   000062   E0           MOVX    A,@DPTR
   \   000063   6441         XRL     A,#0x41
   \   000065   607F         JZ      ??AT_UartProcess_7
   \   000067   E0           MOVX    A,@DPTR
   \   000068   6461         XRL     A,#0x61
   \   00006A   607A         JZ      ??AT_UartProcess_7
    202                   else AT_state = AT_HEAD_STATE1;  
   \   00006C   8033         SJMP    ??AT_UartProcess_8
    203                AT_UART_ECHO();     //very important for cc2530, cause this can avoid uart to die in very harsh envionment.
    204                break;
    205                
    206                
    207              case AT_DATA_STATE:
    208                if(ch=='\b'||ch=='\x7f'){         //for backspace function, allow user to delete characters
   \                     ??AT_UartProcess_9:
   \   00006E   85..82       MOV     DPL,?XSP + 0
   \   000071   85..83       MOV     DPH,?XSP + 1
   \   000074   E0           MOVX    A,@DPTR
   \   000075   6408         XRL     A,#0x8
   \   000077   6005         JZ      ??AT_UartProcess_10
   \   000079   E0           MOVX    A,@DPTR
   \   00007A   647F         XRL     A,#0x7f
   \   00007C   7009         JNZ     ??AT_UartProcess_11
    209                  if(AT_tempLen>0) AT_tempLen--;
   \                     ??AT_UartProcess_10:
   \   00007E   90....       MOV     DPTR,#AT_tempLen
   \   000081   E0           MOVX    A,@DPTR
   \   000082   6062         JZ      ??AT_UartProcess_7
   \   000084   14           DEC     A
   \   000085   801E         SJMP    ??AT_UartProcess_5
    210                    else AT_state = AT_HEAD_STATE2;
    211                }
    212                else if(ch =='\r'){       //means end signal <CR>
   \                     ??AT_UartProcess_11:
   \   000087   E0           MOVX    A,@DPTR
   \   000088   640D         XRL     A,#0xd
   \   00008A   90....       MOV     DPTR,#AT_tempLen
   \   00008D   705E         JNZ     ??AT_UartProcess_12
    213                  AT_RxBuffer[AT_tempLen++]='\r';
   \   00008F   12....       LCALL   ?Subroutine45 & 0xFFFF
   \                     ??CrossCallReturnLabel_52:
   \   000092   740D         MOV     A,#0xd
   \   000094   F0           MOVX    @DPTR,A
    214          #if AT_ENABLE_PASSWORDS_MODE
    215                  if (AT_enable){
    216          #endif
    217                    
    218          #if AT_FCS_VERIFY
    219                    AT_state = AT_FCS_STATE ;
    220          #else
    221                    goto LABEL1;
    222          #endif
    223          #if AT_ENABLE_PASSWORDS_MODE
    224                  }else{
    225                    start_point=AT_get_next_cmdUnit(&cmdUnit,start_point, AT_RxBuffer);
    226                    AT_capitalizeCmd(&cmdUnit);
    227                    if(cmdUnit.symbol=='+' && AT_CmpCmd(&cmdUnit,"ENABLE")==0){
    228                      start_point=AT_get_next_cmdUnit(&cmdUnit,start_point, AT_RxBuffer);
    229                      if(cmdUnit.symbol==':' && AT_CmpCmd(&cmdUnit,(uint8 *)AT_passwords)==0){
    230                        AT_enable=1;
    231                        AT_tempLen=0;
    232                        AT_state = AT_HEAD_STATE1;
    233                        AT_OK();
    234                        return;
    235                      }
    236                    }
    237                    AT_tempLen=0;
    238                    AT_state = AT_HEAD_STATE1;
    239                    
    240                  }
    241          #endif
    242                }
    243                else {
    244                   /* if the buffer is not full, read the data */
    245                  if(AT_tempLen <MT_UART_RX_BUFF_MAX-1) AT_RxBuffer[AT_tempLen++] = ch;
    246                  else{
    247                    
    248                    /*excessive data error. so,clear RXUART buffer , re-start to receive the command*/
    249                    AT_state = AT_HEAD_STATE1;
    250                    AT_tempLen=0;
    251                    while(Hal_UART_RxBufLen(port)){
    252                      HalUARTRead(port,&ch,1);
    253                    }
    254                  }
    255                }
    256                
    257                AT_UART_ECHO();   //very important for cc2530, cause this can avoid uart to die in very harsh envionment.
    258                
    259          
    260                break;
    261              case AT_FCS_STATE:
    262          #if AT_FCS_VERIFY
    263                /* Make sure it's correct. ch is the FCS token*/
    264                if ((AT_UartCalcFCS (AT_RxBuffer, AT_tempLen) == ch)  ){
    265          #else
    266                if (1){
    267          LABEL1:
    268          #endif
    269          #if AT_MSG_SEND_MODE
    270                  pAT_Msg = (atOSALSerialData_t *)osal_msg_allocate( sizeof ( atOSALSerialData_t )+AT_tempLen);//it is a big bug to calculat wrong memory size. it lead all system unstable for only one byte wrong. (It is diffult to debug for such a fault).
    271                  pAT_Msg->hdr.event = AT_CMD_MSG;
    272                  pAT_Msg->msg = (uint8*)(pAT_Msg+1);
    273                  while(AT_tempLen){
    274                    AT_tempLen--;
    275                    pAT_Msg->msg[AT_tempLen] = AT_RxBuffer[AT_tempLen];
    276                  }
    277                  osal_msg_send( AT_Uart_TaskID, (byte *)pAT_Msg );
    278          #else
    279                  AT_tempLen=0;
   \                     ??AT_UartProcess_13:
   \   000095   90....       MOV     DPTR,#AT_tempLen
   \   000098   E4           CLR     A
   \   000099   F0           MOVX    @DPTR,A
    280                  AT_HandleCMD(AT_RxBuffer);
   \   00009A                ; Setup parameters for call to function AT_HandleCMD
   \   00009A   7A..         MOV     R2,#AT_RxBuffer & 0xff
   \   00009C   7B..         MOV     R3,#(AT_RxBuffer >> 8) & 0xff
   \   00009E   12....       LCALL   ??AT_HandleCMD?relay
    281          #endif
    282                }
    283                 else{
    284                   AT_tempLen=0;
    285                   AT_ERROR(AT_FCS_ERROR); //very important for cc2530, cause this can avoid uart to die in very harsh envionment.
    286                }
    287                /* Reset the state, send or discard the buffers at this point */
    288                AT_state = AT_HEAD_STATE1; 
   \                     ??AT_UartProcess_8:
   \   0000A1   90....       MOV     DPTR,#AT_state
   \   0000A4   E4           CLR     A
   \                     ??AT_UartProcess_5:
   \   0000A5   F0           MOVX    @DPTR,A
    289                break;
   \                     ??AT_UartProcess_0:
   \   0000A6                ; Setup parameters for call to function Hal_UART_RxBufLen
   \   0000A6   12....       LCALL   ?Subroutine88 & 0xFFFF
   \                     ??CrossCallReturnLabel_137:
   \   0000A9   7003         JNZ     $+5
   \   0000AB   02....       LJMP    ??AT_UartProcess_14 & 0xFFFF
   \   0000AE                ; Setup parameters for call to function HalUARTRead
   \   0000AE   7C01         MOV     R4,#0x1
   \   0000B0   7D00         MOV     R5,#0x0
   \   0000B2   85..82       MOV     DPL,?XSP + 0
   \   0000B5   85..83       MOV     DPH,?XSP + 1
   \   0000B8   AA82         MOV     R2,DPL
   \   0000BA   AB83         MOV     R3,DPH
   \   0000BC   EE           MOV     A,R6
   \   0000BD   F9           MOV     R1,A
   \   0000BE   12....       LCALL   ??HalUARTRead?relay
   \   0000C1   90....       MOV     DPTR,#AT_state
   \   0000C4   E0           MOVX    A,@DPTR
   \   0000C5   600C         JZ      ??AT_UartProcess_15
   \   0000C7   14           DEC     A
   \   0000C8   6088         JZ      ??AT_UartProcess_6
   \   0000CA   14           DEC     A
   \   0000CB   60A1         JZ      ??AT_UartProcess_9
   \   0000CD   24FE         ADD     A,#-0x2
   \   0000CF   60C4         JZ      ??AT_UartProcess_13
   \   0000D1   80D3         SJMP    ??AT_UartProcess_0
   \                     ??AT_UartProcess_15:
   \   0000D3   85..82       MOV     DPL,?XSP + 0
   \   0000D6   85..83       MOV     DPH,?XSP + 1
   \   0000D9   E0           MOVX    A,@DPTR
   \   0000DA   6441         XRL     A,#0x41
   \   0000DC   6008         JZ      ??AT_UartProcess_7
   \   0000DE   E0           MOVX    A,@DPTR
   \   0000DF   6461         XRL     A,#0x61
   \   0000E1   6003         JZ      $+5
   \   0000E3   02....       LJMP    ??AT_UartProcess_1 & 0xFFFF
   \                     ??AT_UartProcess_7:
   \   0000E6   90....       MOV     DPTR,#AT_state
   \   0000E9   7401         MOV     A,#0x1
   \   0000EB   80B8         SJMP    ??AT_UartProcess_5
   \                     ??AT_UartProcess_12:
   \   0000ED   E0           MOVX    A,@DPTR
   \   0000EE   C3           CLR     C
   \   0000EF   947F         SUBB    A,#0x7f
   \   0000F1   5019         JNC     ??AT_UartProcess_16
   \   0000F3   85..82       MOV     DPL,?XSP + 0
   \   0000F6   85..83       MOV     DPH,?XSP + 1
   \   0000F9   E0           MOVX    A,@DPTR
   \   0000FA   C0E0         PUSH    A
   \   0000FC   90....       MOV     DPTR,#AT_tempLen
   \   0000FF   12....       LCALL   ?Subroutine45 & 0xFFFF
   \                     ??CrossCallReturnLabel_53:
   \   000102   D0E0         POP     A
   \   000104   F0           MOVX    @DPTR,A
   \   000105   90....       MOV     DPTR,#AT_tempLen
   \   000108   E0           MOVX    A,@DPTR
   \   000109   04           INC     A
   \   00010A   8099         SJMP    ??AT_UartProcess_5
   \                     ??AT_UartProcess_16:
   \   00010C   90....       MOV     DPTR,#AT_state
   \   00010F   E4           CLR     A
   \   000110   F0           MOVX    @DPTR,A
   \   000111   90....       MOV     DPTR,#AT_tempLen
   \   000114   F0           MOVX    @DPTR,A
   \                     ??AT_UartProcess_17:
   \   000115                ; Setup parameters for call to function Hal_UART_RxBufLen
   \   000115   12....       LCALL   ?Subroutine88 & 0xFFFF
   \                     ??CrossCallReturnLabel_138:
   \   000118   608C         JZ      ??AT_UartProcess_0
   \   00011A                ; Setup parameters for call to function HalUARTRead
   \   00011A   7C01         MOV     R4,#0x1
   \   00011C   7D00         MOV     R5,#0x0
   \   00011E   85..82       MOV     DPL,?XSP + 0
   \   000121   85..83       MOV     DPH,?XSP + 1
   \   000124   AA82         MOV     R2,DPL
   \   000126   AB83         MOV     R3,DPH
   \   000128   EE           MOV     A,R6
   \   000129   F9           MOV     R1,A
   \   00012A   12....       LCALL   ??HalUARTRead?relay
   \   00012D   80E6         SJMP    ??AT_UartProcess_17
    290              } 
    291            }
    292          }
   \                     ??AT_UartProcess_14:
   \   00012F   7401         MOV     A,#0x1
   \   000131   02....       LJMP    ?Subroutine1 & 0xFFFF

   \                                 In  segment BANKED_CODE, align 1, keep-with-next
   \                     ?Subroutine88:
   \   000000   EE           MOV     A,R6
   \   000001   F9           MOV     R1,A
   \   000002   12....       LCALL   ??Hal_UART_RxBufLen?relay
   \   000005   8B..         MOV     ?V0 + 1,R3
   \   000007   EA           MOV     A,R2
   \   000008   45..         ORL     A,?V0 + 1
   \   00000A   22           RET

   \                                 In  segment BANKED_CODE, align 1, keep-with-next
   \                     ?Subroutine45:
   \   000000   E0           MOVX    A,@DPTR
   \   000001   F8           MOV     R0,A
   \   000002   74..         MOV     A,#AT_RxBuffer & 0xff
   \   000004   28           ADD     A,R0
   \   000005   F582         MOV     DPL,A
   \   000007   74..         MOV     A,#(AT_RxBuffer >> 8) & 0xff
   \   000009   12....       LCALL   ?Subroutine153 & 0xFFFF
   \                     ??CrossCallReturnLabel_407:
   \   00000C   22           RET

   \                                 In  segment BANKED_CODE, align 1, keep-with-next
   \                     ?Subroutine1:
   \   000000   12....       LCALL   ?DEALLOC_XSTACK8
   \   000003                REQUIRE ??Subroutine175_0
   \   000003                ; // Fall through to label ??Subroutine175_0

   \                                 In  segment BANKED_CODE, align 1, keep-with-next
   \                     ??Subroutine175_0:
   \   000000   7F02         MOV     R7,#0x2
   \   000002   02....       LJMP    ?BANKED_LEAVE_XDATA

   \                                 In  segment BANKED_CODE, align 1, keep-with-next
   \                     ?Subroutine153:
   \   000000   3400         ADDC    A,#0x0
   \   000002   F583         MOV     DPH,A
   \   000004   22           RET
    293          
    294          
    295          
    296          
    297          
    298          

   \                                 In  segment BANKED_CODE, align 1, keep-with-next
    299          byte AT_UartCalcFCS( uint8 *msg_ptr, uint8 len )
   \                     AT_UartCalcFCS:
    300          {
   \   000000   C082         PUSH    DPL
   \   000002   C083         PUSH    DPH
   \   000004                ; Saved register size: 2
   \   000004                ; Auto size: 0
   \   000004   E9           MOV     A,R1
   \   000005   FC           MOV     R4,A
    301            byte x;
    302            byte xorResult;
    303          
    304            xorResult = 0;
   \   000006   7900         MOV     R1,#0x0
    305          
    306            for ( x = 0; x < len; x++, msg_ptr++ )
   \   000008   7800         MOV     R0,#0x0
   \   00000A   800E         SJMP    ??AT_UartCalcFCS_0
    307              xorResult = xorResult ^ *msg_ptr;
   \                     ??AT_UartCalcFCS_1:
   \   00000C   8A82         MOV     DPL,R2
   \   00000E   8B83         MOV     DPH,R3
   \   000010   E0           MOVX    A,@DPTR
   \   000011   C9           XCH     A,R1
   \   000012   69           XRL     A,R1
   \   000013   F9           MOV     R1,A
   \   000014   08           INC     R0
   \   000015   A3           INC     DPTR
   \   000016   AA82         MOV     R2,DPL
   \   000018   AB83         MOV     R3,DPH
   \                     ??AT_UartCalcFCS_0:
   \   00001A   E8           MOV     A,R0
   \   00001B   C3           CLR     C
   \   00001C   9C           SUBB    A,R4
   \   00001D   40ED         JC      ??AT_UartCalcFCS_1
    308          
    309            return ( xorResult );
   \   00001F   02....       LJMP    ?Subroutine2 & 0xFFFF
    310          }

   \                                 In  segment BANKED_CODE, align 1, keep-with-next
   \                     ?Subroutine2:
   \   000000   D083         POP     DPH
   \   000002   D082         POP     DPL
   \   000004   02....       LJMP    ?BRET
    311          

   \                                 In  segment BANKED_CODE, align 1, keep-with-next
    312          void AT_UARTWriteErrMsg(uint8 error_code){
   \                     AT_UARTWriteErrMsg:
   \   000000   74F7         MOV     A,#-0x9
   \   000002   12....       LCALL   ?BANKED_ENTER_XDATA
   \   000005                ; Saved register size: 9
   \   000005                ; Auto size: 13
   \   000005   74F3         MOV     A,#-0xd
   \   000007   12....       LCALL   ?ALLOC_XSTACK8
   \   00000A   E9           MOV     A,R1
   \   00000B   FE           MOV     R6,A
    313            uint8* errMsg1 = "\r\nERROR:xx\r\n";
    314            uint8 errMsg[sizeof("\r\nERROR:xx\r\n")];
    315            uint8 i=0;
   \   00000C   7A00         MOV     R2,#0x0
    316            for(;i<sizeof(errMsg);i++){
    317              errMsg[i] = errMsg1[i];
   \                     ??AT_UARTWriteErrMsg_0:
   \   00000E   8A82         MOV     DPL,R2
   \   000010   A882         MOV     R0,DPL
   \   000012   7900         MOV     R1,#0x0
   \   000014   74..         MOV     A,#`?<Constant "\\r\\nERROR:xx\\r\\n">` & 0xff
   \   000016   28           ADD     A,R0
   \   000017   F582         MOV     DPL,A
   \   000019   74..         MOV     A,#(`?<Constant "\\r\\nERROR:xx\\r\\n">` >> 8) & 0xff
   \   00001B   12....       LCALL   ??Subroutine178_0 & 0xFFFF
    318            }
   \                     ??CrossCallReturnLabel_321:
   \   00001E   C0E0         PUSH    A
   \   000020   85..82       MOV     DPL,?XSP + 0
   \   000023   85..83       MOV     DPH,?XSP + 1
   \   000026   E582         MOV     A,DPL
   \   000028   28           ADD     A,R0
   \   000029   12....       LCALL   ?Subroutine67 & 0xFFFF
   \                     ??CrossCallReturnLabel_405:
   \   00002C   D0E0         POP     A
   \   00002E   F0           MOVX    @DPTR,A
   \   00002F   0A           INC     R2
   \   000030   EA           MOV     A,R2
   \   000031   C3           CLR     C
   \   000032   940D         SUBB    A,#0xd
   \   000034   40D8         JC      ??AT_UARTWriteErrMsg_0
    319            errMsg[sizeof("\r\nERROR:")-1] = error_code/16 < 10 ? error_code/16+'0' : error_code/16-10+'A';
   \   000036   EE           MOV     A,R6
   \   000037   12....       LCALL   ?Subroutine87 & 0xFFFF
   \                     ??CrossCallReturnLabel_312:
   \   00003A   EE           MOV     A,R6
   \   00003B   C4           SWAP    A
   \   00003C   540F         ANL     A,#0xf
   \   00003E   5004         JNC     ??AT_UARTWriteErrMsg_1
   \   000040   2430         ADD     A,#0x30
   \   000042   8002         SJMP    ??AT_UARTWriteErrMsg_2
   \                     ??AT_UARTWriteErrMsg_1:
   \   000044   2437         ADD     A,#0x37
   \                     ??AT_UARTWriteErrMsg_2:
   \   000046   C0E0         PUSH    A
   \   000048   7408         MOV     A,#0x8
   \   00004A   12....       LCALL   ?XSTACK_DISP0_8
   \   00004D   D0E0         POP     A
   \   00004F   F0           MOVX    @DPTR,A
    320            errMsg[sizeof("\r\nERROR:x")-1] = error_code%16 < 10 ? error_code%16+'0' : error_code%16-10+'A';
   \   000050   740F         MOV     A,#0xf
   \   000052   5E           ANL     A,R6
   \   000053   C3           CLR     C
   \   000054   940A         SUBB    A,#0xa
   \   000056   740F         MOV     A,#0xf
   \   000058   5E           ANL     A,R6
   \   000059   5004         JNC     ??AT_UARTWriteErrMsg_3
   \   00005B   2430         ADD     A,#0x30
   \   00005D   8002         SJMP    ??AT_UARTWriteErrMsg_4
   \                     ??AT_UARTWriteErrMsg_3:
   \   00005F   2437         ADD     A,#0x37
   \                     ??AT_UARTWriteErrMsg_4:
   \   000061   C0E0         PUSH    A
   \   000063   7409         MOV     A,#0x9
   \   000065   12....       LCALL   ?XSTACK_DISP0_8
   \   000068   D0E0         POP     A
   \   00006A   F0           MOVX    @DPTR,A
    321            AT_RESP(errMsg,sizeof("\r\nERROR:xx\r\n"));
   \   00006B                ; Setup parameters for call to function AT_HalUARTWrite
   \   00006B   7C0D         MOV     R4,#0xd
   \   00006D   7D00         MOV     R5,#0x0
   \   00006F   85..82       MOV     DPL,?XSP + 0
   \   000072   85..83       MOV     DPH,?XSP + 1
   \   000075   AA82         MOV     R2,DPL
   \   000077   AB83         MOV     R3,DPH
   \   000079   12....       LCALL   ??AT_HalUARTWrite?relay
    322          }
   \   00007C   740D         MOV     A,#0xd
   \   00007E   80..         SJMP    ??Subroutine172_0

   \                                 In  segment BANKED_CODE, align 1, keep-with-next
   \                     ?Subroutine87:
   \   000000   C4           SWAP    A
   \   000001                REQUIRE ??Subroutine176_0
   \   000001                ; // Fall through to label ??Subroutine176_0

   \                                 In  segment BANKED_CODE, align 1, keep-with-next
   \                     ??Subroutine176_0:
   \   000000   540F         ANL     A,#0xf
   \   000002   C3           CLR     C
   \   000003   940A         SUBB    A,#0xa
   \   000005   22           RET

   \                                 In  segment BANKED_CODE, align 1, keep-with-next
   \                     ??Subroutine178_0:
   \   000000   12....       LCALL   ?Subroutine153 & 0xFFFF
   \                     ??CrossCallReturnLabel_411:
   \   000003   E0           MOVX    A,@DPTR
   \   000004   22           RET

   \                                 In  segment BANKED_CODE, align 1, keep-with-next
   \                     ?Subroutine67:
   \   000000   F582         MOV     DPL,A
   \   000002   E583         MOV     A,DPH
   \   000004                REQUIRE ??Subroutine193_0
   \   000004                ; // Fall through to label ??Subroutine193_0

   \                                 In  segment BANKED_CODE, align 1, keep-with-next
   \                     ??Subroutine193_0:
   \   000000   12....       LCALL   ?Subroutine153 & 0xFFFF
   \                     ??CrossCallReturnLabel_412:
   \   000003   22           RET
    323          
    324          /*******************************************************************
    325          CALL HalUARTPoll() TO GET A FULL TEXT DISPLAY.
    326          AVOID TEST LOST.
    327          *********************************************************************/
    328          
    329          

   \                                 In  segment BANKED_CODE, align 1, keep-with-next
    330          uint16 AT_HalUARTWrite(uint8 port, uint8 *buf, uint16 len){
   \                     AT_HalUARTWrite:
   \   000000   74F2         MOV     A,#-0xe
   \   000002   12....       LCALL   ?BANKED_ENTER_XDATA
   \   000005                ; Saved register size: 14
   \   000005                ; Auto size: 0
   \   000005   89..         MOV     ?V0 + 2,R1
   \   000007   8A..         MOV     ?V0 + 0,R2
   \   000009   8B..         MOV     ?V0 + 1,R3
   \   00000B   EC           MOV     A,R4
   \   00000C   FE           MOV     R6,A
   \   00000D   ED           MOV     A,R5
   \   00000E   FF           MOV     R7,A
    331            uint16 cnt=0;
   \   00000F   7A00         MOV     R2,#0x0
   \   000011   7B00         MOV     R3,#0x0
    332            if(len>0 && len<AT_UART_TX_BUFF_MAX){   //it takes me a long time to find this bug. if the len is not checked, the system will fail. if len==0, the system will loop here all the time.
   \   000013   EE           MOV     A,R6
   \   000014   4F           ORL     A,R7
   \   000015   6033         JZ      ??AT_HalUARTWrite_0
   \   000017   C3           CLR     C
   \   000018   EE           MOV     A,R6
   \   000019   9480         SUBB    A,#-0x80
   \   00001B   EF           MOV     A,R7
   \   00001C   9400         SUBB    A,#0x0
   \   00001E   502A         JNC     ??AT_HalUARTWrite_0
   \   000020   8014         SJMP    ??AT_HalUARTWrite_1
    333              while((cnt=HalUARTWrite(port, buf, len))<len){
    334                buf+=cnt;
   \                     ??AT_HalUARTWrite_2:
   \   000022   E5..         MOV     A,?V0 + 0
   \   000024   2A           ADD     A,R2
   \   000025   F5..         MOV     ?V0 + 0,A
   \   000027   E5..         MOV     A,?V0 + 1
   \   000029   3B           ADDC    A,R3
   \   00002A   F5..         MOV     ?V0 + 1,A
    335                len-=cnt;
   \   00002C   C3           CLR     C
   \   00002D   EE           MOV     A,R6
   \   00002E   9A           SUBB    A,R2
   \   00002F   FE           MOV     R6,A
   \   000030   EF           MOV     A,R7
   \   000031   9B           SUBB    A,R3
   \   000032   FF           MOV     R7,A
    336                HalUARTPoll();//wait until the text is sent successfully
   \   000033                ; Setup parameters for call to function HalUARTPoll
   \   000033   12....       LCALL   ??HalUARTPoll?relay
    337                              //when using Z-Stack 2.51a, we have to set the HAL_UART_ISR=1 and HAL_UART_DMA=0 compile flags to enable ISR mode 
    338                              //maybe the bug of the Z-Stack, the DMA mode does work with this
    339                              //if using Z-Stack 2.3.0, both the DMA mode and ISR mode are OK
    340                //while(1);
    341              }
   \                     ??AT_HalUARTWrite_1:
   \   000036                ; Setup parameters for call to function HalUARTWrite
   \   000036   EE           MOV     A,R6
   \   000037   FC           MOV     R4,A
   \   000038   EF           MOV     A,R7
   \   000039   FD           MOV     R5,A
   \   00003A   AA..         MOV     R2,?V0 + 0
   \   00003C   AB..         MOV     R3,?V0 + 1
   \   00003E   A9..         MOV     R1,?V0 + 2
   \   000040   12....       LCALL   ??HalUARTWrite?relay
   \   000043   C3           CLR     C
   \   000044   EA           MOV     A,R2
   \   000045   9E           SUBB    A,R6
   \   000046   EB           MOV     A,R3
   \   000047   9F           SUBB    A,R7
   \   000048   40D8         JC      ??AT_HalUARTWrite_2
    342            }
    343            return cnt;
   \                     ??AT_HalUARTWrite_0:
   \   00004A   02....       LJMP    ??Subroutine179_0 & 0xFFFF
    344          }

   \                                 In  segment BANKED_CODE, align 1, keep-with-next
   \                     ??Subroutine179_0:
   \   000000   7F06         MOV     R7,#0x6
   \   000002   02....       LJMP    ?BANKED_LEAVE_XDATA
    345          /*******************************************************
    346          clear all the NV items in AT command system
    347          ******************************************************/

   \                                 In  segment BANKED_CODE, align 1, keep-with-next
    348          void  AT_clear_AT_SYSTEM_NVs(void){
   \                     AT_clear_AT_SYSTEM_NVs:
   \   000000   74F4         MOV     A,#-0xc
   \   000002   12....       LCALL   ?BANKED_ENTER_XDATA
   \   000005                ; Saved register size: 12
   \   000005                ; Auto size: 0
    349            //dele ZCL status NV 
    350            osal_nv_delete( AT_NV_ZCL_EP_STATUS_ID,osal_nv_item_len(AT_NV_ZCL_EP_STATUS_ID ) );
   \   000005                ; Setup parameters for call to function osal_nv_delete
   \   000005                ; Setup parameters for call to function osal_nv_item_len
   \   000005   7A01         MOV     R2,#0x1
   \   000007   7B05         MOV     R3,#0x5
   \   000009   12....       LCALL   ??osal_nv_item_len?relay
   \   00000C   EA           MOV     A,R2
   \   00000D   FC           MOV     R4,A
   \   00000E   EB           MOV     A,R3
   \   00000F   FD           MOV     R5,A
   \   000010   7A01         MOV     R2,#0x1
   \   000012   7B05         MOV     R3,#0x5
   \   000014   12....       LCALL   ??osal_nv_delete?relay
    351            uint8 i;
    352            for(i=0;i<sizeof(AT_smap);i++){
   \   000017   75..00       MOV     ?V0 + 0,#0x0
    353              osal_nv_delete( AT_smap[i].S_ID+AT_NV_ZCL_EP_STATUS_ID,
    354                             osal_nv_item_len(AT_smap[i].S_ID+AT_NV_ZCL_EP_STATUS_ID));
   \                     ??AT_clear_AT_SYSTEM_NVs_0:
   \   00001A   E5..         MOV     A,?V0 + 0
   \   00001C   75F003       MOV     B,#0x3
   \   00001F   A4           MUL     AB
   \   000020   F8           MOV     R0,A
   \   000021   A9F0         MOV     R1,B
   \   000023   74..         MOV     A,#(AT_smap + 2) & 0xff
   \   000025   28           ADD     A,R0
   \   000026   F582         MOV     DPL,A
   \   000028   74..         MOV     A,#((AT_smap + 2) >> 8) & 0xff
   \   00002A   12....       LCALL   ?Subroutine157 & 0xFFFF
    355            }
   \                     ??CrossCallReturnLabel_558:
   \   00002D   2401         ADD     A,#0x1
   \   00002F   FE           MOV     R6,A
   \   000030   E4           CLR     A
   \   000031   3405         ADDC    A,#0x5
   \   000033   FF           MOV     R7,A
   \   000034                ; Setup parameters for call to function osal_nv_item_len
   \   000034   EE           MOV     A,R6
   \   000035   FA           MOV     R2,A
   \   000036   EF           MOV     A,R7
   \   000037   FB           MOV     R3,A
   \   000038   12....       LCALL   ??osal_nv_item_len?relay
   \   00003B   8A..         MOV     ?V0 + 2,R2
   \   00003D   8B..         MOV     ?V0 + 3,R3
   \   00003F   AC..         MOV     R4,?V0 + 2
   \   000041   AD..         MOV     R5,?V0 + 3
   \   000043                ; Setup parameters for call to function osal_nv_delete
   \   000043   EE           MOV     A,R6
   \   000044   FA           MOV     R2,A
   \   000045   EF           MOV     A,R7
   \   000046   FB           MOV     R3,A
   \   000047   12....       LCALL   ??osal_nv_delete?relay
   \   00004A   05..         INC     ?V0 + 0
   \   00004C   E5..         MOV     A,?V0 + 0
   \   00004E   C3           CLR     C
   \   00004F   9439         SUBB    A,#0x39
   \   000051   40C7         JC      ??AT_clear_AT_SYSTEM_NVs_0
    356            
    357          }
   \   000053   02....       LJMP    ??Subroutine196_0 & 0xFFFF

   \                                 In  segment BANKED_CODE, align 1, keep-with-next
   \                     ??Subroutine196_0:
   \   000000   7F04         MOV     R7,#0x4
   \   000002   02....       LJMP    ?BANKED_LEAVE_XDATA

   \                                 In  segment BANKED_CODE, align 1, keep-with-next
   \                     ?Subroutine157:
   \   000000   39           ADDC    A,R1
   \   000001   F583         MOV     DPH,A
   \   000003   E0           MOVX    A,@DPTR
   \   000004   22           RET
    358          /*******************************************************************
    359          if the endpoint is a cmd endpoint defined in AT_CMD_EPs. return ture, otherwise, return false
    360          *********************************************************************/

   \                                 In  segment BANKED_CODE, align 1, keep-with-next
    361          uint8 AT_is_CMD_EPs(uint8 value){
   \                     AT_is_CMD_EPs:
   \   000000   74F6         MOV     A,#-0xa
   \   000002   12....       LCALL   ?BANKED_ENTER_XDATA
   \   000005                ; Saved register size: 10
   \   000005                ; Auto size: 0
   \   000005   E9           MOV     A,R1
   \   000006   FA           MOV     R2,A
    362            uint8 index;
    363            for(index=0;index<AT_CMD_EPs_Num;index++){
   \   000007   7800         MOV     R0,#0x0
    364              if(AT_CMD_EP_ARRAY[index]==value)return true;
   \                     ??AT_is_CMD_EPs_0:
   \   000009   88..         MOV     ?V0 + 0,R0
   \   00000B   12....       LCALL   ?Subroutine63 & 0xFFFF
   \                     ??CrossCallReturnLabel_95:
   \   00000E   6A           XRL     A,R2
   \   00000F   7004         JNZ     ??AT_is_CMD_EPs_1
   \   000011   7901         MOV     R1,#0x1
   \   000013   8009         SJMP    ??AT_is_CMD_EPs_2
    365            }
   \                     ??AT_is_CMD_EPs_1:
   \   000015   08           INC     R0
   \   000016   E8           MOV     A,R0
   \   000017   C3           CLR     C
   \   000018   9405         SUBB    A,#0x5
   \   00001A   40ED         JC      ??AT_is_CMD_EPs_0
    366            return false;
   \   00001C   7900         MOV     R1,#0x0
   \                     ??AT_is_CMD_EPs_2:
   \   00001E   02....       LJMP    ??Subroutine175_0 & 0xFFFF
    367          }

   \                                 In  segment BANKED_CODE, align 1, keep-with-next
   \                     ?Subroutine63:
   \   000000   74..         MOV     A,#AT_CMD_EP_ARRAY & 0xff
   \   000002   12....       LCALL   ??Subroutine180_0 & 0xFFFF
   \                     ??CrossCallReturnLabel_328:
   \   000005   74..         MOV     A,#(AT_CMD_EP_ARRAY >> 8) & 0xff
   \   000007   12....       LCALL   ?Subroutine153 & 0xFFFF
   \                     ??CrossCallReturnLabel_409:
   \   00000A   E0           MOVX    A,@DPTR
   \   00000B   22           RET

   \                                 In  segment BANKED_CODE, align 1, keep-with-next
   \                     ??Subroutine180_0:
   \   000000   25..         ADD     A,?V0 + 0
   \   000002   F582         MOV     DPL,A
   \   000004   22           RET
    368          /*******************************************************************
    369          save the endpoint status to NV
    370          *********************************************************************/

   \                                 In  segment BANKED_CODE, align 1, keep-with-next
    371          uint8 AT_NV_ZCL_saveEPStatus(uint8 offset, uint8* value){
   \                     AT_NV_ZCL_saveEPStatus:
   \   000000   74F4         MOV     A,#-0xc
   \   000002   12....       LCALL   ?BANKED_ENTER_XDATA
   \   000005                ; Saved register size: 12
   \   000005                ; Auto size: 0
   \   000005   E9           MOV     A,R1
   \   000006   FE           MOV     R6,A
   \   000007   8A..         MOV     ?V0 + 0,R2
   \   000009   8B..         MOV     ?V0 + 1,R3
    372            uint8 state;
    373            state=osal_nv_item_init( AT_NV_ZCL_EP_STATUS_ID, AT_CMD_EPs_Num, NULL );
   \   00000B                ; Setup parameters for call to function osal_nv_item_init
   \   00000B   E4           CLR     A
   \   00000C   F5..         MOV     ?V0 + 2,A
   \   00000E   F5..         MOV     ?V0 + 3,A
   \   000010   78..         MOV     R0,#?V0 + 2
   \   000012   12....       LCALL   ?PUSH_XSTACK_I_TWO
   \   000015   12....       LCALL   ?Subroutine95 & 0xFFFF
   \                     ??CrossCallReturnLabel_306:
   \   000018   12....       LCALL   ?DEALLOC_XSTACK8
   \   00001B   E9           MOV     A,R1
    374            if(state==SUCCESS || state==NV_ITEM_UNINIT  );
   \   00001C   6005         JZ      ??AT_NV_ZCL_saveEPStatus_0
   \   00001E   7409         MOV     A,#0x9
   \   000020   69           XRL     A,R1
   \   000021   7020         JNZ     ??AT_NV_ZCL_saveEPStatus_1
    375            else return state;
    376            
    377            return osal_nv_write( AT_NV_ZCL_EP_STATUS_ID, offset,1, value );
   \                     ??AT_NV_ZCL_saveEPStatus_0:
   \   000023                ; Setup parameters for call to function osal_nv_write
   \   000023   78..         MOV     R0,#?V0 + 0
   \   000025   12....       LCALL   ?PUSH_XSTACK_I_TWO
   \   000028   75..01       MOV     ?V0 + 0,#0x1
   \   00002B   75..00       MOV     ?V0 + 1,#0x0
   \   00002E   78..         MOV     R0,#?V0 + 0
   \   000030   12....       LCALL   ?PUSH_XSTACK_I_TWO
   \   000033   8E..         MOV     ?V0 + 0,R6
   \   000035   AC..         MOV     R4,?V0 + 0
   \   000037   7D00         MOV     R5,#0x0
   \   000039   7A01         MOV     R2,#0x1
   \   00003B   7B05         MOV     R3,#0x5
   \   00003D   12....       LCALL   ?Subroutine156 & 0xFFFF
   \                     ??CrossCallReturnLabel_285:
   \   000040   12....       LCALL   ?DEALLOC_XSTACK8
   \                     ??AT_NV_ZCL_saveEPStatus_1:
   \   000043   02....       LJMP    ??Subroutine196_0 & 0xFFFF
    378          }

   \                                 In  segment BANKED_CODE, align 1, keep-with-next
   \                     ?Subroutine95:
   \   000000   7C05         MOV     R4,#0x5
   \   000002   7D00         MOV     R5,#0x0
   \   000004   7A01         MOV     R2,#0x1
   \   000006   7B05         MOV     R3,#0x5
   \   000008                REQUIRE ??Subroutine174_0
   \   000008                ; // Fall through to label ??Subroutine174_0

   \                                 In  segment BANKED_CODE, align 1, keep-with-next
   \                     ??Subroutine174_0:
   \   000000   12....       LCALL   ??osal_nv_item_init?relay
   \   000003   7402         MOV     A,#0x2
   \   000005   22           RET

   \                                 In  segment BANKED_CODE, align 1, keep-with-next
   \                     ?Subroutine156:
   \   000000   12....       LCALL   ??osal_nv_write?relay
   \   000003   7404         MOV     A,#0x4
   \   000005   22           RET
    379          
    380          /*******************************************************************
    381          read the endpoint status from NV
    382          *********************************************************************/

   \                                 In  segment BANKED_CODE, align 1, keep-with-next
    383          uint8 AT_NV_ZCL_readEPStatus(uint8 offset, uint8* value){
   \                     AT_NV_ZCL_readEPStatus:
   \   000000   74F4         MOV     A,#-0xc
   \   000002   12....       LCALL   ?BANKED_ENTER_XDATA
   \   000005                ; Saved register size: 12
   \   000005                ; Auto size: 0
   \   000005   E9           MOV     A,R1
   \   000006   FE           MOV     R6,A
   \   000007   8A..         MOV     ?V0 + 0,R2
   \   000009   8B..         MOV     ?V0 + 1,R3
    384            uint8 state;
    385            state=osal_nv_item_init( AT_NV_ZCL_EP_STATUS_ID, sizeof(AT_CMD_EP_ARRAY), NULL );
   \   00000B                ; Setup parameters for call to function osal_nv_item_init
   \   00000B   E4           CLR     A
   \   00000C   F5..         MOV     ?V0 + 2,A
   \   00000E   F5..         MOV     ?V0 + 3,A
   \   000010   78..         MOV     R0,#?V0 + 2
   \   000012   12....       LCALL   ?PUSH_XSTACK_I_TWO
   \   000015   12....       LCALL   ?Subroutine95 & 0xFFFF
   \                     ??CrossCallReturnLabel_307:
   \   000018   12....       LCALL   ?DEALLOC_XSTACK8
   \   00001B   E9           MOV     A,R1
    386            if(state==SUCCESS || state==NV_ITEM_UNINIT  );
   \   00001C   6005         JZ      ??AT_NV_ZCL_readEPStatus_0
   \   00001E   7409         MOV     A,#0x9
   \   000020   69           XRL     A,R1
   \   000021   7020         JNZ     ??AT_NV_ZCL_readEPStatus_1
    387            else return state;
    388            
    389            return osal_nv_read( AT_NV_ZCL_EP_STATUS_ID, offset,1, value );
   \                     ??AT_NV_ZCL_readEPStatus_0:
   \   000023                ; Setup parameters for call to function osal_nv_read
   \   000023   78..         MOV     R0,#?V0 + 0
   \   000025   12....       LCALL   ?PUSH_XSTACK_I_TWO
   \   000028   75..01       MOV     ?V0 + 0,#0x1
   \   00002B   75..00       MOV     ?V0 + 1,#0x0
   \   00002E   78..         MOV     R0,#?V0 + 0
   \   000030   12....       LCALL   ?PUSH_XSTACK_I_TWO
   \   000033   8E..         MOV     ?V0 + 0,R6
   \   000035   AC..         MOV     R4,?V0 + 0
   \   000037   7D00         MOV     R5,#0x0
   \   000039   7A01         MOV     R2,#0x1
   \   00003B   7B05         MOV     R3,#0x5
   \   00003D   12....       LCALL   ?Subroutine159 & 0xFFFF
   \                     ??CrossCallReturnLabel_289:
   \   000040   12....       LCALL   ?DEALLOC_XSTACK8
   \                     ??AT_NV_ZCL_readEPStatus_1:
   \   000043   02....       LJMP    ??Subroutine196_0 & 0xFFFF
    390          }

   \                                 In  segment BANKED_CODE, align 1, keep-with-next
   \                     ?Subroutine159:
   \   000000   12....       LCALL   ??osal_nv_read?relay
   \   000003   7404         MOV     A,#0x4
   \   000005   22           RET
    391          /*******************************************************************
    392          get index of the end point in AT_CMD_EP_ARRAY[]
    393          *********************************************************************/

   \                                 In  segment BANKED_CODE, align 1, keep-with-next
    394          uint8 AT_NV_ZCL_get_index_(uint8 value){
   \                     AT_NV_ZCL_get_index_:
   \   000000   74F6         MOV     A,#-0xa
   \   000002   12....       LCALL   ?BANKED_ENTER_XDATA
   \   000005                ; Saved register size: 10
   \   000005                ; Auto size: 0
   \   000005   E9           MOV     A,R1
   \   000006   F8           MOV     R0,A
    395            uint8 index;
    396            for(index=0;index<sizeof(AT_CMD_EP_ARRAY);index++){
   \   000007   7900         MOV     R1,#0x0
    397              if(AT_CMD_EP_ARRAY[index]==value)return index;
   \                     ??AT_NV_ZCL_get_index__0:
   \   000009   89..         MOV     ?V0 + 0,R1
   \   00000B   12....       LCALL   ?Subroutine63 & 0xFFFF
   \                     ??CrossCallReturnLabel_96:
   \   00000E   68           XRL     A,R0
   \   00000F   6009         JZ      ??AT_NV_ZCL_get_index__1
    398            }
   \   000011   09           INC     R1
   \   000012   E9           MOV     A,R1
   \   000013   C3           CLR     C
   \   000014   9405         SUBB    A,#0x5
   \   000016   40F1         JC      ??AT_NV_ZCL_get_index__0
    399            return 0xFF;
   \   000018   79FF         MOV     R1,#-0x1
   \                     ??AT_NV_ZCL_get_index__1:
   \   00001A   80..         SJMP    ??Subroutine175_0
    400          }
    401          /*****************************
    402          
    403          AT command handler!!!
    404          
    405          
    406          **********************************/
    407          uint8 getAT_CMDlength(uint8 *msg){
    408            int i =0;
    409            for(;;i++){
    410              if(msg[i]=='\r')break;
    411            }
    412            return i;
    413          }
    414          

   \                                 In  segment BANKED_CODE, align 1, keep-with-next
    415          void AT_EUI64toChar(uint8* EUI64,char* str){
   \                     AT_EUI64toChar:
   \   000000   74F7         MOV     A,#-0x9
   \   000002   12....       LCALL   ?BANKED_ENTER_XDATA
   \   000005                ; Saved register size: 9
   \   000005                ; Auto size: 0
    416            int i;
    417            for(i=0;i<8;i++){
   \   000005   7800         MOV     R0,#0x0
   \   000007   7900         MOV     R1,#0x0
    418              str[15-2*i] = EUI64[i]%16 < 10 ? EUI64[i]%16+'0' : EUI64[i]%16-10+'A';
   \                     ??AT_EUI64toChar_0:
   \   000009   12....       LCALL   ?Subroutine83 & 0xFFFF
   \                     ??CrossCallReturnLabel_129:
   \   00000C   12....       LCALL   ??Subroutine176_0 & 0xFFFF
   \                     ??CrossCallReturnLabel_310:
   \   00000F   E0           MOVX    A,@DPTR
   \   000010   540F         ANL     A,#0xf
   \   000012   5004         JNC     ??AT_EUI64toChar_1
   \   000014   2430         ADD     A,#0x30
   \   000016   8002         SJMP    ??AT_EUI64toChar_2
   \                     ??AT_EUI64toChar_1:
   \   000018   2437         ADD     A,#0x37
   \                     ??AT_EUI64toChar_2:
   \   00001A   C0E0         PUSH    A
   \   00001C   12....       LCALL   ?Subroutine89 & 0xFFFF
   \                     ??CrossCallReturnLabel_139:
   \   00001F   240F         ADD     A,#0xf
   \   000021   F582         MOV     DPL,A
   \   000023   EF           MOV     A,R7
   \   000024   12....       LCALL   ??Subroutine193_0 & 0xFFFF
   \                     ??CrossCallReturnLabel_401:
   \   000027   D0E0         POP     A
   \   000029   F0           MOVX    @DPTR,A
    419              str[14-2*i] = EUI64[i]/16 < 10 ? EUI64[i]/16+'0' : EUI64[i]/16-10+'A';
   \   00002A   12....       LCALL   ?Subroutine83 & 0xFFFF
    420            }
   \                     ??CrossCallReturnLabel_130:
   \   00002D   12....       LCALL   ?Subroutine87 & 0xFFFF
   \                     ??CrossCallReturnLabel_313:
   \   000030   E0           MOVX    A,@DPTR
   \   000031   C4           SWAP    A
   \   000032   540F         ANL     A,#0xf
   \   000034   5004         JNC     ??AT_EUI64toChar_3
   \   000036   2430         ADD     A,#0x30
   \   000038   8002         SJMP    ??AT_EUI64toChar_4
   \                     ??AT_EUI64toChar_3:
   \   00003A   2437         ADD     A,#0x37
   \                     ??AT_EUI64toChar_4:
   \   00003C   C0E0         PUSH    A
   \   00003E   12....       LCALL   ?Subroutine89 & 0xFFFF
   \                     ??CrossCallReturnLabel_140:
   \   000041   240E         ADD     A,#0xe
   \   000043   F582         MOV     DPL,A
   \   000045   EF           MOV     A,R7
   \   000046   12....       LCALL   ??Subroutine193_0 & 0xFFFF
   \                     ??CrossCallReturnLabel_402:
   \   000049   D0E0         POP     A
   \   00004B   F0           MOVX    @DPTR,A
   \   00004C   12....       LCALL   ?Subroutine94 & 0xFFFF
   \                     ??CrossCallReturnLabel_150:
   \   00004F   C3           CLR     C
   \   000050   E8           MOV     A,R0
   \   000051   9408         SUBB    A,#0x8
   \   000053   12....       LCALL   ?Subroutine90 & 0xFFFF
   \                     ??CrossCallReturnLabel_141:
   \   000056   40B1         JC      ??AT_EUI64toChar_0
    421          }
   \   000058   02....       LJMP    ??Subroutine173_0 & 0xFFFF

   \                                 In  segment BANKED_CODE, align 1, keep-with-next
   \                     ?Subroutine89:
   \   000000   E8           MOV     A,R0
   \   000001   FE           MOV     R6,A
   \   000002   E9           MOV     A,R1
   \   000003   FF           MOV     R7,A
   \   000004   EE           MOV     A,R6
   \   000005   33           RLC     A
   \   000006   FE           MOV     R6,A
   \   000007   EF           MOV     A,R7
   \   000008   33           RLC     A
   \   000009   FF           MOV     R7,A
   \   00000A   C3           CLR     C
   \   00000B   E4           CLR     A
   \   00000C   9E           SUBB    A,R6
   \   00000D   FE           MOV     R6,A
   \   00000E   E4           CLR     A
   \   00000F   9F           SUBB    A,R7
   \   000010   FF           MOV     R7,A
   \   000011   EC           MOV     A,R4
   \   000012   2E           ADD     A,R6
   \   000013   FE           MOV     R6,A
   \   000014   ED           MOV     A,R5
   \   000015   3F           ADDC    A,R7
   \   000016   FF           MOV     R7,A
   \   000017   EE           MOV     A,R6
   \   000018   22           RET

   \                                 In  segment BANKED_CODE, align 1, keep-with-next
   \                     ?Subroutine83:
   \   000000   EA           MOV     A,R2
   \   000001   12....       LCALL   ??Subroutine189_0 & 0xFFFF
   \                     ??CrossCallReturnLabel_372:
   \   000004   E0           MOVX    A,@DPTR
   \   000005   22           RET

   \                                 In  segment BANKED_CODE, align 1, keep-with-next
   \                     ?Subroutine90:
   \   000000   E9           MOV     A,R1
   \   000001   9400         SUBB    A,#0x0
   \   000003   A2D2         MOV     C,0xD0 /* PSW */.2
   \   000005   65D0         XRL     A,PSW
   \   000007   33           RLC     A
   \   000008   22           RET

   \                                 In  segment BANKED_CODE, align 1, keep-with-next
   \                     ?Subroutine94:
   \   000000   E8           MOV     A,R0
   \   000001   2401         ADD     A,#0x1
   \   000003   08           INC     R0
   \   000004   E9           MOV     A,R1
   \   000005   3400         ADDC    A,#0x0
   \   000007   F9           MOV     R1,A
   \   000008   22           RET

   \                                 In  segment BANKED_CODE, align 1, keep-with-next
   \                     ??Subroutine189_0:
   \   000000   28           ADD     A,R0
   \   000001   F582         MOV     DPL,A
   \   000003   EB           MOV     A,R3
   \   000004   39           ADDC    A,R1
   \   000005   F583         MOV     DPH,A
   \   000007   22           RET
    422          

   \                                 In  segment BANKED_CODE, align 1, keep-with-next
    423          void AT_Int16toChar(uint16 integer16,char* str){
   \                     AT_Int16toChar:
   \   000000   74F7         MOV     A,#-0x9
   \   000002   12....       LCALL   ?BANKED_ENTER_XDATA
   \   000005                ; Saved register size: 9
   \   000005                ; Auto size: 0
    424            uint16 n= integer16>>8;
   \   000005   EB           MOV     A,R3
   \   000006   F8           MOV     R0,A
    425              str[1] = n%16 < 10 ? n%16+'0' : n%16-10+'A';
   \   000007   12....       LCALL   ??Subroutine176_0 & 0xFFFF
   \                     ??CrossCallReturnLabel_311:
   \   00000A   E8           MOV     A,R0
   \   00000B   540F         ANL     A,#0xf
   \   00000D   5004         JNC     ??AT_Int16toChar_0
   \   00000F   2430         ADD     A,#0x30
   \   000011   8002         SJMP    ??AT_Int16toChar_1
   \                     ??AT_Int16toChar_0:
   \   000013   2437         ADD     A,#0x37
   \                     ??AT_Int16toChar_1:
   \   000015   8C82         MOV     DPL,R4
   \   000017   8D83         MOV     DPH,R5
   \   000019   A3           INC     DPTR
   \   00001A   F0           MOVX    @DPTR,A
    426              str[0] = n/16 < 10 ? n/16+'0' : n/16-10+'A';
   \   00001B   E8           MOV     A,R0
   \   00001C   C4           SWAP    A
   \   00001D   540F         ANL     A,#0xf
   \   00001F   940A         SUBB    A,#0xa
   \   000021   E8           MOV     A,R0
   \   000022   C4           SWAP    A
   \   000023   540F         ANL     A,#0xf
   \   000025   5004         JNC     ??AT_Int16toChar_2
   \   000027   2430         ADD     A,#0x30
   \   000029   8002         SJMP    ??AT_Int16toChar_3
   \                     ??AT_Int16toChar_2:
   \   00002B   2437         ADD     A,#0x37
   \                     ??AT_Int16toChar_3:
   \   00002D   8C82         MOV     DPL,R4
   \   00002F   8D83         MOV     DPH,R5
   \   000031   F0           MOVX    @DPTR,A
    427              n=integer16&0xff;
    428              str[3] = n%16 < 10 ? n%16+'0' : n%16-10+'A';
   \   000032   EA           MOV     A,R2
   \   000033   540F         ANL     A,#0xf
   \   000035   940A         SUBB    A,#0xa
   \   000037   EA           MOV     A,R2
   \   000038   540F         ANL     A,#0xf
   \   00003A   5004         JNC     ??AT_Int16toChar_4
   \   00003C   2430         ADD     A,#0x30
   \   00003E   8002         SJMP    ??AT_Int16toChar_5
   \                     ??AT_Int16toChar_4:
   \   000040   2437         ADD     A,#0x37
   \                     ??AT_Int16toChar_5:
   \   000042   A3           INC     DPTR
   \   000043   A3           INC     DPTR
   \   000044   A3           INC     DPTR
   \   000045   F0           MOVX    @DPTR,A
    429              str[2] = n/16 < 10 ? n/16+'0' : n/16-10+'A';
   \   000046   EA           MOV     A,R2
   \   000047   C4           SWAP    A
   \   000048   540F         ANL     A,#0xf
   \   00004A   940A         SUBB    A,#0xa
   \   00004C   EA           MOV     A,R2
   \   00004D   C4           SWAP    A
   \   00004E   540F         ANL     A,#0xf
   \   000050   5004         JNC     ??AT_Int16toChar_6
   \   000052   2430         ADD     A,#0x30
   \   000054   8002         SJMP    ??AT_Int16toChar_7
   \                     ??AT_Int16toChar_6:
   \   000056   2437         ADD     A,#0x37
   \                     ??AT_Int16toChar_7:
   \   000058   8C82         MOV     DPL,R4
   \   00005A   8D83         MOV     DPH,R5
   \   00005C   A3           INC     DPTR
   \   00005D   A3           INC     DPTR
   \   00005E   F0           MOVX    @DPTR,A
    430          }
   \   00005F   02....       LJMP    ??Subroutine173_0 & 0xFFFF
    431          

   \                                 In  segment BANKED_CODE, align 1, keep-with-next
    432          void AT_Int8toChar(uint8 n,char* str){
   \                     AT_Int8toChar:
   \   000000   C082         PUSH    DPL
   \   000002   C083         PUSH    DPH
   \   000004                ; Saved register size: 2
   \   000004                ; Auto size: 0
    433              str[1] = n%16 < 10 ? n%16+'0' : n%16-10+'A';
   \   000004   740F         MOV     A,#0xf
   \   000006   59           ANL     A,R1
   \   000007   C3           CLR     C
   \   000008   940A         SUBB    A,#0xa
   \   00000A   740F         MOV     A,#0xf
   \   00000C   59           ANL     A,R1
   \   00000D   5004         JNC     ??AT_Int8toChar_0
   \   00000F   2430         ADD     A,#0x30
   \   000011   8002         SJMP    ??AT_Int8toChar_1
   \                     ??AT_Int8toChar_0:
   \   000013   2437         ADD     A,#0x37
   \                     ??AT_Int8toChar_1:
   \   000015   8A82         MOV     DPL,R2
   \   000017   8B83         MOV     DPH,R3
   \   000019   A3           INC     DPTR
   \   00001A   F0           MOVX    @DPTR,A
    434              str[0] = n/16 < 10 ? n/16+'0' : n/16-10+'A';
   \   00001B   E9           MOV     A,R1
   \   00001C   C4           SWAP    A
   \   00001D   540F         ANL     A,#0xf
   \   00001F   940A         SUBB    A,#0xa
   \   000021   E9           MOV     A,R1
   \   000022   C4           SWAP    A
   \   000023   540F         ANL     A,#0xf
   \   000025   5004         JNC     ??AT_Int8toChar_2
   \   000027   2430         ADD     A,#0x30
   \   000029   8002         SJMP    ??AT_Int8toChar_3
   \                     ??AT_Int8toChar_2:
   \   00002B   2437         ADD     A,#0x37
   \                     ??AT_Int8toChar_3:
   \   00002D   8A82         MOV     DPL,R2
   \   00002F   8B83         MOV     DPH,R3
   \   000031   F0           MOVX    @DPTR,A
    435          }
   \   000032   02....       LJMP    ?Subroutine2 & 0xFFFF

   \                                 In  segment BANKED_CODE, align 1, keep-with-next
    436          uint8 _AT_ChartoInt(uint8 n){
   \                     _AT_ChartoInt:
   \   000000                ; Saved register size: 0
   \   000000                ; Auto size: 0
   \   000000   E9           MOV     A,R1
   \   000001   F8           MOV     R0,A
    437            if(n<='9'&&n>='0') return n-'0';
   \   000002   74D0         MOV     A,#-0x30
   \   000004   28           ADD     A,R0
   \   000005   C3           CLR     C
   \   000006   940A         SUBB    A,#0xa
   \   000008   5006         JNC     ??_AT_ChartoInt_0
   \   00000A   74D0         MOV     A,#-0x30
   \                     ??_AT_ChartoInt_1:
   \   00000C   28           ADD     A,R0
   \   00000D   F9           MOV     R1,A
   \   00000E   801C         SJMP    ??_AT_ChartoInt_2
    438            if(n<='f'&&n>='a') return n-'a'+10;
   \                     ??_AT_ChartoInt_0:
   \   000010   749F         MOV     A,#-0x61
   \   000012   28           ADD     A,R0
   \   000013   C3           CLR     C
   \   000014   9406         SUBB    A,#0x6
   \   000016   5004         JNC     ??_AT_ChartoInt_3
   \   000018   74A9         MOV     A,#-0x57
   \   00001A   80F0         SJMP    ??_AT_ChartoInt_1
    439            if(n<='F'&&n>='A') return n-'A'+10;
   \                     ??_AT_ChartoInt_3:
   \   00001C   74BF         MOV     A,#-0x41
   \   00001E   28           ADD     A,R0
   \   00001F   C3           CLR     C
   \   000020   9406         SUBB    A,#0x6
   \   000022   5006         JNC     ??_AT_ChartoInt_4
   \   000024   74C9         MOV     A,#-0x37
   \   000026   28           ADD     A,R0
   \   000027   F9           MOV     R1,A
   \   000028   8002         SJMP    ??_AT_ChartoInt_2
    440            return 0xff;
   \                     ??_AT_ChartoInt_4:
   \   00002A   79FF         MOV     R1,#-0x1
   \                     ??_AT_ChartoInt_2:
   \   00002C   02....       LJMP    ?BRET
    441          }

   \                                 In  segment BANKED_CODE, align 1, keep-with-next
    442          uint8 AT_ChartoInt8(AT_CmdUnit *cmdUnit){
   \                     AT_ChartoInt8:
   \   000000   74F5         MOV     A,#-0xb
   \   000002   12....       LCALL   ?BANKED_ENTER_XDATA
   \   000005                ; Saved register size: 11
   \   000005                ; Auto size: 0
   \   000005   EA           MOV     A,R2
   \   000006   FE           MOV     R6,A
   \   000007   EB           MOV     A,R3
   \   000008   FF           MOV     R7,A
    443            uint8 result=0;
   \   000009   75..00       MOV     ?V0 + 2,#0x0
    444            if(cmdUnit->unitLen>0) result |= _AT_ChartoInt(cmdUnit->unit[cmdUnit->unitLen-1]);
   \   00000C   8E82         MOV     DPL,R6
   \   00000E   8F83         MOV     DPH,R7
   \   000010   A3           INC     DPTR
   \   000011   E0           MOVX    A,@DPTR
   \   000012   6037         JZ      ??AT_ChartoInt8_0
   \   000014   8E82         MOV     DPL,R6
   \   000016   8F83         MOV     DPH,R7
   \   000018   A3           INC     DPTR
   \   000019   8582..       MOV     ?V0 + 0,DPL
   \   00001C   8583..       MOV     ?V0 + 1,DPH
   \   00001F                ; Setup parameters for call to function _AT_ChartoInt
   \   00001F   F8           MOV     R0,A
   \   000020   8E82         MOV     DPL,R6
   \   000022   8F83         MOV     DPH,R7
   \   000024   12....       LCALL   ?Subroutine36 & 0xFFFF
   \                     ??CrossCallReturnLabel_37:
   \   000027   F5..         MOV     ?V0 + 2,A
    445            if(cmdUnit->unitLen>1) result |= _AT_ChartoInt(cmdUnit->unit[cmdUnit->unitLen-2])<<(1*4);
   \   000029   85..82       MOV     DPL,?V0 + 0
   \   00002C   85..83       MOV     DPH,?V0 + 1
   \   00002F   E0           MOVX    A,@DPTR
   \   000030   C3           CLR     C
   \   000031   9402         SUBB    A,#0x2
   \   000033   4016         JC      ??AT_ChartoInt8_0
   \   000035                ; Setup parameters for call to function _AT_ChartoInt
   \   000035   8E82         MOV     DPL,R6
   \   000037   8F83         MOV     DPH,R7
   \   000039   A3           INC     DPTR
   \   00003A   E0           MOVX    A,@DPTR
   \   00003B   F8           MOV     R0,A
   \   00003C   8E82         MOV     DPL,R6
   \   00003E   8F83         MOV     DPH,R7
   \   000040   12....       LCALL   ?Subroutine136 & 0xFFFF
   \                     ??CrossCallReturnLabel_264:
   \   000043   12....       LCALL   ?Subroutine48 & 0xFFFF
   \                     ??CrossCallReturnLabel_314:
   \   000046   C4           SWAP    A
   \   000047   54F0         ANL     A,#0xf0
   \   000049   42..         ORL     ?V0 + 2,A
    446            return result;
   \                     ??AT_ChartoInt8_0:
   \   00004B   A9..         MOV     R1,?V0 + 2
   \   00004D   7F03         MOV     R7,#0x3
   \   00004F   02....       LJMP    ?BANKED_LEAVE_XDATA
    447          }

   \                                 In  segment BANKED_CODE, align 1, keep-with-next
   \                     ?Subroutine48:
   \   000000   24FE         ADD     A,#-0x2
   \   000002                REQUIRE ??Subroutine177_0
   \   000002                ; // Fall through to label ??Subroutine177_0

   \                                 In  segment BANKED_CODE, align 1, keep-with-next
   \                     ??Subroutine177_0:
   \   000000   12....       LCALL   ?Subroutine158 & 0xFFFF
   \                     ??CrossCallReturnLabel_318:
   \   000003   22           RET

   \                                 In  segment BANKED_CODE, align 1, keep-with-next
   \                     ?Subroutine36:
   \   000000   12....       LCALL   ?Subroutine136 & 0xFFFF
   \                     ??CrossCallReturnLabel_266:
   \   000003   24FF         ADD     A,#-0x1
   \   000005   12....       LCALL   ?Subroutine158 & 0xFFFF
   \                     ??CrossCallReturnLabel_319:
   \   000008   22           RET

   \                                 In  segment BANKED_CODE, align 1, keep-with-next
   \                     ?Subroutine158:
   \   000000   F582         MOV     DPL,A
   \   000002   E9           MOV     A,R1
   \   000003   34FF         ADDC    A,#-0x1
   \   000005   F583         MOV     DPH,A
   \   000007   E0           MOVX    A,@DPTR
   \   000008   F9           MOV     R1,A
   \   000009   12....       LCALL   ??_AT_ChartoInt?relay
   \   00000C   E9           MOV     A,R1
   \   00000D   22           RET

   \                                 In  segment BANKED_CODE, align 1, keep-with-next
   \                     ?Subroutine136:
   \   000000   A3           INC     DPTR
   \   000001   A3           INC     DPTR
   \   000002   E0           MOVX    A,@DPTR
   \   000003   28           ADD     A,R0
   \   000004   F8           MOV     R0,A
   \   000005   A3           INC     DPTR
   \   000006   E0           MOVX    A,@DPTR
   \   000007   3400         ADDC    A,#0x0
   \   000009   F9           MOV     R1,A
   \   00000A   E8           MOV     A,R0
   \   00000B   22           RET

   \                                 In  segment BANKED_CODE, align 1, keep-with-next
    448          uint16 AT_ChartoInt16(AT_CmdUnit *cmdUnit){
   \                     AT_ChartoInt16:
   \   000000   74F4         MOV     A,#-0xc
   \   000002   12....       LCALL   ?BANKED_ENTER_XDATA
   \   000005                ; Saved register size: 12
   \   000005                ; Auto size: 0
   \   000005   8A..         MOV     ?V0 + 0,R2
   \   000007   8B..         MOV     ?V0 + 1,R3
    449            uint16 result=0;
   \   000009   7E00         MOV     R6,#0x0
   \   00000B   7F00         MOV     R7,#0x0
    450            if(cmdUnit->unitLen>0) result |= _AT_ChartoInt(cmdUnit->unit[cmdUnit->unitLen-1]);
   \   00000D   8A82         MOV     DPL,R2
   \   00000F   8B83         MOV     DPH,R3
   \   000011   A3           INC     DPTR
   \   000012   E0           MOVX    A,@DPTR
   \   000013   6073         JZ      ??AT_ChartoInt16_0
   \   000015   8A82         MOV     DPL,R2
   \   000017   8B83         MOV     DPH,R3
   \   000019   A3           INC     DPTR
   \   00001A   8582..       MOV     ?V0 + 2,DPL
   \   00001D   8583..       MOV     ?V0 + 3,DPH
   \   000020                ; Setup parameters for call to function _AT_ChartoInt
   \   000020   F8           MOV     R0,A
   \   000021   8A82         MOV     DPL,R2
   \   000023   8B83         MOV     DPH,R3
   \   000025   12....       LCALL   ?Subroutine36 & 0xFFFF
   \                     ??CrossCallReturnLabel_38:
   \   000028   FE           MOV     R6,A
    451            if(cmdUnit->unitLen>1) result |=((uint16) _AT_ChartoInt(cmdUnit->unit[cmdUnit->unitLen-2]))<<(1*4);
   \   000029   85..82       MOV     DPL,?V0 + 2
   \   00002C   85..83       MOV     DPH,?V0 + 3
   \   00002F   E0           MOVX    A,@DPTR
   \   000030   C3           CLR     C
   \   000031   9402         SUBB    A,#0x2
   \   000033   4017         JC      ??AT_ChartoInt16_1
   \   000035                ; Setup parameters for call to function _AT_ChartoInt
   \   000035   12....       LCALL   ?Subroutine30 & 0xFFFF
   \                     ??CrossCallReturnLabel_24:
   \   000038   12....       LCALL   ?Subroutine48 & 0xFFFF
   \                     ??CrossCallReturnLabel_315:
   \   00003B   F5..         MOV     ?V0 + 2,A
   \   00003D   8F..         MOV     ?V0 + 3,R7
   \   00003F   7404         MOV     A,#0x4
   \   000041   78..         MOV     R0,#?V0 + 2
   \   000043   12....       LCALL   ?S_SHL
   \   000046   E5..         MOV     A,?V0 + 2
   \   000048   4E           ORL     A,R6
   \   000049   FE           MOV     R6,A
   \   00004A   AF..         MOV     R7,?V0 + 3
    452            if(cmdUnit->unitLen>2) result |=((uint16) _AT_ChartoInt(cmdUnit->unit[cmdUnit->unitLen-3]))<<(2*4);
   \                     ??AT_ChartoInt16_1:
   \   00004C   85..82       MOV     DPL,?V0 + 0
   \   00004F   85..83       MOV     DPH,?V0 + 1
   \   000052   A3           INC     DPTR
   \   000053   E0           MOVX    A,@DPTR
   \   000054   C3           CLR     C
   \   000055   9403         SUBB    A,#0x3
   \   000057   400A         JC      ??AT_ChartoInt16_2
   \   000059                ; Setup parameters for call to function _AT_ChartoInt
   \   000059   12....       LCALL   ?Subroutine30 & 0xFFFF
   \                     ??CrossCallReturnLabel_25:
   \   00005C   24FD         ADD     A,#-0x3
   \   00005E   12....       LCALL   ??Subroutine177_0 & 0xFFFF
   \                     ??CrossCallReturnLabel_316:
   \   000061   4F           ORL     A,R7
   \   000062   FF           MOV     R7,A
    453            if(cmdUnit->unitLen>3) result |=((uint16) _AT_ChartoInt(cmdUnit->unit[cmdUnit->unitLen-4]))<<(3*4);
   \                     ??AT_ChartoInt16_2:
   \   000063   85..82       MOV     DPL,?V0 + 0
   \   000066   85..83       MOV     DPH,?V0 + 1
   \   000069   A3           INC     DPTR
   \   00006A   E0           MOVX    A,@DPTR
   \   00006B   C3           CLR     C
   \   00006C   9404         SUBB    A,#0x4
   \   00006E   4018         JC      ??AT_ChartoInt16_0
   \   000070                ; Setup parameters for call to function _AT_ChartoInt
   \   000070   12....       LCALL   ?Subroutine30 & 0xFFFF
   \                     ??CrossCallReturnLabel_26:
   \   000073   24FC         ADD     A,#-0x4
   \   000075   12....       LCALL   ??Subroutine177_0 & 0xFFFF
   \                     ??CrossCallReturnLabel_317:
   \   000078   F5..         MOV     ?V0 + 0,A
   \   00007A   75..00       MOV     ?V0 + 1,#0x0
   \   00007D   740C         MOV     A,#0xc
   \   00007F   78..         MOV     R0,#?V0 + 0
   \   000081   12....       LCALL   ?S_SHL
   \   000084   E5..         MOV     A,?V0 + 1
   \   000086   4F           ORL     A,R7
   \   000087   FF           MOV     R7,A
    454            return result;
   \                     ??AT_ChartoInt16_0:
   \   000088   EE           MOV     A,R6
   \   000089   FA           MOV     R2,A
   \   00008A   EF           MOV     A,R7
   \   00008B   FB           MOV     R3,A
   \   00008C   02....       LJMP    ??Subroutine196_0 & 0xFFFF
    455          }

   \                                 In  segment BANKED_CODE, align 1, keep-with-next
   \                     ?Subroutine30:
   \   000000   85..82       MOV     DPL,?V0 + 0
   \   000003   85..83       MOV     DPH,?V0 + 1
   \   000006   A3           INC     DPTR
   \   000007   E0           MOVX    A,@DPTR
   \   000008   F8           MOV     R0,A
   \   000009   85..82       MOV     DPL,?V0 + 0
   \   00000C   85..83       MOV     DPH,?V0 + 1
   \   00000F   12....       LCALL   ?Subroutine136 & 0xFFFF
   \                     ??CrossCallReturnLabel_265:
   \   000012   22           RET

   \                                 In  segment BANKED_CODE, align 1, keep-with-next
    456          void AT_capitalizeCmd(AT_CmdUnit *cmdUnit){
   \                     AT_capitalizeCmd:
   \   000000   C082         PUSH    DPL
   \   000002   C083         PUSH    DPH
   \   000004                ; Saved register size: 2
   \   000004                ; Auto size: 0
    457            //capitalize the characters
    458            uint8 i;
    459            for(i=0;i<cmdUnit->unitLen;i++){  
   \   000004   7D00         MOV     R5,#0x0
   \   000006   8024         SJMP    ??AT_capitalizeCmd_0
    460              if(cmdUnit->unit[i]<='z' && cmdUnit->unit[i]>='a') cmdUnit->unit[i] += ('A'-'a');
   \                     ??AT_capitalizeCmd_1:
   \   000008   ED           MOV     A,R5
   \   000009   F8           MOV     R0,A
   \   00000A   8A82         MOV     DPL,R2
   \   00000C   8B83         MOV     DPH,R3
   \   00000E   A3           INC     DPTR
   \   00000F   A3           INC     DPTR
   \   000010   E0           MOVX    A,@DPTR
   \   000011   28           ADD     A,R0
   \   000012   FC           MOV     R4,A
   \   000013   12....       LCALL   ?Subroutine52 & 0xFFFF
   \                     ??CrossCallReturnLabel_67:
   \   000016   249F         ADD     A,#-0x61
   \   000018   C3           CLR     C
   \   000019   941A         SUBB    A,#0x1a
   \   00001B   500E         JNC     ??AT_capitalizeCmd_2
   \   00001D   8A82         MOV     DPL,R2
   \   00001F   8B83         MOV     DPH,R3
   \   000021   A3           INC     DPTR
   \   000022   A3           INC     DPTR
   \   000023   E0           MOVX    A,@DPTR
   \   000024   28           ADD     A,R0
   \   000025   12....       LCALL   ?Subroutine52 & 0xFFFF
    461           }
   \                     ??CrossCallReturnLabel_68:
   \   000028   24E0         ADD     A,#-0x20
   \   00002A   F0           MOVX    @DPTR,A
   \                     ??AT_capitalizeCmd_2:
   \   00002B   0D           INC     R5
   \                     ??AT_capitalizeCmd_0:
   \   00002C   8A82         MOV     DPL,R2
   \   00002E   8B83         MOV     DPH,R3
   \   000030   A3           INC     DPTR
   \   000031   E0           MOVX    A,@DPTR
   \   000032   F8           MOV     R0,A
   \   000033   ED           MOV     A,R5
   \   000034   C3           CLR     C
   \   000035   98           SUBB    A,R0
   \   000036   40D0         JC      ??AT_capitalizeCmd_1
    462          }
   \   000038                REQUIRE ?Subroutine2
   \   000038                ; // Fall through to label ?Subroutine2

   \                                 In  segment BANKED_CODE, align 1, keep-with-next
   \                     ?Subroutine52:
   \   000000   A3           INC     DPTR
   \   000001   E0           MOVX    A,@DPTR
   \   000002   3400         ADDC    A,#0x0
   \   000004   8C82         MOV     DPL,R4
   \   000006   F583         MOV     DPH,A
   \   000008   E0           MOVX    A,@DPTR
   \   000009   22           RET
    463          /**************************************************************
    464          sorting the array
    465          ****************************************************************/

   \                                 In  segment BANKED_CODE, align 1, keep-with-next
    466          void AT_sort_arr(uint8 *a, uint8 array_size){
   \                     AT_sort_arr:
   \   000000   74F6         MOV     A,#-0xa
   \   000002   12....       LCALL   ?BANKED_ENTER_XDATA
   \   000005                ; Saved register size: 10
   \   000005                ; Auto size: 0
   \   000005   E9           MOV     A,R1
   \   000006   FC           MOV     R4,A
    467            uint8 i, j, index;
    468            for (i = 1; i < array_size; ++i)
   \   000007   7D01         MOV     R5,#0x1
   \   000009   8039         SJMP    ??AT_sort_arr_0
    469               {
    470                    index = a[i];
   \                     ??AT_sort_arr_1:
   \   00000B   8D..         MOV     ?V0 + 0,R5
   \   00000D   12....       LCALL   ?Subroutine61 & 0xFFFF
   \                     ??CrossCallReturnLabel_90:
   \   000010   FF           MOV     R7,A
    471                    for (j = i; j > 0 && a[j-1] > index; j--)
   \   000011   ED           MOV     A,R5
   \   000012   FE           MOV     R6,A
   \                     ??AT_sort_arr_2:
   \   000013   8E..         MOV     ?V0 + 0,R6
   \   000015   EA           MOV     A,R2
   \   000016   25..         ADD     A,?V0 + 0
   \   000018   F8           MOV     R0,A
   \   000019   EB           MOV     A,R3
   \   00001A   3400         ADDC    A,#0x0
   \   00001C   F9           MOV     R1,A
   \   00001D   E8           MOV     A,R0
   \   00001E   24FF         ADD     A,#-0x1
   \   000020   F582         MOV     DPL,A
   \   000022   E9           MOV     A,R1
   \   000023   34FF         ADDC    A,#-0x1
   \   000025   F583         MOV     DPH,A
   \   000027   E0           MOVX    A,@DPTR
   \   000028   F8           MOV     R0,A
   \   000029   EF           MOV     A,R7
   \   00002A   C3           CLR     C
   \   00002B   98           SUBB    A,R0
   \   00002C   500E         JNC     ??AT_sort_arr_3
    472                         a[j] = a[j-1];
   \   00002E   EA           MOV     A,R2
   \   00002F   25..         ADD     A,?V0 + 0
   \   000031   F8           MOV     R0,A
   \   000032   E0           MOVX    A,@DPTR
   \   000033   8882         MOV     DPL,R0
   \   000035   8983         MOV     DPH,R1
   \   000037   F0           MOVX    @DPTR,A
   \   000038   1E           DEC     R6
   \   000039   EE           MOV     A,R6
   \   00003A   70D7         JNZ     ??AT_sort_arr_2
    473          
    474                    a[j] = index;
   \                     ??AT_sort_arr_3:
   \   00003C   8E..         MOV     ?V0 + 0,R6
   \   00003E   12....       LCALL   ?Subroutine65 & 0xFFFF
    475               }
   \                     ??CrossCallReturnLabel_99:
   \   000041   EF           MOV     A,R7
   \   000042   F0           MOVX    @DPTR,A
   \   000043   0D           INC     R5
   \                     ??AT_sort_arr_0:
   \   000044   ED           MOV     A,R5
   \   000045   C3           CLR     C
   \   000046   9C           SUBB    A,R4
   \   000047   40C2         JC      ??AT_sort_arr_1
    476          
    477          }
   \   000049   02....       LJMP    ??Subroutine175_0 & 0xFFFF

   \                                 In  segment BANKED_CODE, align 1, keep-with-next
   \                     ?Subroutine61:
   \   000000   12....       LCALL   ?Subroutine142 & 0xFFFF
   \                     ??CrossCallReturnLabel_276:
   \   000003   22           RET

   \                                 In  segment BANKED_CODE, align 1, keep-with-next
   \                     ?Subroutine142:
   \   000000   EA           MOV     A,R2
   \   000001   25..         ADD     A,?V0 + 0
   \   000003   F582         MOV     DPL,A
   \   000005   EB           MOV     A,R3
   \   000006   3400         ADDC    A,#0x0
   \   000008   F583         MOV     DPH,A
   \   00000A   E0           MOVX    A,@DPTR
   \   00000B   22           RET

   \                                 In  segment BANKED_CODE, align 1, keep-with-next
   \                     ?Subroutine65:
   \   000000   EA           MOV     A,R2
   \   000001   12....       LCALL   ??Subroutine180_0 & 0xFFFF
   \                     ??CrossCallReturnLabel_329:
   \   000004   EB           MOV     A,R3
   \   000005   12....       LCALL   ?Subroutine153 & 0xFFFF
   \                     ??CrossCallReturnLabel_410:
   \   000008   22           RET
    478          
    479          

   \                                 In  segment BANKED_CODE, align 1, keep-with-next
    480          void AT_ChartoIntx(AT_CmdUnit *cmdUnit,uint8 *pHex, uint8 x){
   \                     AT_ChartoIntx:
   \   000000   74ED         MOV     A,#-0x13
   \   000002   12....       LCALL   ?BANKED_ENTER_XDATA
   \   000005                ; Saved register size: 19
   \   000005                ; Auto size: 0
   \   000005   8A..         MOV     ?V0 + 4,R2
   \   000007   8B..         MOV     ?V0 + 5,R3
   \   000009   8C..         MOV     ?V0 + 8,R4
   \   00000B   8D..         MOV     ?V0 + 9,R5
    481            uint8 len=x/8;
   \   00000D   E9           MOV     A,R1
   \   00000E   13           RRC     A
   \   00000F   13           RRC     A
   \   000010   13           RRC     A
   \   000011   541F         ANL     A,#0x1f
   \   000013   F5..         MOV     ?V0 + 7,A
    482            uint8 i;
    483            for(i=0;i<len;i++){
   \   000015   600D         JZ      ??AT_ChartoIntx_0
    484              pHex[i]=0;
   \   000017   F8           MOV     R0,A
   \   000018   7900         MOV     R1,#0x0
   \   00001A   8C82         MOV     DPL,R4
   \   00001C   8D83         MOV     DPH,R5
   \                     ??AT_ChartoIntx_1:
   \   00001E   E4           CLR     A
   \   00001F   12....       LCALL   ?Subroutine24 & 0xFFFF
    485            }
   \                     ??CrossCallReturnLabel_13:
   \   000022   70FA         JNZ     ??AT_ChartoIntx_1
    486            for(i=0;i<len;i++){
   \                     ??AT_ChartoIntx_0:
   \   000024   75..00       MOV     ?V0 + 10,#0x0
   \   000027   8029         SJMP    ??AT_ChartoIntx_2
    487              if(cmdUnit->unitLen>2*i) pHex[i] |= _AT_ChartoInt(cmdUnit->unit[cmdUnit->unitLen-1-2*i]);
    488              else break;
    489              if(cmdUnit->unitLen>2*i+1) pHex[i] |= _AT_ChartoInt(cmdUnit->unit[cmdUnit->unitLen-2-2*i])<<(1*4);
   \                     ??AT_ChartoIntx_3:
   \   000029                ; Setup parameters for call to function _AT_ChartoInt
   \   000029   85..82       MOV     DPL,?V0 + 4
   \   00002C   85..83       MOV     DPH,?V0 + 5
   \   00002F   A3           INC     DPTR
   \   000030   E0           MOVX    A,@DPTR
   \   000031   24FE         ADD     A,#-0x2
   \   000033   1A           DEC     R2
   \   000034   1A           DEC     R2
   \   000035   E4           CLR     A
   \   000036   34FF         ADDC    A,#-0x1
   \   000038   FB           MOV     R3,A
   \   000039   EE           MOV     A,R6
   \   00003A   C3           CLR     C
   \   00003B   33           RLC     A
   \   00003C   18           DEC     R0
   \   00003D   E4           CLR     A
   \   00003E   33           RLC     A
   \   00003F   F9           MOV     R1,A
   \   000040   EA           MOV     A,R2
   \   000041   98           SUBB    A,R0
   \   000042   F8           MOV     R0,A
   \   000043   EB           MOV     A,R3
   \   000044   99           SUBB    A,R1
   \   000045   12....       LCALL   ?Subroutine41 & 0xFFFF
   \                     ??CrossCallReturnLabel_43:
   \   000048   C4           SWAP    A
   \   000049   54F0         ANL     A,#0xf0
   \   00004B   12....       LCALL   ?Subroutine66 & 0xFFFF
   \                     ??CrossCallReturnLabel_324:
   \   00004E   48           ORL     A,R0
   \   00004F   F0           MOVX    @DPTR,A
   \   000050   05..         INC     ?V0 + 10
   \                     ??AT_ChartoIntx_2:
   \   000052   E5..         MOV     A,?V0 + 10
   \   000054   C3           CLR     C
   \   000055   95..         SUBB    A,?V0 + 7
   \   000057   5064         JNC     ??AT_ChartoIntx_4
   \   000059   E5..         MOV     A,?V0 + 10
   \   00005B   C3           CLR     C
   \   00005C   33           RLC     A
   \   00005D   F8           MOV     R0,A
   \   00005E   E4           CLR     A
   \   00005F   33           RLC     A
   \   000060   F9           MOV     R1,A
   \   000061   85..82       MOV     DPL,?V0 + 4
   \   000064   85..83       MOV     DPH,?V0 + 5
   \   000067   A3           INC     DPTR
   \   000068   E0           MOVX    A,@DPTR
   \   000069   FA           MOV     R2,A
   \   00006A   E8           MOV     A,R0
   \   00006B   9A           SUBB    A,R2
   \   00006C   E9           MOV     A,R1
   \   00006D   9400         SUBB    A,#0x0
   \   00006F   C3           CLR     C
   \   000070   65D0         XRL     A,PSW
   \   000072   33           RLC     A
   \   000073   5048         JNC     ??AT_ChartoIntx_4
   \   000075   85..82       MOV     DPL,?V0 + 10
   \   000078   AE82         MOV     R6,DPL
   \   00007A   EE           MOV     A,R6
   \   00007B   C3           CLR     C
   \   00007C   33           RLC     A
   \   00007D   F5..         MOV     ?V0 + 0,A
   \   00007F   E4           CLR     A
   \   000080   33           RLC     A
   \   000081   F5..         MOV     ?V0 + 1,A
   \   000083   85..82       MOV     DPL,?V0 + 4
   \   000086   85..83       MOV     DPH,?V0 + 5
   \   000089   A3           INC     DPTR
   \   00008A   8582..       MOV     ?V0 + 2,DPL
   \   00008D   8583..       MOV     ?V0 + 3,DPH
   \   000090                ; Setup parameters for call to function _AT_ChartoInt
   \   000090   12....       LCALL   ?Subroutine138 & 0xFFFF
   \                     ??CrossCallReturnLabel_269:
   \   000093   95..         SUBB    A,?V0 + 0
   \   000095   F8           MOV     R0,A
   \   000096   E9           MOV     A,R1
   \   000097   95..         SUBB    A,?V0 + 1
   \   000099   12....       LCALL   ?Subroutine41 & 0xFFFF
   \                     ??CrossCallReturnLabel_44:
   \   00009C   12....       LCALL   ?Subroutine66 & 0xFFFF
   \                     ??CrossCallReturnLabel_325:
   \   00009F   48           ORL     A,R0
   \   0000A0   F0           MOVX    @DPTR,A
   \   0000A1   E5..         MOV     A,?V0 + 0
   \   0000A3   2401         ADD     A,#0x1
   \   0000A5   F8           MOV     R0,A
   \   0000A6   E5..         MOV     A,?V0 + 1
   \   0000A8   3400         ADDC    A,#0x0
   \   0000AA   F9           MOV     R1,A
   \   0000AB   85..82       MOV     DPL,?V0 + 2
   \   0000AE   85..83       MOV     DPH,?V0 + 3
   \   0000B1   E0           MOVX    A,@DPTR
   \   0000B2   FA           MOV     R2,A
   \   0000B3   E8           MOV     A,R0
   \   0000B4   9A           SUBB    A,R2
   \   0000B5   12....       LCALL   ?Subroutine90 & 0xFFFF
    490              else break;
    491            }
   \                     ??CrossCallReturnLabel_142:
   \   0000B8   5003         JNC     $+5
   \   0000BA   02....       LJMP    ??AT_ChartoIntx_3 & 0xFFFF
    492            
    493          }
   \                     ??AT_ChartoIntx_4:
   \   0000BD   7F0B         MOV     R7,#0xb
   \   0000BF   02....       LJMP    ?BANKED_LEAVE_XDATA

   \                                 In  segment BANKED_CODE, align 1, keep-with-next
   \                     ?Subroutine41:
   \   000000   F9           MOV     R1,A
   \   000001   85..82       MOV     DPL,?V0 + 4
   \   000004   85..83       MOV     DPH,?V0 + 5
   \   000007   12....       LCALL   ?Subroutine137 & 0xFFFF
   \                     ??CrossCallReturnLabel_268:
   \   00000A   F9           MOV     R1,A
   \   00000B   12....       LCALL   ??_AT_ChartoInt?relay
   \   00000E   E9           MOV     A,R1
   \   00000F   22           RET

   \                                 In  segment BANKED_CODE, align 1, keep-with-next
   \                     ?Subroutine66:
   \   000000   F8           MOV     R0,A
   \   000001   E5..         MOV     A,?V0 + 8
   \   000003   2E           ADD     A,R6
   \   000004   F582         MOV     DPL,A
   \   000006   E5..         MOV     A,?V0 + 9
   \   000008                REQUIRE ??Subroutine178_0
   \   000008                ; // Fall through to label ??Subroutine178_0

   \                                 In  segment BANKED_CODE, align 1, keep-with-next
   \                     ?Subroutine137:
   \   000000   A3           INC     DPTR
   \   000001   A3           INC     DPTR
   \   000002   E0           MOVX    A,@DPTR
   \   000003   28           ADD     A,R0
   \   000004   FA           MOV     R2,A
   \   000005   A3           INC     DPTR
   \   000006   E0           MOVX    A,@DPTR
   \   000007   39           ADDC    A,R1
   \   000008   8A82         MOV     DPL,R2
   \   00000A   F583         MOV     DPH,A
   \   00000C   E0           MOVX    A,@DPTR
   \   00000D   22           RET

   \                                 In  segment BANKED_CODE, align 1, keep-with-next
   \                     ?Subroutine138:
   \   000000   E0           MOVX    A,@DPTR
   \   000001   24FF         ADD     A,#-0x1
   \   000003   F8           MOV     R0,A
   \   000004   E4           CLR     A
   \   000005   34FF         ADDC    A,#-0x1
   \   000007   F9           MOV     R1,A
   \   000008   E8           MOV     A,R0
   \   000009   C3           CLR     C
   \   00000A   22           RET

   \                                 In  segment BANKED_CODE, align 1, keep-with-next
   \                     ?Subroutine24:
   \   000000   F0           MOVX    @DPTR,A
   \   000001   A3           INC     DPTR
   \   000002   E8           MOV     A,R0
   \   000003   24FF         ADD     A,#-0x1
   \   000005   18           DEC     R0
   \   000006   E9           MOV     A,R1
   \   000007   34FF         ADDC    A,#-0x1
   \   000009   F9           MOV     R1,A
   \   00000A   48           ORL     A,R0
   \   00000B   22           RET

   \                                 In  segment BANKED_CODE, align 1, keep-with-next
    494          uint8 AT_get_smap_index(uint8 S_ID){
   \                     AT_get_smap_index:
   \   000000   C082         PUSH    DPL
   \   000002   C083         PUSH    DPH
   \   000004                ; Saved register size: 2
   \   000004                ; Auto size: 0
   \   000004   E9           MOV     A,R1
   \   000005   FC           MOV     R4,A
    495              uint8 index;          //for check record
    496              for(index=1;index<sizeof(AT_smap)/sizeof(AT_smap_unit_t);index++){
   \   000006   7901         MOV     R1,#0x1
    497                if(AT_smap[index].S_ID==S_ID) return index;
   \                     ??AT_get_smap_index_0:
   \   000008   E9           MOV     A,R1
   \   000009   75F003       MOV     B,#0x3
   \   00000C   A4           MUL     AB
   \   00000D   FA           MOV     R2,A
   \   00000E   ABF0         MOV     R3,B
   \   000010   74..         MOV     A,#(AT_smap + 2) & 0xff
   \   000012   2A           ADD     A,R2
   \   000013   F582         MOV     DPL,A
   \   000015   74..         MOV     A,#((AT_smap + 2) >> 8) & 0xff
   \   000017   3B           ADDC    A,R3
   \   000018   F583         MOV     DPH,A
   \   00001A   E0           MOVX    A,@DPTR
   \   00001B   6C           XRL     A,R4
   \   00001C   6009         JZ      ??AT_get_smap_index_1
    498              }
   \   00001E   09           INC     R1
   \   00001F   E9           MOV     A,R1
   \   000020   C3           CLR     C
   \   000021   9413         SUBB    A,#0x13
   \   000023   40E3         JC      ??AT_get_smap_index_0
    499              return 0x00;
   \   000025   7900         MOV     R1,#0x0
   \                     ??AT_get_smap_index_1:
   \   000027   02....       LJMP    ?Subroutine2 & 0xFFFF
    500          }
    501          uint8 AT_display_pre_cmd(void){
    502            uint8 i;
    503            for(i=0;;i++){
    504              if(AT_RxBuffer[i]== '\r') break;
    505            }
    506            AT_DEBUG("AT",2);
    507            AT_DEBUG(AT_RxBuffer,i);
    508            return i;
    509          }

   \                                 In  segment BANKED_CODE, align 1, keep-with-next
    510          uint8 AT_get_next_cmdUnit(AT_CmdUnit* cmdUnit,uint8 start_point, uint8* msg){
   \                     AT_get_next_cmdUnit:
   \   000000   74F6         MOV     A,#-0xa
   \   000002   12....       LCALL   ?BANKED_ENTER_XDATA
   \   000005                ; Saved register size: 10
   \   000005                ; Auto size: 0
    511            
    512            cmdUnit->unitLen=0;
   \   000005   8A82         MOV     DPL,R2
   \   000007   8B83         MOV     DPH,R3
   \   000009   A3           INC     DPTR
   \   00000A   E4           CLR     A
   \   00000B   F0           MOVX    @DPTR,A
   \   00000C   8001         SJMP    ??AT_get_next_cmdUnit_0
    513            for(;;start_point++){
   \                     ??AT_get_next_cmdUnit_1:
   \   00000E   09           INC     R1
    514              if(msg[start_point] == ' '||msg[start_point] == '\0'){
   \                     ??AT_get_next_cmdUnit_0:
   \   00000F   12....       LCALL   ?Subroutine62 & 0xFFFF
   \                     ??CrossCallReturnLabel_93:
   \   000012   60FA         JZ      ??AT_get_next_cmdUnit_1
   \   000014   E0           MOVX    A,@DPTR
   \   000015   60F7         JZ      ??AT_get_next_cmdUnit_1
    515                continue;
    516              }
    517              else if((msg[start_point]<='z' && msg[start_point]>='a') || 
    518                 (msg[start_point]<='Z' && msg[start_point]>='A') || 
    519                 (msg[start_point]<='9' && msg[start_point]>='0')){
   \   000017   249F         ADD     A,#-0x61
   \   000019   C3           CLR     C
   \   00001A   941A         SUBB    A,#0x1a
   \   00001C   4010         JC      ??AT_get_next_cmdUnit_2
   \   00001E   E0           MOVX    A,@DPTR
   \   00001F   24BF         ADD     A,#-0x41
   \   000021   C3           CLR     C
   \   000022   941A         SUBB    A,#0x1a
   \   000024   4008         JC      ??AT_get_next_cmdUnit_2
   \   000026   E0           MOVX    A,@DPTR
   \   000027   24D0         ADD     A,#-0x30
   \   000029   C3           CLR     C
   \   00002A   940A         SUBB    A,#0xa
   \   00002C   5008         JNC     ??AT_get_next_cmdUnit_3
    520                 cmdUnit->symbol ='\0';                                  //indicate no operator
   \                     ??AT_get_next_cmdUnit_2:
   \   00002E   8A82         MOV     DPL,R2
   \   000030   8B83         MOV     DPH,R3
   \   000032   E4           CLR     A
   \   000033   F0           MOVX    @DPTR,A
    521                 break;
   \   000034   8014         SJMP    ??AT_get_next_cmdUnit_4
    522              }
    523              else if(msg[start_point] == '\r'){        //indicate the end of one command
   \                     ??AT_get_next_cmdUnit_3:
   \   000036   E0           MOVX    A,@DPTR
   \   000037   640D         XRL     A,#0xd
   \   000039   7008         JNZ     ??AT_get_next_cmdUnit_5
    524                cmdUnit->symbol =msg[start_point];
   \   00003B   E0           MOVX    A,@DPTR
   \   00003C   8A82         MOV     DPL,R2
   \   00003E   8B83         MOV     DPH,R3
   \   000040   F0           MOVX    @DPTR,A
    525                return start_point;
   \   000041   8053         SJMP    ??AT_get_next_cmdUnit_6
    526              }
    527              else {
    528                cmdUnit->symbol =msg[start_point];
   \                     ??AT_get_next_cmdUnit_5:
   \   000043   E0           MOVX    A,@DPTR
   \   000044   8A82         MOV     DPL,R2
   \   000046   8B83         MOV     DPH,R3
   \   000048   F0           MOVX    @DPTR,A
    529                start_point++;
    530                break;
    531              }
    532            }
    533            
    534            for(;;start_point++){
    535              if(msg[start_point] == ' '|| msg[start_point] == '\0'){
    536                continue;
   \                     ??AT_get_next_cmdUnit_7:
   \   000049   09           INC     R1
   \                     ??AT_get_next_cmdUnit_4:
   \   00004A   12....       LCALL   ?Subroutine62 & 0xFFFF
   \                     ??CrossCallReturnLabel_94:
   \   00004D   60FA         JZ      ??AT_get_next_cmdUnit_7
   \   00004F   E0           MOVX    A,@DPTR
   \   000050   60F7         JZ      ??AT_get_next_cmdUnit_7
    537              }
    538              else while((msg[start_point]<='z' && msg[start_point]>='a') || 
    539                 (msg[start_point]<='Z' && msg[start_point]>='A') || 
    540                 (msg[start_point]<='9' && msg[start_point]>='0') )   {
   \                     ??AT_get_next_cmdUnit_8:
   \   000052   12....       LCALL   ?Subroutine143 & 0xFFFF
   \                     ??CrossCallReturnLabel_330:
   \   000055   ED           MOV     A,R5
   \   000056   12....       LCALL   ??Subroutine178_0 & 0xFFFF
   \                     ??CrossCallReturnLabel_322:
   \   000059   249F         ADD     A,#-0x61
   \   00005B   C3           CLR     C
   \   00005C   941A         SUBB    A,#0x1a
   \   00005E   4010         JC      ??AT_get_next_cmdUnit_9
   \   000060   E0           MOVX    A,@DPTR
   \   000061   24BF         ADD     A,#-0x41
   \   000063   C3           CLR     C
   \   000064   941A         SUBB    A,#0x1a
   \   000066   4008         JC      ??AT_get_next_cmdUnit_9
   \   000068   E0           MOVX    A,@DPTR
   \   000069   24D0         ADD     A,#-0x30
   \   00006B   C3           CLR     C
   \   00006C   940A         SUBB    A,#0xa
   \   00006E   5026         JNC     ??AT_get_next_cmdUnit_6
    541                 if(cmdUnit->unitLen==0) cmdUnit->unit = &msg[start_point];
   \                     ??AT_get_next_cmdUnit_9:
   \   000070   8A82         MOV     DPL,R2
   \   000072   8B83         MOV     DPH,R3
   \   000074   A3           INC     DPTR
   \   000075   E0           MOVX    A,@DPTR
   \   000076   7013         JNZ     ??AT_get_next_cmdUnit_10
   \   000078   EC           MOV     A,R4
   \   000079   25..         ADD     A,?V0 + 0
   \   00007B   FE           MOV     R6,A
   \   00007C   ED           MOV     A,R5
   \   00007D   3400         ADDC    A,#0x0
   \   00007F   FF           MOV     R7,A
   \   000080   8A82         MOV     DPL,R2
   \   000082   8B83         MOV     DPH,R3
   \   000084   A3           INC     DPTR
   \   000085   A3           INC     DPTR
   \   000086   EE           MOV     A,R6
   \   000087   F0           MOVX    @DPTR,A
   \   000088   A3           INC     DPTR
   \   000089   EF           MOV     A,R7
   \   00008A   F0           MOVX    @DPTR,A
    542                 cmdUnit->unitLen++;
   \                     ??AT_get_next_cmdUnit_10:
   \   00008B   8A82         MOV     DPL,R2
   \   00008D   8B83         MOV     DPH,R3
   \   00008F   A3           INC     DPTR
   \   000090   E0           MOVX    A,@DPTR
   \   000091   04           INC     A
   \   000092   F0           MOVX    @DPTR,A
    543                 start_point++;
   \   000093   09           INC     R1
   \   000094   80BC         SJMP    ??AT_get_next_cmdUnit_8
    544              }
    545              return start_point;
   \                     ??AT_get_next_cmdUnit_6:
   \   000096   02....       LJMP    ??Subroutine175_0 & 0xFFFF
    546            }
    547          }

   \                                 In  segment BANKED_CODE, align 1, keep-with-next
   \                     ?Subroutine62:
   \   000000   12....       LCALL   ?Subroutine143 & 0xFFFF
   \                     ??CrossCallReturnLabel_331:
   \   000003   ED           MOV     A,R5
   \   000004   12....       LCALL   ?Subroutine153 & 0xFFFF
   \                     ??CrossCallReturnLabel_408:
   \   000007   E0           MOVX    A,@DPTR
   \   000008   6420         XRL     A,#0x20
   \   00000A   22           RET

   \                                 In  segment BANKED_CODE, align 1, keep-with-next
   \                     ?Subroutine143:
   \   000000   89..         MOV     ?V0 + 0,R1
   \   000002   EC           MOV     A,R4
   \   000003                REQUIRE ??Subroutine180_0
   \   000003                ; // Fall through to label ??Subroutine180_0
    548          
    549          /*
    550          uint8 CmpStr(uint8* str1,uint8* str2);
    551          uint8 CmpStr(uint8* str1,uint8* str2){
    552            int i;
    553            for(i=0;str1[i]!='\0' && str2[i]!='\0';i++){
    554              if(str1[i]!=str2[i]) return str1[i]-str2[i];
    555            }
    556            return str1[i]-str2[i];
    557          }
    558          */

   \                                 In  segment BANKED_CODE, align 1, keep-with-next
    559          int8 AT_CmpCmd(AT_CmdUnit* cmdUnit,uint8* str2){
   \                     AT_CmpCmd:
   \   000000   74F7         MOV     A,#-0x9
   \   000002   12....       LCALL   ?BANKED_ENTER_XDATA
   \   000005                ; Saved register size: 9
   \   000005                ; Auto size: 0
    560            int i;
    561            for(i=0;i<cmdUnit->unitLen;i++){  
   \   000005   7800         MOV     R0,#0x0
   \   000007   7900         MOV     R1,#0x0
   \   000009   8003         SJMP    ??CrossCallReturnLabel_151
   \                     ??AT_CmpCmd_0:
   \   00000B   12....       LCALL   ?Subroutine94 & 0xFFFF
   \                     ??CrossCallReturnLabel_151:
   \   00000E   8A82         MOV     DPL,R2
   \   000010   8B83         MOV     DPH,R3
   \   000012   A3           INC     DPTR
   \   000013   E0           MOVX    A,@DPTR
   \   000014   FE           MOV     R6,A
   \   000015   C3           CLR     C
   \   000016   E8           MOV     A,R0
   \   000017   9E           SUBB    A,R6
   \   000018   12....       LCALL   ?Subroutine90 & 0xFFFF
   \                     ??CrossCallReturnLabel_143:
   \   00001B   8A82         MOV     DPL,R2
   \   00001D   8B83         MOV     DPH,R3
   \   00001F   A3           INC     DPTR
   \   000020   5025         JNC     ??AT_CmpCmd_1
    562              if(cmdUnit->unit[i]!=str2[i]) return cmdUnit->unit[i]-str2[i];
   \   000022   A3           INC     DPTR
   \   000023   E0           MOVX    A,@DPTR
   \   000024   28           ADD     A,R0
   \   000025   FE           MOV     R6,A
   \   000026   A3           INC     DPTR
   \   000027   E0           MOVX    A,@DPTR
   \   000028   39           ADDC    A,R1
   \   000029   8E82         MOV     DPL,R6
   \   00002B   F583         MOV     DPH,A
   \   00002D   E0           MOVX    A,@DPTR
   \   00002E   FE           MOV     R6,A
   \   00002F   EC           MOV     A,R4
   \   000030   28           ADD     A,R0
   \   000031   F582         MOV     DPL,A
   \   000033   ED           MOV     A,R5
   \   000034   12....       LCALL   ?Subroutine157 & 0xFFFF
   \                     ??CrossCallReturnLabel_559:
   \   000037   6E           XRL     A,R6
   \   000038   60D1         JZ      ??AT_CmpCmd_0
   \   00003A   E0           MOVX    A,@DPTR
   \   00003B   FC           MOV     R4,A
   \   00003C   8A82         MOV     DPL,R2
   \   00003E   8B83         MOV     DPH,R3
   \   000040   12....       LCALL   ?Subroutine137 & 0xFFFF
    563            }
   \                     ??CrossCallReturnLabel_267:
   \   000043   C3           CLR     C
   \   000044   9C           SUBB    A,R4
   \   000045   800C         SJMP    ??AT_CmpCmd_2
    564            return 0-str2[cmdUnit->unitLen];
   \                     ??AT_CmpCmd_1:
   \   000047   E0           MOVX    A,@DPTR
   \   000048   F8           MOV     R0,A
   \   000049   EC           MOV     A,R4
   \   00004A   28           ADD     A,R0
   \   00004B   F582         MOV     DPL,A
   \   00004D   ED           MOV     A,R5
   \   00004E   12....       LCALL   ??Subroutine178_0 & 0xFFFF
   \                     ??CrossCallReturnLabel_323:
   \   000051   F4           CPL     A
   \   000052   04           INC     A
   \                     ??AT_CmpCmd_2:
   \   000053   F9           MOV     R1,A
   \   000054   02....       LJMP    ??Subroutine173_0 & 0xFFFF
    565          }
    566          

   \                                 In  segment BANKED_CODE, align 1, keep-with-next
    567          uint8 AT_strLen(char * str){
   \                     AT_strLen:
   \   000000   74F6         MOV     A,#-0xa
   \   000002   12....       LCALL   ?BANKED_ENTER_XDATA
   \   000005                ; Saved register size: 10
   \   000005                ; Auto size: 0
    568            uint8 i;
    569            for(i=0;i<255;i++){
   \   000005   7900         MOV     R1,#0x0
    570              if(str[i]=='\0') break;
   \                     ??AT_strLen_0:
   \   000007   89..         MOV     ?V0 + 0,R1
   \   000009   12....       LCALL   ?Subroutine61 & 0xFFFF
    571            }
   \                     ??CrossCallReturnLabel_91:
   \   00000C   6006         JZ      ??AT_strLen_1
   \   00000E   09           INC     R1
   \   00000F   74FF         MOV     A,#-0x1
   \   000011   69           XRL     A,R1
   \   000012   70F3         JNZ     ??AT_strLen_0
    572            return i;
   \                     ??AT_strLen_1:
   \   000014   02....       LJMP    ??Subroutine175_0 & 0xFFFF
    573          }
    574          

   \                                 In  segment BANKED_CODE, align 1, keep-with-next
    575          void AT_HandleCMD(uint8 *msg){
   \                     AT_HandleCMD:
   \   000000   74F2         MOV     A,#-0xe
   \   000002   12....       LCALL   ?BANKED_ENTER_XDATA
   \   000005                ; Saved register size: 14
   \   000005                ; Auto size: 4
   \   000005   74FC         MOV     A,#-0x4
   \   000007   12....       LCALL   ?ALLOC_XSTACK8
   \   00000A   EA           MOV     A,R2
   \   00000B   FE           MOV     R6,A
   \   00000C   EB           MOV     A,R3
   \   00000D   FF           MOV     R7,A
    576            uint8 start_point=0;
    577            AT_DEBUG( "\n", 1);
   \   00000E                ; Setup parameters for call to function AT_HalUARTWrite
   \   00000E   7C01         MOV     R4,#0x1
   \   000010   7D00         MOV     R5,#0x0
   \   000012   7A..         MOV     R2,#`?<Constant "\\n">` & 0xff
   \   000014   7B..         MOV     R3,#(`?<Constant "\\n">` >> 8) & 0xff
   \   000016   7900         MOV     R1,#0x0
   \   000018   12....       LCALL   ??AT_HalUARTWrite?relay
    578            AT_DEBUG( msg, getAT_CMDlength(msg));
   \   00001B   7800         MOV     R0,#0x0
   \   00001D   7900         MOV     R1,#0x0
   \   00001F   8003         SJMP    ??CrossCallReturnLabel_152
   \                     ??AT_HandleCMD_0:
   \   000021   12....       LCALL   ?Subroutine94 & 0xFFFF
   \                     ??CrossCallReturnLabel_152:
   \   000024   EE           MOV     A,R6
   \   000025   28           ADD     A,R0
   \   000026   F582         MOV     DPL,A
   \   000028   EF           MOV     A,R7
   \   000029   12....       LCALL   ?Subroutine157 & 0xFFFF
   \                     ??CrossCallReturnLabel_560:
   \   00002C   640D         XRL     A,#0xd
   \   00002E   70F1         JNZ     ??AT_HandleCMD_0
   \   000030                ; Setup parameters for call to function AT_HalUARTWrite
   \   000030   E8           MOV     A,R0
   \   000031   FC           MOV     R4,A
   \   000032   7D00         MOV     R5,#0x0
   \   000034   EE           MOV     A,R6
   \   000035   FA           MOV     R2,A
   \   000036   EF           MOV     A,R7
   \   000037   FB           MOV     R3,A
   \   000038   7900         MOV     R1,#0x0
   \   00003A   12....       LCALL   ??AT_HalUARTWrite?relay
    579            AT_CmdUnit cmdUnit;
    580            uint16 i;
    581            start_point = AT_get_next_cmdUnit(&cmdUnit,start_point, msg);
   \   00003D                ; Setup parameters for call to function AT_get_next_cmdUnit
   \   00003D   EE           MOV     A,R6
   \   00003E   FC           MOV     R4,A
   \   00003F   EF           MOV     A,R7
   \   000040   FD           MOV     R5,A
   \   000041   7900         MOV     R1,#0x0
   \   000043   12....       LCALL   ?Subroutine104 & 0xFFFF
   \                     ??CrossCallReturnLabel_496:
   \   000046   F5..         MOV     ?V0 + 2,A
    582            AT_capitalizeCmd(&cmdUnit);
   \   000048                ; Setup parameters for call to function AT_capitalizeCmd
   \   000048   85..82       MOV     DPL,?XSP + 0
   \   00004B   85..83       MOV     DPH,?XSP + 1
   \   00004E   AA82         MOV     R2,DPL
   \   000050   AB83         MOV     R3,DPH
   \   000052   12....       LCALL   ??AT_capitalizeCmd?relay
    583            if(cmdUnit.symbol =='\r'){                        //means there is no any followed operator or cmmand
   \   000055   85..82       MOV     DPL,?XSP + 0
   \   000058   85..83       MOV     DPH,?XSP + 1
   \   00005B   E0           MOVX    A,@DPTR
   \   00005C   640D         XRL     A,#0xd
   \   00005E   7010         JNZ     ??AT_HandleCMD_1
    584                 AT_OK();
   \   000060                ; Setup parameters for call to function AT_HalUARTWrite
   \   000060   7C07         MOV     R4,#0x7
   \   000062   7D00         MOV     R5,#0x0
   \   000064   7A..         MOV     R2,#`?<Constant "\\r\\nOK\\r\\n">` & 0xff
   \   000066   7B..         MOV     R3,#(`?<Constant "\\r\\nOK\\r\\n">` >> 8) & 0xff
   \   000068   7900         MOV     R1,#0x0
   \   00006A   12....       LCALL   ??AT_HalUARTWrite?relay
   \   00006D   02....       LJMP    ??AT_HandleCMD_2 & 0xFFFF
    585            }
    586            else if(cmdUnit.symbol =='\0'){                   ////indicate no operator
   \                     ??AT_HandleCMD_1:
   \   000070   E0           MOVX    A,@DPTR
   \   000071   705A         JNZ     ??AT_HandleCMD_3
    587              if(AT_CmpCmd(&cmdUnit,"I")==0){
   \   000073                ; Setup parameters for call to function AT_CmpCmd
   \   000073   7C..         MOV     R4,#`?<Constant "I">` & 0xff
   \   000075   7D..         MOV     R5,#(`?<Constant "I">` >> 8) & 0xff
   \   000077   12....       LCALL   ??Subroutine183_0 & 0xFFFF
   \                     ??CrossCallReturnLabel_343:
   \   00007A   700C         JNZ     ??AT_HandleCMD_4
    588                //AT_DEBUG("\r\nDisplay Product Identification Information command\r\n", sizeof("\r\nDisplay Product Identification Information command\r\n"));
    589                AT_Cmd_ATI(start_point,msg);
   \   00007C                ; Setup parameters for call to function AT_Cmd_ATI
   \   00007C   EE           MOV     A,R6
   \   00007D   FA           MOV     R2,A
   \   00007E   EF           MOV     A,R7
   \   00007F   FB           MOV     R3,A
   \   000080   A9..         MOV     R1,?V0 + 2
   \   000082   12....       LCALL   ??AT_Cmd_ATI?relay
   \   000085   02....       LJMP    ??AT_HandleCMD_2 & 0xFFFF
    590              }else if(AT_CmpCmd(&cmdUnit,"Z")==0){
   \                     ??AT_HandleCMD_4:
   \   000088                ; Setup parameters for call to function AT_CmpCmd
   \   000088   7C..         MOV     R4,#`?<Constant "Z">` & 0xff
   \   00008A   7D..         MOV     R5,#(`?<Constant "Z">` >> 8) & 0xff
   \   00008C   12....       LCALL   ?Subroutine106 & 0xFFFF
   \                     ??CrossCallReturnLabel_340:
   \   00008F   7011         JNZ     ??AT_HandleCMD_5
    591                AT_DEBUG("\r\nSoftware Reset\r\n", sizeof("\r\nSoftware Reset\r\n"));
   \   000091                ; Setup parameters for call to function AT_HalUARTWrite
   \   000091   7C13         MOV     R4,#0x13
   \   000093   7D00         MOV     R5,#0x0
   \   000095   7A..         MOV     R2,#`?<Constant "\\r\\nSoftware Reset\\r\\n">` & 0xff
   \   000097   7B..         MOV     R3,#(`?<Constant "\\r\\nSoftware Reset\\r\\n">` >> 8) & 0xff
   \   000099   12....       LCALL   ?Subroutine75 & 0xFFFF
    592                AT_Cmd_ATZ(start_point,msg);
    593              }else if(cmdUnit.unit[0]=='S'){
   \                     ??CrossCallReturnLabel_112:
   \   00009C   12....       LCALL   ??AT_Cmd_ATZ?relay
   \   00009F   02....       LJMP    ??AT_HandleCMD_2 & 0xFFFF
   \                     ??AT_HandleCMD_5:
   \   0000A2   7402         MOV     A,#0x2
   \   0000A4   12....       LCALL   ?XSTACK_DISP0_8
   \   0000A7   12....       LCALL   ?Subroutine46 & 0xFFFF
   \                     ??CrossCallReturnLabel_54:
   \   0000AA   E0           MOVX    A,@DPTR
   \   0000AB   6453         XRL     A,#0x53
   \   0000AD   7019         JNZ     ??AT_HandleCMD_6
    594                start_point=1;
    595                AT_DEBUG("\r\nS-Register Access\r\n", sizeof("\r\nSoftware Reset\r\n"));
   \   0000AF                ; Setup parameters for call to function AT_HalUARTWrite
   \   0000AF   7C13         MOV     R4,#0x13
   \   0000B1   7D00         MOV     R5,#0x0
   \   0000B3   7A..         MOV     R2,#`?<Constant "\\r\\nS-Register Access\\r\\n">` & 0xff
   \   0000B5   7B..         MOV     R3,#(`?<Constant "\\r\\nS-Register Access\\r\\n">` >> 8) & 0xff
   \   0000B7   7900         MOV     R1,#0x0
   \   0000B9   12....       LCALL   ??AT_HalUARTWrite?relay
    596                AT_Cmd_ATS(start_point,msg);
   \   0000BC                ; Setup parameters for call to function AT_Cmd_ATS
   \   0000BC   EE           MOV     A,R6
   \   0000BD   FA           MOV     R2,A
   \   0000BE   EF           MOV     A,R7
   \   0000BF   FB           MOV     R3,A
   \   0000C0   7901         MOV     R1,#0x1
   \   0000C2   12....       LCALL   ??AT_Cmd_ATS?relay
   \   0000C5   02....       LJMP    ??AT_HandleCMD_2 & 0xFFFF
    597              }
    598              else AT_ERROR(AT_LACK_OPERATOR);
   \                     ??AT_HandleCMD_6:
   \   0000C8                ; Setup parameters for call to function AT_UARTWriteErrMsg
   \   0000C8   7912         MOV     R1,#0x12
   \   0000CA   02....       LJMP    ??AT_HandleCMD_7 & 0xFFFF
    599            }
    600            else if(cmdUnit.symbol =='+'){  
   \                     ??AT_HandleCMD_3:
   \   0000CD   642B         XRL     A,#0x2b
   \   0000CF   6003         JZ      $+5
   \   0000D1   02....       LJMP    ??AT_HandleCMD_8 & 0xFFFF
    601              //deal with all the command in the command array
    602              for(i=0;i<sizeof(AT_Cmd_Arr)/sizeof(AT_Cmd_Arr[0]);i++){
   \   0000D4   75..00       MOV     ?V0 + 0,#0x0
   \   0000D7   75..00       MOV     ?V0 + 1,#0x0
    603                if(AT_CmpCmd(&cmdUnit,(uint8*)AT_Cmd_Arr[i].AT_Cmd_str)==0){
   \                     ??AT_HandleCMD_9:
   \   0000DA                ; Setup parameters for call to function AT_CmpCmd
   \   0000DA   E5..         MOV     A,?V0 + 0
   \   0000DC   75F006       MOV     B,#0x6
   \   0000DF   A4           MUL     AB
   \   0000E0   F8           MOV     R0,A
   \   0000E1   AAF0         MOV     R2,B
   \   0000E3   75F006       MOV     B,#0x6
   \   0000E6   E5..         MOV     A,?V0 + 1
   \   0000E8   A4           MUL     AB
   \   0000E9   2A           ADD     A,R2
   \   0000EA   F9           MOV     R1,A
   \   0000EB   12....       LCALL   ??Subroutine212_0 & 0xFFFF
   \                     ??CrossCallReturnLabel_555:
   \   0000EE   FC           MOV     R4,A
   \   0000EF   A3           INC     DPTR
   \   0000F0   E0           MOVX    A,@DPTR
   \   0000F1   FD           MOV     R5,A
   \   0000F2   12....       LCALL   ?Subroutine106 & 0xFFFF
   \                     ??CrossCallReturnLabel_341:
   \   0000F5   704B         JNZ     ??AT_HandleCMD_10
    604          #if     AT_DEBUG_INFORMATION_SHOW
    605                  AT_NEXT_LINE();
   \   0000F7                ; Setup parameters for call to function AT_HalUARTWrite
   \   0000F7   7C02         MOV     R4,#0x2
   \   0000F9   7D00         MOV     R5,#0x0
   \   0000FB   7A..         MOV     R2,#`?<Constant "\\n\\r">` & 0xff
   \   0000FD   7B..         MOV     R3,#(`?<Constant "\\n\\r">` >> 8) & 0xff
   \   0000FF   7900         MOV     R1,#0x0
   \   000101   12....       LCALL   ??AT_HalUARTWrite?relay
    606                  printf(AT_Cmd_Arr[i].description_str);
   \   000104   E5..         MOV     A,?V0 + 0
   \   000106   75F006       MOV     B,#0x6
   \   000109   A4           MUL     AB
   \   00010A   F8           MOV     R0,A
   \   00010B   AAF0         MOV     R2,B
   \   00010D   75F006       MOV     B,#0x6
   \   000110   E5..         MOV     A,?V0 + 1
   \   000112   A4           MUL     AB
   \   000113   2A           ADD     A,R2
   \   000114   F9           MOV     R1,A
   \   000115   74..         MOV     A,#AT_Cmd_Arr & 0xff
   \   000117   28           ADD     A,R0
   \   000118   F8           MOV     R0,A
   \   000119   74..         MOV     A,#(AT_Cmd_Arr >> 8) & 0xff
   \   00011B   39           ADDC    A,R1
   \   00011C   F9           MOV     R1,A
   \   00011D   88..         MOV     ?V0 + 4,R0
   \   00011F   89..         MOV     ?V0 + 5,R1
   \   000121                ; Setup parameters for call to function printf
   \   000121   8882         MOV     DPL,R0
   \   000123   F583         MOV     DPH,A
   \   000125   A3           INC     DPTR
   \   000126   A3           INC     DPTR
   \   000127   A3           INC     DPTR
   \   000128   A3           INC     DPTR
   \   000129   12....       LCALL   ?Subroutine44 & 0xFFFF
    607          #endif
    608                  //AT_DEBUG(AT_Cmd_Arr[i].description_str,AT_strLen(AT_Cmd_Arr[i].description_str));
    609                  AT_Cmd_Arr[i].AT_CmdFn(start_point,msg);
   \                     ??CrossCallReturnLabel_49:
   \   00012C                ; Setup parameters for indirect call
   \   00012C   EE           MOV     A,R6
   \   00012D   FA           MOV     R2,A
   \   00012E   EF           MOV     A,R7
   \   00012F   FB           MOV     R3,A
   \   000130   A9..         MOV     R1,?V0 + 2
   \   000132   85..82       MOV     DPL,?V0 + 4
   \   000135   85..83       MOV     DPH,?V0 + 5
   \   000138   A3           INC     DPTR
   \   000139   A3           INC     DPTR
   \   00013A   12....       LCALL   ?Subroutine46 & 0xFFFF
   \                     ??CrossCallReturnLabel_55:
   \   00013D   12....       LCALL   ?CALL_IND
    610                  break;
   \   000140   800B         SJMP    ??AT_HandleCMD_11
    611                }
    612              }
   \                     ??AT_HandleCMD_10:
   \   000142   12....       LCALL   ?Subroutine91 & 0xFFFF
   \                     ??CrossCallReturnLabel_144:
   \   000145   9436         SUBB    A,#0x36
   \   000147   E5..         MOV     A,?V0 + 1
   \   000149   9400         SUBB    A,#0x0
   \   00014B   408D         JC      ??AT_HandleCMD_9
    613              if(sizeof(AT_Cmd_Arr)/sizeof(AT_Cmd_Arr[0])==i){
   \                     ??AT_HandleCMD_11:
   \   00014D   7436         MOV     A,#0x36
   \   00014F   65..         XRL     A,?V0 + 0
   \   000151   7002         JNZ     ??AT_HandleCMD_12
   \   000153   E5..         MOV     A,?V0 + 1
   \                     ??AT_HandleCMD_12:
   \   000155   7037         JNZ     ??AT_HandleCMD_2
    614                if(AT_CmpCmd(&cmdUnit,"")==0){
   \   000157                ; Setup parameters for call to function AT_CmpCmd
   \   000157   7C..         MOV     R4,#`?<Constant "">` & 0xff
   \   000159   7D..         MOV     R5,#(`?<Constant "">` >> 8) & 0xff
   \   00015B   12....       LCALL   ?Subroutine106 & 0xFFFF
   \                     ??CrossCallReturnLabel_342:
   \   00015E   7004         JNZ     ??AT_HandleCMD_13
    615                  AT_ERROR(AT_LACK_CMD);
   \   000160                ; Setup parameters for call to function AT_UARTWriteErrMsg
   \   000160   7922         MOV     R1,#0x22
   \   000162   8027         SJMP    ??AT_HandleCMD_7
    616                }else{
    617                  AT_ERROR(AT_CMD_ERROR);
   \                     ??AT_HandleCMD_13:
   \   000164                ; Setup parameters for call to function AT_UARTWriteErrMsg
   \   000164   7921         MOV     R1,#0x21
   \   000166   8023         SJMP    ??AT_HandleCMD_7
    618                }
    619              }
    620            }
    621            else if(cmdUnit.symbol =='&'){
   \                     ??AT_HandleCMD_8:
   \   000168   E0           MOVX    A,@DPTR
   \   000169   6426         XRL     A,#0x26
   \   00016B   701C         JNZ     ??AT_HandleCMD_14
    622              if(AT_CmpCmd(&cmdUnit,"F")==0){
   \   00016D                ; Setup parameters for call to function AT_CmpCmd
   \   00016D   7C..         MOV     R4,#`?<Constant "F">` & 0xff
   \   00016F   7D..         MOV     R5,#(`?<Constant "F">` >> 8) & 0xff
   \   000171   12....       LCALL   ??Subroutine183_0 & 0xFFFF
   \                     ??CrossCallReturnLabel_344:
   \   000174   6003         JZ      $+5
   \   000176   02....       LJMP    ??AT_HandleCMD_6 & 0xFFFF
    623                AT_DEBUG("\r\nRestore Local Device's Factory Defaults\r\n", sizeof("\r\nRestore Local Device's Factory Defaults\r\n"));
   \   000179                ; Setup parameters for call to function AT_HalUARTWrite
   \   000179   7C2C         MOV     R4,#0x2c
   \   00017B   7D00         MOV     R5,#0x0
   \   00017D   7A..         MOV     R2,#`?<Constant "\\r\\nRestore Local Devic...">` & 0xff
   \   00017F   7B..         MOV     R3,#(`?<Constant "\\r\\nRestore Local Devic...">` >> 8) & 0xff
   \   000181   12....       LCALL   ?Subroutine75 & 0xFFFF
    624                AT_Cmd_AT_F(start_point,msg);
    625              }
    626              else AT_ERROR(AT_LACK_OPERATOR);
    627            }
   \                     ??CrossCallReturnLabel_113:
   \   000184   12....       LCALL   ??AT_Cmd_AT_F?relay
   \   000187   8005         SJMP    ??AT_HandleCMD_2
    628            else{
    629              AT_ERROR(AT_OPERATOR_ERROR);
   \                     ??AT_HandleCMD_14:
   \   000189                ; Setup parameters for call to function AT_UARTWriteErrMsg
   \   000189   7911         MOV     R1,#0x11
   \                     ??AT_HandleCMD_7:
   \   00018B   12....       LCALL   ??AT_UARTWriteErrMsg?relay
    630            }
    631          }
   \                     ??AT_HandleCMD_2:
   \   00018E   7404         MOV     A,#0x4
   \   000190                REQUIRE ?Subroutine3
   \   000190                ; // Fall through to label ?Subroutine3

   \                                 In  segment BANKED_CODE, align 1, keep-with-next
   \                     ?Subroutine3:
   \   000000   12....       LCALL   ?DEALLOC_XSTACK8
   \   000003                REQUIRE ??Subroutine179_0
   \   000003                ; // Fall through to label ??Subroutine179_0

   \                                 In  segment BANKED_CODE, align 1, keep-with-next
   \                     ?Subroutine75:
   \   000000   7900         MOV     R1,#0x0
   \   000002   12....       LCALL   ??AT_HalUARTWrite?relay
   \   000005                ; Setup parameters for call to function AT_Cmd_ATZ
   \   000005                ; Setup parameters for call to function AT_Cmd_AT_F
   \   000005   EE           MOV     A,R6
   \   000006   FA           MOV     R2,A
   \   000007   EF           MOV     A,R7
   \   000008   FB           MOV     R3,A
   \   000009   A9..         MOV     R1,?V0 + 2
   \   00000B   22           RET

   \                                 In  segment BANKED_CODE, align 1, keep-with-next
   \                     ?Subroutine44:
   \   000000   E0           MOVX    A,@DPTR
   \   000001   FA           MOV     R2,A
   \   000002   A3           INC     DPTR
   \   000003   E0           MOVX    A,@DPTR
   \   000004   FB           MOV     R3,A
   \   000005   12....       LCALL   ??printf?relay
   \   000008   22           RET

   \                                 In  segment BANKED_CODE, align 1, keep-with-next
   \                     ?Subroutine91:
   \   000000   12....       LCALL   ?Subroutine155 & 0xFFFF
   \                     ??CrossCallReturnLabel_284:
   \   000003   C3           CLR     C
   \   000004   E5..         MOV     A,?V0 + 0
   \   000006   22           RET

   \                                 In  segment BANKED_CODE, align 1, keep-with-next
   \                     ?Subroutine106:
   \   000000   85..82       MOV     DPL,?XSP + 0
   \   000003   85..83       MOV     DPH,?XSP + 1
   \   000006                REQUIRE ??Subroutine183_0
   \   000006                ; // Fall through to label ??Subroutine183_0

   \                                 In  segment BANKED_CODE, align 1, keep-with-next
   \                     ??Subroutine183_0:
   \   000000   AA82         MOV     R2,DPL
   \   000002   AB83         MOV     R3,DPH
   \   000004   12....       LCALL   ??AT_CmpCmd?relay
   \   000007   E9           MOV     A,R1
   \   000008   22           RET

   \                                 In  segment BANKED_CODE, align 1, keep-with-next
   \                     ?Subroutine155:
   \   000000   E5..         MOV     A,?V0 + 0
   \   000002   2401         ADD     A,#0x1
   \   000004   F5..         MOV     ?V0 + 0,A
   \   000006   E5..         MOV     A,?V0 + 1
   \   000008   3400         ADDC    A,#0x0
   \   00000A   F5..         MOV     ?V0 + 1,A
   \   00000C   22           RET

   \                                 In  segment BANKED_CODE, align 1, keep-with-next
   \                     ??Subroutine204_0:
   \   000000   12....       LCALL   ??AT_get_next_cmdUnit?relay
   \   000003   E9           MOV     A,R1
   \   000004   22           RET

   \                                 In  segment BANKED_CODE, align 1, keep-with-next
   \                     ?Subroutine104:
   \   000000   85..82       MOV     DPL,?XSP + 0
   \   000003   85..83       MOV     DPH,?XSP + 1
   \   000006                REQUIRE ??Subroutine205_0
   \   000006                ; // Fall through to label ??Subroutine205_0

   \                                 In  segment BANKED_CODE, align 1, keep-with-next
   \                     ??Subroutine205_0:
   \   000000   AA82         MOV     R2,DPL
   \   000002   AB83         MOV     R3,DPH
   \   000004                REQUIRE ??Subroutine206_0
   \   000004                ; // Fall through to label ??Subroutine206_0

   \                                 In  segment BANKED_CODE, align 1, keep-with-next
   \                     ??Subroutine206_0:
   \   000000   12....       LCALL   ??Subroutine204_0 & 0xFFFF
   \                     ??CrossCallReturnLabel_554:
   \   000003   22           RET

   \                                 In  segment BANKED_CODE, align 1, keep-with-next
   \                     ?Subroutine46:
   \   000000   E0           MOVX    A,@DPTR
   \   000001   F8           MOV     R0,A
   \   000002   A3           INC     DPTR
   \   000003   E0           MOVX    A,@DPTR
   \   000004   F583         MOV     DPH,A
   \   000006   8882         MOV     DPL,R0
   \   000008   22           RET

   \                                 In  segment BANKED_CODE, align 1, keep-with-next
   \                     ??Subroutine212_0:
   \   000000   74..         MOV     A,#AT_Cmd_Arr & 0xff
   \   000002   28           ADD     A,R0
   \   000003   F582         MOV     DPL,A
   \   000005   74..         MOV     A,#(AT_Cmd_Arr >> 8) & 0xff
   \   000007   12....       LCALL   ?Subroutine157 & 0xFFFF
   \                     ??CrossCallReturnLabel_563:
   \   00000A   22           RET
    632          
    633          #if AT_CMD_PATTERN_CHECK
    634          uint8 AT_pattern_check(char* pattern, AT_CmdUnit cmdUnitArr[]);

   \                                 In  segment BANKED_CODE, align 1, keep-with-next
    635          uint8 AT_pattern_check(char* pattern, AT_CmdUnit cmdUnitArr[]){
   \                     AT_pattern_check:
   \   000000   74F4         MOV     A,#-0xc
   \   000002   12....       LCALL   ?BANKED_ENTER_XDATA
   \   000005                ; Saved register size: 12
   \   000005                ; Auto size: 0
    636            uint8 i=0; 
   \   000005   75..00       MOV     ?V0 + 2,#0x0
   \   000008   8002         SJMP    ??AT_pattern_check_0
    637            for(;pattern[i+1]!='\0';i++) {
   \                     ??AT_pattern_check_1:
   \   00000A   05..         INC     ?V0 + 2
   \                     ??AT_pattern_check_0:
   \   00000C   85....       MOV     ?V0 + 0,?V0 + 2
   \   00000F   12....       LCALL   ?Subroutine65 & 0xFFFF
   \                     ??CrossCallReturnLabel_100:
   \   000012   A3           INC     DPTR
   \   000013   E0           MOVX    A,@DPTR
   \   000014   601E         JZ      ??AT_pattern_check_2
    638              if(pattern[i] != cmdUnitArr[i].symbol){
   \   000016   12....       LCALL   ?Subroutine60 & 0xFFFF
   \                     ??CrossCallReturnLabel_88:
   \   000019   12....       LCALL   ?S_SHL
   \   00001C   12....       LCALL   ?Subroutine64 & 0xFFFF
   \                     ??CrossCallReturnLabel_97:
   \   00001F   60E9         JZ      ??AT_pattern_check_1
    639                if(cmdUnitArr[i].symbol =='\0') return AT_LACK_OPERATOR;
   \                     ??AT_pattern_check_3:
   \   000021   E0           MOVX    A,@DPTR
   \   000022   7004         JNZ     ??AT_pattern_check_4
   \   000024   7912         MOV     R1,#0x12
   \   000026   803B         SJMP    ??AT_pattern_check_5
    640                else if(cmdUnitArr[i].symbol =='\r')return AT_LACK_PARA;
   \                     ??AT_pattern_check_4:
   \   000028   640D         XRL     A,#0xd
   \   00002A   7004         JNZ     ??AT_pattern_check_6
   \   00002C   7925         MOV     R1,#0x25
   \   00002E   8033         SJMP    ??AT_pattern_check_5
    641                else return AT_OPERATOR_ERROR;
   \                     ??AT_pattern_check_6:
   \   000030   7911         MOV     R1,#0x11
   \   000032   802F         SJMP    ??AT_pattern_check_5
    642              }
    643            }
    644            if(pattern[i]=='\r')
   \                     ??AT_pattern_check_2:
   \   000034   12....       LCALL   ?Subroutine61 & 0xFFFF
   \                     ??CrossCallReturnLabel_92:
   \   000037   640D         XRL     A,#0xd
   \   000039   7026         JNZ     ??AT_pattern_check_7
    645              if(cmdUnitArr[i].symbol!='\r') return AT_EXCESSIVE_PARA;
   \   00003B   75..00       MOV     ?V0 + 1,#0x0
   \   00003E   7402         MOV     A,#0x2
   \   000040   78..         MOV     R0,#?V0 + 0
   \   000042   12....       LCALL   ?S_SHL
   \   000045   12....       LCALL   ?Subroutine141 & 0xFFFF
   \                     ??CrossCallReturnLabel_273:
   \   000048   640D         XRL     A,#0xd
   \   00004A   6004         JZ      ??AT_pattern_check_8
   \   00004C   7926         MOV     R1,#0x26
   \   00004E   8013         SJMP    ??AT_pattern_check_5
    646            else{
    647              if(pattern[i] != cmdUnitArr[i].symbol){
   \                     ??AT_pattern_check_8:
   \   000050   85..82       MOV     DPL,?V0 + 2
   \   000053   8582..       MOV     ?V0 + 0,DPL
   \   000056   12....       LCALL   ?Subroutine60 & 0xFFFF
    648                if(cmdUnitArr[i].symbol =='\0') return AT_LACK_OPERATOR;
    649                else if(cmdUnitArr[i].symbol =='\r')return AT_LACK_PARA;
    650                else return AT_OPERATOR_ERROR;
    651              }
    652            }
   \                     ??CrossCallReturnLabel_89:
   \   000059   12....       LCALL   ?S_SHL
   \   00005C   12....       LCALL   ?Subroutine64 & 0xFFFF
   \                     ??CrossCallReturnLabel_98:
   \   00005F   70C0         JNZ     ??AT_pattern_check_3
    653            return AT_NO_ERROR;
   \                     ??AT_pattern_check_7:
   \   000061   7900         MOV     R1,#0x0
   \                     ??AT_pattern_check_5:
   \   000063   02....       LJMP    ??Subroutine196_0 & 0xFFFF
    654          }

   \                                 In  segment BANKED_CODE, align 1, keep-with-next
   \                     ?Subroutine64:
   \   000000   12....       LCALL   ?Subroutine141 & 0xFFFF
   \                     ??CrossCallReturnLabel_274:
   \   000003   69           XRL     A,R1
   \   000004   22           RET

   \                                 In  segment BANKED_CODE, align 1, keep-with-next
   \                     ?Subroutine141:
   \   000000   EC           MOV     A,R4
   \   000001   25..         ADD     A,?V0 + 0
   \   000003   F582         MOV     DPL,A
   \   000005   ED           MOV     A,R5
   \   000006   35..         ADDC    A,?V0 + 1
   \   000008   F583         MOV     DPH,A
   \   00000A   E0           MOVX    A,@DPTR
   \   00000B   22           RET

   \                                 In  segment BANKED_CODE, align 1, keep-with-next
   \                     ?Subroutine60:
   \   000000   75..00       MOV     ?V0 + 1,#0x0
   \   000003   12....       LCALL   ?Subroutine142 & 0xFFFF
   \                     ??CrossCallReturnLabel_275:
   \   000006   F9           MOV     R1,A
   \   000007   7402         MOV     A,#0x2
   \   000009   78..         MOV     R0,#?V0 + 0
   \   00000B   22           RET
    655          #endif
    656          
    657          /*****************************************************
    658            AT+RONOFF:<Address>,<EP>,<SendMode>[,<ON/OFF>] 
    659            AT+RONOFF:,,,[<ON/OFF>]
    660          *********************************************************/
    661          

   \                                 In  segment BANKED_CODE, align 1, keep-with-next
    662          void AT_Cmd_RONOFF(uint8 start_point, uint8* msg){
   \                     AT_Cmd_RONOFF:
   \   000000   74F4         MOV     A,#-0xc
   \   000002   12....       LCALL   ?BANKED_ENTER_XDATA
   \   000005                ; Saved register size: 12
   \   000005                ; Auto size: 32
   \   000005   74E0         MOV     A,#-0x20
   \   000007   12....       LCALL   ?ALLOC_XSTACK8
   \   00000A   E9           MOV     A,R1
   \   00000B   FE           MOV     R6,A
   \   00000C   8A..         MOV     ?V0 + 0,R2
   \   00000E   8B..         MOV     ?V0 + 1,R3
    663            AT_CmdUnit cmdUnitArr[5];
    664            uint8 i;
    665            for(i=0;i<5;i++)start_point = AT_get_next_cmdUnit(&cmdUnitArr[i],start_point, msg);  
   \   000010   7F00         MOV     R7,#0x0
   \                     ??AT_Cmd_RONOFF_0:
   \   000012                ; Setup parameters for call to function AT_get_next_cmdUnit
   \   000012   AC..         MOV     R4,?V0 + 0
   \   000014   AD..         MOV     R5,?V0 + 1
   \   000016   EE           MOV     A,R6
   \   000017   F9           MOV     R1,A
   \   000018   8F..         MOV     ?V0 + 2,R7
   \   00001A   75..00       MOV     ?V0 + 3,#0x0
   \   00001D   7402         MOV     A,#0x2
   \   00001F   78..         MOV     R0,#?V0 + 2
   \   000021   12....       LCALL   ?S_SHL
   \   000024   740C         MOV     A,#0xc
   \   000026   12....       LCALL   ?XSTACK_DISP0_8
   \   000029   12....       LCALL   ?Subroutine107 & 0xFFFF
   \                     ??CrossCallReturnLabel_182:
   \   00002C   12....       LCALL   ??Subroutine206_0 & 0xFFFF
   \                     ??CrossCallReturnLabel_499:
   \   00002F   FE           MOV     R6,A
   \   000030   0F           INC     R7
   \   000031   EF           MOV     A,R7
   \   000032   C3           CLR     C
   \   000033   9405         SUBB    A,#0x5
   \   000035   40DB         JC      ??AT_Cmd_RONOFF_0
    666            
    667            AT_PARSE_CMD_PATTERN_ERROR(":,,,\r",cmdUnitArr); 
   \   000037                ; Setup parameters for call to function AT_pattern_check
   \   000037   740C         MOV     A,#0xc
   \   000039   12....       LCALL   ?XSTACK_DISP0_8
   \   00003C   AC82         MOV     R4,DPL
   \   00003E   AD83         MOV     R5,DPH
   \   000040   7A..         MOV     R2,#`?<Constant ":,,,\\r">` & 0xff
   \   000042   7B..         MOV     R3,#(`?<Constant ":,,,\\r">` >> 8) & 0xff
   \   000044   12....       LCALL   ??Subroutine200_0 & 0xFFFF
   \                     ??CrossCallReturnLabel_435:
   \   000047   6003         JZ      $+5
   \   000049   02....       LJMP    ??AT_Cmd_RONOFF_1 & 0xFFFF
   \   00004C                ; Setup parameters for call to function AT_UARTWriteErrMsg
    668          
    669            uint8 endpoint=AT_ChartoInt8(&cmdUnitArr[1]);
   \   00004C                ; Setup parameters for call to function AT_ChartoInt8
   \   00004C   7410         MOV     A,#0x10
   \   00004E   12....       LCALL   ?XSTACK_DISP0_8
   \   000051   12....       LCALL   ?Subroutine111 & 0xFFFF
    670            uint8 sendmode=AT_ChartoInt8(&cmdUnitArr[2]);
   \                     ??CrossCallReturnLabel_192:
   \   000054                ; Setup parameters for call to function AT_ChartoInt8
   \   000054   7414         MOV     A,#0x14
   \   000056   12....       LCALL   ?XSTACK_DISP0_8
   \   000059   12....       LCALL   ?Subroutine114 & 0xFFFF
    671            uint8 on_off =AT_ChartoInt8(&cmdUnitArr[3]);
   \                     ??CrossCallReturnLabel_204:
   \   00005C   12....       LCALL   ?XSTACK_DISP0_8
   \   00005F   12....       LCALL   ??Subroutine207_0 & 0xFFFF
    672          
    673            afAddrType_t dstAddr;
    674            dstAddr.endPoint = endpoint;
   \                     ??CrossCallReturnLabel_505:
   \   000062   7409         MOV     A,#0x9
   \   000064   12....       LCALL   ?XSTACK_DISP0_8
   \   000067   EF           MOV     A,R7
   \   000068   F0           MOVX    @DPTR,A
    675            //dstAddr.panId =2016;//0;
    676            dstAddr.addrMode = sendmode==0 ? (afAddrMode_t)Addr16Bit : (afAddrMode_t) AddrGroup;
   \   000069   E5..         MOV     A,?V0 + 0
   \   00006B   7009         JNZ     ??AT_Cmd_RONOFF_2
   \   00006D   7408         MOV     A,#0x8
   \   00006F   12....       LCALL   ?XSTACK_DISP0_8
   \   000072   7402         MOV     A,#0x2
   \   000074   8007         SJMP    ??AT_Cmd_RONOFF_3
   \                     ??AT_Cmd_RONOFF_2:
   \   000076   7408         MOV     A,#0x8
   \   000078   12....       LCALL   ?XSTACK_DISP0_8
   \   00007B   7401         MOV     A,#0x1
   \                     ??AT_Cmd_RONOFF_3:
   \   00007D   F0           MOVX    @DPTR,A
    677            if(cmdUnitArr[0].unitLen==0){
   \   00007E   740D         MOV     A,#0xd
   \   000080   12....       LCALL   ?XSTACK_DISP0_8
   \   000083   E0           MOVX    A,@DPTR
   \   000084   7005         JNZ     ??AT_Cmd_RONOFF_4
    678              dstAddr.addr.shortAddr=NLME_GetShortAddr();     
   \   000086                ; Setup parameters for call to function NLME_GetShortAddr
   \   000086   12....       LCALL   ??NLME_GetShortAddr?relay
   \   000089   800C         SJMP    ??AT_Cmd_RONOFF_5
    679            }else{    
    680              dstAddr.addr.shortAddr =AT_ChartoInt16(&cmdUnitArr[0]);             
   \                     ??AT_Cmd_RONOFF_4:
   \   00008B                ; Setup parameters for call to function AT_ChartoInt16
   \   00008B   740C         MOV     A,#0xc
   \   00008D   12....       LCALL   ?XSTACK_DISP0_8
   \   000090   AA82         MOV     R2,DPL
   \   000092   AB83         MOV     R3,DPH
   \   000094   12....       LCALL   ??AT_ChartoInt16?relay
    681            }
   \                     ??AT_Cmd_RONOFF_5:
   \   000097   12....       LCALL   ??Subroutine208_0 & 0xFFFF
    682            
    683            uint8 status;
    684            if(cmdUnitArr[3].unitLen==0) 
   \                     ??CrossCallReturnLabel_530:
   \   00009A   7419         MOV     A,#0x19
   \   00009C   12....       LCALL   ?XSTACK_DISP0_8
   \   00009F   E0           MOVX    A,@DPTR
   \   0000A0   7036         JNZ     ??AT_Cmd_RONOFF_6
    685              status=zclGeneral_SendOnOff_CmdToggle(AT_ZCL_ENDPOINT,&dstAddr,0,1); //stand for without onoff parameter, toggle
   \   0000A2                ; Setup parameters for call to function zcl_SendCommand
   \   0000A2   E4           CLR     A
   \   0000A3   F5..         MOV     ?V0 + 0,A
   \   0000A5   F5..         MOV     ?V0 + 1,A
   \   0000A7   78..         MOV     R0,#?V0 + 0
   \   0000A9   12....       LCALL   ?PUSH_XSTACK_I_TWO
   \   0000AC   78..         MOV     R0,#?V0 + 0
   \   0000AE   12....       LCALL   ?PUSH_XSTACK_I_TWO
   \   0000B1   75..01       MOV     ?V0 + 0,#0x1
   \   0000B4   78..         MOV     R0,#?V0 + 0
   \   0000B6   12....       LCALL   ?PUSH_XSTACK_I_ONE
   \   0000B9   E4           CLR     A
   \   0000BA   F5..         MOV     ?V0 + 0,A
   \   0000BC   78..         MOV     R0,#?V0 + 0
   \   0000BE   12....       LCALL   ?PUSH_XSTACK_I_TWO
   \   0000C1   78..         MOV     R0,#?V0 + 0
   \   0000C3   12....       LCALL   ?PUSH_XSTACK_I_ONE
   \   0000C6   78..         MOV     R0,#?V0 + 0
   \   0000C8   12....       LCALL   ?PUSH_XSTACK_I_ONE
   \   0000CB   75..01       MOV     ?V0 + 0,#0x1
   \   0000CE   78..         MOV     R0,#?V0 + 0
   \   0000D0   12....       LCALL   ?PUSH_XSTACK_I_ONE
   \   0000D3   75..02       MOV     ?V0 + 0,#0x2
   \   0000D6   806B         SJMP    ??AT_Cmd_RONOFF_7
    686            else if(on_off==0) 
   \                     ??AT_Cmd_RONOFF_6:
   \   0000D8   E5..         MOV     A,?V0 + 1
   \   0000DA   7036         JNZ     ??AT_Cmd_RONOFF_8
    687              status=zclGeneral_SendOnOff_CmdOff(AT_ZCL_ENDPOINT,&dstAddr,0,1);    //off
   \   0000DC                ; Setup parameters for call to function zcl_SendCommand
   \   0000DC   E4           CLR     A
   \   0000DD   F5..         MOV     ?V0 + 0,A
   \   0000DF   F5..         MOV     ?V0 + 1,A
   \   0000E1   78..         MOV     R0,#?V0 + 0
   \   0000E3   12....       LCALL   ?PUSH_XSTACK_I_TWO
   \   0000E6   78..         MOV     R0,#?V0 + 0
   \   0000E8   12....       LCALL   ?PUSH_XSTACK_I_TWO
   \   0000EB   75..01       MOV     ?V0 + 0,#0x1
   \   0000EE   78..         MOV     R0,#?V0 + 0
   \   0000F0   12....       LCALL   ?PUSH_XSTACK_I_ONE
   \   0000F3   E4           CLR     A
   \   0000F4   F5..         MOV     ?V0 + 0,A
   \   0000F6   78..         MOV     R0,#?V0 + 0
   \   0000F8   12....       LCALL   ?PUSH_XSTACK_I_TWO
   \   0000FB   78..         MOV     R0,#?V0 + 0
   \   0000FD   12....       LCALL   ?PUSH_XSTACK_I_ONE
   \   000100   78..         MOV     R0,#?V0 + 0
   \   000102   12....       LCALL   ?PUSH_XSTACK_I_ONE
   \   000105   75..01       MOV     ?V0 + 0,#0x1
   \   000108   78..         MOV     R0,#?V0 + 0
   \   00010A   12....       LCALL   ?PUSH_XSTACK_I_ONE
   \   00010D   75..00       MOV     ?V0 + 0,#0x0
   \   000110   8031         SJMP    ??AT_Cmd_RONOFF_7
    688            else status=zclGeneral_SendOnOff_CmdOn(AT_ZCL_ENDPOINT,&dstAddr,0,1);  //on
   \                     ??AT_Cmd_RONOFF_8:
   \   000112                ; Setup parameters for call to function zcl_SendCommand
   \   000112   E4           CLR     A
   \   000113   F5..         MOV     ?V0 + 0,A
   \   000115   F5..         MOV     ?V0 + 1,A
   \   000117   78..         MOV     R0,#?V0 + 0
   \   000119   12....       LCALL   ?PUSH_XSTACK_I_TWO
   \   00011C   78..         MOV     R0,#?V0 + 0
   \   00011E   12....       LCALL   ?PUSH_XSTACK_I_TWO
   \   000121   75..01       MOV     ?V0 + 0,#0x1
   \   000124   78..         MOV     R0,#?V0 + 0
   \   000126   12....       LCALL   ?PUSH_XSTACK_I_ONE
   \   000129   E4           CLR     A
   \   00012A   F5..         MOV     ?V0 + 0,A
   \   00012C   78..         MOV     R0,#?V0 + 0
   \   00012E   12....       LCALL   ?PUSH_XSTACK_I_TWO
   \   000131   78..         MOV     R0,#?V0 + 0
   \   000133   12....       LCALL   ?PUSH_XSTACK_I_ONE
   \   000136   78..         MOV     R0,#?V0 + 0
   \   000138   12....       LCALL   ?PUSH_XSTACK_I_ONE
   \   00013B   75..01       MOV     ?V0 + 0,#0x1
   \   00013E   78..         MOV     R0,#?V0 + 0
   \   000140   12....       LCALL   ?PUSH_XSTACK_I_ONE
   \                     ??AT_Cmd_RONOFF_7:
   \   000143   78..         MOV     R0,#?V0 + 0
   \   000145   12....       LCALL   ?PUSH_XSTACK_I_ONE
   \   000148   7C06         MOV     R4,#0x6
   \   00014A   7D00         MOV     R5,#0x0
   \   00014C   740B         MOV     A,#0xb
   \   00014E   12....       LCALL   ?XSTACK_DISP0_8
   \   000151   AA82         MOV     R2,DPL
   \   000153   AB83         MOV     R3,DPH
   \   000155   79CB         MOV     R1,#-0x35
   \   000157   12....       LCALL   ??zcl_SendCommand?relay
   \   00015A   740B         MOV     A,#0xb
   \   00015C   12....       LCALL   ?DEALLOC_XSTACK8
    689            if(status==ZSUCCESS) AT_OK();
   \   00015F   E9           MOV     A,R1
   \   000160   700F         JNZ     ??AT_Cmd_RONOFF_1
   \   000162                ; Setup parameters for call to function AT_HalUARTWrite
   \   000162   7C07         MOV     R4,#0x7
   \   000164   7D00         MOV     R5,#0x0
   \   000166   7A..         MOV     R2,#`?<Constant "\\r\\nOK\\r\\n">` & 0xff
   \   000168   7B..         MOV     R3,#(`?<Constant "\\r\\nOK\\r\\n">` >> 8) & 0xff
   \   00016A   7900         MOV     R1,#0x0
   \   00016C   12....       LCALL   ??AT_HalUARTWrite?relay
   \   00016F   8003         SJMP    ??AT_Cmd_RONOFF_9
    690            else AT_ERROR(status);
   \                     ??AT_Cmd_RONOFF_1:
   \   000171                ; Setup parameters for call to function AT_UARTWriteErrMsg
   \   000171   12....       LCALL   ??AT_UARTWriteErrMsg?relay
   \                     ??AT_Cmd_RONOFF_9:
   \   000174   02....       LJMP    ?Subroutine4 & 0xFFFF
    691            
    692            //ZStatus_t zclGeneral_SendOnOff_CmdOff( uint16 srcEP, afAddrType_t *dstAddr, uint8 disableDefaultRsp, uint8 seqNum );
    693          }

   \                                 In  segment BANKED_CODE, align 1, keep-with-next
   \                     ?Subroutine114:
   \   000000   12....       LCALL   ?Subroutine163 & 0xFFFF
   \                     ??CrossCallReturnLabel_509:
   \   000003   F5..         MOV     ?V0 + 0,A
   \   000005                ; Setup parameters for call to function AT_ChartoInt8
   \   000005                ; Setup parameters for call to function AT_ChartoInt8
   \   000005   7418         MOV     A,#0x18
   \   000007   22           RET

   \                                 In  segment BANKED_CODE, align 1, keep-with-next
   \                     ?Subroutine107:
   \   000000   12....       LCALL   ?Subroutine165 & 0xFFFF
   \                     ??CrossCallReturnLabel_302:
   \   000003   22           RET

   \                                 In  segment BANKED_CODE, align 1, keep-with-next
   \                     ?Subroutine165:
   \   000000   E582         MOV     A,DPL
   \   000002   25..         ADD     A,?V0 + 2
   \   000004   FA           MOV     R2,A
   \   000005   E583         MOV     A,DPH
   \   000007   35..         ADDC    A,?V0 + 3
   \   000009   FB           MOV     R3,A
   \   00000A   22           RET

   \                                 In  segment BANKED_CODE, align 1, keep-with-next
   \                     ?Subroutine4:
   \   000000   7420         MOV     A,#0x20
   \   000002                REQUIRE ??Subroutine195_0
   \   000002                ; // Fall through to label ??Subroutine195_0

   \                                 In  segment BANKED_CODE, align 1, keep-with-next
   \                     ??Subroutine195_0:
   \   000000   12....       LCALL   ?DEALLOC_XSTACK8
   \   000003                REQUIRE ??Subroutine196_0
   \   000003                ; // Fall through to label ??Subroutine196_0

   \                                 In  segment BANKED_CODE, align 1, keep-with-next
   \                     ??Subroutine200_0:
   \   000000   12....       LCALL   ??AT_pattern_check?relay
   \   000003   E9           MOV     A,R1
   \   000004   22           RET

   \                                 In  segment BANKED_CODE, align 1, keep-with-next
   \                     ?Subroutine163:
   \   000000   AA82         MOV     R2,DPL
   \   000002   AB83         MOV     R3,DPH
   \   000004   12....       LCALL   ??AT_ChartoInt8?relay
   \   000007   E9           MOV     A,R1
   \   000008   22           RET

   \                                 In  segment BANKED_CODE, align 1, keep-with-next
   \                     ?Subroutine111:
   \   000000   12....       LCALL   ?Subroutine163 & 0xFFFF
   \                     ??CrossCallReturnLabel_512:
   \   000003   FF           MOV     R7,A
   \   000004   22           RET

   \                                 In  segment BANKED_CODE, align 1, keep-with-next
   \                     ??Subroutine207_0:
   \   000000   12....       LCALL   ?Subroutine163 & 0xFFFF
   \                     ??CrossCallReturnLabel_515:
   \   000003   F5..         MOV     ?V0 + 1,A
   \   000005   22           RET

   \                                 In  segment BANKED_CODE, align 1, keep-with-next
   \                     ??Subroutine208_0:
   \   000000   85..82       MOV     DPL,?XSP + 0
   \   000003   85..83       MOV     DPH,?XSP + 1
   \   000006                REQUIRE ??Subroutine209_0
   \   000006                ; // Fall through to label ??Subroutine209_0

   \                                 In  segment BANKED_CODE, align 1, keep-with-next
   \                     ??Subroutine209_0:
   \   000000   EA           MOV     A,R2
   \   000001   F0           MOVX    @DPTR,A
   \   000002   A3           INC     DPTR
   \   000003   EB           MOV     A,R3
   \   000004   F0           MOVX    @DPTR,A
   \   000005   22           RET
    694          
    695          
    696          /*****************************************************
    697            AT+RONOFF1:<Address>,<EP>,<SendMode>[,<ON/OFF>] 
    698            AT+RONOFF1:,,,[<ON/OFF>]
    699          *********************************************************/
    700          

   \                                 In  segment BANKED_CODE, align 1, keep-with-next
    701          void AT_Cmd_RONOFF1(uint8 start_point, uint8* msg){
   \                     AT_Cmd_RONOFF1:
   \   000000   74F4         MOV     A,#-0xc
   \   000002   12....       LCALL   ?BANKED_ENTER_XDATA
   \   000005                ; Saved register size: 12
   \   000005                ; Auto size: 32
   \   000005   74E0         MOV     A,#-0x20
   \   000007   12....       LCALL   ?ALLOC_XSTACK8
   \   00000A   89..         MOV     ?V0 + 2,R1
   \   00000C   EA           MOV     A,R2
   \   00000D   FE           MOV     R6,A
   \   00000E   EB           MOV     A,R3
   \   00000F   FF           MOV     R7,A
    702            AT_CmdUnit cmdUnitArr[5];
    703            uint8 i;
    704            for(i=0;i<5;i++)start_point = AT_get_next_cmdUnit(&cmdUnitArr[i],start_point, msg);  
   \   000010   75..00       MOV     ?V0 + 3,#0x0
   \                     ??AT_Cmd_RONOFF1_0:
   \   000013                ; Setup parameters for call to function AT_get_next_cmdUnit
   \   000013   EE           MOV     A,R6
   \   000014   FC           MOV     R4,A
   \   000015   EF           MOV     A,R7
   \   000016   FD           MOV     R5,A
   \   000017   A9..         MOV     R1,?V0 + 2
   \   000019   85....       MOV     ?V0 + 0,?V0 + 3
   \   00001C   75..00       MOV     ?V0 + 1,#0x0
   \   00001F   7402         MOV     A,#0x2
   \   000021   78..         MOV     R0,#?V0 + 0
   \   000023   12....       LCALL   ?S_SHL
   \   000026   740C         MOV     A,#0xc
   \   000028   12....       LCALL   ?XSTACK_DISP0_8
   \   00002B   12....       LCALL   ?Subroutine144 & 0xFFFF
   \                     ??CrossCallReturnLabel_277:
   \   00002E   12....       LCALL   ??Subroutine206_0 & 0xFFFF
   \                     ??CrossCallReturnLabel_500:
   \   000031   F5..         MOV     ?V0 + 2,A
   \   000033   05..         INC     ?V0 + 3
   \   000035   E5..         MOV     A,?V0 + 3
   \   000037   C3           CLR     C
   \   000038   9405         SUBB    A,#0x5
   \   00003A   40D7         JC      ??AT_Cmd_RONOFF1_0
    705            
    706            AT_PARSE_CMD_PATTERN_ERROR(":,,,\r",cmdUnitArr); 
   \   00003C                ; Setup parameters for call to function AT_pattern_check
   \   00003C   740C         MOV     A,#0xc
   \   00003E   12....       LCALL   ?XSTACK_DISP0_8
   \   000041   AC82         MOV     R4,DPL
   \   000043   AD83         MOV     R5,DPH
   \   000045   7A..         MOV     R2,#`?<Constant ":,,,\\r">` & 0xff
   \   000047   7B..         MOV     R3,#(`?<Constant ":,,,\\r">` >> 8) & 0xff
   \   000049   12....       LCALL   ??Subroutine200_0 & 0xFFFF
   \                     ??CrossCallReturnLabel_436:
   \   00004C   6005         JZ      ??AT_Cmd_RONOFF1_1
   \   00004E                ; Setup parameters for call to function AT_UARTWriteErrMsg
   \   00004E   12....       LCALL   ??AT_UARTWriteErrMsg?relay
   \   000051   805F         SJMP    ??AT_Cmd_RONOFF1_2
    707            
    708            uint8 endpoint=AT_ChartoInt8(&cmdUnitArr[1]);
   \                     ??AT_Cmd_RONOFF1_1:
   \   000053                ; Setup parameters for call to function AT_ChartoInt8
   \   000053   7410         MOV     A,#0x10
   \   000055   12....       LCALL   ?XSTACK_DISP0_8
   \   000058   12....       LCALL   ?Subroutine111 & 0xFFFF
    709            uint8 sendmode=AT_ChartoInt8(&cmdUnitArr[2]);
   \                     ??CrossCallReturnLabel_193:
   \   00005B                ; Setup parameters for call to function AT_ChartoInt8
   \   00005B   7414         MOV     A,#0x14
   \   00005D   12....       LCALL   ?XSTACK_DISP0_8
   \   000060   12....       LCALL   ?Subroutine114 & 0xFFFF
    710            uint8 on_off =AT_ChartoInt8(&cmdUnitArr[3]);
   \                     ??CrossCallReturnLabel_205:
   \   000063   12....       LCALL   ?XSTACK_DISP0_8
   \   000066   12....       LCALL   ?Subroutine110 & 0xFFFF
    711            if(cmdUnitArr[3].unitLen==0) on_off=2;      //stand for without onoff parameter
   \                     ??CrossCallReturnLabel_184:
   \   000069   7419         MOV     A,#0x19
   \   00006B   12....       LCALL   ?XSTACK_DISP0_8
   \   00006E   E0           MOVX    A,@DPTR
   \   00006F   7004         JNZ     ??AT_Cmd_RONOFF1_3
   \   000071   7E02         MOV     R6,#0x2
   \   000073   8005         SJMP    ??AT_Cmd_RONOFF1_4
    712            else if(on_off==0) on_off=0;        //off
   \                     ??AT_Cmd_RONOFF1_3:
   \   000075   EE           MOV     A,R6
   \   000076   6002         JZ      ??AT_Cmd_RONOFF1_4
    713            else on_off=1;                      //on
   \   000078   7E01         MOV     R6,#0x1
    714            afAddrType_t dstAddr;
    715            dstAddr.endPoint = endpoint;
   \                     ??AT_Cmd_RONOFF1_4:
   \   00007A   7409         MOV     A,#0x9
   \   00007C   12....       LCALL   ?XSTACK_DISP0_8
   \   00007F   EF           MOV     A,R7
   \   000080   F0           MOVX    @DPTR,A
    716            dstAddr.addr.shortAddr =AT_ChartoInt16(&cmdUnitArr[0]);
   \   000081                ; Setup parameters for call to function AT_ChartoInt16
   \   000081   740C         MOV     A,#0xc
   \   000083   12....       LCALL   ?XSTACK_DISP0_8
   \   000086   12....       LCALL   ?Subroutine22 & 0xFFFF
    717            //dstAddr.panId =2016;//0;
    718            dstAddr.addrMode = sendmode==0 ? (afAddrMode_t)Addr16Bit : (afAddrMode_t) AddrGroup;
   \                     ??CrossCallReturnLabel_517:
   \   000089   E5..         MOV     A,?V0 + 0
   \   00008B   7009         JNZ     ??AT_Cmd_RONOFF1_5
   \   00008D   7408         MOV     A,#0x8
   \   00008F   12....       LCALL   ?XSTACK_DISP0_8
   \   000092   7402         MOV     A,#0x2
   \   000094   8007         SJMP    ??AT_Cmd_RONOFF1_6
   \                     ??AT_Cmd_RONOFF1_5:
   \   000096   7408         MOV     A,#0x8
   \   000098   12....       LCALL   ?XSTACK_DISP0_8
   \   00009B   7401         MOV     A,#0x1
   \                     ??AT_Cmd_RONOFF1_6:
   \   00009D   F0           MOVX    @DPTR,A
    719            switch(endpoint)
   \   00009E   74C9         MOV     A,#-0x37
   \   0000A0   6F           XRL     A,R7
   \   0000A1   700F         JNZ     ??AT_Cmd_RONOFF1_2
    720            {
    721              case AT_ONOFF_OUTPUT_ENDPOINT:
    722                AT_ONOFF_OUTPUT_Cmd_RONOFF(&dstAddr,on_off);
   \   0000A3                ; Setup parameters for call to function AT_ONOFF_OUTPUT_Cmd_RONOFF
   \   0000A3   EE           MOV     A,R6
   \   0000A4   F9           MOV     R1,A
   \   0000A5   85..82       MOV     DPL,?XSP + 0
   \   0000A8   85..83       MOV     DPH,?XSP + 1
   \   0000AB   AA82         MOV     R2,DPL
   \   0000AD   AB83         MOV     R3,DPH
   \   0000AF   12....       LCALL   ??AT_ONOFF_OUTPUT_Cmd_RONOFF?relay
    723                break;
    724              default:
    725                break;
    726            }
   \                     ??AT_Cmd_RONOFF1_2:
   \   0000B2   02....       LJMP    ?Subroutine4 & 0xFFFF
    727          }

   \                                 In  segment BANKED_CODE, align 1, keep-with-next
   \                     ?Subroutine144:
   \   000000   12....       LCALL   ?Subroutine168 & 0xFFFF
   \                     ??CrossCallReturnLabel_388:
   \   000003   22           RET

   \                                 In  segment BANKED_CODE, align 1, keep-with-next
   \                     ?Subroutine168:
   \   000000   E582         MOV     A,DPL
   \   000002   25..         ADD     A,?V0 + 0
   \   000004   FA           MOV     R2,A
   \   000005   E583         MOV     A,DPH
   \   000007   35..         ADDC    A,?V0 + 1
   \   000009   FB           MOV     R3,A
   \   00000A   22           RET

   \                                 In  segment BANKED_CODE, align 1, keep-with-next
   \                     ?Subroutine110:
   \   000000   12....       LCALL   ?Subroutine163 & 0xFFFF
   \                     ??CrossCallReturnLabel_514:
   \   000003   FE           MOV     R6,A
   \   000004   22           RET

   \                                 In  segment BANKED_CODE, align 1, keep-with-next
   \                     ?Subroutine22:
   \   000000   AA82         MOV     R2,DPL
   \   000002   AB83         MOV     R3,DPH
   \   000004   12....       LCALL   ??AT_ChartoInt16?relay
   \   000007                REQUIRE ??Subroutine208_0
   \   000007                ; // Fall through to label ??Subroutine208_0
    728          
    729          
    730          /*****************************************************
    731            I C Display Product Identification Information
    732            Response 
    733                     University of Essex <DeviceName>
    734                     <Firmware Revision>
    735                     <EUI64>
    736                     OK 
    737          
    738                     <DeviceName> is the device type 
    739                     <Firmware Revision> is the firmware revision 
    740                     <EUI64> is the devices IEEE 802.15.4 identifier
    741          *********************************************************/
    742          

   \                                 In  segment BANKED_CODE, align 1, keep-with-next
    743          void AT_Cmd_ATI(uint8 start_point, uint8* msg){
   \                     AT_Cmd_ATI:
   \   000000   74F4         MOV     A,#-0xc
   \   000002   12....       LCALL   ?BANKED_ENTER_XDATA
   \   000005                ; Saved register size: 12
   \   000005                ; Auto size: 23
   \   000005   74E9         MOV     A,#-0x17
   \   000007   12....       LCALL   ?ALLOC_XSTACK8
    744            AT_CmdUnit cmdUnitArr[1];
    745            start_point = AT_get_next_cmdUnit(&cmdUnitArr[0],start_point, msg);
   \   00000A                ; Setup parameters for call to function AT_get_next_cmdUnit
   \   00000A   EA           MOV     A,R2
   \   00000B   FC           MOV     R4,A
   \   00000C   EB           MOV     A,R3
   \   00000D   FD           MOV     R5,A
   \   00000E   7402         MOV     A,#0x2
   \   000010   12....       LCALL   ?XSTACK_DISP0_8
   \   000013   AA82         MOV     R2,DPL
   \   000015   AB83         MOV     R3,DPH
   \   000017   12....       LCALL   ??AT_get_next_cmdUnit?relay
    746            AT_PARSE_CMD_PATTERN_ERROR("\r",cmdUnitArr); 
   \   00001A                ; Setup parameters for call to function AT_pattern_check
   \   00001A   7402         MOV     A,#0x2
   \   00001C   12....       LCALL   ?XSTACK_DISP0_8
   \   00001F   AC82         MOV     R4,DPL
   \   000021   AD83         MOV     R5,DPH
   \   000023   7A..         MOV     R2,#`?<Constant "\\r">` & 0xff
   \   000025   7B..         MOV     R3,#(`?<Constant "\\r">` >> 8) & 0xff
   \   000027   12....       LCALL   ??Subroutine200_0 & 0xFFFF
   \                     ??CrossCallReturnLabel_437:
   \   00002A   6006         JZ      ??AT_Cmd_ATI_0
   \   00002C                ; Setup parameters for call to function AT_UARTWriteErrMsg
   \   00002C   12....       LCALL   ??AT_UARTWriteErrMsg?relay
   \   00002F   02....       LJMP    ??CrossCallReturnLabel_398 & 0xFFFF
    747            
    748            //uint8 pValue[8]={1,2,3,4,5,6,7,8};
    749            uint8 str[17];
    750            uint8 version[2];
    751            AT_EUI64toChar(NLME_GetExtAddr(),(char*)str);
   \                     ??AT_Cmd_ATI_0:
   \   000032                ; Setup parameters for call to function AT_EUI64toChar
   \   000032   7406         MOV     A,#0x6
   \   000034   12....       LCALL   ?XSTACK_DISP0_8
   \   000037   AE82         MOV     R6,DPL
   \   000039   AF83         MOV     R7,DPH
   \   00003B                ; Setup parameters for call to function NLME_GetExtAddr
   \   00003B   12....       LCALL   ??NLME_GetExtAddr?relay
   \   00003E   EE           MOV     A,R6
   \   00003F   FC           MOV     R4,A
   \   000040   EF           MOV     A,R7
   \   000041   FD           MOV     R5,A
   \   000042   12....       LCALL   ??AT_EUI64toChar?relay
    752            AT_Int8toChar(_NIB.nwkProtocolVersion,(char*)version);
   \   000045                ; Setup parameters for call to function AT_Int8toChar
   \   000045   85..82       MOV     DPL,?XSP + 0
   \   000048   85..83       MOV     DPH,?XSP + 1
   \   00004B   AA82         MOV     R2,DPL
   \   00004D   AB83         MOV     R3,DPH
   \   00004F   90....       MOV     DPTR,#_NIB + 17
   \   000052   E0           MOVX    A,@DPTR
   \   000053   F9           MOV     R1,A
   \   000054   12....       LCALL   ??AT_Int8toChar?relay
    753            
    754            
    755          
    756            //ZDO_Config_Node_Descriptor.LogicalType
    757            AT_RESP_START();
   \   000057   75....       MOV     ?V0 + 2,#`?<Constant "\\r\\n">` & 0xff
   \   00005A   75....       MOV     ?V0 + 3,#(`?<Constant "\\r\\n">` >> 8) & 0xff
   \   00005D                ; Setup parameters for call to function AT_HalUARTWrite
   \   00005D   7C02         MOV     R4,#0x2
   \   00005F   7D00         MOV     R5,#0x0
   \   000061   AA..         MOV     R2,?V0 + 2
   \   000063   AB..         MOV     R3,?V0 + 3
   \   000065   7900         MOV     R1,#0x0
   \   000067   12....       LCALL   ??AT_HalUARTWrite?relay
    758            AT_RESP("University of Essex",sizeof("University of Essex"));
   \   00006A                ; Setup parameters for call to function AT_HalUARTWrite
   \   00006A   7C14         MOV     R4,#0x14
   \   00006C   7D00         MOV     R5,#0x0
   \   00006E   7A..         MOV     R2,#`?<Constant "University of Essex">` & 0xff
   \   000070   7B..         MOV     R3,#(`?<Constant "University of Essex">` >> 8) & 0xff
   \   000072   12....       LCALL   ?Subroutine70 & 0xFFFF
    759            AT_NEXT_LINE();
    760          #if ( ZG_BUILD_COORDINATOR_TYPE )
    761              AT_RESP("COORDINATOR",sizeof("COORDINATOR"));
   \                     ??CrossCallReturnLabel_103:
   \   000075                ; Setup parameters for call to function AT_HalUARTWrite
   \   000075   7C0C         MOV     R4,#0xc
   \   000077   7D00         MOV     R5,#0x0
   \   000079   7A..         MOV     R2,#`?<Constant "COORDINATOR">` & 0xff
   \   00007B   7B..         MOV     R3,#(`?<Constant "COORDINATOR">` >> 8) & 0xff
   \   00007D   12....       LCALL   ?Subroutine70 & 0xFFFF
    762              //#define DEVICE_LOGICAL_TYPE ZG_DEVICETYPE_COORDINATOR
    763          #elif ( ZG_BUILD_RTR_TYPE )
    764              AT_RESP("ROUTER",sizeof("ROUTER"));
    765              //#define DEVICE_LOGICAL_TYPE ZG_DEVICETYPE_ROUTER
    766          #elif ( ZG_BUILD_ENDDEVICE_TYPE )
    767              AT_RESP("ENDDEVICE",sizeof("ENDDEVICE"));
    768              // Must be an end device
    769              //#define DEVICE_LOGICAL_TYPE ZG_DEVICETYPE_ENDDEVICE
    770          #else
    771              AT_RESP("<unknow error>",sizeof("<unknow error>"));
    772              //#error ZSTACK_DEVICE_BUILD must be defined as something!
    773          #endif
    774            AT_NEXT_LINE();
    775            printf(Revision);
   \                     ??CrossCallReturnLabel_104:
   \   000080                ; Setup parameters for call to function printf
   \   000080   90....       MOV     DPTR,#Revision
   \   000083   12....       LCALL   ?Subroutine44 & 0xFFFF
    776            AT_NEXT_LINE();
   \                     ??CrossCallReturnLabel_50:
   \   000086                ; Setup parameters for call to function AT_HalUARTWrite
   \   000086   7C02         MOV     R4,#0x2
   \   000088   7D00         MOV     R5,#0x0
   \   00008A   7A..         MOV     R2,#`?<Constant "\\n\\r">` & 0xff
   \   00008C   7B..         MOV     R3,#(`?<Constant "\\n\\r">` >> 8) & 0xff
   \   00008E   7900         MOV     R1,#0x0
   \   000090   12....       LCALL   ??AT_HalUARTWrite?relay
    777            AT_RESP("EUI64:",sizeof("EUI64:"));
   \   000093                ; Setup parameters for call to function AT_HalUARTWrite
   \   000093   7C07         MOV     R4,#0x7
   \   000095   7D00         MOV     R5,#0x0
   \   000097   7A..         MOV     R2,#`?<Constant "EUI64:">` & 0xff
   \   000099   7B..         MOV     R3,#(`?<Constant "EUI64:">` >> 8) & 0xff
   \   00009B   7900         MOV     R1,#0x0
   \   00009D   12....       LCALL   ??AT_HalUARTWrite?relay
    778            AT_RESP(str,16);
   \   0000A0                ; Setup parameters for call to function AT_HalUARTWrite
   \   0000A0   7C10         MOV     R4,#0x10
   \   0000A2   7D00         MOV     R5,#0x0
   \   0000A4   7406         MOV     A,#0x6
   \   0000A6   12....       LCALL   ?XSTACK_DISP0_8
   \   0000A9   AA82         MOV     R2,DPL
   \   0000AB   AB83         MOV     R3,DPH
   \   0000AD   12....       LCALL   ?Subroutine166 & 0xFFFF
    779            AT_RESP_END();
   \                     ??CrossCallReturnLabel_303:
   \   0000B0   AA..         MOV     R2,?V0 + 2
   \   0000B2   AB..         MOV     R3,?V0 + 3
   \   0000B4   12....       LCALL   ??Subroutine192_0 & 0xFFFF
    780            
    781            AT_OK();
    782          }
   \                     ??CrossCallReturnLabel_398:
   \   0000B7   7417         MOV     A,#0x17
   \   0000B9   02....       LJMP    ??Subroutine195_0 & 0xFFFF

   \                                 In  segment BANKED_CODE, align 1, keep-with-next
   \                     ?Subroutine166:
   \   000000   7900         MOV     R1,#0x0
   \   000002   12....       LCALL   ??AT_HalUARTWrite?relay
   \   000005                ; Setup parameters for call to function AT_HalUARTWrite
   \   000005                ; Setup parameters for call to function AT_HalUARTWrite
   \   000005                ; Setup parameters for call to function AT_HalUARTWrite
   \   000005                ; Setup parameters for call to function AT_HalUARTWrite
   \   000005                ; Setup parameters for call to function AT_HalUARTWrite
   \   000005                ; Setup parameters for call to function AT_HalUARTWrite
   \   000005                ; Setup parameters for call to function AT_HalUARTWrite
   \   000005                ; Setup parameters for call to function AT_HalUARTWrite
   \   000005   7C02         MOV     R4,#0x2
   \   000007   7D00         MOV     R5,#0x0
   \   000009   22           RET

   \                                 In  segment BANKED_CODE, align 1, keep-with-next
   \                     ??Subroutine192_0:
   \   000000   12....       LCALL   ?Subroutine146 & 0xFFFF
   \                     ??CrossCallReturnLabel_400:
   \   000003   7900         MOV     R1,#0x0
   \   000005   12....       LCALL   ??AT_HalUARTWrite?relay
   \   000008   22           RET

   \                                 In  segment BANKED_CODE, align 1, keep-with-next
   \                     ?Subroutine146:
   \   000000   7900         MOV     R1,#0x0
   \   000002   12....       LCALL   ??AT_HalUARTWrite?relay
   \   000005                ; Setup parameters for call to function AT_HalUARTWrite
   \   000005                ; Setup parameters for call to function AT_HalUARTWrite
   \   000005                ; Setup parameters for call to function AT_HalUARTWrite
   \   000005                ; Setup parameters for call to function AT_HalUARTWrite
   \   000005                ; Setup parameters for call to function AT_HalUARTWrite
   \   000005                ; Setup parameters for call to function AT_HalUARTWrite
   \   000005                ; Setup parameters for call to function AT_HalUARTWrite
   \   000005                ; Setup parameters for call to function AT_HalUARTWrite
   \   000005                ; Setup parameters for call to function AT_HalUARTWrite
   \   000005                ; Setup parameters for call to function AT_HalUARTWrite
   \   000005   7C07         MOV     R4,#0x7
   \   000007   7D00         MOV     R5,#0x0
   \   000009   7A..         MOV     R2,#`?<Constant "\\r\\nOK\\r\\n">` & 0xff
   \   00000B   7B..         MOV     R3,#(`?<Constant "\\r\\nOK\\r\\n">` >> 8) & 0xff
   \   00000D   22           RET

   \                                 In  segment BANKED_CODE, align 1, keep-with-next
   \                     ?Subroutine70:
   \   000000   12....       LCALL   ?Subroutine145 & 0xFFFF
   \                     ??CrossCallReturnLabel_279:
   \   000003   22           RET

   \                                 In  segment BANKED_CODE, align 1, keep-with-next
   \                     ?Subroutine145:
   \   000000   12....       LCALL   ?Subroutine166 & 0xFFFF
   \                     ??CrossCallReturnLabel_305:
   \   000003   7A..         MOV     R2,#`?<Constant "\\n\\r">` & 0xff
   \   000005   7B..         MOV     R3,#(`?<Constant "\\n\\r">` >> 8) & 0xff
   \   000007   7900         MOV     R1,#0x0
   \   000009   12....       LCALL   ??AT_HalUARTWrite?relay
   \   00000C   22           RET
    783          
    784          /*****************************************************
    785            Z C Software Reset
    786            Response 
    787                     Response
    788                     OK
    789          *********************************************************/

   \                                 In  segment BANKED_CODE, align 1, keep-with-next
   \                     ?Subroutine0:
   \   000000   7404         MOV     A,#0x4
   \   000002                REQUIRE ??Subroutine172_0
   \   000002                ; // Fall through to label ??Subroutine172_0

   \                                 In  segment BANKED_CODE, align 1, keep-with-next
    790          void AT_Cmd_ATZ(uint8 start_point, uint8* msg){
   \                     AT_Cmd_ATZ:
   \   000000   74F7         MOV     A,#-0x9
   \   000002   12....       LCALL   ?BANKED_ENTER_XDATA
   \   000005                ; Saved register size: 9
   \   000005                ; Auto size: 4
   \   000005   74FC         MOV     A,#-0x4
   \   000007   12....       LCALL   ?ALLOC_XSTACK8
    791            AT_CmdUnit cmdUnitArr[1];
    792            start_point = AT_get_next_cmdUnit(&cmdUnitArr[0],start_point, msg);
   \   00000A                ; Setup parameters for call to function AT_get_next_cmdUnit
   \   00000A   12....       LCALL   ?Subroutine97 & 0xFFFF
    793            AT_PARSE_CMD_PATTERN_ERROR("\r",cmdUnitArr); 
   \                     ??CrossCallReturnLabel_155:
   \   00000D   6005         JZ      ??AT_Cmd_ATZ_0
   \   00000F                ; Setup parameters for call to function AT_UARTWriteErrMsg
   \   00000F   12....       LCALL   ??AT_UARTWriteErrMsg?relay
   \   000012   801D         SJMP    ??AT_Cmd_ATZ_1
    794            AT_OK();
   \                     ??AT_Cmd_ATZ_0:
   \   000014                ; Setup parameters for call to function AT_HalUARTWrite
   \   000014   7C07         MOV     R4,#0x7
   \   000016   7D00         MOV     R5,#0x0
   \   000018   7A..         MOV     R2,#`?<Constant "\\r\\nOK\\r\\n">` & 0xff
   \   00001A   7B..         MOV     R3,#(`?<Constant "\\r\\nOK\\r\\n">` >> 8) & 0xff
   \   00001C   7900         MOV     R1,#0x0
   \   00001E   12....       LCALL   ??AT_HalUARTWrite?relay
    795            
    796            osal_start_timerEx( AT_Uart_TaskID, AT_RESET_EVENT, 50 ); //set timer ensure OK response from AT command is sent
   \   000021                ; Setup parameters for call to function osal_start_timerEx
   \   000021   7C32         MOV     R4,#0x32
   \   000023   7D00         MOV     R5,#0x0
   \   000025   7A00         MOV     R2,#0x0
   \   000027   7B20         MOV     R3,#0x20
   \   000029   90....       MOV     DPTR,#AT_Uart_TaskID
   \   00002C   E0           MOVX    A,@DPTR
   \   00002D   F9           MOV     R1,A
   \   00002E   12....       LCALL   ??osal_start_timerEx?relay
    797          }
   \                     ??AT_Cmd_ATZ_1:
   \   000031   02....       LJMP    ?Subroutine0 & 0xFFFF

   \                                 In  segment BANKED_CODE, align 1, keep-with-next
   \                     ?Subroutine97:
   \   000000   EA           MOV     A,R2
   \   000001   FC           MOV     R4,A
   \   000002   EB           MOV     A,R3
   \   000003   FD           MOV     R5,A
   \   000004   85..82       MOV     DPL,?XSP + 0
   \   000007   85..83       MOV     DPH,?XSP + 1
   \   00000A   AA82         MOV     R2,DPL
   \   00000C   AB83         MOV     R3,DPH
   \   00000E   12....       LCALL   ?Subroutine164 & 0xFFFF
   \                     ??CrossCallReturnLabel_299:
   \   000011   AC82         MOV     R4,DPL
   \   000013   AD83         MOV     R5,DPH
   \   000015   7A..         MOV     R2,#`?<Constant "\\r">` & 0xff
   \   000017   7B..         MOV     R3,#(`?<Constant "\\r">` >> 8) & 0xff
   \   000019   12....       LCALL   ??AT_pattern_check?relay
   \   00001C   E9           MOV     A,R1
   \   00001D   22           RET

   \                                 In  segment BANKED_CODE, align 1, keep-with-next
   \                     ?Subroutine164:
   \   000000   12....       LCALL   ??AT_get_next_cmdUnit?relay
   \   000003                ; Setup parameters for call to function AT_pattern_check
   \   000003                ; Setup parameters for call to function AT_pattern_check
   \   000003                ; Setup parameters for call to function AT_pattern_check
   \   000003                ; Setup parameters for call to function AT_pattern_check
   \   000003                ; Setup parameters for call to function AT_pattern_check
   \   000003                ; Setup parameters for call to function AT_pattern_check
   \   000003                ; Setup parameters for call to function AT_pattern_check
   \   000003                ; Setup parameters for call to function AT_pattern_check
   \   000003                ; Setup parameters for call to function AT_pattern_check
   \   000003                ; Setup parameters for call to function AT_pattern_check
   \   000003                ; Setup parameters for call to function MAC_MlmeGetReq
   \   000003   85..82       MOV     DPL,?XSP + 0
   \   000006   85..83       MOV     DPH,?XSP + 1
   \   000009   22           RET
    798          
    799          /*****************************************************
    800            &F C Restore Local Device's Factory Defaults
    801            Response 
    802                     Response
    803                     OK
    804                      Module performs a factory reset. 
    805                      All non-volatile S Registers are updated with their factory defaults 
    806                      and the node leaves the currently joined network
    807          *********************************************************/

   \                                 In  segment BANKED_CODE, align 1, keep-with-next
    808          void AT_Cmd_AT_F(uint8 start_point, uint8* msg){
   \                     AT_Cmd_AT_F:
   \   000000   74F7         MOV     A,#-0x9
   \   000002   12....       LCALL   ?BANKED_ENTER_XDATA
   \   000005                ; Saved register size: 9
   \   000005                ; Auto size: 4
   \   000005   74FC         MOV     A,#-0x4
   \   000007   12....       LCALL   ?ALLOC_XSTACK8
    809            AT_CmdUnit cmdUnitArr[1];
    810            uint8 status;
    811            start_point = AT_get_next_cmdUnit(&cmdUnitArr[0],start_point, msg);
   \   00000A                ; Setup parameters for call to function AT_get_next_cmdUnit
   \   00000A   12....       LCALL   ?Subroutine97 & 0xFFFF
    812            AT_PARSE_CMD_PATTERN_ERROR("\r",cmdUnitArr); 
   \                     ??CrossCallReturnLabel_156:
   \   00000D   702E         JNZ     ??AT_Cmd_AT_F_0
   \   00000F                ; Setup parameters for call to function AT_UARTWriteErrMsg
    813            
    814            AT_clear_AT_SYSTEM_NVs();
   \   00000F                ; Setup parameters for call to function AT_clear_AT_SYSTEM_NVs
   \   00000F   12....       LCALL   ??AT_clear_AT_SYSTEM_NVs?relay
    815            if(status=zgWriteStartupOptions( ZG_STARTUP_SET, ZCD_STARTOPT_DEFAULT_NETWORK_STATE
    816                                            |ZCD_STARTOPT_DEFAULT_CONFIG_STATE)==ZSUCCESS){
   \   000012                ; Setup parameters for call to function zgWriteStartupOptions
   \   000012   7A03         MOV     R2,#0x3
   \   000014   79FF         MOV     R1,#-0x1
   \   000016   12....       LCALL   ??zgWriteStartupOptions?relay
   \   000019   E9           MOV     A,R1
   \   00001A   701F         JNZ     ??AT_Cmd_AT_F_1
    817              AT_OK();
   \   00001C                ; Setup parameters for call to function AT_HalUARTWrite
   \   00001C   7C07         MOV     R4,#0x7
   \   00001E   7D00         MOV     R5,#0x0
   \   000020   7A..         MOV     R2,#`?<Constant "\\r\\nOK\\r\\n">` & 0xff
   \   000022   7B..         MOV     R3,#(`?<Constant "\\r\\nOK\\r\\n">` >> 8) & 0xff
   \   000024   7900         MOV     R1,#0x0
   \   000026   12....       LCALL   ??AT_HalUARTWrite?relay
    818              osal_start_timerEx( AT_Uart_TaskID, AT_RESET_EVENT, 200 ); //set timer ensure OK response from AT command is sent
   \   000029                ; Setup parameters for call to function osal_start_timerEx
   \   000029   7CC8         MOV     R4,#-0x38
   \   00002B   7D00         MOV     R5,#0x0
   \   00002D   7A00         MOV     R2,#0x0
   \   00002F   7B20         MOV     R3,#0x20
   \   000031   90....       MOV     DPTR,#AT_Uart_TaskID
   \   000034   E0           MOVX    A,@DPTR
   \   000035   F9           MOV     R1,A
   \   000036   12....       LCALL   ??osal_start_timerEx?relay
   \   000039   8005         SJMP    ??AT_Cmd_AT_F_2
    819            }
    820            else AT_ERROR(status);
   \                     ??AT_Cmd_AT_F_1:
   \   00003B                ; Setup parameters for call to function AT_UARTWriteErrMsg
   \   00003B   7900         MOV     R1,#0x0
   \                     ??AT_Cmd_AT_F_0:
   \   00003D   12....       LCALL   ??AT_UARTWriteErrMsg?relay
   \                     ??AT_Cmd_AT_F_2:
   \   000040   02....       LJMP    ?Subroutine0 & 0xFFFF
    821          }
    822          
    823          
    824          /*****************************************************
    825          +EPENABLE C Enable/Disable Local Endpoint
    826          
    827                AT+EPENABLE:<Enable/Disable>,<EP> 
    828                      <Enable/Disable> - 0 for Disable; 1 for Enable 
    829                      <EP> - 8 bit hexadecimal number Endpoint
    830          
    831          Response 
    832                EPENABLED:<EP> or 
    833                EPDISABLED:<EP> or 
    834                UNKNOWNEP 
    835                OK
    836          *********************************************************/
    837          

   \                                 In  segment BANKED_CODE, align 1, keep-with-next
    838          void AT_Cmd_EPENABLE(uint8 start_point, uint8* msg){
   \                     AT_Cmd_EPENABLE:
   \   000000   74F4         MOV     A,#-0xc
   \   000002   12....       LCALL   ?BANKED_ENTER_XDATA
   \   000005                ; Saved register size: 12
   \   000005                ; Auto size: 15
   \   000005   74F1         MOV     A,#-0xf
   \   000007   12....       LCALL   ?ALLOC_XSTACK8
   \   00000A   89..         MOV     ?V0 + 1,R1
   \   00000C   EA           MOV     A,R2
   \   00000D   FE           MOV     R6,A
   \   00000E   EB           MOV     A,R3
   \   00000F   FF           MOV     R7,A
    839            AT_CmdUnit cmdUnitArr[3];
    840            uint8 i;
    841            for(i=0;i<3;i++)start_point = AT_get_next_cmdUnit(&cmdUnitArr[i],start_point, msg);  
   \   000010   75..00       MOV     ?V0 + 0,#0x0
   \                     ??AT_Cmd_EPENABLE_0:
   \   000013                ; Setup parameters for call to function AT_get_next_cmdUnit
   \   000013   EE           MOV     A,R6
   \   000014   FC           MOV     R4,A
   \   000015   EF           MOV     A,R7
   \   000016   FD           MOV     R5,A
   \   000017   A9..         MOV     R1,?V0 + 1
   \   000019   85....       MOV     ?V0 + 2,?V0 + 0
   \   00001C   75..00       MOV     ?V0 + 3,#0x0
   \   00001F   7402         MOV     A,#0x2
   \   000021   78..         MOV     R0,#?V0 + 2
   \   000023   12....       LCALL   ?S_SHL
   \   000026   7403         MOV     A,#0x3
   \   000028   12....       LCALL   ?XSTACK_DISP0_8
   \   00002B   12....       LCALL   ?Subroutine107 & 0xFFFF
   \                     ??CrossCallReturnLabel_183:
   \   00002E   12....       LCALL   ??Subroutine206_0 & 0xFFFF
   \                     ??CrossCallReturnLabel_501:
   \   000031   F5..         MOV     ?V0 + 1,A
   \   000033   05..         INC     ?V0 + 0
   \   000035   E5..         MOV     A,?V0 + 0
   \   000037   C3           CLR     C
   \   000038   9403         SUBB    A,#0x3
   \   00003A   40D7         JC      ??AT_Cmd_EPENABLE_0
    842            
    843            AT_PARSE_CMD_PATTERN_ERROR(":,\r",cmdUnitArr); 
   \   00003C                ; Setup parameters for call to function AT_pattern_check
   \   00003C   7403         MOV     A,#0x3
   \   00003E   12....       LCALL   ?XSTACK_DISP0_8
   \   000041   AC82         MOV     R4,DPL
   \   000043   AD83         MOV     R5,DPH
   \   000045   7A..         MOV     R2,#`?<Constant ":,\\r">` & 0xff
   \   000047   7B..         MOV     R3,#(`?<Constant ":,\\r">` >> 8) & 0xff
   \   000049   12....       LCALL   ??Subroutine200_0 & 0xFFFF
   \                     ??CrossCallReturnLabel_438:
   \   00004C   6006         JZ      ??AT_Cmd_EPENABLE_1
   \   00004E                ; Setup parameters for call to function AT_UARTWriteErrMsg
   \   00004E   12....       LCALL   ??AT_UARTWriteErrMsg?relay
   \   000051   02....       LJMP    ??AT_Cmd_EPENABLE_2 & 0xFFFF
    844            
    845            uint8 enable =AT_ChartoInt8(&cmdUnitArr[0]);
   \                     ??AT_Cmd_EPENABLE_1:
   \   000054                ; Setup parameters for call to function AT_ChartoInt8
   \   000054   7403         MOV     A,#0x3
   \   000056   12....       LCALL   ?XSTACK_DISP0_8
   \   000059   12....       LCALL   ?Subroutine112 & 0xFFFF
    846            uint8 ep =AT_ChartoInt8(&cmdUnitArr[1]);
   \                     ??CrossCallReturnLabel_199:
   \   00005C                ; Setup parameters for call to function AT_ChartoInt8
   \   00005C   7407         MOV     A,#0x7
   \   00005E   12....       LCALL   ?XSTACK_DISP0_8
   \   000061   12....       LCALL   ??Subroutine201_0 & 0xFFFF
   \                     ??CrossCallReturnLabel_481:
   \   000064   F5..         MOV     ?V0 + 0,A
    847            char str[2];
    848            if(enable!=0) enable=1;
   \   000066   85..82       MOV     DPL,?XSP + 0
   \   000069   85..83       MOV     DPH,?XSP + 1
   \   00006C   E0           MOVX    A,@DPTR
   \   00006D   6044         JZ      ??AT_Cmd_EPENABLE_3
   \   00006F   7401         MOV     A,#0x1
   \   000071   F0           MOVX    @DPTR,A
    849            
    850            if(enable){
    851              if( AT_af_get_ep(ep)){
   \   000072                ; Setup parameters for call to function AT_af_get_ep
   \   000072   12....       LCALL   ?Subroutine128 & 0xFFFF
   \                     ??CrossCallReturnLabel_241:
   \   000075   6022         JZ      ??AT_Cmd_EPENABLE_4
    852                if(AT_af_register_ep(ep)==afStatus_SUCCESS){ 
   \   000077                ; Setup parameters for call to function AT_af_register_ep
   \   000077   A9..         MOV     R1,?V0 + 0
   \   000079   12....       LCALL   ??AT_af_register_ep?relay
   \   00007C   E9           MOV     A,R1
   \   00007D   7003         JNZ     ??CrossCallReturnLabel_33
    853                  //enable the end point in ZCL layer
    854                  AT_ZCL_EP_ENABLE( enable,ep);
   \   00007F                ; Setup parameters for call to function AT_ZCL_EP_ENABLE
   \   00007F   12....       LCALL   ?Subroutine34 & 0xFFFF
    855                  AT_NV_ZCL_saveEPStatus(AT_NV_ZCL_get_index_(ep),&enable);
    856                }
    857                  AT_RESP_START();
   \                     ??CrossCallReturnLabel_33:
   \   000082                ; Setup parameters for call to function AT_HalUARTWrite
   \   000082   7C02         MOV     R4,#0x2
   \   000084   7D00         MOV     R5,#0x0
   \   000086   7A..         MOV     R2,#`?<Constant "\\r\\n">` & 0xff
   \   000088   7B..         MOV     R3,#(`?<Constant "\\r\\n">` >> 8) & 0xff
   \   00008A   7900         MOV     R1,#0x0
   \   00008C   12....       LCALL   ??AT_HalUARTWrite?relay
    858                  AT_RESP("ENABLED:",sizeof("ENABLED:")-1);
   \   00008F                ; Setup parameters for call to function AT_HalUARTWrite
   \   00008F   7C08         MOV     R4,#0x8
   \   000091   7D00         MOV     R5,#0x0
   \   000093   7A..         MOV     R2,#`?<Constant "ENABLED:">` & 0xff
   \   000095   7B..         MOV     R3,#(`?<Constant "ENABLED:">` >> 8) & 0xff
   \   000097   803F         SJMP    ??AT_Cmd_EPENABLE_5
    859                  AT_Int8toChar(ep,str);
    860                  AT_RESP(str,2);
    861                  AT_RESP_END();
    862              }else {
    863                
    864                AT_RESP_START();
   \                     ??AT_Cmd_EPENABLE_4:
   \   000099                ; Setup parameters for call to function AT_HalUARTWrite
   \   000099   7C02         MOV     R4,#0x2
   \   00009B   7D00         MOV     R5,#0x0
   \   00009D   7A..         MOV     R2,#`?<Constant "\\r\\n">` & 0xff
   \   00009F   7B..         MOV     R3,#(`?<Constant "\\r\\n">` >> 8) & 0xff
   \   0000A1   7900         MOV     R1,#0x0
   \   0000A3   12....       LCALL   ??AT_HalUARTWrite?relay
    865                AT_RESP("UNKNOWNEP",sizeof("UNKNOWNEP")-1);
   \   0000A6                ; Setup parameters for call to function AT_HalUARTWrite
   \   0000A6   7C09         MOV     R4,#0x9
   \   0000A8   7D00         MOV     R5,#0x0
   \   0000AA   7A..         MOV     R2,#`?<Constant "UNKNOWNEP">` & 0xff
   \   0000AC   7B..         MOV     R3,#(`?<Constant "UNKNOWNEP">` >> 8) & 0xff
   \   0000AE   12....       LCALL   ?Subroutine73 & 0xFFFF
    866                AT_RESP_END();
    867                return;
    868              }
    869            }
   \                     ??CrossCallReturnLabel_110:
   \   0000B1   8047         SJMP    ??CrossCallReturnLabel_399
    870            else{
    871              if(AT_af_get_ep(ep)){
   \                     ??AT_Cmd_EPENABLE_3:
   \   0000B3                ; Setup parameters for call to function AT_af_get_ep
   \   0000B3   12....       LCALL   ?Subroutine128 & 0xFFFF
   \                     ??CrossCallReturnLabel_242:
   \   0000B6   60E1         JZ      ??AT_Cmd_EPENABLE_4
    872                if(AT_af_remove_ep(ep)==afStatus_SUCCESS){
   \   0000B8                ; Setup parameters for call to function AT_af_remove_ep
   \   0000B8   A9..         MOV     R1,?V0 + 0
   \   0000BA   12....       LCALL   ??AT_af_remove_ep?relay
   \   0000BD   E9           MOV     A,R1
   \   0000BE   7003         JNZ     ??CrossCallReturnLabel_34
    873                  //disable the end point in ZCL layer
    874                  AT_ZCL_EP_ENABLE( enable,ep);
   \   0000C0                ; Setup parameters for call to function AT_ZCL_EP_ENABLE
   \   0000C0   12....       LCALL   ?Subroutine34 & 0xFFFF
    875                  //save to NV
    876                  AT_NV_ZCL_saveEPStatus(AT_NV_ZCL_get_index_(ep),&enable);
    877                }
    878                AT_RESP_START();
   \                     ??CrossCallReturnLabel_34:
   \   0000C3                ; Setup parameters for call to function AT_HalUARTWrite
   \   0000C3   7C02         MOV     R4,#0x2
   \   0000C5   7D00         MOV     R5,#0x0
   \   0000C7   7A..         MOV     R2,#`?<Constant "\\r\\n">` & 0xff
   \   0000C9   7B..         MOV     R3,#(`?<Constant "\\r\\n">` >> 8) & 0xff
   \   0000CB   7900         MOV     R1,#0x0
   \   0000CD   12....       LCALL   ??AT_HalUARTWrite?relay
    879                AT_RESP("DISABLED:",sizeof("DISABLED:")-1);
   \   0000D0                ; Setup parameters for call to function AT_HalUARTWrite
   \   0000D0   7C09         MOV     R4,#0x9
   \   0000D2   7D00         MOV     R5,#0x0
   \   0000D4   7A..         MOV     R2,#`?<Constant "DISABLED:">` & 0xff
   \   0000D6   7B..         MOV     R3,#(`?<Constant "DISABLED:">` >> 8) & 0xff
   \                     ??AT_Cmd_EPENABLE_5:
   \   0000D8   7900         MOV     R1,#0x0
   \   0000DA   12....       LCALL   ??AT_HalUARTWrite?relay
    880                AT_Int8toChar(ep,str);
   \   0000DD                ; Setup parameters for call to function AT_Int8toChar
   \   0000DD   7401         MOV     A,#0x1
   \   0000DF   12....       LCALL   ?XSTACK_DISP0_8
   \   0000E2   AA82         MOV     R2,DPL
   \   0000E4   AB83         MOV     R3,DPH
   \   0000E6   A9..         MOV     R1,?V0 + 0
   \   0000E8   12....       LCALL   ??Subroutine194_0 & 0xFFFF
    881                AT_RESP(str,2);
    882                AT_RESP_END();
    883              }else {
    884                AT_RESP_START();
    885                AT_RESP("UNKNOWNEP",sizeof("UNKNOWNEP")-1);
    886                AT_RESP_END();
    887                return;
    888              }
    889            }
   \                     ??CrossCallReturnLabel_415:
   \   0000EB   7401         MOV     A,#0x1
   \   0000ED   12....       LCALL   ?XSTACK_DISP0_8
   \   0000F0   AA82         MOV     R2,DPL
   \   0000F2   AB83         MOV     R3,DPH
   \   0000F4   12....       LCALL   ?Subroutine73 & 0xFFFF
   \                     ??CrossCallReturnLabel_111:
   \   0000F7   12....       LCALL   ?Subroutine146 & 0xFFFF
    890            AT_OK();
   \                     ??CrossCallReturnLabel_399:
   \   0000FA   7900         MOV     R1,#0x0
   \   0000FC   12....       LCALL   ??AT_HalUARTWrite?relay
    891          }
   \                     ??AT_Cmd_EPENABLE_2:
   \   0000FF   740F         MOV     A,#0xf
   \   000101   02....       LJMP    ??Subroutine195_0 & 0xFFFF

   \                                 In  segment BANKED_CODE, align 1, keep-with-next
   \                     ?Subroutine128:
   \   000000   12....       LCALL   ??AT_af_get_ep?relay
   \   000003   8B..         MOV     ?V0 + 3,R3
   \   000005   EA           MOV     A,R2
   \   000006   45..         ORL     A,?V0 + 3
   \   000008   22           RET

   \                                 In  segment BANKED_CODE, align 1, keep-with-next
   \                     ?Subroutine73:
   \   000000   12....       LCALL   ?Subroutine166 & 0xFFFF
   \                     ??CrossCallReturnLabel_304:
   \   000003   7A..         MOV     R2,#`?<Constant "\\r\\n">` & 0xff
   \   000005   7B..         MOV     R3,#(`?<Constant "\\r\\n">` >> 8) & 0xff
   \   000007   22           RET

   \                                 In  segment BANKED_CODE, align 1, keep-with-next
   \                     ?Subroutine34:
   \   000000   AA..         MOV     R2,?V0 + 0
   \   000002   85..82       MOV     DPL,?XSP + 0
   \   000005   85..83       MOV     DPH,?XSP + 1
   \   000008   E0           MOVX    A,@DPTR
   \   000009   F9           MOV     R1,A
   \   00000A   12....       LCALL   ??AT_ZCL_EP_ENABLE?relay
   \   00000D                ; Setup parameters for call to function AT_NV_ZCL_saveEPStatus
   \   00000D                ; Setup parameters for call to function AT_NV_ZCL_saveEPStatus
   \   00000D   85..82       MOV     DPL,?XSP + 0
   \   000010   85..83       MOV     DPH,?XSP + 1
   \   000013   AE82         MOV     R6,DPL
   \   000015   AF83         MOV     R7,DPH
   \   000017                ; Setup parameters for call to function AT_NV_ZCL_get_index_
   \   000017                ; Setup parameters for call to function AT_NV_ZCL_get_index_
   \   000017   A9..         MOV     R1,?V0 + 0
   \   000019   12....       LCALL   ??AT_NV_ZCL_get_index_?relay
   \   00001C   EE           MOV     A,R6
   \   00001D   FA           MOV     R2,A
   \   00001E   EF           MOV     A,R7
   \   00001F   FB           MOV     R3,A
   \   000020   12....       LCALL   ??AT_NV_ZCL_saveEPStatus?relay
   \   000023   22           RET

   \                                 In  segment BANKED_CODE, align 1, keep-with-next
   \                     ??Subroutine194_0:
   \   000000   12....       LCALL   ??AT_Int8toChar?relay
   \   000003                ; Setup parameters for call to function AT_HalUARTWrite
   \   000003                ; Setup parameters for call to function AT_HalUARTWrite
   \   000003                ; Setup parameters for call to function AT_HalUARTWrite
   \   000003                ; Setup parameters for call to function AT_HalUARTWrite
   \   000003                ; Setup parameters for call to function AT_HalUARTWrite
   \   000003                ; Setup parameters for call to function AT_HalUARTWrite
   \   000003   7C02         MOV     R4,#0x2
   \   000005   7D00         MOV     R5,#0x0
   \   000007   22           RET

   \                                 In  segment BANKED_CODE, align 1, keep-with-next
   \                     ?Subroutine112:
   \   000000   12....       LCALL   ?Subroutine163 & 0xFFFF
   \                     ??CrossCallReturnLabel_510:
   \   000003   85..82       MOV     DPL,?XSP + 0
   \   000006   85..83       MOV     DPH,?XSP + 1
   \   000009   F0           MOVX    @DPTR,A
   \   00000A   22           RET

   \                                 In  segment BANKED_CODE, align 1, keep-with-next
   \                     ??Subroutine201_0:
   \   000000   12....       LCALL   ?Subroutine163 & 0xFFFF
   \                     ??CrossCallReturnLabel_511:
   \   000003   22           RET
    892          
    893          
    894          
    895          /*****************************************************
    896          +REPENABLE C Enable/Disable Remote Endpoint
    897          
    898                AT+REPENABLE:<nodeID>,<Enable/Disable>,<EP> 
    899                      <Enable/Disable> - 0 for Disable; 1 for Enable 
    900                      <EP> - 8 bit hexadecimal number Endpoint
    901          
    902          Response 
    903                EPENABLED:<EP> or 
    904                EPDISABLED:<EP> or 
    905                UNKNOWNEP 
    906                OK
    907          *********************************************************/

   \                                 In  segment BANKED_CODE, align 1, keep-with-next
    908          void AT_Cmd_REPENABLE(uint8 start_point, uint8* msg){
   \                     AT_Cmd_REPENABLE:
   \   000000   74F4         MOV     A,#-0xc
   \   000002   12....       LCALL   ?BANKED_ENTER_XDATA
   \   000005                ; Saved register size: 12
   \   000005                ; Auto size: 20
   \   000005   74EC         MOV     A,#-0x14
   \   000007   12....       LCALL   ?ALLOC_XSTACK8
   \   00000A   89..         MOV     ?V0 + 2,R1
   \   00000C   EA           MOV     A,R2
   \   00000D   FE           MOV     R6,A
   \   00000E   EB           MOV     A,R3
   \   00000F   FF           MOV     R7,A
    909            AT_CmdUnit cmdUnitArr[4];
    910            uint8 i;
    911            for(i=0;i<4;i++)start_point = AT_get_next_cmdUnit(&cmdUnitArr[i],start_point, msg);  
   \   000010   75..00       MOV     ?V0 + 3,#0x0
   \                     ??AT_Cmd_REPENABLE_0:
   \   000013                ; Setup parameters for call to function AT_get_next_cmdUnit
   \   000013   EE           MOV     A,R6
   \   000014   FC           MOV     R4,A
   \   000015   EF           MOV     A,R7
   \   000016   FD           MOV     R5,A
   \   000017   A9..         MOV     R1,?V0 + 2
   \   000019   85....       MOV     ?V0 + 0,?V0 + 3
   \   00001C   75..00       MOV     ?V0 + 1,#0x0
   \   00001F   7402         MOV     A,#0x2
   \   000021   78..         MOV     R0,#?V0 + 0
   \   000023   12....       LCALL   ?S_SHL
   \   000026   7404         MOV     A,#0x4
   \   000028   12....       LCALL   ?XSTACK_DISP0_8
   \   00002B   12....       LCALL   ?Subroutine57 & 0xFFFF
   \                     ??CrossCallReturnLabel_82:
   \   00002E   40E3         JC      ??AT_Cmd_REPENABLE_0
    912            AT_PARSE_CMD_PATTERN_ERROR(":,,\r",cmdUnitArr); 
   \   000030                ; Setup parameters for call to function AT_pattern_check
   \   000030   7404         MOV     A,#0x4
   \   000032   12....       LCALL   ?XSTACK_DISP0_8
   \   000035   AC82         MOV     R4,DPL
   \   000037   AD83         MOV     R5,DPH
   \   000039   7A..         MOV     R2,#`?<Constant ":,,\\r">` & 0xff
   \   00003B   7B..         MOV     R3,#(`?<Constant ":,,\\r">` >> 8) & 0xff
   \   00003D   12....       LCALL   ??Subroutine200_0 & 0xFFFF
   \                     ??CrossCallReturnLabel_439:
   \   000040   6005         JZ      ??AT_Cmd_REPENABLE_1
   \   000042                ; Setup parameters for call to function AT_UARTWriteErrMsg
   \                     ??AT_Cmd_REPENABLE_2:
   \   000042   12....       LCALL   ??AT_UARTWriteErrMsg?relay
   \   000045   8070         SJMP    ??AT_Cmd_REPENABLE_3
    913            
    914            uint8 enable =AT_ChartoInt8(&cmdUnitArr[1]);
   \                     ??AT_Cmd_REPENABLE_1:
   \   000047                ; Setup parameters for call to function AT_ChartoInt8
   \   000047   7408         MOV     A,#0x8
   \   000049   12....       LCALL   ?XSTACK_DISP0_8
   \   00004C   12....       LCALL   ?Subroutine110 & 0xFFFF
    915            uint8 ep =AT_ChartoInt8(&cmdUnitArr[2]);
   \                     ??CrossCallReturnLabel_185:
   \   00004F                ; Setup parameters for call to function AT_ChartoInt8
   \   00004F   740C         MOV     A,#0xc
   \   000051   12....       LCALL   ?XSTACK_DISP0_8
   \   000054   12....       LCALL   ??Subroutine201_0 & 0xFFFF
   \                     ??CrossCallReturnLabel_482:
   \   000057   F8           MOV     R0,A
    916            if(enable!=0) enable=1;
   \   000058   EE           MOV     A,R6
   \   000059   6002         JZ      ??AT_Cmd_REPENABLE_4
   \   00005B   7E01         MOV     R6,#0x1
    917            
    918            uint8 state;
    919            AT_AF_Cmd_REPENABLE_req_t buf; 
    920            buf.hdr.cmd = AT_AF_Cmd_req;
   \                     ??AT_Cmd_REPENABLE_4:
   \   00005D   85..82       MOV     DPL,?XSP + 0
   \   000060   85..83       MOV     DPH,?XSP + 1
   \   000063   E4           CLR     A
   \   000064   F0           MOVX    @DPTR,A
    921            buf.enable=enable; 
   \   000065   7402         MOV     A,#0x2
   \   000067   12....       LCALL   ?XSTACK_DISP0_8
   \   00006A   EE           MOV     A,R6
   \   00006B   F0           MOVX    @DPTR,A
    922            buf.ep=ep; 
   \   00006C   7403         MOV     A,#0x3
   \   00006E   12....       LCALL   ?XSTACK_DISP0_8
   \   000071   E8           MOV     A,R0
   \   000072   F0           MOVX    @DPTR,A
    923            state =  AT_AF_Cmd_send_simple(cmdUnitArr[0].unitLen ? AT_ChartoInt16(&cmdUnitArr[0]):NLME_GetShortAddr() ,
    924                                AT_AF_Cmd_REPENABLE_CLUSTERID,
    925                                sizeof(AT_AF_Cmd_REPENABLE_req_t),&buf);
   \   000073   7405         MOV     A,#0x5
   \   000075   12....       LCALL   ?XSTACK_DISP0_8
   \   000078   E0           MOVX    A,@DPTR
   \   000079   600E         JZ      ??AT_Cmd_REPENABLE_5
   \   00007B                ; Setup parameters for call to function AT_ChartoInt16
   \   00007B   7404         MOV     A,#0x4
   \   00007D   12....       LCALL   ?XSTACK_DISP0_8
   \   000080   AA82         MOV     R2,DPL
   \   000082   AB83         MOV     R3,DPH
   \   000084   12....       LCALL   ??AT_ChartoInt16?relay
   \   000087   8003         SJMP    ??AT_Cmd_REPENABLE_6
   \                     ??AT_Cmd_REPENABLE_5:
   \   000089                ; Setup parameters for call to function NLME_GetShortAddr
   \   000089   12....       LCALL   ??NLME_GetShortAddr?relay
   \                     ??AT_Cmd_REPENABLE_6:
   \   00008C                ; Setup parameters for call to function AT_AF_Cmd_send_simple_
   \   00008C   85..82       MOV     DPL,?XSP + 0
   \   00008F   85..83       MOV     DPH,?XSP + 1
   \   000092   8582..       MOV     ?V0 + 0,DPL
   \   000095   8583..       MOV     ?V0 + 1,DPH
   \   000098   78..         MOV     R0,#?V0 + 0
   \   00009A   12....       LCALL   ?PUSH_XSTACK_I_TWO
   \   00009D   7904         MOV     R1,#0x4
   \   00009F   7C01         MOV     R4,#0x1
   \   0000A1   12....       LCALL   ?Subroutine129 & 0xFFFF
   \                     ??CrossCallReturnLabel_335:
   \   0000A4   12....       LCALL   ?DEALLOC_XSTACK8
   \   0000A7   E9           MOV     A,R1
    926            if(state!=afStatus_SUCCESS) AT_ERROR(state);
   \   0000A8   7098         JNZ     ??AT_Cmd_REPENABLE_2
   \   0000AA                ; Setup parameters for call to function AT_UARTWriteErrMsg
    927            else AT_OK();
   \   0000AA                ; Setup parameters for call to function AT_HalUARTWrite
   \   0000AA   7C07         MOV     R4,#0x7
   \   0000AC   7D00         MOV     R5,#0x0
   \   0000AE   7A..         MOV     R2,#`?<Constant "\\r\\nOK\\r\\n">` & 0xff
   \   0000B0   7B..         MOV     R3,#(`?<Constant "\\r\\nOK\\r\\n">` >> 8) & 0xff
   \   0000B2   7900         MOV     R1,#0x0
   \   0000B4   12....       LCALL   ??AT_HalUARTWrite?relay
   \                     ??AT_Cmd_REPENABLE_3:
   \   0000B7                REQUIRE ?Subroutine10
   \   0000B7                ; // Fall through to label ?Subroutine10
    928            
    929          }

   \                                 In  segment BANKED_CODE, align 1, keep-with-next
   \                     ?Subroutine10:
   \   000000   7414         MOV     A,#0x14
   \   000002   02....       LJMP    ??Subroutine195_0 & 0xFFFF

   \                                 In  segment BANKED_CODE, align 1, keep-with-next
   \                     ?Subroutine129:
   \   000000   7D00         MOV     R5,#0x0
   \   000002                REQUIRE ??Subroutine182_0
   \   000002                ; // Fall through to label ??Subroutine182_0

   \                                 In  segment BANKED_CODE, align 1, keep-with-next
   \                     ??Subroutine182_0:
   \   000000   12....       LCALL   ??AT_AF_Cmd_send_simple_?relay
   \   000003   7402         MOV     A,#0x2
   \   000005   22           RET

   \                                 In  segment BANKED_CODE, align 1, keep-with-next
   \                     ?Subroutine57:
   \   000000   12....       LCALL   ?Subroutine140 & 0xFFFF
   \                     ??CrossCallReturnLabel_385:
   \   000003   9404         SUBB    A,#0x4
   \   000005   22           RET

   \                                 In  segment BANKED_CODE, align 1, keep-with-next
   \                     ?Subroutine140:
   \   000000   12....       LCALL   ?Subroutine168 & 0xFFFF
   \                     ??CrossCallReturnLabel_389:
   \   000003   12....       LCALL   ??Subroutine204_0 & 0xFFFF
   \                     ??CrossCallReturnLabel_551:
   \   000006   F5..         MOV     ?V0 + 2,A
   \   000008   05..         INC     ?V0 + 3
   \   00000A   E5..         MOV     A,?V0 + 3
   \   00000C   C3           CLR     C
   \   00000D   22           RET
    930          
    931          
    932          /*****************************************************
    933            EPPRINT C Print Local Endpoints Status
    934            Response
    935                  EP 0x01:ENABLED (or DISABLED) 
    936                  EP 0x02:ENABLED (or DISABLED) 
    937                  EP 0x03:ENABLED (or DISABLED) 
    938                  EP 0x04:ENABLED (or DISABLED) 
    939                  EP 0x05:ENABLED (or DISABLED) 
    940                  OK
    941          *********************************************************/

   \                                 In  segment BANKED_CODE, align 1, keep-with-next
    942          void AT_Cmd_EPPRINT(uint8 start_point, uint8* msg){
   \                     AT_Cmd_EPPRINT:
   \   000000   74F2         MOV     A,#-0xe
   \   000002   12....       LCALL   ?BANKED_ENTER_XDATA
   \   000005                ; Saved register size: 14
   \   000005                ; Auto size: 7
   \   000005   74F9         MOV     A,#-0x7
   \   000007   12....       LCALL   ?ALLOC_XSTACK8
    943            AT_CmdUnit cmdUnitArr[1];
    944            start_point = AT_get_next_cmdUnit(&cmdUnitArr[0],start_point, msg);
   \   00000A                ; Setup parameters for call to function AT_get_next_cmdUnit
   \   00000A   EA           MOV     A,R2
   \   00000B   FC           MOV     R4,A
   \   00000C   EB           MOV     A,R3
   \   00000D   FD           MOV     R5,A
   \   00000E   7403         MOV     A,#0x3
   \   000010   12....       LCALL   ?XSTACK_DISP0_8
   \   000013   AA82         MOV     R2,DPL
   \   000015   AB83         MOV     R3,DPH
   \   000017   12....       LCALL   ??AT_get_next_cmdUnit?relay
    945            AT_PARSE_CMD_PATTERN_ERROR("\r",cmdUnitArr);
   \   00001A                ; Setup parameters for call to function AT_pattern_check
   \   00001A   7403         MOV     A,#0x3
   \   00001C   12....       LCALL   ?XSTACK_DISP0_8
   \   00001F   AC82         MOV     R4,DPL
   \   000021   AD83         MOV     R5,DPH
   \   000023   7A..         MOV     R2,#`?<Constant "\\r">` & 0xff
   \   000025   7B..         MOV     R3,#(`?<Constant "\\r">` >> 8) & 0xff
   \   000027   12....       LCALL   ??Subroutine200_0 & 0xFFFF
   \                     ??CrossCallReturnLabel_440:
   \   00002A   6006         JZ      ??AT_Cmd_EPPRINT_0
   \   00002C                ; Setup parameters for call to function AT_UARTWriteErrMsg
   \   00002C   12....       LCALL   ??AT_UARTWriteErrMsg?relay
   \   00002F   02....       LJMP    ??AT_Cmd_EPPRINT_1 & 0xFFFF
    946            
    947            uint8 epNum = afNumEndPoints()-1;
   \                     ??AT_Cmd_EPPRINT_0:
   \   000032                ; Setup parameters for call to function afNumEndPoints
   \   000032   12....       LCALL   ??afNumEndPoints?relay
   \   000035   E9           MOV     A,R1
   \   000036   14           DEC     A
   \   000037   F5..         MOV     ?V0 + 2,A
    948            byte* epBuf = (byte*)  osal_mem_alloc(epNum);
   \   000039                ; Setup parameters for call to function osal_mem_alloc
   \   000039   FA           MOV     R2,A
   \   00003A   7B00         MOV     R3,#0x0
   \   00003C   12....       LCALL   ??osal_mem_alloc?relay
   \   00003F   8A..         MOV     ?V0 + 0,R2
   \   000041   8B..         MOV     ?V0 + 1,R3
   \   000043   AE..         MOV     R6,?V0 + 0
   \   000045   AF..         MOV     R7,?V0 + 1
    949            if(epBuf==NULL) AT_ERROR(AT_MEM_ERROR);
   \   000047   EE           MOV     A,R6
   \   000048   4F           ORL     A,R7
   \   000049   7005         JNZ     ??AT_Cmd_EPPRINT_2
   \   00004B                ; Setup parameters for call to function AT_UARTWriteErrMsg
   \   00004B   7906         MOV     R1,#0x6
   \   00004D   12....       LCALL   ??AT_UARTWriteErrMsg?relay
    950            afEndPoints( epBuf, true);
   \                     ??AT_Cmd_EPPRINT_2:
   \   000050                ; Setup parameters for call to function afEndPoints
   \   000050   7901         MOV     R1,#0x1
   \   000052   EE           MOV     A,R6
   \   000053   FA           MOV     R2,A
   \   000054   EF           MOV     A,R7
   \   000055   FB           MOV     R3,A
   \   000056   12....       LCALL   ??afEndPoints?relay
    951            AT_sort_arr(epBuf,epNum);
   \   000059                ; Setup parameters for call to function AT_sort_arr
   \   000059   A9..         MOV     R1,?V0 + 2
   \   00005B   EE           MOV     A,R6
   \   00005C   FA           MOV     R2,A
   \   00005D   EF           MOV     A,R7
   \   00005E   FB           MOV     R3,A
   \   00005F   12....       LCALL   ??AT_sort_arr?relay
    952            
    953            int i,j;
    954            char str[3];
    955            AT_RESP_START();
   \   000062                ; Setup parameters for call to function AT_HalUARTWrite
   \   000062   7C02         MOV     R4,#0x2
   \   000064   7D00         MOV     R5,#0x0
   \   000066   7A..         MOV     R2,#`?<Constant "\\r\\n">` & 0xff
   \   000068   7B..         MOV     R3,#(`?<Constant "\\r\\n">` >> 8) & 0xff
   \   00006A   7900         MOV     R1,#0x0
   \   00006C   12....       LCALL   ??AT_HalUARTWrite?relay
    956            for(i=0,j=0;j<sizeof(AT_CMD_EP_ARRAY);j++){
   \   00006F   75..00       MOV     ?V0 + 2,#0x0
   \   000072   75..00       MOV     ?V0 + 3,#0x0
   \   000075   75..00       MOV     ?V0 + 0,#0x0
   \   000078   75..00       MOV     ?V0 + 1,#0x0
    957              AT_NEXT_LINE();
   \                     ??AT_Cmd_EPPRINT_3:
   \   00007B                ; Setup parameters for call to function AT_HalUARTWrite
   \   00007B   12....       LCALL   ?Subroutine74 & 0xFFFF
    958              AT_RESP("EP ",3);
   \                     ??CrossCallReturnLabel_332:
   \   00007E   7A..         MOV     R2,#`?<Constant "EP ">` & 0xff
   \   000080   7B..         MOV     R3,#(`?<Constant "EP ">` >> 8) & 0xff
   \   000082   7900         MOV     R1,#0x0
   \   000084   12....       LCALL   ??AT_HalUARTWrite?relay
    959              AT_Int8toChar(AT_CMD_EP_ARRAY[j],str);
   \   000087   74..         MOV     A,#AT_CMD_EP_ARRAY & 0xff
   \   000089   12....       LCALL   ??Subroutine180_0 & 0xFFFF
   \                     ??CrossCallReturnLabel_327:
   \   00008C   74..         MOV     A,#(AT_CMD_EP_ARRAY >> 8) & 0xff
   \   00008E   35..         ADDC    A,?V0 + 1
   \   000090   F583         MOV     DPH,A
   \   000092   E0           MOVX    A,@DPTR
   \   000093   F5..         MOV     ?V0 + 5,A
   \   000095                ; Setup parameters for call to function AT_Int8toChar
   \   000095   85..82       MOV     DPL,?XSP + 0
   \   000098   85..83       MOV     DPH,?XSP + 1
   \   00009B   AA82         MOV     R2,DPL
   \   00009D   AB83         MOV     R3,DPH
   \   00009F   12....       LCALL   ?Subroutine169 & 0xFFFF
    960              AT_RESP(str,2);
   \                     ??CrossCallReturnLabel_413:
   \   0000A2   85..82       MOV     DPL,?XSP + 0
   \   0000A5   85..83       MOV     DPH,?XSP + 1
   \   0000A8   AA82         MOV     R2,DPL
   \   0000AA   AB83         MOV     R3,DPH
   \   0000AC   7900         MOV     R1,#0x0
   \   0000AE   12....       LCALL   ??AT_HalUARTWrite?relay
    961              if(epBuf[i]==AT_CMD_EP_ARRAY[j]){
   \   0000B1   EE           MOV     A,R6
   \   0000B2   25..         ADD     A,?V0 + 2
   \   0000B4   F582         MOV     DPL,A
   \   0000B6   EF           MOV     A,R7
   \   0000B7   35..         ADDC    A,?V0 + 3
   \   0000B9   F583         MOV     DPH,A
   \   0000BB   E0           MOVX    A,@DPTR
   \   0000BC   65..         XRL     A,?V0 + 5
   \   0000BE   701B         JNZ     ??AT_Cmd_EPPRINT_4
    962                AT_RESP(":ENABLED",sizeof(":ENABLED")-1);
   \   0000C0                ; Setup parameters for call to function AT_HalUARTWrite
   \   0000C0   7C08         MOV     R4,#0x8
   \   0000C2   7D00         MOV     R5,#0x0
   \   0000C4   7A..         MOV     R2,#`?<Constant ":ENABLED">` & 0xff
   \   0000C6   7B..         MOV     R3,#(`?<Constant ":ENABLED">` >> 8) & 0xff
   \   0000C8   7900         MOV     R1,#0x0
   \   0000CA   12....       LCALL   ??AT_HalUARTWrite?relay
    963                i++;
   \   0000CD   E5..         MOV     A,?V0 + 2
   \   0000CF   2401         ADD     A,#0x1
   \   0000D1   F5..         MOV     ?V0 + 2,A
   \   0000D3   E5..         MOV     A,?V0 + 3
   \   0000D5   3400         ADDC    A,#0x0
   \   0000D7   F5..         MOV     ?V0 + 3,A
   \   0000D9   800D         SJMP    ??AT_Cmd_EPPRINT_5
    964              }
    965              else AT_RESP(":DISABLED",sizeof(":DISABLED")-1);
   \                     ??AT_Cmd_EPPRINT_4:
   \   0000DB                ; Setup parameters for call to function AT_HalUARTWrite
   \   0000DB   7C09         MOV     R4,#0x9
   \   0000DD   7D00         MOV     R5,#0x0
   \   0000DF   7A..         MOV     R2,#`?<Constant ":DISABLED">` & 0xff
   \   0000E1   7B..         MOV     R3,#(`?<Constant ":DISABLED">` >> 8) & 0xff
   \   0000E3   7900         MOV     R1,#0x0
   \   0000E5   12....       LCALL   ??AT_HalUARTWrite?relay
    966            }
   \                     ??AT_Cmd_EPPRINT_5:
   \   0000E8   12....       LCALL   ?Subroutine91 & 0xFFFF
   \                     ??CrossCallReturnLabel_145:
   \   0000EB   9405         SUBB    A,#0x5
   \   0000ED   E5..         MOV     A,?V0 + 1
   \   0000EF   9400         SUBB    A,#0x0
   \   0000F1   4088         JC      ??AT_Cmd_EPPRINT_3
    967              
    968            AT_RESP_END();
   \   0000F3                ; Setup parameters for call to function AT_HalUARTWrite
   \   0000F3   12....       LCALL   ?Subroutine68 & 0xFFFF
    969            AT_OK();
    970            osal_mem_free(epBuf);  
   \                     ??CrossCallReturnLabel_390:
   \   0000F6                ; Setup parameters for call to function osal_mem_free
   \   0000F6   EE           MOV     A,R6
   \   0000F7   FA           MOV     R2,A
   \   0000F8   EF           MOV     A,R7
   \   0000F9   FB           MOV     R3,A
   \   0000FA   12....       LCALL   ??osal_mem_free?relay
    971            //void afEndPoints( byte *epBuf, byte skipZDO );
    972          }
   \                     ??AT_Cmd_EPPRINT_1:
   \   0000FD   7407         MOV     A,#0x7
   \   0000FF   02....       LJMP    ?Subroutine3 & 0xFFFF

   \                                 In  segment BANKED_CODE, align 1, keep-with-next
   \                     ?Subroutine74:
   \   000000   7C02         MOV     R4,#0x2
   \   000002   7D00         MOV     R5,#0x0
   \   000004   7A..         MOV     R2,#`?<Constant "\\n\\r">` & 0xff
   \   000006   7B..         MOV     R3,#(`?<Constant "\\n\\r">` >> 8) & 0xff
   \   000008                REQUIRE ??Subroutine181_0
   \   000008                ; // Fall through to label ??Subroutine181_0

   \                                 In  segment BANKED_CODE, align 1, keep-with-next
   \                     ??Subroutine181_0:
   \   000000   7900         MOV     R1,#0x0
   \   000002   12....       LCALL   ??AT_HalUARTWrite?relay
   \   000005                ; Setup parameters for call to function AT_HalUARTWrite
   \   000005                ; Setup parameters for call to function AT_HalUARTWrite
   \   000005                ; Setup parameters for call to function AT_HalUARTWrite
   \   000005   7C03         MOV     R4,#0x3
   \   000007   7D00         MOV     R5,#0x0
   \   000009   22           RET

   \                                 In  segment BANKED_CODE, align 1, keep-with-next
   \                     ?Subroutine68:
   \   000000   7C02         MOV     R4,#0x2
   \   000002   7D00         MOV     R5,#0x0
   \   000004   7A..         MOV     R2,#`?<Constant "\\r\\n">` & 0xff
   \   000006   7B..         MOV     R3,#(`?<Constant "\\r\\n">` >> 8) & 0xff
   \   000008                REQUIRE ??Subroutine192_0
   \   000008                ; // Fall through to label ??Subroutine192_0

   \                                 In  segment BANKED_CODE, align 1, keep-with-next
   \                     ?Subroutine169:
   \   000000   F9           MOV     R1,A
   \   000001                REQUIRE ??Subroutine194_0
   \   000001                ; // Fall through to label ??Subroutine194_0
    973          
    974          /*****************************************************
    975          REPPRINT:<noteID> C Print Remote Endpoints Status
    976            Response
    977                  <nodeID>,<EndPoint>:<Status>
    978                  XXXX,01:ENABLED (or DISABLED) 
    979                  XXXX,02:ENABLED (or DISABLED) 
    980                  XXXX,03:ENABLED (or DISABLED) 
    981                  XXXX,04:ENABLED (or DISABLED) 
    982                  XXXX,05:ENABLED (or DISABLED) 
    983                  OK
    984          *********************************************************/

   \                                 In  segment BANKED_CODE, align 1, keep-with-next
    985          void AT_Cmd_REPPRINT(uint8 start_point, uint8* msg){
   \                     AT_Cmd_REPPRINT:
   \   000000   74F4         MOV     A,#-0xc
   \   000002   12....       LCALL   ?BANKED_ENTER_XDATA
   \   000005                ; Saved register size: 12
   \   000005                ; Auto size: 10
   \   000005   74F6         MOV     A,#-0xa
   \   000007   12....       LCALL   ?ALLOC_XSTACK8
   \   00000A   89..         MOV     ?V0 + 2,R1
   \   00000C   EA           MOV     A,R2
   \   00000D   FE           MOV     R6,A
   \   00000E   EB           MOV     A,R3
   \   00000F   FF           MOV     R7,A
    986            AT_CmdUnit cmdUnitArr[2];
    987            uint8 i;
    988            for(i=0;i<2;i++)start_point = AT_get_next_cmdUnit(&cmdUnitArr[i],start_point, msg);  
   \   000010   75..00       MOV     ?V0 + 3,#0x0
   \                     ??AT_Cmd_REPPRINT_0:
   \   000013                ; Setup parameters for call to function AT_get_next_cmdUnit
   \   000013   EE           MOV     A,R6
   \   000014   FC           MOV     R4,A
   \   000015   EF           MOV     A,R7
   \   000016   FD           MOV     R5,A
   \   000017   A9..         MOV     R1,?V0 + 2
   \   000019   85....       MOV     ?V0 + 0,?V0 + 3
   \   00001C   75..00       MOV     ?V0 + 1,#0x0
   \   00001F   7402         MOV     A,#0x2
   \   000021   78..         MOV     R0,#?V0 + 0
   \   000023   12....       LCALL   ?S_SHL
   \   000026   7402         MOV     A,#0x2
   \   000028   12....       LCALL   ?XSTACK_DISP0_8
   \   00002B   12....       LCALL   ??Subroutine191_0 & 0xFFFF
   \                     ??CrossCallReturnLabel_382:
   \   00002E   40E3         JC      ??AT_Cmd_REPPRINT_0
    989            AT_PARSE_CMD_PATTERN_ERROR(":\r",cmdUnitArr);
   \   000030                ; Setup parameters for call to function AT_pattern_check
   \   000030   7402         MOV     A,#0x2
   \   000032   12....       LCALL   ?XSTACK_DISP0_8
   \   000035   12....       LCALL   ??Subroutine198_0 & 0xFFFF
   \                     ??CrossCallReturnLabel_431:
   \   000038   6005         JZ      ??AT_Cmd_REPPRINT_1
   \   00003A                ; Setup parameters for call to function AT_UARTWriteErrMsg
   \                     ??AT_Cmd_REPPRINT_2:
   \   00003A   12....       LCALL   ??AT_UARTWriteErrMsg?relay
   \   00003D   8038         SJMP    ??AT_Cmd_REPPRINT_3
    990            
    991            AT_AF_hdr buff;
    992            uint8 state; 
    993            buff.cmd = AT_AF_Cmd_req;
   \                     ??AT_Cmd_REPPRINT_1:
   \   00003F   85..82       MOV     DPL,?XSP + 0
   \   000042   85..83       MOV     DPH,?XSP + 1
   \   000045   E4           CLR     A
   \   000046   12....       LCALL   ?Subroutine26 & 0xFFFF
    994            state =  AT_AF_Cmd_send_simple(AT_ChartoInt16(&cmdUnitArr[0]),
    995                                AT_AF_Cmd_REPPRINT_CLUSTERID,sizeof(AT_AF_hdr),&buff);
   \                     ??CrossCallReturnLabel_17:
   \   000049   12....       LCALL   ?PUSH_XSTACK_I_TWO
   \   00004C   7402         MOV     A,#0x2
   \   00004E   C0E0         PUSH    A
   \   000050                ; Setup parameters for call to function AT_ChartoInt16
   \   000050   7404         MOV     A,#0x4
   \   000052   12....       LCALL   ?XSTACK_DISP0_8
   \   000055   AA82         MOV     R2,DPL
   \   000057   AB83         MOV     R3,DPH
   \   000059   12....       LCALL   ??AT_ChartoInt16?relay
   \   00005C   D0E0         POP     A
   \   00005E   F9           MOV     R1,A
   \   00005F   7C00         MOV     R4,#0x0
   \   000061   12....       LCALL   ?Subroutine129 & 0xFFFF
   \                     ??CrossCallReturnLabel_336:
   \   000064   12....       LCALL   ?DEALLOC_XSTACK8
   \   000067   E9           MOV     A,R1
    996            if(state!=afStatus_SUCCESS) AT_ERROR(state);
   \   000068   70D0         JNZ     ??AT_Cmd_REPPRINT_2
   \   00006A                ; Setup parameters for call to function AT_UARTWriteErrMsg
    997            else AT_OK();
   \   00006A                ; Setup parameters for call to function AT_HalUARTWrite
   \   00006A   7C07         MOV     R4,#0x7
   \   00006C   7D00         MOV     R5,#0x0
   \   00006E   7A..         MOV     R2,#`?<Constant "\\r\\nOK\\r\\n">` & 0xff
   \   000070   7B..         MOV     R3,#(`?<Constant "\\r\\nOK\\r\\n">` >> 8) & 0xff
   \   000072   7900         MOV     R1,#0x0
   \   000074   12....       LCALL   ??AT_HalUARTWrite?relay
   \                     ??AT_Cmd_REPPRINT_3:
   \   000077                REQUIRE ?Subroutine11
   \   000077                ; // Fall through to label ?Subroutine11
    998            
    999          }

   \                                 In  segment BANKED_CODE, align 1, keep-with-next
   \                     ?Subroutine11:
   \   000000   740A         MOV     A,#0xa
   \   000002   02....       LJMP    ??Subroutine195_0 & 0xFFFF

   \                                 In  segment BANKED_CODE, align 1, keep-with-next
   \                     ??Subroutine191_0:
   \   000000   12....       LCALL   ?Subroutine140 & 0xFFFF
   \                     ??CrossCallReturnLabel_384:
   \   000003   9402         SUBB    A,#0x2
   \   000005   22           RET

   \                                 In  segment BANKED_CODE, align 1, keep-with-next
   \                     ?Subroutine26:
   \   000000   F0           MOVX    @DPTR,A
   \   000001                ; Setup parameters for call to function AT_AF_Cmd_send_simple_
   \   000001                ; Setup parameters for call to function AT_AF_Cmd_send_simple_
   \   000001   8582..       MOV     ?V0 + 0,DPL
   \   000004   8583..       MOV     ?V0 + 1,DPH
   \   000007   78..         MOV     R0,#?V0 + 0
   \   000009   22           RET

   \                                 In  segment BANKED_CODE, align 1, keep-with-next
   \                     ??Subroutine198_0:
   \   000000   AC82         MOV     R4,DPL
   \   000002   AD83         MOV     R5,DPH
   \   000004                REQUIRE ??Subroutine199_0
   \   000004                ; // Fall through to label ??Subroutine199_0

   \                                 In  segment BANKED_CODE, align 1, keep-with-next
   \                     ??Subroutine199_0:
   \   000000   7A..         MOV     R2,#`?<Constant ":\\r">` & 0xff
   \   000002   7B..         MOV     R3,#(`?<Constant ":\\r">` >> 8) & 0xff
   \   000004                REQUIRE ??Subroutine200_0
   \   000004                ; // Fall through to label ??Subroutine200_0
   1000          
   1001          /*****************************************************
   1002            S C S-Register Access
   1003            ATSXX?
   1004                    Response
   1005                    <data> 
   1006                    OK 
   1007                    or ERROR:<errorcode>
   1008          
   1009          ATSXX=<data>
   1010                      Response
   1011                      OK 
   1012                      or ERROR:<errorcode>
   1013          
   1014          Notes:
   1015                Some S-Registers require a password for write access.
   1016                The default password is password. 
   1017                Some S-Registers are read-only 
   1018                and will return an error if you are trying to write to them
   1019          FORMART: ATSXX=<DATA>:PASSWORD OR ATSXX?:PASSWORD
   1020          *********************************************************/

   \                                 In  segment BANKED_CODE, align 1, keep-with-next
   1021          void AT_Cmd_ATS(uint8 start_point, uint8* msg){          
   \                     AT_Cmd_ATS:
   \   000000   74EE         MOV     A,#-0x12
   \   000002   12....       LCALL   ?BANKED_ENTER_XDATA
   \   000005                ; Saved register size: 18
   \   000005                ; Auto size: 30
   \   000005   74E2         MOV     A,#-0x1e
   \   000007   12....       LCALL   ?ALLOC_XSTACK8
   \   00000A   8A..         MOV     ?V0 + 2,R2
   \   00000C   8B..         MOV     ?V0 + 3,R3
   1022            uint8 state;
   1023            AT_CmdUnit registerID;
   1024            start_point = AT_get_next_cmdUnit(&registerID,start_point, msg);
   \   00000E                ; Setup parameters for call to function AT_get_next_cmdUnit
   \   00000E   AC..         MOV     R4,?V0 + 2
   \   000010   AD..         MOV     R5,?V0 + 3
   \   000012   741A         MOV     A,#0x1a
   \   000014   12....       LCALL   ?XSTACK_DISP0_8
   \   000017   12....       LCALL   ??Subroutine205_0 & 0xFFFF
   \                     ??CrossCallReturnLabel_498:
   \   00001A   F5..         MOV     ?V0 + 6,A
   1025            if(registerID.symbol=='\0'){
   \   00001C   741A         MOV     A,#0x1a
   \   00001E   12....       LCALL   ?XSTACK_DISP0_8
   \   000021   E0           MOVX    A,@DPTR
   \   000022   6003         JZ      $+5
   \   000024   02....       LJMP    ??AT_Cmd_ATS_0 & 0xFFFF
   1026              uint8 id = AT_ChartoInt8(&registerID);
   \   000027                ; Setup parameters for call to function AT_ChartoInt8
   \   000027   12....       LCALL   ??Subroutine207_0 & 0xFFFF
   1027              uint8 index=AT_get_smap_index(id);          //for check record
   \                     ??CrossCallReturnLabel_506:
   \   00002A                ; Setup parameters for call to function AT_get_smap_index
   \   00002A   12....       LCALL   ??AT_get_smap_index?relay
   \   00002D   E9           MOV     A,R1
   \   00002E   FE           MOV     R6,A
   1028              if(AT_smap[index].Privilege &AT_SMAP_PROTECTED){
   \   00002F   12....       LCALL   ??Subroutine185_0 & 0xFFFF
   \                     ??CrossCallReturnLabel_349:
   \   000032   A2E7         MOV     C,0xE0 /* A   */.7
   \   000034   75..00       MOV     ?V0 + 0,#0x0
   \   000037   4003         JC      $+5
   \   000039   02....       LJMP    ??AT_Cmd_ATS_1 & 0xFFFF
   1029                AT_CmdUnit cmdUnitArr[3];
   1030                
   1031                uint8 i;
   1032                for(i=0;i<3;i++)start_point = AT_get_next_cmdUnit(&cmdUnitArr[i],start_point, msg);
   \                     ??AT_Cmd_ATS_2:
   \   00003C                ; Setup parameters for call to function AT_get_next_cmdUnit
   \   00003C   AC..         MOV     R4,?V0 + 2
   \   00003E   AD..         MOV     R5,?V0 + 3
   \   000040   A9..         MOV     R1,?V0 + 6
   \   000042   85....       MOV     ?V0 + 4,?V0 + 0
   \   000045   75..00       MOV     ?V0 + 5,#0x0
   \   000048   7402         MOV     A,#0x2
   \   00004A   78..         MOV     R0,#?V0 + 4
   \   00004C   12....       LCALL   ?S_SHL
   \   00004F   740E         MOV     A,#0xe
   \   000051   12....       LCALL   ?XSTACK_DISP0_8
   \   000054   12....       LCALL   ?Subroutine102 & 0xFFFF
   \                     ??CrossCallReturnLabel_176:
   \   000057   9403         SUBB    A,#0x3
   \   000059   40E1         JC      ??AT_Cmd_ATS_2
   1033                  uint8 pw_index = AT_get_smap_index(AT_S_PASSWORD_ID);
   \   00005B                ; Setup parameters for call to function AT_get_smap_index
   \   00005B   790C         MOV     R1,#0xc
   \   00005D   12....       LCALL   ??AT_get_smap_index?relay
   \   000060   E9           MOV     A,R1
   \   000061   F5..         MOV     ?V0 + 0,A
   1034                  state=osal_nv_item_init( AT_S_PASSWORD_ID+AT_S_NV_OFFSET, AT_smap[pw_index].len, NULL );
   \   000063                ; Setup parameters for call to function osal_nv_item_init
   \   000063   E4           CLR     A
   \   000064   F5..         MOV     ?V0 + 2,A
   \   000066   F5..         MOV     ?V0 + 3,A
   \   000068   78..         MOV     R0,#?V0 + 2
   \   00006A   12....       LCALL   ?PUSH_XSTACK_I_TWO
   \   00006D   E9           MOV     A,R1
   \   00006E   12....       LCALL   ?Subroutine78 & 0xFFFF
   \                     ??CrossCallReturnLabel_118:
   \   000071   FC           MOV     R4,A
   \   000072   7D00         MOV     R5,#0x0
   \   000074   7A0D         MOV     R2,#0xd
   \   000076   7B04         MOV     R3,#0x4
   \   000078   12....       LCALL   ??Subroutine174_0 & 0xFFFF
   \                     ??CrossCallReturnLabel_308:
   \   00007B   12....       LCALL   ?DEALLOC_XSTACK8
   \   00007E   E9           MOV     A,R1
   \   00007F   FF           MOV     R7,A
   1035                   if(state==SUCCESS || state==NV_ITEM_UNINIT){
   \   000080   6008         JZ      ??AT_Cmd_ATS_3
   \   000082   7409         MOV     A,#0x9
   \   000084   6F           XRL     A,R7
   \   000085   6003         JZ      $+5
   \   000087   02....       LJMP    ??AT_Cmd_ATS_4 & 0xFFFF
   1036                     if(cmdUnitArr[0].symbol=='?'){ AT_PARSE_CMD_PATTERN_ERROR("?:\r",cmdUnitArr);}
   \                     ??AT_Cmd_ATS_3:
   \   00008A   740E         MOV     A,#0xe
   \   00008C   12....       LCALL   ?XSTACK_DISP0_8
   \   00008F   E0           MOVX    A,@DPTR
   \   000090   643F         XRL     A,#0x3f
   \   000092   AC82         MOV     R4,DPL
   \   000094   AD83         MOV     R5,DPH
   \   000096   700C         JNZ     ??AT_Cmd_ATS_5
   \   000098                ; Setup parameters for call to function AT_pattern_check
   \   000098   7A..         MOV     R2,#`?<Constant "?:\\r">` & 0xff
   \   00009A   7B..         MOV     R3,#(`?<Constant "?:\\r">` >> 8) & 0xff
   \   00009C   12....       LCALL   ??Subroutine200_0 & 0xFFFF
   \                     ??CrossCallReturnLabel_441:
   \   00009F   600F         JZ      ??AT_Cmd_ATS_6
   \   0000A1                ; Setup parameters for call to function AT_UARTWriteErrMsg
   \   0000A1   02....       LJMP    ??AT_Cmd_ATS_7 & 0xFFFF
   1037                     else {AT_PARSE_CMD_PATTERN_ERROR("=:\r",cmdUnitArr);}
   \                     ??AT_Cmd_ATS_5:
   \   0000A4                ; Setup parameters for call to function AT_pattern_check
   \   0000A4   7A..         MOV     R2,#`?<Constant "=:\\r">` & 0xff
   \   0000A6   7B..         MOV     R3,#(`?<Constant "=:\\r">` >> 8) & 0xff
   \   0000A8   12....       LCALL   ??Subroutine200_0 & 0xFFFF
   \                     ??CrossCallReturnLabel_442:
   \   0000AB   6003         JZ      $+5
   \   0000AD   02....       LJMP    ??AT_Cmd_ATS_7 & 0xFFFF
   \   0000B0                ; Setup parameters for call to function AT_UARTWriteErrMsg
   1038                     uint8 *str = osal_mem_alloc(AT_smap[pw_index].len+1);
   \                     ??AT_Cmd_ATS_6:
   \   0000B0   E5..         MOV     A,?V0 + 0
   \   0000B2   12....       LCALL   ?Subroutine78 & 0xFFFF
   \                     ??CrossCallReturnLabel_119:
   \   0000B5   FF           MOV     R7,A
   \   0000B6   8F82         MOV     DPL,R7
   \   0000B8   8582..       MOV     ?V0 + 2,DPL
   \   0000BB                ; Setup parameters for call to function osal_mem_alloc
   \   0000BB   2401         ADD     A,#0x1
   \   0000BD   FA           MOV     R2,A
   \   0000BE   E4           CLR     A
   \   0000BF   3400         ADDC    A,#0x0
   \   0000C1   12....       LCALL   ?Subroutine130 & 0xFFFF
   1039                     str[AT_smap[pw_index].len]='\0';
   \                     ??CrossCallReturnLabel_243:
   \   0000C4   25..         ADD     A,?V0 + 2
   \   0000C6   F582         MOV     DPL,A
   \   0000C8   EB           MOV     A,R3
   \   0000C9   12....       LCALL   ??Subroutine193_0 & 0xFFFF
   \                     ??CrossCallReturnLabel_403:
   \   0000CC   E4           CLR     A
   \   0000CD   F0           MOVX    @DPTR,A
   1040                     if ((state=osal_nv_read(AT_S_PASSWORD_ID+AT_S_NV_OFFSET, 0, AT_smap[pw_index].len, str))==SUCCESS){
   \   0000CE                ; Setup parameters for call to function osal_nv_read
   \   0000CE   78..         MOV     R0,#?V0 + 4
   \   0000D0   12....       LCALL   ?PUSH_XSTACK_I_TWO
   \   0000D3   78..         MOV     R0,#?V0 + 2
   \   0000D5   12....       LCALL   ?PUSH_XSTACK_I_TWO
   \   0000D8   7C00         MOV     R4,#0x0
   \   0000DA   7D00         MOV     R5,#0x0
   \   0000DC   7A0D         MOV     R2,#0xd
   \   0000DE   7B04         MOV     R3,#0x4
   \   0000E0   12....       LCALL   ?Subroutine159 & 0xFFFF
   \                     ??CrossCallReturnLabel_290:
   \   0000E3   12....       LCALL   ?DEALLOC_XSTACK8
   \   0000E6   E9           MOV     A,R1
   \   0000E7   6003         JZ      $+5
   \   0000E9   02....       LJMP    ??AT_Cmd_ATS_7 & 0xFFFF
   1041                        if(AT_CmpCmd( &cmdUnitArr[1],str)==0){
   \   0000EC                ; Setup parameters for call to function AT_CmpCmd
   \   0000EC   AC..         MOV     R4,?V0 + 4
   \   0000EE   AD..         MOV     R5,?V0 + 5
   \   0000F0   7412         MOV     A,#0x12
   \   0000F2   12....       LCALL   ?XSTACK_DISP0_8
   \   0000F5   12....       LCALL   ??Subroutine183_0 & 0xFFFF
   \                     ??CrossCallReturnLabel_345:
   \   0000F8   AA..         MOV     R2,?V0 + 4
   \   0000FA   AB..         MOV     R3,?V0 + 5
   \   0000FC   6003         JZ      $+5
   \   0000FE   02....       LJMP    ??AT_Cmd_ATS_8 & 0xFFFF
   1042                            osal_mem_free(str);
   \   000101                ; Setup parameters for call to function osal_mem_free
   \   000101   12....       LCALL   ??osal_mem_free?relay
   1043                          
   1044                          //code for protected register
   1045                           if((state=osal_nv_item_init( id+AT_S_NV_OFFSET, AT_smap[index].len, NULL ))==SUCCESS){
   \   000104                ; Setup parameters for call to function osal_nv_item_init
   \   000104   E4           CLR     A
   \   000105   F5..         MOV     ?V0 + 2,A
   \   000107   78..         MOV     R0,#?V0 + 2
   \   000109   12....       LCALL   ?PUSH_XSTACK_I_TWO
   \   00010C   12....       LCALL   ?Subroutine37 & 0xFFFF
   \                     ??CrossCallReturnLabel_39:
   \   00010F   12....       LCALL   ?DEALLOC_XSTACK8
   \   000112   E9           MOV     A,R1
   \   000113   6003         JZ      $+5
   \   000115   02....       LJMP    ??AT_Cmd_ATS_7 & 0xFFFF
   1046                             uint8* str;
   1047                             if(cmdUnitArr[0].symbol=='?'){
   \   000118   740E         MOV     A,#0xe
   \   00011A   12....       LCALL   ?XSTACK_DISP0_8
   \   00011D   E0           MOVX    A,@DPTR
   \   00011E   643F         XRL     A,#0x3f
   \   000120   7058         JNZ     ??AT_Cmd_ATS_9
   1048                               // for read
   1049                                if((AT_smap[index].Privilege & AT_SMAP_READ)==0) {
   \   000122   12....       LCALL   ?Subroutine79 & 0xFFFF
   \                     ??CrossCallReturnLabel_121:
   \   000125   4005         JC      ??AT_Cmd_ATS_10
   1050                                  AT_ERROR(AT_FATAL_ERROR);
   \                     ??AT_Cmd_ATS_11:
   \   000127                ; Setup parameters for call to function AT_UARTWriteErrMsg
   \   000127   7901         MOV     R1,#0x1
   \   000129   02....       LJMP    ??AT_Cmd_ATS_7 & 0xFFFF
   1051                                  return;
   1052                                }
   1053                                str = osal_mem_alloc(AT_smap[index].len);
   \                     ??AT_Cmd_ATS_10:
   \   00012C   12....       LCALL   ?Subroutine43 & 0xFFFF
   1054                                if ((state=osal_nv_read(id+AT_S_NV_OFFSET, 0, AT_smap[index].len, str))==SUCCESS){
   \                     ??CrossCallReturnLabel_47:
   \   00012F   12....       LCALL   ?PUSH_XSTACK_I_TWO
   \   000132   78..         MOV     R0,#?V0 + 2
   \   000134   12....       LCALL   ?PUSH_XSTACK_I_TWO
   \   000137   12....       LCALL   ?Subroutine92 & 0xFFFF
   \                     ??CrossCallReturnLabel_146:
   \   00013A   12....       LCALL   ?DEALLOC_XSTACK8
   \   00013D   E9           MOV     A,R1
   \   00013E   6003         JZ      $+5
   \   000140   02....       LJMP    ??AT_Cmd_ATS_12 & 0xFFFF
   1055                                  //read successfully
   1056                                  char str2[2];
   1057                                  AT_RESP_START();             
   \   000143                ; Setup parameters for call to function AT_HalUARTWrite
   \   000143   7C02         MOV     R4,#0x2
   \   000145   7D00         MOV     R5,#0x0
   \   000147   7A..         MOV     R2,#`?<Constant "\\r\\n">` & 0xff
   \   000149   7B..         MOV     R3,#(`?<Constant "\\r\\n">` >> 8) & 0xff
   \   00014B   7900         MOV     R1,#0x0
   \   00014D   12....       LCALL   ??AT_HalUARTWrite?relay
   1058                                  for(i=0;i<AT_smap[index].len;i++) {
   \   000150   75..00       MOV     ?V0 + 0,#0x0
   \   000153   8003         SJMP    ??CrossCallReturnLabel_22
   1059                                    AT_Int8toChar(str[AT_smap[index].len-1-i],str2);
   \                     ??AT_Cmd_ATS_13:
   \   000155                ; Setup parameters for call to function AT_Int8toChar
   \   000155   12....       LCALL   ?Subroutine29 & 0xFFFF
   1060                                    AT_RESP(str2,2);
   1061                                  }
   \                     ??CrossCallReturnLabel_22:
   \   000158   12....       LCALL   ?Subroutine39 & 0xFFFF
   \                     ??CrossCallReturnLabel_369:
   \   00015B   40F8         JC      ??AT_Cmd_ATS_13
   1062                                  AT_RESP_END();
   \   00015D                ; Setup parameters for call to function AT_HalUARTWrite
   \   00015D   7C02         MOV     R4,#0x2
   \   00015F   7D00         MOV     R5,#0x0
   \   000161   7A..         MOV     R2,#`?<Constant "\\r\\n">` & 0xff
   \   000163   7B..         MOV     R3,#(`?<Constant "\\r\\n">` >> 8) & 0xff
   \   000165   7900         MOV     R1,#0x0
   \   000167   12....       LCALL   ??AT_HalUARTWrite?relay
   1063                                  AT_OK();
   \   00016A                ; Setup parameters for call to function AT_HalUARTWrite
   \                     ??AT_Cmd_ATS_14:
   \   00016A   7C07         MOV     R4,#0x7
   \   00016C   7D00         MOV     R5,#0x0
   \   00016E   7A..         MOV     R2,#`?<Constant "\\r\\nOK\\r\\n">` & 0xff
   \   000170   7B..         MOV     R3,#(`?<Constant "\\r\\nOK\\r\\n">` >> 8) & 0xff
   \   000172   7900         MOV     R1,#0x0
   \   000174   12....       LCALL   ??AT_HalUARTWrite?relay
   \   000177   02....       LJMP    ??AT_Cmd_ATS_15 & 0xFFFF
   1064                                }
   1065                                else AT_ERROR(state); 
   1066                               
   1067                             }
   1068                             else {
   1069                                //for writing
   1070                                if((AT_smap[index].Privilege & AT_SMAP_WRITTEN)==0) {AT_ERROR(AT_FATAL_ERROR);return;};
   \                     ??AT_Cmd_ATS_9:
   \   00017A   12....       LCALL   ?Subroutine80 & 0xFFFF
   \                     ??CrossCallReturnLabel_123:
   \   00017D   50A8         JNC     ??AT_Cmd_ATS_11
   1071                                if(id==AT_S_PASSWORD_ID){
   \   00017F   740C         MOV     A,#0xc
   \   000181   65..         XRL     A,?V0 + 1
   \   000183   7046         JNZ     ??AT_Cmd_ATS_16
   1072                                  if ((state=osal_nv_write(id+AT_S_NV_OFFSET, 0, AT_smap[index].len, cmdUnitArr[0].unit))==SUCCESS
   1073                                        && AT_smap[index].len==cmdUnitArr[0].unitLen){
   \   000185                ; Setup parameters for call to function osal_nv_write
   \   000185   7410         MOV     A,#0x10
   \   000187   12....       LCALL   ?XSTACK_DISP0_8
   \   00018A   12....       LCALL   ?PUSH_XSTACK8_X_TWO
   \   00018D   12....       LCALL   ?Subroutine151 & 0xFFFF
   \                     ??CrossCallReturnLabel_360:
   \   000190   12....       LCALL   ?Subroutine53 & 0xFFFF
   \                     ??CrossCallReturnLabel_69:
   \   000193   12....       LCALL   ?PUSH_XSTACK_I_TWO
   \   000196   7C00         MOV     R4,#0x0
   \   000198   7D00         MOV     R5,#0x0
   \   00019A   7A0D         MOV     R2,#0xd
   \   00019C   7B04         MOV     R3,#0x4
   \   00019E   12....       LCALL   ?Subroutine156 & 0xFFFF
   \                     ??CrossCallReturnLabel_286:
   \   0001A1   12....       LCALL   ?DEALLOC_XSTACK8
   \   0001A4   E9           MOV     A,R1
   \   0001A5   FF           MOV     R7,A
   \   0001A6   701E         JNZ     ??AT_Cmd_ATS_4
   \   0001A8   EE           MOV     A,R6
   \   0001A9   12....       LCALL   ?Subroutine78 & 0xFFFF
   \                     ??CrossCallReturnLabel_120:
   \   0001AC   F8           MOV     R0,A
   \   0001AD   740F         MOV     A,#0xf
   \   0001AF   12....       LCALL   ?XSTACK_DISP0_8
   \   0001B2   E0           MOVX    A,@DPTR
   \   0001B3   68           XRL     A,R0
   \   0001B4   7010         JNZ     ??AT_Cmd_ATS_4
   1074                                    //write successfully
   1075                                    AT_OK();
   \   0001B6                ; Setup parameters for call to function AT_HalUARTWrite
   \   0001B6   7C07         MOV     R4,#0x7
   \   0001B8   7D00         MOV     R5,#0x0
   \   0001BA   7A..         MOV     R2,#`?<Constant "\\r\\nOK\\r\\n">` & 0xff
   \   0001BC   7B..         MOV     R3,#(`?<Constant "\\r\\nOK\\r\\n">` >> 8) & 0xff
   \   0001BE   7900         MOV     R1,#0x0
   \   0001C0   12....       LCALL   ??AT_HalUARTWrite?relay
   1076                                    return;
   \   0001C3   02....       LJMP    ??AT_Cmd_ATS_17 & 0xFFFF
   1077                                  }
   1078                                  else {AT_ERROR(state);return;}
   \                     ??AT_Cmd_ATS_4:
   \   0001C6                ; Setup parameters for call to function AT_UARTWriteErrMsg
   \   0001C6   EF           MOV     A,R7
   \   0001C7   F9           MOV     R1,A
   \   0001C8   02....       LJMP    ??AT_Cmd_ATS_7 & 0xFFFF
   1079                                  
   1080                                } 
   1081                                str = osal_mem_alloc(AT_smap[index].len);
   \                     ??AT_Cmd_ATS_16:
   \   0001CB   12....       LCALL   ?Subroutine33 & 0xFFFF
   1082                                uint8 *str2 = osal_mem_alloc(2*AT_smap[index].len);
   1083                                for(i=0;i<AT_smap[index].len*2;i++) {
   \                     ??CrossCallReturnLabel_31:
   \   0001CE   8006         SJMP    ??AT_Cmd_ATS_18
   1084                                  if(i<cmdUnitArr[0].unitLen){
   1085                                    str2[AT_smap[index].len*2-1-i] =cmdUnitArr[0].unit[cmdUnitArr[0].unitLen-1-i];
   1086                                  }
   1087                                  else str2[AT_smap[index].len*2-1-i]='0';
   \                     ??AT_Cmd_ATS_19:
   \   0001D0   12....       LCALL   ?Subroutine31 & 0xFFFF
   \                     ??CrossCallReturnLabel_27:
   \   0001D3   F0           MOVX    @DPTR,A
   \   0001D4   05..         INC     ?V0 + 0
   \                     ??AT_Cmd_ATS_18:
   \   0001D6   12....       LCALL   ?Subroutine40 & 0xFFFF
   \                     ??CrossCallReturnLabel_41:
   \   0001D9   5028         JNC     ??AT_Cmd_ATS_20
   \   0001DB   740F         MOV     A,#0xf
   \   0001DD   12....       LCALL   ?XSTACK_DISP0_8
   \   0001E0   12....       LCALL   ??Subroutine188_0 & 0xFFFF
   \                     ??CrossCallReturnLabel_365:
   \   0001E3   50EB         JNC     ??AT_Cmd_ATS_19
   \   0001E5   85..82       MOV     DPL,?V0 + 0
   \   0001E8   AA82         MOV     R2,DPL
   \   0001EA   740F         MOV     A,#0xf
   \   0001EC   12....       LCALL   ?XSTACK_DISP0_8
   \   0001EF   12....       LCALL   ?Subroutine42 & 0xFFFF
   1088                                }
   \                     ??CrossCallReturnLabel_45:
   \   0001F2   7410         MOV     A,#0x10
   \   0001F4   12....       LCALL   ?XSTACK_DISP0_8
   \   0001F7   12....       LCALL   ?Subroutine49 & 0xFFFF
   \                     ??CrossCallReturnLabel_59:
   \   0001FA   C0E0         PUSH    A
   \   0001FC   12....       LCALL   ?Subroutine32 & 0xFFFF
   \                     ??CrossCallReturnLabel_29:
   \   0001FF   D0E0         POP     A
   \   000201   80D0         SJMP    ??CrossCallReturnLabel_27
   1089                                AT_CmdUnit temp;
   1090                                temp.unitLen=2;
   \                     ??AT_Cmd_ATS_20:
   \   000203   7403         MOV     A,#0x3
   \   000205   12....       LCALL   ?XSTACK_DISP0_8
   \   000208   7402         MOV     A,#0x2
   \   00020A   F0           MOVX    @DPTR,A
   1091                                for(i=0;i<AT_smap[index].len;i++){
   \   00020B   75..00       MOV     ?V0 + 0,#0x0
   \   00020E   801D         SJMP    ??AT_Cmd_ATS_21
   1092                                  temp.unit = str2+2*i;
   \                     ??AT_Cmd_ATS_22:
   \   000210   12....       LCALL   ?Subroutine86 & 0xFFFF
   \                     ??CrossCallReturnLabel_135:
   \   000213   12....       LCALL   ?XSTACK_DISP0_8
   \   000216   E8           MOV     A,R0
   \   000217   F0           MOVX    @DPTR,A
   \   000218   A3           INC     DPTR
   \   000219   E9           MOV     A,R1
   \   00021A   F0           MOVX    @DPTR,A
   1093                                  str[AT_smap[index].len-1-i] = AT_ChartoInt8(&temp);
   \   00021B                ; Setup parameters for call to function AT_ChartoInt8
   \   00021B   7402         MOV     A,#0x2
   \   00021D   12....       LCALL   ?XSTACK_DISP0_8
   \   000220   12....       LCALL   ??Subroutine201_0 & 0xFFFF
   1094                                }
   \                     ??CrossCallReturnLabel_483:
   \   000223   C0E0         PUSH    A
   \   000225   12....       LCALL   ?Subroutine35 & 0xFFFF
   \                     ??CrossCallReturnLabel_35:
   \   000228   D0E0         POP     A
   \   00022A   F0           MOVX    @DPTR,A
   \   00022B   05..         INC     ?V0 + 0
   \                     ??AT_Cmd_ATS_21:
   \   00022D   EE           MOV     A,R6
   \   00022E   75F003       MOV     B,#0x3
   \   000231   A4           MUL     AB
   \   000232   F8           MOV     R0,A
   \   000233   EA           MOV     A,R2
   \   000234   F9           MOV     R1,A
   \   000235   12....       LCALL   ??Subroutine187_0 & 0xFFFF
   \                     ??CrossCallReturnLabel_367:
   \   000238   40D6         JC      ??AT_Cmd_ATS_22
   1095                                osal_mem_free(str2);
   \   00023A                ; Setup parameters for call to function osal_mem_free
   \   00023A   AA..         MOV     R2,?V0 + 2
   \   00023C   AB..         MOV     R3,?V0 + 3
   \   00023E   12....       LCALL   ??osal_mem_free?relay
   1096                                if ((state=osal_nv_write(id+AT_S_NV_OFFSET, 0, AT_smap[index].len, str))==SUCCESS){
   \   000241                ; Setup parameters for call to function osal_nv_write
   \   000241   78..         MOV     R0,#?V0 + 8
   \   000243   12....       LCALL   ?PUSH_XSTACK_I_TWO
   \   000246   12....       LCALL   ?Subroutine38 & 0xFFFF
   \                     ??CrossCallReturnLabel_494:
   \   000249   12....       LCALL   ?PUSH_XSTACK_I_TWO
   \   00024C   12....       LCALL   ?Subroutine93 & 0xFFFF
   \                     ??CrossCallReturnLabel_148:
   \   00024F   12....       LCALL   ?DEALLOC_XSTACK8
   \   000252   E9           MOV     A,R1
   \   000253   7003         JNZ     $+5
   \   000255   02....       LJMP    ??AT_Cmd_ATS_14 & 0xFFFF
   1097                                  //write successfully
   1098                                  AT_OK();
   \   000258                ; Setup parameters for call to function AT_HalUARTWrite
   1099                                }
   1100                                else AT_ERROR(state);
   \                     ??AT_Cmd_ATS_12:
   \   000258                ; Setup parameters for call to function AT_UARTWriteErrMsg
   \   000258   12....       LCALL   ??AT_UARTWriteErrMsg?relay
   1101                               
   1102                             }
   1103                             osal_mem_free(str);
   \                     ??AT_Cmd_ATS_15:
   \   00025B                ; Setup parameters for call to function osal_mem_free
   \   00025B   AA..         MOV     R2,?V0 + 8
   \   00025D   AB..         MOV     R3,?V0 + 9
   \   00025F   12....       LCALL   ??osal_mem_free?relay
   \   000262   02....       LJMP    ??AT_Cmd_ATS_17 & 0xFFFF
   1104                           }else AT_ERROR(state);
   1105                          
   1106                          
   1107                        }
   1108                        else {
   1109                          osal_mem_free(str);
   \                     ??AT_Cmd_ATS_8:
   \   000265                ; Setup parameters for call to function osal_mem_free
   \   000265   12....       LCALL   ??osal_mem_free?relay
   1110                          AT_ERROR(AT_PASSWORD_ERROR);
   \   000268                ; Setup parameters for call to function AT_UARTWriteErrMsg
   \   000268   7905         MOV     R1,#0x5
   \   00026A   02....       LJMP    ??AT_Cmd_ATS_7 & 0xFFFF
   1111                        }
   1112                     }else AT_ERROR(state);
   1113                   }else AT_ERROR(state);
   1114                  
   1115              }
   1116              else{
   1117                AT_CmdUnit cmdUnitArr[2];
   1118                uint8 i;
   1119                for(i=0;i<2;i++)start_point = AT_get_next_cmdUnit(&cmdUnitArr[i],start_point, msg);
   \                     ??AT_Cmd_ATS_1:
   \   00026D                ; Setup parameters for call to function AT_get_next_cmdUnit
   \   00026D   AC..         MOV     R4,?V0 + 2
   \   00026F   AD..         MOV     R5,?V0 + 3
   \   000271   A9..         MOV     R1,?V0 + 6
   \   000273   85....       MOV     ?V0 + 4,?V0 + 0
   \   000276   75..00       MOV     ?V0 + 5,#0x0
   \   000279   7402         MOV     A,#0x2
   \   00027B   78..         MOV     R0,#?V0 + 4
   \   00027D   12....       LCALL   ?S_SHL
   \   000280   7406         MOV     A,#0x6
   \   000282   12....       LCALL   ?XSTACK_DISP0_8
   \   000285   12....       LCALL   ?Subroutine102 & 0xFFFF
   \                     ??CrossCallReturnLabel_177:
   \   000288   9402         SUBB    A,#0x2
   \   00028A   40E1         JC      ??AT_Cmd_ATS_1
   1120                    state=osal_nv_item_init( id+AT_S_NV_OFFSET, AT_smap[index].len, NULL );
   \   00028C                ; Setup parameters for call to function osal_nv_item_init
   \   00028C   E4           CLR     A
   \   00028D   F5..         MOV     ?V0 + 2,A
   \   00028F   F5..         MOV     ?V0 + 3,A
   \   000291   78..         MOV     R0,#?V0 + 2
   \   000293   12....       LCALL   ?PUSH_XSTACK_I_TWO
   \   000296   12....       LCALL   ?Subroutine37 & 0xFFFF
   \                     ??CrossCallReturnLabel_40:
   \   000299   12....       LCALL   ?DEALLOC_XSTACK8
   \   00029C   E9           MOV     A,R1
   \   00029D   FF           MOV     R7,A
   1121                    if(state==SUCCESS || state==NV_ITEM_UNINIT){
   \   00029E   6008         JZ      ??AT_Cmd_ATS_23
   \   0002A0   7409         MOV     A,#0x9
   \   0002A2   6F           XRL     A,R7
   \   0002A3   6003         JZ      $+5
   \   0002A5   02....       LJMP    ??AT_Cmd_ATS_4 & 0xFFFF
   1122                      uint8* str;
   1123                      if(cmdUnitArr[0].symbol=='?'){
   \                     ??AT_Cmd_ATS_23:
   \   0002A8   7406         MOV     A,#0x6
   \   0002AA   12....       LCALL   ?XSTACK_DISP0_8
   \   0002AD   E0           MOVX    A,@DPTR
   \   0002AE   643F         XRL     A,#0x3f
   \   0002B0   7075         JNZ     ??AT_Cmd_ATS_24
   1124                        if((AT_smap[index].Privilege & AT_SMAP_READ)==0) {AT_ERROR(AT_FATAL_ERROR);return;};
   \   0002B2   12....       LCALL   ?Subroutine79 & 0xFFFF
   \                     ??CrossCallReturnLabel_122:
   \   0002B5   4003         JC      $+5
   \   0002B7   02....       LJMP    ??AT_Cmd_ATS_11 & 0xFFFF
   1125                        AT_PARSE_CMD_PATTERN_ERROR("?\r",cmdUnitArr);
   \   0002BA                ; Setup parameters for call to function AT_pattern_check
   \   0002BA   7406         MOV     A,#0x6
   \   0002BC   12....       LCALL   ?XSTACK_DISP0_8
   \   0002BF   AC82         MOV     R4,DPL
   \   0002C1   AD83         MOV     R5,DPH
   \   0002C3   7A..         MOV     R2,#`?<Constant "?\\r">` & 0xff
   \   0002C5   7B..         MOV     R3,#(`?<Constant "?\\r">` >> 8) & 0xff
   \   0002C7   12....       LCALL   ??Subroutine200_0 & 0xFFFF
   \                     ??CrossCallReturnLabel_443:
   \   0002CA   6003         JZ      $+5
   \   0002CC   02....       LJMP    ??AT_Cmd_ATS_7 & 0xFFFF
   \   0002CF                ; Setup parameters for call to function AT_UARTWriteErrMsg
   1126                        str = osal_mem_alloc(AT_smap[index].len);
   \   0002CF   EE           MOV     A,R6
   \   0002D0   75F003       MOV     B,#0x3
   \   0002D3   A4           MUL     AB
   \   0002D4   F8           MOV     R0,A
   \   0002D5   A9F0         MOV     R1,B
   \   0002D7   12....       LCALL   ?Subroutine43 & 0xFFFF
   1127                        if ((state=osal_nv_read(id+AT_S_NV_OFFSET, 0, AT_smap[index].len, str))==SUCCESS){
   \                     ??CrossCallReturnLabel_48:
   \   0002DA   12....       LCALL   ?PUSH_XSTACK_I_TWO
   \   0002DD   78..         MOV     R0,#?V0 + 2
   \   0002DF   12....       LCALL   ?PUSH_XSTACK_I_TWO
   \   0002E2   12....       LCALL   ?Subroutine92 & 0xFFFF
   \                     ??CrossCallReturnLabel_147:
   \   0002E5   12....       LCALL   ?DEALLOC_XSTACK8
   \   0002E8   E9           MOV     A,R1
   \   0002E9   7036         JNZ     ??AT_Cmd_ATS_25
   1128                          //read successfully
   1129                          char str2[2];
   1130                          AT_RESP_START();             
   \   0002EB                ; Setup parameters for call to function AT_HalUARTWrite
   \   0002EB   7C02         MOV     R4,#0x2
   \   0002ED   7D00         MOV     R5,#0x0
   \   0002EF   7A..         MOV     R2,#`?<Constant "\\r\\n">` & 0xff
   \   0002F1   7B..         MOV     R3,#(`?<Constant "\\r\\n">` >> 8) & 0xff
   \   0002F3   7900         MOV     R1,#0x0
   \   0002F5   12....       LCALL   ??AT_HalUARTWrite?relay
   1131                          for(i=0;i<AT_smap[index].len;i++) {
   \   0002F8   75..00       MOV     ?V0 + 0,#0x0
   \   0002FB   8003         SJMP    ??CrossCallReturnLabel_23
   1132                            AT_Int8toChar(str[AT_smap[index].len-1-i],str2);
   \                     ??AT_Cmd_ATS_26:
   \   0002FD                ; Setup parameters for call to function AT_Int8toChar
   \   0002FD   12....       LCALL   ?Subroutine29 & 0xFFFF
   1133                            AT_RESP(str2,2);
   1134                          }
   \                     ??CrossCallReturnLabel_23:
   \   000300   12....       LCALL   ?Subroutine39 & 0xFFFF
   \                     ??CrossCallReturnLabel_370:
   \   000303   40F8         JC      ??AT_Cmd_ATS_26
   1135                          AT_RESP_END();
   \   000305                ; Setup parameters for call to function AT_HalUARTWrite
   \   000305   7C02         MOV     R4,#0x2
   \   000307   7D00         MOV     R5,#0x0
   \   000309   7A..         MOV     R2,#`?<Constant "\\r\\n">` & 0xff
   \   00030B   7B..         MOV     R3,#(`?<Constant "\\r\\n">` >> 8) & 0xff
   \   00030D   7900         MOV     R1,#0x0
   \   00030F   12....       LCALL   ??AT_HalUARTWrite?relay
   1136                          AT_OK();
   \   000312                ; Setup parameters for call to function AT_HalUARTWrite
   \                     ??AT_Cmd_ATS_27:
   \   000312   7C07         MOV     R4,#0x7
   \   000314   7D00         MOV     R5,#0x0
   \   000316   7A..         MOV     R2,#`?<Constant "\\r\\nOK\\r\\n">` & 0xff
   \   000318   7B..         MOV     R3,#(`?<Constant "\\r\\nOK\\r\\n">` >> 8) & 0xff
   \   00031A   7900         MOV     R1,#0x0
   \   00031C   12....       LCALL   ??AT_HalUARTWrite?relay
   \   00031F   8003         SJMP    ??AT_Cmd_ATS_28
   1137                        }
   1138                        else AT_ERROR(state);
   \                     ??AT_Cmd_ATS_25:
   \   000321                ; Setup parameters for call to function AT_UARTWriteErrMsg
   \   000321   12....       LCALL   ??AT_UARTWriteErrMsg?relay
   1139                        osal_mem_free(str);
   \                     ??AT_Cmd_ATS_28:
   \   000324                ; Setup parameters for call to function osal_mem_free
   \   000324   02....       LJMP    ??AT_Cmd_ATS_15 & 0xFFFF
   1140                      }else{
   1141                        if((AT_smap[index].Privilege & AT_SMAP_WRITTEN)==0) {AT_ERROR(AT_FATAL_ERROR);return;};  //check privilege
   \                     ??AT_Cmd_ATS_24:
   \   000327   12....       LCALL   ?Subroutine80 & 0xFFFF
   \                     ??CrossCallReturnLabel_124:
   \   00032A   4003         JC      $+5
   \   00032C   02....       LJMP    ??AT_Cmd_ATS_11 & 0xFFFF
   1142                        AT_PARSE_CMD_PATTERN_ERROR("=\r",cmdUnitArr);
   \   00032F                ; Setup parameters for call to function AT_pattern_check
   \   00032F   7406         MOV     A,#0x6
   \   000331   12....       LCALL   ?XSTACK_DISP0_8
   \   000334   AC82         MOV     R4,DPL
   \   000336   AD83         MOV     R5,DPH
   \   000338   7A..         MOV     R2,#`?<Constant "=\\r">` & 0xff
   \   00033A   7B..         MOV     R3,#(`?<Constant "=\\r">` >> 8) & 0xff
   \   00033C   12....       LCALL   ??Subroutine200_0 & 0xFFFF
   \                     ??CrossCallReturnLabel_444:
   \   00033F   6003         JZ      $+5
   \   000341   02....       LJMP    ??AT_Cmd_ATS_7 & 0xFFFF
   \   000344                ; Setup parameters for call to function AT_UARTWriteErrMsg
   1143                        str = osal_mem_alloc(AT_smap[index].len);
   \   000344   EE           MOV     A,R6
   \   000345   75F003       MOV     B,#0x3
   \   000348   A4           MUL     AB
   \   000349   F8           MOV     R0,A
   \   00034A   A9F0         MOV     R1,B
   \   00034C   12....       LCALL   ?Subroutine33 & 0xFFFF
   1144                        uint8 *str2 = osal_mem_alloc(2*AT_smap[index].len);
   1145                        for(i=0;i<AT_smap[index].len*2;i++) {
   \                     ??CrossCallReturnLabel_32:
   \   00034F   8006         SJMP    ??AT_Cmd_ATS_29
   1146                          if(i<cmdUnitArr[0].unitLen){
   1147                            str2[AT_smap[index].len*2-1-i] =cmdUnitArr[0].unit[cmdUnitArr[0].unitLen-1-i];
   1148                          }
   1149                          else str2[AT_smap[index].len*2-1-i]='0';
   \                     ??AT_Cmd_ATS_30:
   \   000351   12....       LCALL   ?Subroutine31 & 0xFFFF
   \                     ??CrossCallReturnLabel_28:
   \   000354   F0           MOVX    @DPTR,A
   \   000355   05..         INC     ?V0 + 0
   \                     ??AT_Cmd_ATS_29:
   \   000357   12....       LCALL   ?Subroutine40 & 0xFFFF
   \                     ??CrossCallReturnLabel_42:
   \   00035A   5028         JNC     ??AT_Cmd_ATS_31
   \   00035C   7407         MOV     A,#0x7
   \   00035E   12....       LCALL   ?XSTACK_DISP0_8
   \   000361   12....       LCALL   ??Subroutine188_0 & 0xFFFF
   \                     ??CrossCallReturnLabel_366:
   \   000364   50EB         JNC     ??AT_Cmd_ATS_30
   \   000366   85..82       MOV     DPL,?V0 + 0
   \   000369   AA82         MOV     R2,DPL
   \   00036B   7407         MOV     A,#0x7
   \   00036D   12....       LCALL   ?XSTACK_DISP0_8
   \   000370   12....       LCALL   ?Subroutine42 & 0xFFFF
   1150                        }
   \                     ??CrossCallReturnLabel_46:
   \   000373   7408         MOV     A,#0x8
   \   000375   12....       LCALL   ?XSTACK_DISP0_8
   \   000378   12....       LCALL   ?Subroutine49 & 0xFFFF
   \                     ??CrossCallReturnLabel_60:
   \   00037B   C0E0         PUSH    A
   \   00037D   12....       LCALL   ?Subroutine32 & 0xFFFF
   \                     ??CrossCallReturnLabel_30:
   \   000380   D0E0         POP     A
   \   000382   80D0         SJMP    ??CrossCallReturnLabel_28
   1151                        AT_CmdUnit temp;
   1152                        temp.unitLen=2;
   \                     ??AT_Cmd_ATS_31:
   \   000384   7403         MOV     A,#0x3
   \   000386   12....       LCALL   ?XSTACK_DISP0_8
   \   000389   7402         MOV     A,#0x2
   \   00038B   F0           MOVX    @DPTR,A
   1153                        for(i=0;i<AT_smap[index].len;i++){
   \   00038C   75..00       MOV     ?V0 + 0,#0x0
   \   00038F   801D         SJMP    ??AT_Cmd_ATS_32
   1154                          temp.unit = str2+2*i;
   \                     ??AT_Cmd_ATS_33:
   \   000391   12....       LCALL   ?Subroutine86 & 0xFFFF
   \                     ??CrossCallReturnLabel_136:
   \   000394   12....       LCALL   ?XSTACK_DISP0_8
   \   000397   E8           MOV     A,R0
   \   000398   F0           MOVX    @DPTR,A
   \   000399   A3           INC     DPTR
   \   00039A   E9           MOV     A,R1
   \   00039B   F0           MOVX    @DPTR,A
   1155                          str[AT_smap[index].len-1-i] = AT_ChartoInt8(&temp);
   \   00039C                ; Setup parameters for call to function AT_ChartoInt8
   \   00039C   7402         MOV     A,#0x2
   \   00039E   12....       LCALL   ?XSTACK_DISP0_8
   \   0003A1   12....       LCALL   ??Subroutine201_0 & 0xFFFF
   1156                        }
   \                     ??CrossCallReturnLabel_484:
   \   0003A4   C0E0         PUSH    A
   \   0003A6   12....       LCALL   ?Subroutine35 & 0xFFFF
   \                     ??CrossCallReturnLabel_36:
   \   0003A9   D0E0         POP     A
   \   0003AB   F0           MOVX    @DPTR,A
   \   0003AC   05..         INC     ?V0 + 0
   \                     ??AT_Cmd_ATS_32:
   \   0003AE   EE           MOV     A,R6
   \   0003AF   75F003       MOV     B,#0x3
   \   0003B2   A4           MUL     AB
   \   0003B3   F8           MOV     R0,A
   \   0003B4   EA           MOV     A,R2
   \   0003B5   F9           MOV     R1,A
   \   0003B6   12....       LCALL   ??Subroutine187_0 & 0xFFFF
   \                     ??CrossCallReturnLabel_368:
   \   0003B9   40D6         JC      ??AT_Cmd_ATS_33
   1157                        osal_mem_free(str2);
   \   0003BB                ; Setup parameters for call to function osal_mem_free
   \   0003BB   AA..         MOV     R2,?V0 + 2
   \   0003BD   AB..         MOV     R3,?V0 + 3
   \   0003BF   12....       LCALL   ??osal_mem_free?relay
   1158                        if ((state=osal_nv_write(id+AT_S_NV_OFFSET, 0, AT_smap[index].len, str))==SUCCESS){
   \   0003C2                ; Setup parameters for call to function osal_nv_write
   \   0003C2   78..         MOV     R0,#?V0 + 8
   \   0003C4   12....       LCALL   ?PUSH_XSTACK_I_TWO
   \   0003C7   12....       LCALL   ?Subroutine38 & 0xFFFF
   \                     ??CrossCallReturnLabel_495:
   \   0003CA   12....       LCALL   ?PUSH_XSTACK_I_TWO
   \   0003CD   12....       LCALL   ?Subroutine93 & 0xFFFF
   \                     ??CrossCallReturnLabel_149:
   \   0003D0   12....       LCALL   ?DEALLOC_XSTACK8
   \   0003D3   E9           MOV     A,R1
   \   0003D4   7003         JNZ     $+5
   \   0003D6   02....       LJMP    ??AT_Cmd_ATS_27 & 0xFFFF
   1159                          //write successfully
   1160                          AT_OK();
   \   0003D9                ; Setup parameters for call to function AT_HalUARTWrite
   1161                        }
   1162                        else AT_ERROR(state);
   \   0003D9                ; Setup parameters for call to function AT_UARTWriteErrMsg
   \   0003D9   02....       LJMP    ??AT_Cmd_ATS_25 & 0xFFFF
   1163                        osal_mem_free(str);
   1164                      }
   1165                    }else AT_ERROR(state);
   1166              }
   1167                  
   1168            }
   1169            else AT_ERROR(AT_CMD_ERROR);
   \                     ??AT_Cmd_ATS_0:
   \   0003DC                ; Setup parameters for call to function AT_UARTWriteErrMsg
   \   0003DC   7921         MOV     R1,#0x21
   \                     ??AT_Cmd_ATS_7:
   \   0003DE   12....       LCALL   ??AT_UARTWriteErrMsg?relay
   \                     ??AT_Cmd_ATS_17:
   \   0003E1   741E         MOV     A,#0x1e
   \   0003E3                REQUIRE ?Subroutine5
   \   0003E3                ; // Fall through to label ?Subroutine5
   1170          }

   \                                 In  segment BANKED_CODE, align 1, keep-with-next
   \                     ?Subroutine5:
   \   000000   12....       LCALL   ?DEALLOC_XSTACK8
   \   000003   7F0A         MOV     R7,#0xa
   \   000005   02....       LJMP    ?BANKED_LEAVE_XDATA

   \                                 In  segment BANKED_CODE, align 1, keep-with-next
   \                     ?Subroutine102:
   \   000000   E582         MOV     A,DPL
   \   000002   25..         ADD     A,?V0 + 4
   \   000004   FA           MOV     R2,A
   \   000005   E583         MOV     A,DPH
   \   000007   35..         ADDC    A,?V0 + 5
   \   000009   12....       LCALL   ?Subroutine170 & 0xFFFF
   \                     ??CrossCallReturnLabel_548:
   \   00000C   F5..         MOV     ?V0 + 6,A
   \   00000E   05..         INC     ?V0 + 0
   \   000010   E5..         MOV     A,?V0 + 0
   \   000012   C3           CLR     C
   \   000013   22           RET

   \                                 In  segment BANKED_CODE, align 1, keep-with-next
   \                     ?Subroutine93:
   \   000000   7C00         MOV     R4,#0x0
   \   000002   7D00         MOV     R5,#0x0
   \   000004   85....       MOV     ?V0 + 0,?V0 + 1
   \   000007   12....       LCALL   ?Subroutine154 & 0xFFFF
   \                     ??CrossCallReturnLabel_348:
   \   00000A   12....       LCALL   ?Subroutine156 & 0xFFFF
   \                     ??CrossCallReturnLabel_287:
   \   00000D   22           RET

   \                                 In  segment BANKED_CODE, align 1, keep-with-next
   \                     ?Subroutine154:
   \   000000   E5..         MOV     A,?V0 + 0
   \   000002                REQUIRE ??Subroutine184_0
   \   000002                ; // Fall through to label ??Subroutine184_0

   \                                 In  segment BANKED_CODE, align 1, keep-with-next
   \                     ??Subroutine184_0:
   \   000000   2401         ADD     A,#0x1
   \   000002   FA           MOV     R2,A
   \   000003   E4           CLR     A
   \   000004   3404         ADDC    A,#0x4
   \   000006   FB           MOV     R3,A
   \   000007   22           RET

   \                                 In  segment BANKED_CODE, align 1, keep-with-next
   \                     ?Subroutine92:
   \   000000   7C00         MOV     R4,#0x0
   \   000002   7D00         MOV     R5,#0x0
   \   000004   12....       LCALL   ?Subroutine154 & 0xFFFF
   \                     ??CrossCallReturnLabel_347:
   \   000007   12....       LCALL   ?Subroutine159 & 0xFFFF
   \                     ??CrossCallReturnLabel_291:
   \   00000A   22           RET

   \                                 In  segment BANKED_CODE, align 1, keep-with-next
   \                     ?Subroutine86:
   \   000000   85..82       MOV     DPL,?V0 + 0
   \   000003   8582..       MOV     ?V0 + 4,DPL
   \   000006   E5..         MOV     A,?V0 + 4
   \   000008   C3           CLR     C
   \   000009   33           RLC     A
   \   00000A   F8           MOV     R0,A
   \   00000B   E4           CLR     A
   \   00000C   33           RLC     A
   \   00000D   F9           MOV     R1,A
   \   00000E   E5..         MOV     A,?V0 + 2
   \   000010   28           ADD     A,R0
   \   000011   F8           MOV     R0,A
   \   000012   E5..         MOV     A,?V0 + 3
   \   000014   39           ADDC    A,R1
   \   000015   F9           MOV     R1,A
   \   000016   7404         MOV     A,#0x4
   \   000018   22           RET

   \                                 In  segment BANKED_CODE, align 1, keep-with-next
   \                     ?Subroutine80:
   \   000000   12....       LCALL   ?Subroutine150 & 0xFFFF
   \                     ??CrossCallReturnLabel_351:
   \   000003   A2E0         MOV     C,0xE0 /* A   */.0
   \   000005   22           RET

   \                                 In  segment BANKED_CODE, align 1, keep-with-next
   \                     ?Subroutine150:
   \   000000   EE           MOV     A,R6
   \   000001                REQUIRE ??Subroutine185_0
   \   000001                ; // Fall through to label ??Subroutine185_0

   \                                 In  segment BANKED_CODE, align 1, keep-with-next
   \                     ??Subroutine185_0:
   \   000000   75F003       MOV     B,#0x3
   \   000003   A4           MUL     AB
   \   000004   F8           MOV     R0,A
   \   000005   A9F0         MOV     R1,B
   \   000007   74..         MOV     A,#(AT_smap + 1) & 0xff
   \   000009   28           ADD     A,R0
   \   00000A   F582         MOV     DPL,A
   \   00000C   74..         MOV     A,#((AT_smap + 1) >> 8) & 0xff
   \   00000E   39           ADDC    A,R1
   \   00000F   F583         MOV     DPH,A
   \   000011   E0           MOVX    A,@DPTR
   \   000012   22           RET

   \                                 In  segment BANKED_CODE, align 1, keep-with-next
   \                     ?Subroutine79:
   \   000000   12....       LCALL   ?Subroutine150 & 0xFFFF
   \                     ??CrossCallReturnLabel_350:
   \   000003   A2E1         MOV     C,0xE0 /* A   */.1
   \   000005   22           RET

   \                                 In  segment BANKED_CODE, align 1, keep-with-next
   \                     ?Subroutine78:
   \   000000   12....       LCALL   ?Subroutine148 & 0xFFFF
   \                     ??CrossCallReturnLabel_357:
   \   000003   22           RET

   \                                 In  segment BANKED_CODE, align 1, keep-with-next
   \                     ?Subroutine148:
   \   000000   75F003       MOV     B,#0x3
   \   000003   A4           MUL     AB
   \   000004   F8           MOV     R0,A
   \   000005   A9F0         MOV     R1,B
   \   000007                REQUIRE ??Subroutine186_0
   \   000007                ; // Fall through to label ??Subroutine186_0

   \                                 In  segment BANKED_CODE, align 1, keep-with-next
   \                     ??Subroutine186_0:
   \   000000   12....       LCALL   ?Subroutine167 & 0xFFFF
   \                     ??CrossCallReturnLabel_359:
   \   000003   22           RET

   \                                 In  segment BANKED_CODE, align 1, keep-with-next
   \                     ?Subroutine167:
   \   000000   12....       LCALL   ?Subroutine171 & 0xFFFF
   \                     ??CrossCallReturnLabel_363:
   \   000003   E0           MOVX    A,@DPTR
   \   000004   22           RET

   \                                 In  segment BANKED_CODE, align 1, keep-with-next
   \                     ?Subroutine49:
   \   000000   E0           MOVX    A,@DPTR
   \   000001   28           ADD     A,R0
   \   000002   FC           MOV     R4,A
   \   000003   A3           INC     DPTR
   \   000004   E0           MOVX    A,@DPTR
   \   000005   39           ADDC    A,R1
   \   000006   8C82         MOV     DPL,R4
   \   000008   F583         MOV     DPH,A
   \   00000A   E0           MOVX    A,@DPTR
   \   00000B   22           RET

   \                                 In  segment BANKED_CODE, align 1, keep-with-next
   \                     ?Subroutine43:
   \   000000   12....       LCALL   ??Subroutine186_0 & 0xFFFF
   \                     ??CrossCallReturnLabel_355:
   \   000003   F5..         MOV     ?V0 + 2,A
   \   000005                ; Setup parameters for call to function osal_mem_alloc
   \   000005                ; Setup parameters for call to function osal_mem_alloc
   \   000005   FA           MOV     R2,A
   \   000006   AB..         MOV     R3,?V0 + 3
   \   000008   12....       LCALL   ??osal_mem_alloc?relay
   \   00000B   8A..         MOV     ?V0 + 8,R2
   \   00000D   8B..         MOV     ?V0 + 9,R3
   \   00000F                ; Setup parameters for call to function osal_nv_read
   \   00000F                ; Setup parameters for call to function osal_nv_read
   \   00000F   78..         MOV     R0,#?V0 + 8
   \   000011   22           RET

   \                                 In  segment BANKED_CODE, align 1, keep-with-next
   \                     ?Subroutine42:
   \   000000   E0           MOVX    A,@DPTR
   \   000001   24FF         ADD     A,#-0x1
   \   000003   18           DEC     R0
   \   000004   E4           CLR     A
   \   000005   34FF         ADDC    A,#-0x1
   \   000007   F9           MOV     R1,A
   \   000008   E8           MOV     A,R0
   \   000009   C3           CLR     C
   \   00000A   9A           SUBB    A,R2
   \   00000B   F8           MOV     R0,A
   \   00000C   E9           MOV     A,R1
   \   00000D   9400         SUBB    A,#0x0
   \   00000F   F9           MOV     R1,A
   \   000010   22           RET

   \                                 In  segment BANKED_CODE, align 1, keep-with-next
   \                     ?Subroutine40:
   \   000000   85....       MOV     ?V0 + 4,?V0 + 0
   \   000003   EE           MOV     A,R6
   \   000004   75F003       MOV     B,#0x3
   \   000007   A4           MUL     AB
   \   000008   F8           MOV     R0,A
   \   000009   AAF0         MOV     R2,B
   \   00000B   EA           MOV     A,R2
   \   00000C   F9           MOV     R1,A
   \   00000D   12....       LCALL   ??Subroutine186_0 & 0xFFFF
   \                     ??CrossCallReturnLabel_354:
   \   000010   C3           CLR     C
   \   000011   33           RLC     A
   \   000012   F8           MOV     R0,A
   \   000013   E4           CLR     A
   \   000014   33           RLC     A
   \   000015   F9           MOV     R1,A
   \   000016   E5..         MOV     A,?V0 + 4
   \   000018   98           SUBB    A,R0
   \   000019   E4           CLR     A
   \   00001A   99           SUBB    A,R1
   \   00001B   C3           CLR     C
   \   00001C   65D0         XRL     A,PSW
   \   00001E   33           RLC     A
   \   00001F   22           RET

   \                                 In  segment BANKED_CODE, align 1, keep-with-next
   \                     ?Subroutine39:
   \   000000   EE           MOV     A,R6
   \   000001   75F003       MOV     B,#0x3
   \   000004   A4           MUL     AB
   \   000005   F8           MOV     R0,A
   \   000006   A9F0         MOV     R1,B
   \   000008                REQUIRE ??Subroutine187_0
   \   000008                ; // Fall through to label ??Subroutine187_0

   \                                 In  segment BANKED_CODE, align 1, keep-with-next
   \                     ??Subroutine187_0:
   \   000000   12....       LCALL   ?Subroutine151 & 0xFFFF
   \                     ??CrossCallReturnLabel_362:
   \   000003                REQUIRE ??Subroutine188_0
   \   000003                ; // Fall through to label ??Subroutine188_0

   \                                 In  segment BANKED_CODE, align 1, keep-with-next
   \                     ??Subroutine188_0:
   \   000000   E0           MOVX    A,@DPTR
   \   000001   F8           MOV     R0,A
   \   000002   E5..         MOV     A,?V0 + 0
   \   000004   C3           CLR     C
   \   000005   98           SUBB    A,R0
   \   000006   22           RET

   \                                 In  segment BANKED_CODE, align 1, keep-with-next
   \                     ?Subroutine151:
   \   000000   12....       LCALL   ?Subroutine171 & 0xFFFF
   \                     ??CrossCallReturnLabel_364:
   \   000003   22           RET

   \                                 In  segment BANKED_CODE, align 1, keep-with-next
   \                     ?Subroutine171:
   \   000000   74..         MOV     A,#AT_smap & 0xff
   \   000002   28           ADD     A,R0
   \   000003   F582         MOV     DPL,A
   \   000005   74..         MOV     A,#(AT_smap >> 8) & 0xff
   \   000007   39           ADDC    A,R1
   \   000008   F583         MOV     DPH,A
   \   00000A   22           RET

   \                                 In  segment BANKED_CODE, align 1, keep-with-next
   \                     ?Subroutine37:
   \   000000   EE           MOV     A,R6
   \   000001   12....       LCALL   ?Subroutine148 & 0xFFFF
   \                     ??CrossCallReturnLabel_356:
   \   000004   FC           MOV     R4,A
   \   000005   7D00         MOV     R5,#0x0
   \   000007   85....       MOV     ?V0 + 0,?V0 + 1
   \   00000A   85....       MOV     ?V0 + 2,?V0 + 0
   \   00000D   E5..         MOV     A,?V0 + 2
   \   00000F   12....       LCALL   ??Subroutine184_0 & 0xFFFF
   \                     ??CrossCallReturnLabel_346:
   \   000012   12....       LCALL   ??osal_nv_item_init?relay
   \   000015   7402         MOV     A,#0x2
   \   000017   22           RET

   \                                 In  segment BANKED_CODE, align 1, keep-with-next
   \                     ?Subroutine35:
   \   000000   EE           MOV     A,R6
   \   000001   75F003       MOV     B,#0x3
   \   000004   A4           MUL     AB
   \   000005   F8           MOV     R0,A
   \   000006   AAF0         MOV     R2,B
   \   000008   EA           MOV     A,R2
   \   000009   F9           MOV     R1,A
   \   00000A   12....       LCALL   ?Subroutine151 & 0xFFFF
   \                     ??CrossCallReturnLabel_361:
   \   00000D   12....       LCALL   ?Subroutine138 & 0xFFFF
   \                     ??CrossCallReturnLabel_270:
   \   000010   95..         SUBB    A,?V0 + 4
   \   000012   12....       LCALL   ?Subroutine152 & 0xFFFF
   \                     ??CrossCallReturnLabel_282:
   \   000015   22           RET

   \                                 In  segment BANKED_CODE, align 1, keep-with-next
   \                     ?Subroutine152:
   \   000000   F8           MOV     R0,A
   \   000001   E9           MOV     A,R1
   \   000002   9400         SUBB    A,#0x0
   \   000004   F9           MOV     R1,A
   \   000005   E5..         MOV     A,?V0 + 8
   \   000007   28           ADD     A,R0
   \   000008   F582         MOV     DPL,A
   \   00000A   E5..         MOV     A,?V0 + 9
   \   00000C   39           ADDC    A,R1
   \   00000D   F583         MOV     DPH,A
   \   00000F   22           RET

   \                                 In  segment BANKED_CODE, align 1, keep-with-next
   \                     ?Subroutine33:
   \   000000   12....       LCALL   ??Subroutine186_0 & 0xFFFF
   \                     ??CrossCallReturnLabel_353:
   \   000003   F5..         MOV     ?V0 + 0,A
   \   000005                ; Setup parameters for call to function osal_mem_alloc
   \   000005                ; Setup parameters for call to function osal_mem_alloc
   \   000005   FA           MOV     R2,A
   \   000006   7B00         MOV     R3,#0x0
   \   000008   12....       LCALL   ??osal_mem_alloc?relay
   \   00000B   8A..         MOV     ?V0 + 8,R2
   \   00000D   8B..         MOV     ?V0 + 9,R3
   \   00000F                ; Setup parameters for call to function osal_mem_alloc
   \   00000F                ; Setup parameters for call to function osal_mem_alloc
   \   00000F   E5..         MOV     A,?V0 + 0
   \   000011   C3           CLR     C
   \   000012   33           RLC     A
   \   000013   FA           MOV     R2,A
   \   000014   E4           CLR     A
   \   000015   33           RLC     A
   \   000016   FB           MOV     R3,A
   \   000017   12....       LCALL   ??osal_mem_alloc?relay
   \   00001A   8A..         MOV     ?V0 + 2,R2
   \   00001C   8B..         MOV     ?V0 + 3,R3
   \   00001E   75..00       MOV     ?V0 + 0,#0x0
   \   000021   22           RET

   \                                 In  segment BANKED_CODE, align 1, keep-with-next
   \                     ?Subroutine32:
   \   000000   EE           MOV     A,R6
   \   000001   75F003       MOV     B,#0x3
   \   000004   A4           MUL     AB
   \   000005   F8           MOV     R0,A
   \   000006   A9F0         MOV     R1,B
   \   000008   12....       LCALL   ?Subroutine135 & 0xFFFF
   \                     ??CrossCallReturnLabel_263:
   \   00000B   9A           SUBB    A,R2
   \   00000C   12....       LCALL   ?Subroutine149 & 0xFFFF
   \                     ??CrossCallReturnLabel_374:
   \   00000F   22           RET

   \                                 In  segment BANKED_CODE, align 1, keep-with-next
   \                     ?Subroutine149:
   \   000000   F8           MOV     R0,A
   \   000001   E9           MOV     A,R1
   \   000002   9400         SUBB    A,#0x0
   \   000004   F9           MOV     R1,A
   \   000005   E5..         MOV     A,?V0 + 2
   \   000007                REQUIRE ??Subroutine189_0
   \   000007                ; // Fall through to label ??Subroutine189_0

   \                                 In  segment BANKED_CODE, align 1, keep-with-next
   \                     ?Subroutine31:
   \   000000   EE           MOV     A,R6
   \   000001   75F003       MOV     B,#0x3
   \   000004   A4           MUL     AB
   \   000005   F8           MOV     R0,A
   \   000006   EA           MOV     A,R2
   \   000007   F9           MOV     R1,A
   \   000008   12....       LCALL   ?Subroutine135 & 0xFFFF
   \                     ??CrossCallReturnLabel_262:
   \   00000B   95..         SUBB    A,?V0 + 4
   \   00000D   12....       LCALL   ?Subroutine149 & 0xFFFF
   \                     ??CrossCallReturnLabel_373:
   \   000010   7430         MOV     A,#0x30
   \   000012   22           RET

   \                                 In  segment BANKED_CODE, align 1, keep-with-next
   \                     ?Subroutine135:
   \   000000   12....       LCALL   ?Subroutine167 & 0xFFFF
   \                     ??CrossCallReturnLabel_358:
   \   000003   C3           CLR     C
   \   000004   33           RLC     A
   \   000005   F8           MOV     R0,A
   \   000006   E4           CLR     A
   \   000007   33           RLC     A
   \   000008   F9           MOV     R1,A
   \   000009   E8           MOV     A,R0
   \   00000A   24FF         ADD     A,#-0x1
   \   00000C   18           DEC     R0
   \   00000D   E9           MOV     A,R1
   \   00000E   34FF         ADDC    A,#-0x1
   \   000010   F9           MOV     R1,A
   \   000011   E8           MOV     A,R0
   \   000012   C3           CLR     C
   \   000013   22           RET

   \                                 In  segment BANKED_CODE, align 1, keep-with-next
   \                     ?Subroutine29:
   \   000000   85..82       MOV     DPL,?XSP + 0
   \   000003   85..83       MOV     DPH,?XSP + 1
   \   000006   AA82         MOV     R2,DPL
   \   000008   AB83         MOV     R3,DPH
   \   00000A   EE           MOV     A,R6
   \   00000B   75F003       MOV     B,#0x3
   \   00000E   A4           MUL     AB
   \   00000F   F8           MOV     R0,A
   \   000010   12....       LCALL   ??Subroutine186_0 & 0xFFFF
   \                     ??CrossCallReturnLabel_352:
   \   000013   24FF         ADD     A,#-0x1
   \   000015   F8           MOV     R0,A
   \   000016   E4           CLR     A
   \   000017   34FF         ADDC    A,#-0x1
   \   000019   F9           MOV     R1,A
   \   00001A   85....       MOV     ?V0 + 2,?V0 + 0
   \   00001D   E8           MOV     A,R0
   \   00001E   C3           CLR     C
   \   00001F   95..         SUBB    A,?V0 + 2
   \   000021   12....       LCALL   ?Subroutine152 & 0xFFFF
   \                     ??CrossCallReturnLabel_281:
   \   000024   12....       LCALL   ?Subroutine139 & 0xFFFF
   \                     ??CrossCallReturnLabel_271:
   \   000027   85..82       MOV     DPL,?XSP + 0
   \   00002A   85..83       MOV     DPH,?XSP + 1
   \   00002D   AA82         MOV     R2,DPL
   \   00002F   AB83         MOV     R3,DPH
   \   000031   7900         MOV     R1,#0x0
   \   000033   12....       LCALL   ??AT_HalUARTWrite?relay
   \   000036   05..         INC     ?V0 + 0
   \   000038   22           RET

   \                                 In  segment BANKED_CODE, align 1, keep-with-next
   \                     ?Subroutine139:
   \   000000   E0           MOVX    A,@DPTR
   \   000001   12....       LCALL   ?Subroutine169 & 0xFFFF
   \                     ??CrossCallReturnLabel_414:
   \   000004   22           RET

   \                                 In  segment BANKED_CODE, align 1, keep-with-next
   \                     ?Subroutine130:
   \   000000   FB           MOV     R3,A
   \   000001   12....       LCALL   ??osal_mem_alloc?relay
   \   000004   8A..         MOV     ?V0 + 4,R2
   \   000006   8B..         MOV     ?V0 + 5,R3
   \   000008   EA           MOV     A,R2
   \   000009   22           RET

   \                                 In  segment BANKED_CODE, align 1, keep-with-next
   \                     ?Subroutine53:
   \   000000   E0           MOVX    A,@DPTR
   \   000001   F5..         MOV     ?V0 + 0,A
   \   000003   75..00       MOV     ?V0 + 1,#0x0
   \   000006   78..         MOV     R0,#?V0 + 0
   \   000008   22           RET

   \                                 In  segment BANKED_CODE, align 1, keep-with-next
   \                     ?Subroutine38:
   \   000000   EE           MOV     A,R6
   \   000001   75F003       MOV     B,#0x3
   \   000004   A4           MUL     AB
   \   000005   F8           MOV     R0,A
   \   000006   A9F0         MOV     R1,B
   \   000008   74..         MOV     A,#AT_smap & 0xff
   \   00000A   28           ADD     A,R0
   \   00000B   F582         MOV     DPL,A
   \   00000D   74..         MOV     A,#(AT_smap >> 8) & 0xff
   \   00000F                REQUIRE ??Subroutine202_0
   \   00000F                ; // Fall through to label ??Subroutine202_0

   \                                 In  segment BANKED_CODE, align 1, keep-with-next
   \                     ??Subroutine202_0:
   \   000000   39           ADDC    A,R1
   \   000001                REQUIRE ??Subroutine203_0
   \   000001                ; // Fall through to label ??Subroutine203_0

   \                                 In  segment BANKED_CODE, align 1, keep-with-next
   \                     ??Subroutine203_0:
   \   000000   F583         MOV     DPH,A
   \   000002   E0           MOVX    A,@DPTR
   \   000003   F5..         MOV     ?V0 + 2,A
   \   000005   75..00       MOV     ?V0 + 3,#0x0
   \   000008   78..         MOV     R0,#?V0 + 2
   \   00000A   22           RET

   \                                 In  segment BANKED_CODE, align 1, keep-with-next
   \                     ?Subroutine170:
   \   000000   FB           MOV     R3,A
   \   000001                REQUIRE ??Subroutine204_0
   \   000001                ; // Fall through to label ??Subroutine204_0
   1171          
   1172          
   1173          /*****************************************************
   1174          +LONOFF:[<ON/OFF>] C Set On or Off Status for the Local Node (For Local LED )
   1175          <ON/OFF> - A Boolean type to choose transmission mode,
   1176                    0 C means Off; 
   1177                    1 C means On. 
   1178                    If this field is left blank, the command will be a toggle command.
   1179          
   1180            Response 
   1181                     Response OK or ERROR:<errorcode>
   1182          *********************************************************/

   \                                 In  segment BANKED_CODE, align 1, keep-with-next
   1183          void AT_Cmd_LONOFF(uint8 start_point, uint8* msg){
   \                     AT_Cmd_LONOFF:
   \   000000   74F4         MOV     A,#-0xc
   \   000002   12....       LCALL   ?BANKED_ENTER_XDATA
   \   000005                ; Saved register size: 12
   \   000005                ; Auto size: 8
   \   000005   74F8         MOV     A,#-0x8
   \   000007   12....       LCALL   ?ALLOC_XSTACK8
   \   00000A   89..         MOV     ?V0 + 2,R1
   \   00000C   EA           MOV     A,R2
   \   00000D   FE           MOV     R6,A
   \   00000E   EB           MOV     A,R3
   \   00000F   FF           MOV     R7,A
   1184            AT_CmdUnit cmdUnitArr[2];
   1185            uint8 i;
   1186            for(i=0;i<2;i++)start_point = AT_get_next_cmdUnit(&cmdUnitArr[i],start_point, msg);  
   \   000010   75..00       MOV     ?V0 + 3,#0x0
   \                     ??AT_Cmd_LONOFF_0:
   \   000013                ; Setup parameters for call to function AT_get_next_cmdUnit
   \   000013   EE           MOV     A,R6
   \   000014   FC           MOV     R4,A
   \   000015   EF           MOV     A,R7
   \   000016   FD           MOV     R5,A
   \   000017   A9..         MOV     R1,?V0 + 2
   \   000019   85....       MOV     ?V0 + 0,?V0 + 3
   \   00001C   75..00       MOV     ?V0 + 1,#0x0
   \   00001F   7402         MOV     A,#0x2
   \   000021   78..         MOV     R0,#?V0 + 0
   \   000023   12....       LCALL   ?S_SHL
   \   000026   12....       LCALL   ?Subroutine56 & 0xFFFF
   \                     ??CrossCallReturnLabel_378:
   \   000029   40E8         JC      ??AT_Cmd_LONOFF_0
   1187            AT_PARSE_CMD_PATTERN_ERROR(":\r",cmdUnitArr); 
   \   00002B                ; Setup parameters for call to function AT_pattern_check
   \   00002B   12....       LCALL   ?Subroutine108 & 0xFFFF
   \                     ??CrossCallReturnLabel_423:
   \   00002E   6005         JZ      ??AT_Cmd_LONOFF_1
   \   000030                ; Setup parameters for call to function AT_UARTWriteErrMsg
   \   000030   12....       LCALL   ??AT_UARTWriteErrMsg?relay
   \   000033   8029         SJMP    ??AT_Cmd_LONOFF_2
   1188            
   1189            if(cmdUnitArr[0].unitLen==0) HalLedSet( HAL_LED_1,HAL_LED_MODE_TOGGLE);
   \                     ??AT_Cmd_LONOFF_1:
   \   000035   7401         MOV     A,#0x1
   \   000037   12....       LCALL   ?XSTACK_DISP0_8
   \   00003A   E0           MOVX    A,@DPTR
   \   00003B   7004         JNZ     ??AT_Cmd_LONOFF_3
   \   00003D                ; Setup parameters for call to function HalLedSet
   \   00003D   7A08         MOV     R2,#0x8
   \   00003F   800B         SJMP    ??AT_Cmd_LONOFF_4
   1190            else{
   1191              uint8 onoff;
   1192              onoff = AT_ChartoInt8(&cmdUnitArr[0]);
   1193              if(onoff)HalLedSet( HAL_LED_1,HAL_LED_MODE_ON);
   \                     ??AT_Cmd_LONOFF_3:
   \   000041                ; Setup parameters for call to function AT_ChartoInt8
   \   000041   12....       LCALL   ?Subroutine116 & 0xFFFF
   \                     ??CrossCallReturnLabel_479:
   \   000044   6004         JZ      ??AT_Cmd_LONOFF_5
   \   000046                ; Setup parameters for call to function HalLedSet
   \   000046   7A01         MOV     R2,#0x1
   \   000048   8002         SJMP    ??AT_Cmd_LONOFF_4
   1194              else HalLedSet( HAL_LED_1,HAL_LED_MODE_OFF);
   \                     ??AT_Cmd_LONOFF_5:
   \   00004A                ; Setup parameters for call to function HalLedSet
   \   00004A   7A00         MOV     R2,#0x0
   \                     ??AT_Cmd_LONOFF_4:
   \   00004C   7901         MOV     R1,#0x1
   \   00004E   12....       LCALL   ??HalLedSet?relay
   1195            }
   1196            AT_OK();
   \   000051                ; Setup parameters for call to function AT_HalUARTWrite
   \   000051   7C07         MOV     R4,#0x7
   \   000053   7D00         MOV     R5,#0x0
   \   000055   7A..         MOV     R2,#`?<Constant "\\r\\nOK\\r\\n">` & 0xff
   \   000057   7B..         MOV     R3,#(`?<Constant "\\r\\nOK\\r\\n">` >> 8) & 0xff
   \   000059   7900         MOV     R1,#0x0
   \   00005B   12....       LCALL   ??AT_HalUARTWrite?relay
   1197          }
   \                     ??AT_Cmd_LONOFF_2:
   \   00005E                REQUIRE ?Subroutine12
   \   00005E                ; // Fall through to label ?Subroutine12

   \                                 In  segment BANKED_CODE, align 1, keep-with-next
   \                     ?Subroutine12:
   \   000000   7408         MOV     A,#0x8
   \   000002   02....       LJMP    ??Subroutine195_0 & 0xFFFF

   \                                 In  segment BANKED_CODE, align 1, keep-with-next
   \                     ?Subroutine56:
   \   000000   85..82       MOV     DPL,?XSP + 0
   \   000003   85..83       MOV     DPH,?XSP + 1
   \   000006                REQUIRE ??Subroutine191_0
   \   000006                ; // Fall through to label ??Subroutine191_0

   \                                 In  segment BANKED_CODE, align 1, keep-with-next
   \                     ?Subroutine108:
   \   000000   85..82       MOV     DPL,?XSP + 0
   \   000003   85..83       MOV     DPH,?XSP + 1
   \   000006                REQUIRE ??Subroutine198_0
   \   000006                ; // Fall through to label ??Subroutine198_0

   \                                 In  segment BANKED_CODE, align 1, keep-with-next
   \                     ?Subroutine116:
   \   000000   85..82       MOV     DPL,?XSP + 0
   \   000003   85..83       MOV     DPH,?XSP + 1
   \   000006                REQUIRE ??Subroutine201_0
   \   000006                ; // Fall through to label ??Subroutine201_0
   1198          
   1199          
   1200          /*****************************************************
   1201          AT+ESCAN
   1202          
   1203          Response +ESCAN1:  11:XX
   1204                             
   1205                            26:XX 
   1206                            OK or ERROR:<errorcode> .
   1207                            XX represents the average energy on the respective channel
   1208          *********************************************************/

   \                                 In  segment BANKED_CODE, align 1, keep-with-next
   1209          void AT_Cmd_ESCAN1(uint8 start_point, uint8* msg){
   \                     AT_Cmd_ESCAN1:
   \   000000   74F4         MOV     A,#-0xc
   \   000002   12....       LCALL   ?BANKED_ENTER_XDATA
   \   000005                ; Saved register size: 12
   \   000005                ; Auto size: 21
   \   000005   74EB         MOV     A,#-0x15
   \   000007   12....       LCALL   ?ALLOC_XSTACK8
   \   00000A   89..         MOV     ?V0 + 2,R1
   \   00000C   EA           MOV     A,R2
   \   00000D   FE           MOV     R6,A
   \   00000E   EB           MOV     A,R3
   \   00000F   FF           MOV     R7,A
   1210            AT_CmdUnit cmdUnitArr[3];
   1211            uint8 i;
   1212            for(i=0;i<3;i++)start_point = AT_get_next_cmdUnit(&cmdUnitArr[i],start_point, msg);  
   \   000010   75..00       MOV     ?V0 + 3,#0x0
   \                     ??AT_Cmd_ESCAN1_0:
   \   000013                ; Setup parameters for call to function AT_get_next_cmdUnit
   \   000013   EE           MOV     A,R6
   \   000014   FC           MOV     R4,A
   \   000015   EF           MOV     A,R7
   \   000016   FD           MOV     R5,A
   \   000017   A9..         MOV     R1,?V0 + 2
   \   000019   85....       MOV     ?V0 + 0,?V0 + 3
   \   00001C   75..00       MOV     ?V0 + 1,#0x0
   \   00001F   7402         MOV     A,#0x2
   \   000021   78..         MOV     R0,#?V0 + 0
   \   000023   12....       LCALL   ?S_SHL
   \   000026   7409         MOV     A,#0x9
   \   000028   12....       LCALL   ?XSTACK_DISP0_8
   \   00002B   12....       LCALL   ?Subroutine55 & 0xFFFF
   \                     ??CrossCallReturnLabel_73:
   \   00002E   40E3         JC      ??AT_Cmd_ESCAN1_0
   1213            AT_PARSE_CMD_PATTERN_ERROR(":,\r",cmdUnitArr); 
   \   000030                ; Setup parameters for call to function AT_pattern_check
   \   000030   7409         MOV     A,#0x9
   \   000032   12....       LCALL   ?XSTACK_DISP0_8
   \   000035   AC82         MOV     R4,DPL
   \   000037   AD83         MOV     R5,DPH
   \   000039   7A..         MOV     R2,#`?<Constant ":,\\r">` & 0xff
   \   00003B   7B..         MOV     R3,#(`?<Constant ":,\\r">` >> 8) & 0xff
   \   00003D   12....       LCALL   ??Subroutine200_0 & 0xFFFF
   \                     ??CrossCallReturnLabel_445:
   \   000040   6005         JZ      ??AT_Cmd_ESCAN1_1
   \   000042                ; Setup parameters for call to function AT_UARTWriteErrMsg
   \                     ??AT_Cmd_ESCAN1_2:
   \   000042   12....       LCALL   ??AT_UARTWriteErrMsg?relay
   \   000045   8039         SJMP    ??AT_Cmd_ESCAN1_3
   1214          /*
   1215            zAddrType_t dstAddr; 
   1216            osal_memcpy(dstAddr.addr.extAddr,NLME_GetExtAddr(),16);
   1217            dstAddr.addrMode = (afAddrMode_t)Addr64Bit;
   1218            uint8 state;
   1219            */
   1220            /*
   1221            msg = inMsg->asdu;
   1222            scan.channels = osal_build_uint32( msg, 4 );
   1223            msg += 4;
   1224            scan.duration = *msg++;
   1225            index         = *msg;
   1226            scan.scanType = ZMAC_ACTIVE_SCAN;
   1227            scan.scanApp  = NLME_DISC_SCAN;
   1228            */
   1229            zAddrType_t dstAddr; 
   1230            dstAddr.addr.shortAddr=NLME_GetShortAddr();
   \                     ??AT_Cmd_ESCAN1_1:
   \   000047                ; Setup parameters for call to function NLME_GetShortAddr
   \   000047   12....       LCALL   ??NLME_GetShortAddr?relay
   \   00004A   12....       LCALL   ??Subroutine197_0 & 0xFFFF
   1231            dstAddr.addrMode = (afAddrMode_t)Addr16Bit;
   \                     ??CrossCallReturnLabel_420:
   \   00004D   12....       LCALL   ?XSTACK_DISP0_8
   \   000050   7402         MOV     A,#0x2
   \   000052   F0           MOVX    @DPTR,A
   1232            uint8 state;
   1233            
   1234            state = ZDP_MgmtNwkDiscReq( &dstAddr,
   1235                                      0x07FFF800,
   1236                                      BEACON_ORDER_120_MSEC,
   1237                                      0,
   1238                                      0 );
   \   000053                ; Setup parameters for call to function ZDP_MgmtNwkDiscReq
   \   000053   90....       MOV     DPTR,#__Constant_7fff800
   \   000056   12....       LCALL   ?PUSH_XSTACK8_X_FOUR
   \   000059   7D00         MOV     R5,#0x0
   \   00005B   7C00         MOV     R4,#0x0
   \   00005D   7903         MOV     R1,#0x3
   \   00005F   7404         MOV     A,#0x4
   \   000061   12....       LCALL   ?XSTACK_DISP0_8
   \   000064   AA82         MOV     R2,DPL
   \   000066   AB83         MOV     R3,DPH
   \   000068   12....       LCALL   ??ZDP_MgmtNwkDiscReq?relay
   \   00006B   7404         MOV     A,#0x4
   \   00006D   12....       LCALL   ?DEALLOC_XSTACK8
   \   000070   E9           MOV     A,R1
   1239            
   1240            if(state!=afStatus_SUCCESS) AT_ERROR(state);
   \   000071   70CF         JNZ     ??AT_Cmd_ESCAN1_2
   \   000073                ; Setup parameters for call to function AT_UARTWriteErrMsg
   1241            else AT_OK();
   \   000073                ; Setup parameters for call to function AT_HalUARTWrite
   \   000073   7C07         MOV     R4,#0x7
   \   000075   7D00         MOV     R5,#0x0
   \   000077   7A..         MOV     R2,#`?<Constant "\\r\\nOK\\r\\n">` & 0xff
   \   000079   7B..         MOV     R3,#(`?<Constant "\\r\\nOK\\r\\n">` >> 8) & 0xff
   \   00007B   7900         MOV     R1,#0x0
   \   00007D   12....       LCALL   ??AT_HalUARTWrite?relay
   \                     ??AT_Cmd_ESCAN1_3:
   \   000080   02....       LJMP    ?Subroutine13 & 0xFFFF
   1242          }

   \                                 In  segment BANKED_CODE, align 1, keep-with-next
   \                     ??Subroutine197_0:
   \   000000   85..82       MOV     DPL,?XSP + 0
   \   000003   85..83       MOV     DPH,?XSP + 1
   \   000006   EA           MOV     A,R2
   \   000007   F0           MOVX    @DPTR,A
   \   000008   A3           INC     DPTR
   \   000009   EB           MOV     A,R3
   \   00000A   F0           MOVX    @DPTR,A
   \   00000B   7408         MOV     A,#0x8
   \   00000D   22           RET

   \                                 In  segment BANKED_CODE, align 1, keep-with-next
   \                     ?Subroutine13:
   \   000000   7415         MOV     A,#0x15
   \   000002   02....       LJMP    ??Subroutine195_0 & 0xFFFF

   \                                 In  segment BANKED_CODE, align 1, keep-with-next
   \                     ?Subroutine55:
   \   000000   12....       LCALL   ?Subroutine140 & 0xFFFF
   \                     ??CrossCallReturnLabel_386:
   \   000003   9403         SUBB    A,#0x3
   \   000005   22           RET
   1243          
   1244          
   1245          
   1246          /*****************************************************
   1247          AT+ESCAN
   1248          
   1249          Response +ESCAN:  11:XX
   1250                             
   1251                            26:XX 
   1252                            OK or ERROR:<errorcode> .
   1253                            XX represents the average energy on the respective channel
   1254          *********************************************************/
   1255          void AT_Cmd_ESCANCB( NLME_EDScanConfirm_t *EDScanConfirm);

   \                                 In  segment BANKED_CODE, align 1, keep-with-next
   1256          void AT_Cmd_ESCANCB( NLME_EDScanConfirm_t *EDScanConfirm){
   \                     AT_Cmd_ESCANCB:
   \   000000   74F3         MOV     A,#-0xd
   \   000002   12....       LCALL   ?BANKED_ENTER_XDATA
   \   000005                ; Saved register size: 13
   \   000005                ; Auto size: 0
   \   000005   EA           MOV     A,R2
   \   000006   FE           MOV     R6,A
   \   000007   EB           MOV     A,R3
   \   000008   FF           MOV     R7,A
   1257            
   1258          
   1259            
   1260            AT_RESP_START();
   \   000009                ; Setup parameters for call to function AT_HalUARTWrite
   \   000009   7C02         MOV     R4,#0x2
   \   00000B   7D00         MOV     R5,#0x0
   \   00000D   7A..         MOV     R2,#`?<Constant "\\r\\n">` & 0xff
   \   00000F   7B..         MOV     R3,#(`?<Constant "\\r\\n">` >> 8) & 0xff
   \   000011   7900         MOV     R1,#0x0
   \   000013   12....       LCALL   ??AT_HalUARTWrite?relay
   1261            uint8 i;
   1262            for ( i = 0; i < ED_SCAN_MAXCHANNELS; i++ )
   \   000016   75..00       MOV     ?V0 + 4,#0x0
   1263            {
   1264               if ( ( (uint32)1 << i ) & EDScanConfirm->scannedChannels ){
   \                     ??AT_Cmd_ESCANCB_0:
   \   000019   75..01       MOV     ?V0 + 0,#0x1
   \   00001C   75..00       MOV     ?V0 + 1,#0x0
   \   00001F   75..00       MOV     ?V0 + 2,#0x0
   \   000022   75..00       MOV     ?V0 + 3,#0x0
   \   000025   E5..         MOV     A,?V0 + 4
   \   000027   78..         MOV     R0,#?V0 + 0
   \   000029   12....       LCALL   ?L_SHL
   \   00002C   8E82         MOV     DPL,R6
   \   00002E   8F83         MOV     DPH,R7
   \   000030   A3           INC     DPTR
   \   000031   78..         MOV     R0,#?V0 + 0
   \   000033   12....       LCALL   ?L_AND_X
   \   000036   E5..         MOV     A,?V0 + 0
   \   000038   45..         ORL     A,?V0 + 1
   \   00003A   45..         ORL     A,?V0 + 2
   \   00003C   45..         ORL     A,?V0 + 3
   \   00003E   6047         JZ      ??AT_Cmd_ESCANCB_1
   1265                 
   1266                 printf("%d:%02X",i,EDScanConfirm->energyDetectList[i]);
   \   000040   85..82       MOV     DPL,?V0 + 4
   \   000043   8582..       MOV     ?V0 + 0,DPL
   \   000046   75..00       MOV     ?V0 + 1,#0x0
   \   000049                ; Setup parameters for call to function printf
   \   000049   8E82         MOV     DPL,R6
   \   00004B   8F83         MOV     DPH,R7
   \   00004D   A3           INC     DPTR
   \   00004E   A3           INC     DPTR
   \   00004F   A3           INC     DPTR
   \   000050   A3           INC     DPTR
   \   000051   A3           INC     DPTR
   \   000052   E0           MOVX    A,@DPTR
   \   000053   25..         ADD     A,?V0 + 0
   \   000055   F8           MOV     R0,A
   \   000056   A3           INC     DPTR
   \   000057   E0           MOVX    A,@DPTR
   \   000058   3400         ADDC    A,#0x0
   \   00005A   8882         MOV     DPL,R0
   \   00005C   12....       LCALL   ??Subroutine203_0 & 0xFFFF
   \                     ??CrossCallReturnLabel_491:
   \   00005F   12....       LCALL   ?PUSH_XSTACK_I_TWO
   \   000062   78..         MOV     R0,#?V0 + 0
   \   000064   12....       LCALL   ?PUSH_XSTACK_I_TWO
   \   000067   7A..         MOV     R2,#`?<Constant "%d:%02X">` & 0xff
   \   000069   7B..         MOV     R3,#(`?<Constant "%d:%02X">` >> 8) & 0xff
   \   00006B   12....       LCALL   ??printf?relay
   \   00006E   7404         MOV     A,#0x4
   \   000070   12....       LCALL   ?DEALLOC_XSTACK8
   1267                 if(i<ED_SCAN_MAXCHANNELS-1) AT_NEXT_LINE();
   \   000073   E5..         MOV     A,?V0 + 4
   \   000075   C3           CLR     C
   \   000076   941A         SUBB    A,#0x1a
   \   000078   500D         JNC     ??AT_Cmd_ESCANCB_1
   \   00007A                ; Setup parameters for call to function AT_HalUARTWrite
   \   00007A   7C02         MOV     R4,#0x2
   \   00007C   7D00         MOV     R5,#0x0
   \   00007E   7A..         MOV     R2,#`?<Constant "\\n\\r">` & 0xff
   \   000080   7B..         MOV     R3,#(`?<Constant "\\n\\r">` >> 8) & 0xff
   \   000082   7900         MOV     R1,#0x0
   \   000084   12....       LCALL   ??AT_HalUARTWrite?relay
   1268               }
   1269            }
   \                     ??AT_Cmd_ESCANCB_1:
   \   000087   05..         INC     ?V0 + 4
   \   000089   E5..         MOV     A,?V0 + 4
   \   00008B   C3           CLR     C
   \   00008C   941B         SUBB    A,#0x1b
   \   00008E   4089         JC      ??AT_Cmd_ESCANCB_0
   1270            AT_RESP_END();
   \   000090                ; Setup parameters for call to function AT_HalUARTWrite
   \   000090   12....       LCALL   ?Subroutine68 & 0xFFFF
   1271            AT_OK();
   1272            NLME_NwkDiscTerm();
   \                     ??CrossCallReturnLabel_391:
   \   000093                ; Setup parameters for call to function NLME_NwkDiscTerm
   \   000093   12....       LCALL   ??NLME_NwkDiscTerm?relay
   1273            //recover the Energy scan call back funtion to ZDO layer so that ZDO can get the energy scan result
   1274            extern void ZDNwkMgr_EDScanConfirmCB( NLME_EDScanConfirm_t *EDScanConfirm );
   1275            pZDNwkMgr_EDScanConfirmCB = ZDNwkMgr_EDScanConfirmCB;
   \   000096   90....       MOV     DPTR,#pZDNwkMgr_EDScanConfirmCB
   \   000099   74..         MOV     A,#??ZDNwkMgr_EDScanConfirmCB?relay & 0xff
   \   00009B   F0           MOVX    @DPTR,A
   \   00009C   A3           INC     DPTR
   \   00009D   74..         MOV     A,#(??ZDNwkMgr_EDScanConfirmCB?relay >> 8) & 0xff
   \   00009F   F0           MOVX    @DPTR,A
   1276          }
   \   0000A0                REQUIRE ?Subroutine6
   \   0000A0                ; // Fall through to label ?Subroutine6

   \                                 In  segment BANKED_CODE, align 1, keep-with-next
   \                     ?Subroutine6:
   \   000000   7F05         MOV     R7,#0x5
   \   000002   02....       LJMP    ?BANKED_LEAVE_XDATA
   1277          

   \                                 In  segment BANKED_CODE, align 1, keep-with-next
   1278          void AT_Cmd_ESCAN(uint8 start_point, uint8* msg){
   \                     AT_Cmd_ESCAN:
   \   000000   74F7         MOV     A,#-0x9
   \   000002   12....       LCALL   ?BANKED_ENTER_XDATA
   \   000005                ; Saved register size: 9
   \   000005                ; Auto size: 11
   \   000005   74F5         MOV     A,#-0xb
   \   000007   12....       LCALL   ?ALLOC_XSTACK8
   1279            AT_CmdUnit cmdUnitArr[1];
   1280            start_point = AT_get_next_cmdUnit(&cmdUnitArr[0],start_point, msg);
   \   00000A                ; Setup parameters for call to function AT_get_next_cmdUnit
   \   00000A   EA           MOV     A,R2
   \   00000B   FC           MOV     R4,A
   \   00000C   EB           MOV     A,R3
   \   00000D   FD           MOV     R5,A
   \   00000E   7407         MOV     A,#0x7
   \   000010   12....       LCALL   ?XSTACK_DISP0_8
   \   000013   AA82         MOV     R2,DPL
   \   000015   AB83         MOV     R3,DPH
   \   000017   12....       LCALL   ??AT_get_next_cmdUnit?relay
   1281            AT_PARSE_CMD_PATTERN_ERROR("\r",cmdUnitArr);  
   \   00001A                ; Setup parameters for call to function AT_pattern_check
   \   00001A   7407         MOV     A,#0x7
   \   00001C   12....       LCALL   ?XSTACK_DISP0_8
   \   00001F   AC82         MOV     R4,DPL
   \   000021   AD83         MOV     R5,DPH
   \   000023   7A..         MOV     R2,#`?<Constant "\\r">` & 0xff
   \   000025   7B..         MOV     R3,#(`?<Constant "\\r">` >> 8) & 0xff
   \   000027   12....       LCALL   ??Subroutine200_0 & 0xFFFF
   \                     ??CrossCallReturnLabel_446:
   \   00002A   7041         JNZ     ??AT_Cmd_ESCAN_0
   \   00002C                ; Setup parameters for call to function AT_UARTWriteErrMsg
   1282          
   1283          #if ZG_BUILD_RTR_TYPE|ZG_BUILD_COORDINATOR_TYPE  
   1284            NLME_ScanFields_t fields;
   1285            fields.channels = 0x07FFF800;
   \   00002C   90....       MOV     DPTR,#__Constant_7fff800
   \   00002F   12....       LCALL   ?XLOAD_R2345
   \   000032   85..82       MOV     DPL,?XSP + 0
   \   000035   85..83       MOV     DPH,?XSP + 1
   \   000038   12....       LCALL   ?XSTORE_R2345
   1286            fields.duration = BEACON_ORDER_1_SECOND;
   \   00003B   7404         MOV     A,#0x4
   \   00003D   12....       LCALL   ?XSTACK_DISP0_8
   \   000040   7406         MOV     A,#0x6
   \   000042   F0           MOVX    @DPTR,A
   1287            fields.scanType = ZMAC_ED_SCAN;
   \   000043   14           DEC     A
   \   000044   12....       LCALL   ?XSTACK_DISP0_8
   \   000047   E4           CLR     A
   \   000048   F0           MOVX    @DPTR,A
   1288            fields.scanApp =NLME_ED_SCAN;
   \   000049   7406         MOV     A,#0x6
   \   00004B   12....       LCALL   ?XSTACK_DISP0_8
   \   00004E   E4           CLR     A
   \   00004F   F0           MOVX    @DPTR,A
   1289            uint8 status;
   1290            
   1291            //change the the call back function address of energe scan in NWK_layer. 
   1292            pZDNwkMgr_EDScanConfirmCB = AT_Cmd_ESCANCB;
   \   000050   90....       MOV     DPTR,#pZDNwkMgr_EDScanConfirmCB
   \   000053   74..         MOV     A,#??AT_Cmd_ESCANCB?relay & 0xff
   \   000055   F0           MOVX    @DPTR,A
   \   000056   A3           INC     DPTR
   \   000057   74..         MOV     A,#(??AT_Cmd_ESCANCB?relay >> 8) & 0xff
   \   000059   12....       LCALL   ?Subroutine25 & 0xFFFF
   1293            
   1294            if((status=NLME_NwkDiscReq2(&fields))==ZSuccess){
   \                     ??CrossCallReturnLabel_16:
   \   00005C   12....       LCALL   ??NLME_NwkDiscReq2?relay
   \   00005F   E9           MOV     A,R1
   \   000060   FF           MOV     R7,A
   \   000061   7005         JNZ     ??AT_Cmd_ESCAN_1
   1295              AT_OK();
   \   000063                ; Setup parameters for call to function AT_HalUARTWrite
   \   000063   12....       LCALL   ?Subroutine71 & 0xFFFF
   1296              AT_DEBUG("\n\rPlease waitting...\n\r",sizeof("\n\rPlease waitting...\n\r")-1);
   1297            }else{
   \                     ??CrossCallReturnLabel_106:
   \   000066   8008         SJMP    ??AT_Cmd_ESCAN_2
   1298              NLME_NwkDiscTerm();
   \                     ??AT_Cmd_ESCAN_1:
   \   000068                ; Setup parameters for call to function NLME_NwkDiscTerm
   \   000068   12....       LCALL   ??NLME_NwkDiscTerm?relay
   1299              AT_ERROR(status);
   \   00006B                ; Setup parameters for call to function AT_UARTWriteErrMsg
   \   00006B   EF           MOV     A,R7
   \   00006C   F9           MOV     R1,A
   \                     ??AT_Cmd_ESCAN_0:
   \   00006D   12....       LCALL   ??AT_UARTWriteErrMsg?relay
   1300            }
   \                     ??AT_Cmd_ESCAN_2:
   \   000070                REQUIRE ?Subroutine9
   \   000070                ; // Fall through to label ?Subroutine9
   1301          #else
   1302            AT_ERROR(AT_WRONG_DEV_ERROR );
   1303          #endif
   1304          }

   \                                 In  segment BANKED_CODE, align 1, keep-with-next
   \                     ?Subroutine9:
   \   000000   740B         MOV     A,#0xb
   \   000002   02....       LJMP    ??Subroutine172_0 & 0xFFFF

   \                                 In  segment BANKED_CODE, align 1, keep-with-next
   \                     ?Subroutine71:
   \   000000   7C07         MOV     R4,#0x7
   \   000002   7D00         MOV     R5,#0x0
   \   000004   7A..         MOV     R2,#`?<Constant "\\r\\nOK\\r\\n">` & 0xff
   \   000006   7B..         MOV     R3,#(`?<Constant "\\r\\nOK\\r\\n">` >> 8) & 0xff
   \   000008   7900         MOV     R1,#0x0
   \   00000A   12....       LCALL   ??AT_HalUARTWrite?relay
   \   00000D                ; Setup parameters for call to function AT_HalUARTWrite
   \   00000D                ; Setup parameters for call to function AT_HalUARTWrite
   \   00000D   7C16         MOV     R4,#0x16
   \   00000F   7D00         MOV     R5,#0x0
   \   000011   7A..         MOV     R2,#`?<Constant "\\n\\rPlease waitting...\\n\\r">` & 0xff
   \   000013   7B..         MOV     R3,#(`?<Constant "\\n\\rPlease waitting...\\n\\r">` >> 8) & 0xff
   \   000015   7900         MOV     R1,#0x0
   \   000017   12....       LCALL   ??AT_HalUARTWrite?relay
   \   00001A   22           RET
   1305          
   1306          
   1307          /*****************************************************
   1308          AT+PANSCAN
   1309          
   1310                    Response +PANSCAN:<channel>,<PANID>,<EPANID>,XX,b
   1311                    OK or ERROR:<errorcode> . 
   1312          
   1313                    <channel> represents the channel,
   1314                    <PANID> the PAN ID, 
   1315                    <EPANID> the extended PAN ID, The node gives a list of all PANs found. 
   1316                    XX the ZigBee stack profile (00 = Custom, 01 = ZigBee, 02 = ZigBee PRO) 
   1317                    b indicates whether the network is allowing additional nodes to join (1 = joining permitted).
   1318          *********************************************************/

   \                                 In  segment BANKED_CODE, align 1, keep-with-next
   1319          void AT_Cmd_PANSCAN(uint8 start_point, uint8* msg){
   \                     AT_Cmd_PANSCAN:
   \   000000   74F7         MOV     A,#-0x9
   \   000002   12....       LCALL   ?BANKED_ENTER_XDATA
   \   000005                ; Saved register size: 9
   \   000005                ; Auto size: 11
   \   000005   74F5         MOV     A,#-0xb
   \   000007   12....       LCALL   ?ALLOC_XSTACK8
   1320            AT_CmdUnit cmdUnitArr[1];
   1321            start_point = AT_get_next_cmdUnit(&cmdUnitArr[0],start_point, msg);
   \   00000A                ; Setup parameters for call to function AT_get_next_cmdUnit
   \   00000A   EA           MOV     A,R2
   \   00000B   FC           MOV     R4,A
   \   00000C   EB           MOV     A,R3
   \   00000D   FD           MOV     R5,A
   \   00000E   7407         MOV     A,#0x7
   \   000010   12....       LCALL   ?XSTACK_DISP0_8
   \   000013   AA82         MOV     R2,DPL
   \   000015   AB83         MOV     R3,DPH
   \   000017   12....       LCALL   ??AT_get_next_cmdUnit?relay
   1322            AT_PARSE_CMD_PATTERN_ERROR("\r",cmdUnitArr); 
   \   00001A                ; Setup parameters for call to function AT_pattern_check
   \   00001A   7407         MOV     A,#0x7
   \   00001C   12....       LCALL   ?XSTACK_DISP0_8
   \   00001F   AC82         MOV     R4,DPL
   \   000021   AD83         MOV     R5,DPH
   \   000023   7A..         MOV     R2,#`?<Constant "\\r">` & 0xff
   \   000025   7B..         MOV     R3,#(`?<Constant "\\r">` >> 8) & 0xff
   \   000027   12....       LCALL   ??Subroutine200_0 & 0xFFFF
   \                     ??CrossCallReturnLabel_447:
   \   00002A   6005         JZ      ??AT_Cmd_PANSCAN_0
   \   00002C                ; Setup parameters for call to function AT_UARTWriteErrMsg
   \   00002C   12....       LCALL   ??AT_UARTWriteErrMsg?relay
   \   00002F   8049         SJMP    ??AT_Cmd_PANSCAN_1
   1323            
   1324            NLME_ScanFields_t fields;
   1325            fields.channels = 0x07FFF800;
   \                     ??AT_Cmd_PANSCAN_0:
   \   000031   90....       MOV     DPTR,#__Constant_7fff800
   \   000034   12....       LCALL   ?XLOAD_R2345
   \   000037   85..82       MOV     DPL,?XSP + 0
   \   00003A   85..83       MOV     DPH,?XSP + 1
   \   00003D   12....       LCALL   ?XSTORE_R2345
   1326            fields.duration = BEACON_ORDER_480_MSEC;
   \   000040   7404         MOV     A,#0x4
   \   000042   12....       LCALL   ?XSTACK_DISP0_8
   \   000045   7405         MOV     A,#0x5
   \   000047   F0           MOVX    @DPTR,A
   1327            fields.scanType = ZMAC_ACTIVE_SCAN;
   \   000048   12....       LCALL   ?XSTACK_DISP0_8
   \   00004B   7401         MOV     A,#0x1
   \   00004D   F0           MOVX    @DPTR,A
   1328            fields.scanApp = NLME_DISC_SCAN;
   \   00004E   7406         MOV     A,#0x6
   \   000050   12....       LCALL   ?XSTACK_DISP0_8
   \   000053   7401         MOV     A,#0x1
   \   000055   F0           MOVX    @DPTR,A
   1329            uint8 status;
   1330            ZDO_RegisterForZdoCB(ZDO_NWK_DISCOVERY_CNF_CBID, AT_ZDO_ProcessNWKDISC_CB);
   \   000056                ; Setup parameters for call to function ZDO_RegisterForZdoCB
   \   000056   7A..         MOV     R2,#??AT_ZDO_ProcessNWKDISC_CB?relay & 0xff
   \   000058   7B..         MOV     R3,#(??AT_ZDO_ProcessNWKDISC_CB?relay >> 8) & 0xff
   \   00005A   7902         MOV     R1,#0x2
   \   00005C   12....       LCALL   ??ZDO_RegisterForZdoCB?relay
   1331            if((status=NLME_NwkDiscReq2(&fields))==ZSuccess){
   \   00005F                ; Setup parameters for call to function NLME_NwkDiscReq2
   \   00005F   85..82       MOV     DPL,?XSP + 0
   \   000062   85..83       MOV     DPH,?XSP + 1
   \   000065   AA82         MOV     R2,DPL
   \   000067   AB83         MOV     R3,DPH
   \   000069   12....       LCALL   ??NLME_NwkDiscReq2?relay
   \   00006C   E9           MOV     A,R1
   \   00006D   7005         JNZ     ??AT_Cmd_PANSCAN_2
   1332              AT_OK();
   \   00006F                ; Setup parameters for call to function AT_HalUARTWrite
   \   00006F   12....       LCALL   ?Subroutine71 & 0xFFFF
   1333              AT_DEBUG("\n\rPlease waitting...\n\r",sizeof("\n\rPlease waitting...\n\r")-1);
   1334            } else{
   \                     ??CrossCallReturnLabel_107:
   \   000072   8006         SJMP    ??AT_Cmd_PANSCAN_1
   1335              AT_ERROR(status);
   \                     ??AT_Cmd_PANSCAN_2:
   \   000074                ; Setup parameters for call to function AT_UARTWriteErrMsg
   \   000074   12....       LCALL   ??AT_UARTWriteErrMsg?relay
   1336              NLME_NwkDiscTerm();
   \   000077                ; Setup parameters for call to function NLME_NwkDiscTerm
   \   000077   12....       LCALL   ??NLME_NwkDiscTerm?relay
   1337            }
   \                     ??AT_Cmd_PANSCAN_1:
   \   00007A   02....       LJMP    ?Subroutine9 & 0xFFFF
   1338          }
   1339          
   1340          /************************************************************
   1341          +N C Display Network Information
   1342          Response
   1343              +N=<devicetype>,<channel>,<power>,<PANID>,<EPANID> 
   1344              or +N=NoPAN
   1345              followed by OK 
   1346          
   1347              <devicetype> represents the nodes functionality in the PAN (FFD,COO,ZED,SED,MED) 
   1348              <power> the nodes output power in dBm 
   1349              <channel> the IEEE 802.15.4 radio channel (11-26) 
   1350              <PANID> the nodes PAN ID 
   1351              <EPANID> the nodes extended PAN ID.
   1352          *********************************************************/

   \                                 In  segment BANKED_CODE, align 1, keep-with-next
   1353          void AT_Cmd_N(uint8 start_point, uint8* msg){
   \                     AT_Cmd_N:
   \   000000   74F4         MOV     A,#-0xc
   \   000002   12....       LCALL   ?BANKED_ENTER_XDATA
   \   000005                ; Saved register size: 12
   \   000005                ; Auto size: 24
   \   000005   74E8         MOV     A,#-0x18
   \   000007   12....       LCALL   ?ALLOC_XSTACK8
   1354            AT_CmdUnit cmdUnitArr[1];
   1355            start_point = AT_get_next_cmdUnit(&cmdUnitArr[0],start_point, msg);
   \   00000A                ; Setup parameters for call to function AT_get_next_cmdUnit
   \   00000A   12....       LCALL   ?Subroutine97 & 0xFFFF
   1356            AT_PARSE_CMD_PATTERN_ERROR("\r",cmdUnitArr);
   \                     ??CrossCallReturnLabel_157:
   \   00000D   6006         JZ      ??AT_Cmd_N_0
   \   00000F                ; Setup parameters for call to function AT_UARTWriteErrMsg
   \   00000F   12....       LCALL   ??AT_UARTWriteErrMsg?relay
   \   000012   02....       LJMP    ??CrossCallReturnLabel_392 & 0xFFFF
   1357            /* zAddrType_t dst;
   1358            dst.addr.shortAddr=0;
   1359            dst.addrMode =(afAddrMode_t)Addr16Bit;
   1360            ZDP_PowerDescReq(&dst,0,0);
   1361            */  
   1362            //ZDO_Config_Power_Descriptor.AvailablePowerSources = NODEAVAILPWR_RECHARGE;
   1363            //ZDO_Config_Power_Descriptor.CurrentPowerSource = NODEAVAILPWR_RECHARGE;
   1364            //ZDO_Config_Power_Descriptor.CurrentPowerSourceLevel = NODEPOWER_LEVEL_66;
   1365            //ZDConfig_UpdateNodeDescriptor();
   1366            //ZDConfig_UpdatePowerDescriptor();
   1367            // ZDO_Config_Power_Descriptor.CurrentPowerSourceLevel
   1368            char str[20];
   1369             AT_RESP_START();
   \                     ??AT_Cmd_N_0:
   \   000015                ; Setup parameters for call to function AT_HalUARTWrite
   \   000015   7C02         MOV     R4,#0x2
   \   000017   7D00         MOV     R5,#0x0
   \   000019   7A..         MOV     R2,#`?<Constant "\\r\\n">` & 0xff
   \   00001B   7B..         MOV     R3,#(`?<Constant "\\r\\n">` >> 8) & 0xff
   \   00001D   12....       LCALL   ??Subroutine190_0 & 0xFFFF
   1370             AT_RESP("=",1);
   \                     ??CrossCallReturnLabel_377:
   \   000020   7A..         MOV     R2,#`?<Constant "=">` & 0xff
   \   000022   7B..         MOV     R3,#(`?<Constant "=">` >> 8) & 0xff
   \   000024   7900         MOV     R1,#0x0
   \   000026   12....       LCALL   ??AT_HalUARTWrite?relay
   1371            switch (ZDO_Config_Node_Descriptor.LogicalType){
   \   000029   90....       MOV     DPTR,#ZDO_Config_Node_Descriptor
   \   00002C   E0           MOVX    A,@DPTR
   \   00002D   5407         ANL     A,#0x7
   \   00002F   6008         JZ      ??AT_Cmd_N_1
   \   000031   14           DEC     A
   \   000032   600F         JZ      ??AT_Cmd_N_2
   \   000034   14           DEC     A
   \   000035   6016         JZ      ??AT_Cmd_N_3
   \   000037   8021         SJMP    ??AT_Cmd_N_4
   1372            case NODETYPE_COORDINATOR:
   1373              AT_RESP("COO",3);
   \                     ??AT_Cmd_N_1:
   \   000039                ; Setup parameters for call to function AT_HalUARTWrite
   \   000039   7C03         MOV     R4,#0x3
   \   00003B   7D00         MOV     R5,#0x0
   \   00003D   7A..         MOV     R2,#`?<Constant "COO">` & 0xff
   \   00003F   7B..         MOV     R3,#(`?<Constant "COO">` >> 8) & 0xff
   \   000041   8012         SJMP    ??AT_Cmd_N_5
   1374              break;
   1375            case NODETYPE_ROUTER:
   1376              AT_RESP("ROUTER",6);
   \                     ??AT_Cmd_N_2:
   \   000043                ; Setup parameters for call to function AT_HalUARTWrite
   \   000043   7C06         MOV     R4,#0x6
   \   000045   7D00         MOV     R5,#0x0
   \   000047   7A..         MOV     R2,#`?<Constant "ROUTER">` & 0xff
   \   000049   7B..         MOV     R3,#(`?<Constant "ROUTER">` >> 8) & 0xff
   \   00004B   8008         SJMP    ??AT_Cmd_N_5
   1377              break;
   1378            case NODETYPE_DEVICE:
   1379              AT_RESP("ZED",3);
   \                     ??AT_Cmd_N_3:
   \   00004D                ; Setup parameters for call to function AT_HalUARTWrite
   \   00004D   7C03         MOV     R4,#0x3
   \   00004F   7D00         MOV     R5,#0x0
   \   000051   7A..         MOV     R2,#`?<Constant "ZED">` & 0xff
   \   000053   7B..         MOV     R3,#(`?<Constant "ZED">` >> 8) & 0xff
   \                     ??AT_Cmd_N_5:
   \   000055   7900         MOV     R1,#0x0
   \   000057   12....       LCALL   ??AT_HalUARTWrite?relay
   1380              break;
   1381            }
   1382            AT_RESP(",",1);
   \                     ??AT_Cmd_N_4:
   \   00005A                ; Setup parameters for call to function AT_HalUARTWrite
   \   00005A   7C01         MOV     R4,#0x1
   \   00005C   7D00         MOV     R5,#0x0
   \   00005E   7A..         MOV     R2,#`?<Constant ",">` & 0xff
   \   000060   7B..         MOV     R3,#(`?<Constant ",">` >> 8) & 0xff
   \   000062   7900         MOV     R1,#0x0
   \   000064   12....       LCALL   ??AT_HalUARTWrite?relay
   1383            AT_Int8toChar(_NIB.nwkLogicalChannel,str);
   \   000067                ; Setup parameters for call to function AT_Int8toChar
   \   000067   7404         MOV     A,#0x4
   \   000069   12....       LCALL   ?XSTACK_DISP0_8
   \   00006C   AA82         MOV     R2,DPL
   \   00006E   AB83         MOV     R3,DPH
   \   000070   90....       MOV     DPTR,#_NIB + 22
   \   000073   12....       LCALL   ?Subroutine51 & 0xFFFF
   1384            AT_RESP(str,2);
   \                     ??CrossCallReturnLabel_65:
   \   000076   7404         MOV     A,#0x4
   \   000078   12....       LCALL   ?XSTACK_DISP0_8
   \   00007B   12....       LCALL   ?Subroutine72 & 0xFFFF
   1385            AT_RESP(",",1);
   1386            switch (ZDO_Config_Power_Descriptor.CurrentPowerSourceLevel){
   \                     ??CrossCallReturnLabel_108:
   \   00007E   90....       MOV     DPTR,#ZDO_Config_Power_Descriptor
   \   000081   E0           MOVX    A,@DPTR
   \   000082   F5..         MOV     ?V0 + 2,A
   \   000084   A3           INC     DPTR
   \   000085   E0           MOVX    A,@DPTR
   \   000086   F5..         MOV     ?V0 + 3,A
   \   000088   740C         MOV     A,#0xc
   \   00008A   78..         MOV     R0,#?V0 + 2
   \   00008C   12....       LCALL   ?US_SHR
   \   00008F   E5..         MOV     A,?V0 + 2
   \   000091   600E         JZ      ??AT_Cmd_N_6
   \   000093   24FC         ADD     A,#-0x4
   \   000095   6014         JZ      ??AT_Cmd_N_7
   \   000097   24FC         ADD     A,#-0x4
   \   000099   601A         JZ      ??AT_Cmd_N_8
   \   00009B   24FC         ADD     A,#-0x4
   \   00009D   6020         JZ      ??AT_Cmd_N_9
   \   00009F   802B         SJMP    ??AT_Cmd_N_10
   1387            case NODEPOWER_LEVEL_CRITICAL:
   1388              AT_RESP("Critical",8);
   \                     ??AT_Cmd_N_6:
   \   0000A1                ; Setup parameters for call to function AT_HalUARTWrite
   \   0000A1   7C08         MOV     R4,#0x8
   \   0000A3   7D00         MOV     R5,#0x0
   \   0000A5   7A..         MOV     R2,#`?<Constant "Critical">` & 0xff
   \   0000A7   7B..         MOV     R3,#(`?<Constant "Critical">` >> 8) & 0xff
   \   0000A9   801C         SJMP    ??AT_Cmd_N_11
   1389              break;
   1390            case NODEPOWER_LEVEL_33:
   1391              AT_RESP("33%",3);
   \                     ??AT_Cmd_N_7:
   \   0000AB                ; Setup parameters for call to function AT_HalUARTWrite
   \   0000AB   7C03         MOV     R4,#0x3
   \   0000AD   7D00         MOV     R5,#0x0
   \   0000AF   7A..         MOV     R2,#`?<Constant "33%">` & 0xff
   \   0000B1   7B..         MOV     R3,#(`?<Constant "33%">` >> 8) & 0xff
   \   0000B3   8012         SJMP    ??AT_Cmd_N_11
   1392              break;
   1393            case NODEPOWER_LEVEL_66:
   1394              AT_RESP("66%",3);
   \                     ??AT_Cmd_N_8:
   \   0000B5                ; Setup parameters for call to function AT_HalUARTWrite
   \   0000B5   7C03         MOV     R4,#0x3
   \   0000B7   7D00         MOV     R5,#0x0
   \   0000B9   7A..         MOV     R2,#`?<Constant "66%">` & 0xff
   \   0000BB   7B..         MOV     R3,#(`?<Constant "66%">` >> 8) & 0xff
   \   0000BD   8008         SJMP    ??AT_Cmd_N_11
   1395              break;
   1396            case NODEPOWER_LEVEL_100:
   1397              AT_RESP("100%",4);
   \                     ??AT_Cmd_N_9:
   \   0000BF                ; Setup parameters for call to function AT_HalUARTWrite
   \   0000BF   7C04         MOV     R4,#0x4
   \   0000C1   7D00         MOV     R5,#0x0
   \   0000C3   7A..         MOV     R2,#`?<Constant "100%">` & 0xff
   \   0000C5   7B..         MOV     R3,#(`?<Constant "100%">` >> 8) & 0xff
   \                     ??AT_Cmd_N_11:
   \   0000C7   7900         MOV     R1,#0x0
   \   0000C9   12....       LCALL   ??AT_HalUARTWrite?relay
   1398              break;
   1399            }
   1400            AT_RESP(",",1);
   \                     ??AT_Cmd_N_10:
   \   0000CC                ; Setup parameters for call to function AT_HalUARTWrite
   \   0000CC   7C01         MOV     R4,#0x1
   \   0000CE   7D00         MOV     R5,#0x0
   \   0000D0   7A..         MOV     R2,#`?<Constant ",">` & 0xff
   \   0000D2   7B..         MOV     R3,#(`?<Constant ",">` >> 8) & 0xff
   \   0000D4   7900         MOV     R1,#0x0
   \   0000D6   12....       LCALL   ??AT_HalUARTWrite?relay
   1401            AT_Int16toChar(_NIB.nwkPanId,str);
   \   0000D9                ; Setup parameters for call to function AT_Int16toChar
   \   0000D9   7404         MOV     A,#0x4
   \   0000DB   12....       LCALL   ?XSTACK_DISP0_8
   \   0000DE   AC82         MOV     R4,DPL
   \   0000E0   AD83         MOV     R5,DPH
   \   0000E2   90....       MOV     DPTR,#_NIB + 33
   \   0000E5   E0           MOVX    A,@DPTR
   \   0000E6   FA           MOV     R2,A
   \   0000E7   A3           INC     DPTR
   \   0000E8   E0           MOVX    A,@DPTR
   \   0000E9   FB           MOV     R3,A
   \   0000EA   12....       LCALL   ??AT_Int16toChar?relay
   1402            AT_RESP(str,4);
   \   0000ED                ; Setup parameters for call to function AT_HalUARTWrite
   \   0000ED   7C04         MOV     R4,#0x4
   \   0000EF   7D00         MOV     R5,#0x0
   \   0000F1   EC           MOV     A,R4
   \   0000F2   12....       LCALL   ?XSTACK_DISP0_8
   \   0000F5   12....       LCALL   ?Subroutine72 & 0xFFFF
   1403            AT_RESP(",",1);
   1404            AT_EUI64toChar(_NIB.extendedPANID,str);
   \                     ??CrossCallReturnLabel_109:
   \   0000F8                ; Setup parameters for call to function AT_EUI64toChar
   \   0000F8   7404         MOV     A,#0x4
   \   0000FA   12....       LCALL   ?XSTACK_DISP0_8
   \   0000FD   AC82         MOV     R4,DPL
   \   0000FF   AD83         MOV     R5,DPH
   \   000101   7A..         MOV     R2,#(_NIB + 53) & 0xff
   \   000103   7B..         MOV     R3,#((_NIB + 53) >> 8) & 0xff
   \   000105   12....       LCALL   ??AT_EUI64toChar?relay
   1405            AT_RESP(str,16);
   \   000108                ; Setup parameters for call to function AT_HalUARTWrite
   \   000108   7C10         MOV     R4,#0x10
   \   00010A   7D00         MOV     R5,#0x0
   \   00010C   7404         MOV     A,#0x4
   \   00010E   12....       LCALL   ?XSTACK_DISP0_8
   \   000111   AA82         MOV     R2,DPL
   \   000113   AB83         MOV     R3,DPH
   \   000115   7900         MOV     R1,#0x0
   \   000117   12....       LCALL   ??AT_HalUARTWrite?relay
   1406            AT_RESP_END(); 
   \   00011A                ; Setup parameters for call to function AT_HalUARTWrite
   \   00011A   12....       LCALL   ?Subroutine68 & 0xFFFF
   1407            AT_OK();
   1408          }
   \                     ??CrossCallReturnLabel_392:
   \   00011D   7418         MOV     A,#0x18
   \   00011F   02....       LJMP    ??Subroutine195_0 & 0xFFFF

   \                                 In  segment BANKED_CODE, align 1, keep-with-next
   \                     ?Subroutine72:
   \   000000   12....       LCALL   ?Subroutine147 & 0xFFFF
   \                     ??CrossCallReturnLabel_375:
   \   000003   7A..         MOV     R2,#`?<Constant ",">` & 0xff
   \   000005   7B..         MOV     R3,#(`?<Constant ",">` >> 8) & 0xff
   \   000007   7900         MOV     R1,#0x0
   \   000009   12....       LCALL   ??AT_HalUARTWrite?relay
   \   00000C   22           RET

   \                                 In  segment BANKED_CODE, align 1, keep-with-next
   \                     ?Subroutine147:
   \   000000   AA82         MOV     R2,DPL
   \   000002   AB83         MOV     R3,DPH
   \   000004                REQUIRE ??Subroutine190_0
   \   000004                ; // Fall through to label ??Subroutine190_0

   \                                 In  segment BANKED_CODE, align 1, keep-with-next
   \                     ??Subroutine190_0:
   \   000000   7900         MOV     R1,#0x0
   \   000002   12....       LCALL   ??AT_HalUARTWrite?relay
   \   000005                ; Setup parameters for call to function AT_HalUARTWrite
   \   000005                ; Setup parameters for call to function AT_HalUARTWrite
   \   000005                ; Setup parameters for call to function AT_HalUARTWrite
   \   000005                ; Setup parameters for call to function AT_HalUARTWrite
   \   000005   7C01         MOV     R4,#0x1
   \   000007   7D00         MOV     R5,#0x0
   \   000009   22           RET

   \                                 In  segment BANKED_CODE, align 1, keep-with-next
   \                     ?Subroutine51:
   \   000000   12....       LCALL   ?Subroutine139 & 0xFFFF
   \                     ??CrossCallReturnLabel_272:
   \   000003   22           RET
   1409          
   1410          
   1411          

   \                                 In  segment BANKED_CODE, align 1, keep-with-next
   1412          void AT_Cmd_INITNV(uint8 start_point, uint8* msg){
   \                     AT_Cmd_INITNV:
   \   000000   74F4         MOV     A,#-0xc
   \   000002   12....       LCALL   ?BANKED_ENTER_XDATA
   \   000005                ; Saved register size: 12
   \   000005                ; Auto size: 12
   \   000005   74F4         MOV     A,#-0xc
   \   000007   12....       LCALL   ?ALLOC_XSTACK8
   \   00000A   89..         MOV     ?V0 + 0,R1
   \   00000C   EA           MOV     A,R2
   \   00000D   FE           MOV     R6,A
   \   00000E   EB           MOV     A,R3
   \   00000F   FF           MOV     R7,A
   1413             AT_CmdUnit cmdUnitArr[3];
   1414            uint8 i;
   1415            for(i=0;i<3;i++)start_point = AT_get_next_cmdUnit(&cmdUnitArr[i],start_point, msg);  
   \   000010   75..00       MOV     ?V0 + 1,#0x0
   \                     ??AT_Cmd_INITNV_0:
   \   000013                ; Setup parameters for call to function AT_get_next_cmdUnit
   \   000013   EE           MOV     A,R6
   \   000014   FC           MOV     R4,A
   \   000015   EF           MOV     A,R7
   \   000016   FD           MOV     R5,A
   \   000017   A9..         MOV     R1,?V0 + 0
   \   000019   85....       MOV     ?V0 + 2,?V0 + 1
   \   00001C   75..00       MOV     ?V0 + 3,#0x0
   \   00001F   7402         MOV     A,#0x2
   \   000021   78..         MOV     R0,#?V0 + 2
   \   000023   12....       LCALL   ?S_SHL
   \   000026   12....       LCALL   ?Subroutine100 & 0xFFFF
   \                     ??CrossCallReturnLabel_169:
   \   000029   40E8         JC      ??AT_Cmd_INITNV_0
   1416            
   1417            AT_PARSE_CMD_PATTERN_ERROR(":,\r",cmdUnitArr); 
   \   00002B                ; Setup parameters for call to function AT_pattern_check
   \   00002B   85..82       MOV     DPL,?XSP + 0
   \   00002E   85..83       MOV     DPH,?XSP + 1
   \   000031   AC82         MOV     R4,DPL
   \   000033   AD83         MOV     R5,DPH
   \   000035   7A..         MOV     R2,#`?<Constant ":,\\r">` & 0xff
   \   000037   7B..         MOV     R3,#(`?<Constant ":,\\r">` >> 8) & 0xff
   \   000039   12....       LCALL   ??Subroutine200_0 & 0xFFFF
   \                     ??CrossCallReturnLabel_448:
   \   00003C   703B         JNZ     ??AT_Cmd_INITNV_1
   \   00003E                ; Setup parameters for call to function AT_UARTWriteErrMsg
   1418            uint8 state;
   1419            uint16 id=AT_ChartoInt16(&cmdUnitArr[0]);
   \   00003E                ; Setup parameters for call to function AT_ChartoInt16
   \   00003E   85..82       MOV     DPL,?XSP + 0
   \   000041   85..83       MOV     DPH,?XSP + 1
   \   000044   12....       LCALL   ?Subroutine119 & 0xFFFF
   1420            uint16 len =AT_ChartoInt16(&cmdUnitArr[1]);
   1421            state=osal_nv_item_init( id, len, NULL );
   \                     ??CrossCallReturnLabel_215:
   \   000047                ; Setup parameters for call to function osal_nv_item_init
   \   000047   E4           CLR     A
   \   000048   F5..         MOV     ?V0 + 2,A
   \   00004A   F5..         MOV     ?V0 + 3,A
   \   00004C   78..         MOV     R0,#?V0 + 2
   \   00004E   12....       LCALL   ?PUSH_XSTACK_I_TWO
   \   000051                ; Setup parameters for call to function AT_ChartoInt16
   \   000051   7406         MOV     A,#0x6
   \   000053   12....       LCALL   ?XSTACK_DISP0_8
   \   000056   12....       LCALL   ?Subroutine126 & 0xFFFF
   \                     ??CrossCallReturnLabel_233:
   \   000059   FA           MOV     R2,A
   \   00005A   EF           MOV     A,R7
   \   00005B   FB           MOV     R3,A
   \   00005C   12....       LCALL   ??Subroutine174_0 & 0xFFFF
   \                     ??CrossCallReturnLabel_309:
   \   00005F   12....       LCALL   ?DEALLOC_XSTACK8
   \   000062   E9           MOV     A,R1
   1422            if(state==SUCCESS || state==NV_ITEM_UNINIT  ){
   \   000063   6005         JZ      ??AT_Cmd_INITNV_2
   \   000065   7409         MOV     A,#0x9
   \   000067   69           XRL     A,R1
   \   000068   700F         JNZ     ??AT_Cmd_INITNV_1
   1423              AT_OK();
   \                     ??AT_Cmd_INITNV_2:
   \   00006A                ; Setup parameters for call to function AT_HalUARTWrite
   \   00006A   7C07         MOV     R4,#0x7
   \   00006C   7D00         MOV     R5,#0x0
   \   00006E   7A..         MOV     R2,#`?<Constant "\\r\\nOK\\r\\n">` & 0xff
   \   000070   7B..         MOV     R3,#(`?<Constant "\\r\\nOK\\r\\n">` >> 8) & 0xff
   \   000072   7900         MOV     R1,#0x0
   \   000074   12....       LCALL   ??AT_HalUARTWrite?relay
   \   000077   8003         SJMP    ??AT_Cmd_INITNV_3
   1424            }
   1425            else AT_ERROR(state);
   \                     ??AT_Cmd_INITNV_1:
   \   000079                ; Setup parameters for call to function AT_UARTWriteErrMsg
   \   000079   12....       LCALL   ??AT_UARTWriteErrMsg?relay
   \                     ??AT_Cmd_INITNV_3:
   \   00007C                REQUIRE ?Subroutine14
   \   00007C                ; // Fall through to label ?Subroutine14
   1426            
   1427          }

   \                                 In  segment BANKED_CODE, align 1, keep-with-next
   \                     ?Subroutine14:
   \   000000   740C         MOV     A,#0xc
   \   000002   02....       LJMP    ??Subroutine195_0 & 0xFFFF

   \                                 In  segment BANKED_CODE, align 1, keep-with-next
   \                     ?Subroutine161:
   \   000000   AA82         MOV     R2,DPL
   \   000002   AB83         MOV     R3,DPH
   \   000004   12....       LCALL   ??AT_ChartoInt16?relay
   \   000007   8A..         MOV     ?V0 + 2,R2
   \   000009   8B..         MOV     ?V0 + 3,R3
   \   00000B   22           RET

   \                                 In  segment BANKED_CODE, align 1, keep-with-next
   \                     ?Subroutine119:
   \   000000   12....       LCALL   ?Subroutine161 & 0xFFFF
   \                     ??CrossCallReturnLabel_294:
   \   000003   AE..         MOV     R6,?V0 + 2
   \   000005   AF..         MOV     R7,?V0 + 3
   \   000007   22           RET

   \                                 In  segment BANKED_CODE, align 1, keep-with-next
   \                     ?Subroutine100:
   \   000000   85..82       MOV     DPL,?XSP + 0
   \   000003   85..83       MOV     DPH,?XSP + 1
   \   000006   12....       LCALL   ?Subroutine160 & 0xFFFF
   \                     ??CrossCallReturnLabel_545:
   \   000009   9403         SUBB    A,#0x3
   \   00000B   22           RET

   \                                 In  segment BANKED_CODE, align 1, keep-with-next
   \                     ?Subroutine126:
   \   000000   12....       LCALL   ?Subroutine162 & 0xFFFF
   \                     ??CrossCallReturnLabel_296:
   \   000003   EE           MOV     A,R6
   \   000004   22           RET

   \                                 In  segment BANKED_CODE, align 1, keep-with-next
   \                     ?Subroutine162:
   \   000000   AA82         MOV     R2,DPL
   \   000002   AB83         MOV     R3,DPH
   \   000004   12....       LCALL   ??AT_ChartoInt16?relay
   \   000007   EA           MOV     A,R2
   \   000008   FC           MOV     R4,A
   \   000009   EB           MOV     A,R3
   \   00000A   FD           MOV     R5,A
   \   00000B   22           RET

   \                                 In  segment BANKED_CODE, align 1, keep-with-next
   \                     ?Subroutine160:
   \   000000   E582         MOV     A,DPL
   \   000002   25..         ADD     A,?V0 + 2
   \   000004   FA           MOV     R2,A
   \   000005   E583         MOV     A,DPH
   \   000007   35..         ADDC    A,?V0 + 3
   \   000009   12....       LCALL   ?Subroutine170 & 0xFFFF
   \                     ??CrossCallReturnLabel_549:
   \   00000C   F5..         MOV     ?V0 + 0,A
   \   00000E   05..         INC     ?V0 + 1
   \   000010   E5..         MOV     A,?V0 + 1
   \   000012   C3           CLR     C
   \   000013   22           RET
   1428          /**************************************************************************
   1429          Set Transmit Power STP:<power level>
   1430          
   1431                <power level>: -22 to 19 db
   1432          
   1433          
   1434          *******************************************************************************/

   \                                 In  segment BANKED_CODE, align 1, keep-with-next
   1435          void AT_Cmd_STP(uint8 start_point, uint8* msg){
   \                     AT_Cmd_STP:
   \   000000   74F4         MOV     A,#-0xc
   \   000002   12....       LCALL   ?BANKED_ENTER_XDATA
   \   000005                ; Saved register size: 12
   \   000005                ; Auto size: 8
   \   000005   74F8         MOV     A,#-0x8
   \   000007   12....       LCALL   ?ALLOC_XSTACK8
   \   00000A   89..         MOV     ?V0 + 2,R1
   \   00000C   EA           MOV     A,R2
   \   00000D   FE           MOV     R6,A
   \   00000E   EB           MOV     A,R3
   \   00000F   FF           MOV     R7,A
   1436            AT_CmdUnit cmdUnitArr[2];
   1437            uint8 i;
   1438            for(i=0;i<2;i++)start_point = AT_get_next_cmdUnit(&cmdUnitArr[i],start_point, msg);  
   \   000010   75..00       MOV     ?V0 + 3,#0x0
   \                     ??AT_Cmd_STP_0:
   \   000013                ; Setup parameters for call to function AT_get_next_cmdUnit
   \   000013   EE           MOV     A,R6
   \   000014   FC           MOV     R4,A
   \   000015   EF           MOV     A,R7
   \   000016   FD           MOV     R5,A
   \   000017   A9..         MOV     R1,?V0 + 2
   \   000019   85....       MOV     ?V0 + 0,?V0 + 3
   \   00001C   75..00       MOV     ?V0 + 1,#0x0
   \   00001F   7402         MOV     A,#0x2
   \   000021   78..         MOV     R0,#?V0 + 0
   \   000023   12....       LCALL   ?S_SHL
   \   000026   12....       LCALL   ?Subroutine56 & 0xFFFF
   \                     ??CrossCallReturnLabel_379:
   \   000029   40E8         JC      ??AT_Cmd_STP_0
   1439            AT_PARSE_CMD_PATTERN_ERROR(":\r",cmdUnitArr); 
   \   00002B                ; Setup parameters for call to function AT_pattern_check
   \   00002B   12....       LCALL   ?Subroutine108 & 0xFFFF
   \                     ??CrossCallReturnLabel_424:
   \   00002E   7022         JNZ     ??AT_Cmd_STP_1
   \   000030                ; Setup parameters for call to function AT_UARTWriteErrMsg
   1440            int8 level= (int8) AT_ChartoInt8(&cmdUnitArr[0]);
   1441            uint8 state;
   1442            if((state=ZMacSetTransmitPower((ZMacTransmitPower_t) level))==ZMacSuccess){
   \   000030                ; Setup parameters for call to function ZMacSetTransmitPower
   \   000030                ; Setup parameters for call to function AT_ChartoInt8
   \   000030   85..82       MOV     DPL,?XSP + 0
   \   000033   85..83       MOV     DPH,?XSP + 1
   \   000036   AA82         MOV     R2,DPL
   \   000038   AB83         MOV     R3,DPH
   \   00003A   12....       LCALL   ??AT_ChartoInt8?relay
   \   00003D   12....       LCALL   ??ZMacSetTransmitPower?relay
   \   000040   E9           MOV     A,R1
   \   000041   700F         JNZ     ??AT_Cmd_STP_1
   1443              AT_OK();
   \   000043                ; Setup parameters for call to function AT_HalUARTWrite
   \   000043   7C07         MOV     R4,#0x7
   \   000045   7D00         MOV     R5,#0x0
   \   000047   7A..         MOV     R2,#`?<Constant "\\r\\nOK\\r\\n">` & 0xff
   \   000049   7B..         MOV     R3,#(`?<Constant "\\r\\nOK\\r\\n">` >> 8) & 0xff
   \   00004B   7900         MOV     R1,#0x0
   \   00004D   12....       LCALL   ??AT_HalUARTWrite?relay
   \   000050   8003         SJMP    ??AT_Cmd_STP_2
   1444            }else{
   1445              AT_ERROR(state);
   \                     ??AT_Cmd_STP_1:
   \   000052                ; Setup parameters for call to function AT_UARTWriteErrMsg
   \   000052   12....       LCALL   ??AT_UARTWriteErrMsg?relay
   1446            }
   \                     ??AT_Cmd_STP_2:
   \   000055   02....       LJMP    ?Subroutine12 & 0xFFFF
   1447          }
   1448          /**************************************************************************
   1449          Set Transmit Power
   1450          
   1451                <power level>: -22 to 19 db
   1452          
   1453          
   1454          *******************************************************************************/

   \                                 In  segment BANKED_CODE, align 1, keep-with-next
   1455          void AT_Cmd_GTP(uint8 start_point, uint8* msg){
   \                     AT_Cmd_GTP:
   \   000000   74F4         MOV     A,#-0xc
   \   000002   12....       LCALL   ?BANKED_ENTER_XDATA
   \   000005                ; Saved register size: 12
   \   000005                ; Auto size: 5
   \   000005   74FB         MOV     A,#-0x5
   \   000007   12....       LCALL   ?ALLOC_XSTACK8
   1456            AT_CmdUnit cmdUnitArr[1];
   1457            uint8 i;
   1458            for(i=0;i<1;i++)start_point = AT_get_next_cmdUnit(&cmdUnitArr[i],start_point, msg); 
   \   00000A                ; Setup parameters for call to function AT_get_next_cmdUnit
   \   00000A   EA           MOV     A,R2
   \   00000B   FC           MOV     R4,A
   \   00000C   EB           MOV     A,R3
   \   00000D   FD           MOV     R5,A
   \   00000E   7401         MOV     A,#0x1
   \   000010   12....       LCALL   ?XSTACK_DISP0_8
   \   000013   AA82         MOV     R2,DPL
   \   000015   AB83         MOV     R3,DPH
   \   000017   12....       LCALL   ?Subroutine105 & 0xFFFF
   1459            
   1460            int8 level;
   1461            uint8 state;
   1462            if((state=MAC_MlmeGetReq(MAC_PHY_TRANSMIT_POWER_SIGNED,&level))==ZMacSuccess){
   \                     ??CrossCallReturnLabel_180:
   \   00001A   AA82         MOV     R2,DPL
   \   00001C   AB83         MOV     R3,DPH
   \   00001E   79E5         MOV     R1,#-0x1b
   \   000020   12....       LCALL   ??MAC_MlmeGetReq?relay
   \   000023   E9           MOV     A,R1
   \   000024   7031         JNZ     ??AT_Cmd_GTP_0
   1463              AT_RESP_START();
   \   000026                ; Setup parameters for call to function AT_HalUARTWrite
   \   000026   7C02         MOV     R4,#0x2
   \   000028   7D00         MOV     R5,#0x0
   \   00002A   7A..         MOV     R2,#`?<Constant "\\r\\n">` & 0xff
   \   00002C   7B..         MOV     R3,#(`?<Constant "\\r\\n">` >> 8) & 0xff
   \   00002E   7900         MOV     R1,#0x0
   \   000030   12....       LCALL   ??AT_HalUARTWrite?relay
   1464              printf("GTP:%02d",level);
   \   000033                ; Setup parameters for call to function printf
   \   000033   85..82       MOV     DPL,?XSP + 0
   \   000036   85..83       MOV     DPH,?XSP + 1
   \   000039   E0           MOVX    A,@DPTR
   \   00003A   F5..         MOV     ?V0 + 2,A
   \   00003C   33           RLC     A
   \   00003D   95E0         SUBB    A,0xE0 /* A   */
   \   00003F   F5..         MOV     ?V0 + 3,A
   \   000041   78..         MOV     R0,#?V0 + 2
   \   000043   12....       LCALL   ?PUSH_XSTACK_I_TWO
   \   000046   7A..         MOV     R2,#`?<Constant "GTP:%02d">` & 0xff
   \   000048   7B..         MOV     R3,#(`?<Constant "GTP:%02d">` >> 8) & 0xff
   \   00004A   12....       LCALL   ??printf?relay
   \   00004D   7402         MOV     A,#0x2
   \   00004F   12....       LCALL   ?DEALLOC_XSTACK8
   1465              AT_RESP_END();
   \   000052                ; Setup parameters for call to function AT_HalUARTWrite
   \   000052   12....       LCALL   ?Subroutine68 & 0xFFFF
   1466              AT_OK();
   1467            }else{
   \                     ??CrossCallReturnLabel_393:
   \   000055   8003         SJMP    ??AT_Cmd_GTP_1
   1468              AT_ERROR(state);
   \                     ??AT_Cmd_GTP_0:
   \   000057                ; Setup parameters for call to function AT_UARTWriteErrMsg
   \   000057   12....       LCALL   ??AT_UARTWriteErrMsg?relay
   1469            }
   1470          }
   \                     ??AT_Cmd_GTP_1:
   \   00005A   7405         MOV     A,#0x5
   \   00005C   02....       LJMP    ??Subroutine195_0 & 0xFFFF

   \                                 In  segment BANKED_CODE, align 1, keep-with-next
   \                     ?Subroutine105:
   \   000000   12....       LCALL   ?Subroutine164 & 0xFFFF
   \                     ??CrossCallReturnLabel_300:
   \   000003   22           RET
   1471          /***********************************************************************************
   1472              RSSI request RSSIREQ:<address>
   1473                    //16 bits node id
   1474          ************************************************************************************/

   \                                 In  segment BANKED_CODE, align 1, keep-with-next
   1475          void AT_Cmd_RSSIREQ(uint8 start_point, uint8* msg){
   \                     AT_Cmd_RSSIREQ:
   \   000000   74F4         MOV     A,#-0xc
   \   000002   12....       LCALL   ?BANKED_ENTER_XDATA
   \   000005                ; Saved register size: 12
   \   000005                ; Auto size: 10
   \   000005   74F6         MOV     A,#-0xa
   \   000007   12....       LCALL   ?ALLOC_XSTACK8
   \   00000A   89..         MOV     ?V0 + 2,R1
   \   00000C   EA           MOV     A,R2
   \   00000D   FE           MOV     R6,A
   \   00000E   EB           MOV     A,R3
   \   00000F   FF           MOV     R7,A
   1476            AT_CmdUnit cmdUnitArr[2];
   1477            uint8 i;
   1478            for(i=0;i<2;i++)start_point = AT_get_next_cmdUnit(&cmdUnitArr[i],start_point, msg);  
   \   000010   75..00       MOV     ?V0 + 3,#0x0
   \                     ??AT_Cmd_RSSIREQ_0:
   \   000013                ; Setup parameters for call to function AT_get_next_cmdUnit
   \   000013   EE           MOV     A,R6
   \   000014   FC           MOV     R4,A
   \   000015   EF           MOV     A,R7
   \   000016   FD           MOV     R5,A
   \   000017   A9..         MOV     R1,?V0 + 2
   \   000019   85....       MOV     ?V0 + 0,?V0 + 3
   \   00001C   75..00       MOV     ?V0 + 1,#0x0
   \   00001F   7402         MOV     A,#0x2
   \   000021   78..         MOV     R0,#?V0 + 0
   \   000023   12....       LCALL   ?S_SHL
   \   000026   7402         MOV     A,#0x2
   \   000028   12....       LCALL   ?XSTACK_DISP0_8
   \   00002B   12....       LCALL   ??Subroutine191_0 & 0xFFFF
   \                     ??CrossCallReturnLabel_383:
   \   00002E   40E3         JC      ??AT_Cmd_RSSIREQ_0
   1479            AT_PARSE_CMD_PATTERN_ERROR(":\r",cmdUnitArr); 
   \   000030                ; Setup parameters for call to function AT_pattern_check
   \   000030   7402         MOV     A,#0x2
   \   000032   12....       LCALL   ?XSTACK_DISP0_8
   \   000035   12....       LCALL   ??Subroutine198_0 & 0xFFFF
   \                     ??CrossCallReturnLabel_432:
   \   000038   7036         JNZ     ??AT_Cmd_RSSIREQ_1
   \   00003A                ; Setup parameters for call to function AT_UARTWriteErrMsg
   1480            int16 addr=  AT_ChartoInt16(&cmdUnitArr[0]);
   \   00003A                ; Setup parameters for call to function AT_ChartoInt16
   \   00003A   7402         MOV     A,#0x2
   \   00003C   12....       LCALL   ?XSTACK_DISP0_8
   \   00003F   AA82         MOV     R2,DPL
   \   000041   AB83         MOV     R3,DPH
   \   000043   12....       LCALL   ??AT_ChartoInt16?relay
   1481            uint8 state;
   1482            AT_AF_hdr buf;
   1483            buf.cmd =AT_AT_PSE_RSSI_req;
   \   000046   85..82       MOV     DPL,?XSP + 0
   \   000049   85..83       MOV     DPH,?XSP + 1
   \   00004C   7401         MOV     A,#0x1
   \   00004E   12....       LCALL   ?Subroutine26 & 0xFFFF
   1484            if((state=AT_AF_Cmd_send_simple(addr,AT_AF_POWER_SVING_EXP_CLUSTERID,sizeof(buf), &buf))==ZSuccess){
   \                     ??CrossCallReturnLabel_18:
   \   000051   12....       LCALL   ?PUSH_XSTACK_I_TWO
   \   000054   7902         MOV     R1,#0x2
   \   000056   7C06         MOV     R4,#0x6
   \   000058   12....       LCALL   ?Subroutine129 & 0xFFFF
   \                     ??CrossCallReturnLabel_337:
   \   00005B   12....       LCALL   ?DEALLOC_XSTACK8
   \   00005E   E9           MOV     A,R1
   \   00005F   700F         JNZ     ??AT_Cmd_RSSIREQ_1
   1485              AT_OK();
   \   000061                ; Setup parameters for call to function AT_HalUARTWrite
   \   000061   7C07         MOV     R4,#0x7
   \   000063   7D00         MOV     R5,#0x0
   \   000065   7A..         MOV     R2,#`?<Constant "\\r\\nOK\\r\\n">` & 0xff
   \   000067   7B..         MOV     R3,#(`?<Constant "\\r\\nOK\\r\\n">` >> 8) & 0xff
   \   000069   7900         MOV     R1,#0x0
   \   00006B   12....       LCALL   ??AT_HalUARTWrite?relay
   \   00006E   8003         SJMP    ??AT_Cmd_RSSIREQ_2
   1486            }else{
   1487              AT_ERROR(state);
   \                     ??AT_Cmd_RSSIREQ_1:
   \   000070                ; Setup parameters for call to function AT_UARTWriteErrMsg
   \   000070   12....       LCALL   ??AT_UARTWriteErrMsg?relay
   1488            }
   \                     ??AT_Cmd_RSSIREQ_2:
   \   000073   02....       LJMP    ?Subroutine11 & 0xFFFF
   1489          }
   1490          
   1491          /****************************************************************************
   1492          Power Saving Experiment PSEXP:<address><count><interval>
   1493                address: network address
   1494                count:  uint16 type data
   1495                interval: uint16 type data, time unit: millisecond
   1496          *************************************************************************************/

   \                                 In  segment BANKED_CODE, align 1, keep-with-next
   1497          void AT_Cmd_PSEXP(uint8 start_point, uint8* msg){
   \                     AT_Cmd_PSEXP:
   \   000000   74F0         MOV     A,#-0x10
   \   000002   12....       LCALL   ?BANKED_ENTER_XDATA
   \   000005                ; Saved register size: 16
   \   000005                ; Auto size: 28
   \   000005   74E4         MOV     A,#-0x1c
   \   000007   12....       LCALL   ?ALLOC_XSTACK8
   \   00000A   89..         MOV     ?V0 + 4,R1
   \   00000C   EA           MOV     A,R2
   \   00000D   FE           MOV     R6,A
   \   00000E   EB           MOV     A,R3
   \   00000F   FF           MOV     R7,A
   1498            AT_CmdUnit cmdUnitArr[4];
   1499            uint8 i;
   1500            for(i=0;i<4;i++)start_point = AT_get_next_cmdUnit(&cmdUnitArr[i],start_point, msg);  
   \   000010   75..00       MOV     ?V0 + 2,#0x0
   \                     ??AT_Cmd_PSEXP_0:
   \   000013                ; Setup parameters for call to function AT_get_next_cmdUnit
   \   000013   EE           MOV     A,R6
   \   000014   FC           MOV     R4,A
   \   000015   EF           MOV     A,R7
   \   000016   FD           MOV     R5,A
   \   000017   A9..         MOV     R1,?V0 + 4
   \   000019   85....       MOV     ?V0 + 0,?V0 + 2
   \   00001C   75..00       MOV     ?V0 + 1,#0x0
   \   00001F   7402         MOV     A,#0x2
   \   000021   78..         MOV     R0,#?V0 + 0
   \   000023   12....       LCALL   ?S_SHL
   \   000026   740C         MOV     A,#0xc
   \   000028   12....       LCALL   ?XSTACK_DISP0_8
   \   00002B   12....       LCALL   ?Subroutine59 & 0xFFFF
   \                     ??CrossCallReturnLabel_86:
   \   00002E   40E3         JC      ??AT_Cmd_PSEXP_0
   1501            AT_PARSE_CMD_PATTERN_ERROR(":,,\r",cmdUnitArr); 
   \   000030                ; Setup parameters for call to function AT_pattern_check
   \   000030   740C         MOV     A,#0xc
   \   000032   12....       LCALL   ?XSTACK_DISP0_8
   \   000035   AC82         MOV     R4,DPL
   \   000037   AD83         MOV     R5,DPH
   \   000039   7A..         MOV     R2,#`?<Constant ":,,\\r">` & 0xff
   \   00003B   7B..         MOV     R3,#(`?<Constant ":,,\\r">` >> 8) & 0xff
   \   00003D   12....       LCALL   ??Subroutine200_0 & 0xFFFF
   \                     ??CrossCallReturnLabel_449:
   \   000040   6003         JZ      $+5
   \   000042   02....       LJMP    ??AT_Cmd_PSEXP_1 & 0xFFFF
   \   000045                ; Setup parameters for call to function AT_UARTWriteErrMsg
   1502            
   1503            int16 addr=  AT_ChartoInt16(&cmdUnitArr[0]);
   \   000045                ; Setup parameters for call to function AT_ChartoInt16
   \   000045   740C         MOV     A,#0xc
   \   000047   12....       LCALL   ?XSTACK_DISP0_8
   \   00004A   AA82         MOV     R2,DPL
   \   00004C   AB83         MOV     R3,DPH
   \   00004E   12....       LCALL   ??AT_ChartoInt16?relay
   \   000051   8A..         MOV     ?V0 + 0,R2
   \   000053   8B..         MOV     ?V0 + 1,R3
   1504            int16 count= AT_ChartoInt16(&cmdUnitArr[1]);
   \   000055                ; Setup parameters for call to function AT_ChartoInt16
   \   000055   7410         MOV     A,#0x10
   \   000057   12....       LCALL   ?XSTACK_DISP0_8
   \   00005A   12....       LCALL   ?Subroutine124 & 0xFFFF
   1505            int16 interval= AT_ChartoInt16(&cmdUnitArr[2]);
   \                     ??CrossCallReturnLabel_226:
   \   00005D                ; Setup parameters for call to function AT_ChartoInt16
   \   00005D   7414         MOV     A,#0x14
   \   00005F   12....       LCALL   ?XSTACK_DISP0_8
   \   000062   AA82         MOV     R2,DPL
   \   000064   AB83         MOV     R3,DPH
   \   000066   12....       LCALL   ??AT_ChartoInt16?relay
   \   000069   8A..         MOV     ?V0 + 6,R2
   \   00006B   8B..         MOV     ?V0 + 7,R3
   \   00006D   AE..         MOV     R6,?V0 + 6
   \   00006F   AF..         MOV     R7,?V0 + 7
   1506            
   1507            uint8 state;
   1508            AT_AF_Cmd_POWER_SAVING_EXP_t buf;
   1509            buf.hdr.cmd =AT_AT_PSE_EXP_req;
   \   000071   85..82       MOV     DPL,?XSP + 0
   \   000074   85..83       MOV     DPH,?XSP + 1
   \   000077   7402         MOV     A,#0x2
   \   000079   F0           MOVX    @DPTR,A
   1510            buf.hdr.info =AT_AF_PSE_info_pre;
   \   00007A   14           DEC     A
   \   00007B   12....       LCALL   ?XSTACK_DISP0_8
   \   00007E   7401         MOV     A,#0x1
   \   000080   F0           MOVX    @DPTR,A
   1511            buf.count=count;
   \   000081   04           INC     A
   \   000082   12....       LCALL   ?XSTACK_DISP0_8
   \   000085   E5..         MOV     A,?V0 + 2
   \   000087   F0           MOVX    @DPTR,A
   \   000088   A3           INC     DPTR
   \   000089   E5..         MOV     A,?V0 + 3
   \   00008B   F0           MOVX    @DPTR,A
   1512            buf.interval=interval;
   \   00008C   7404         MOV     A,#0x4
   \   00008E   12....       LCALL   ?XSTACK_DISP0_8
   \   000091   EE           MOV     A,R6
   \   000092   F0           MOVX    @DPTR,A
   \   000093   A3           INC     DPTR
   \   000094   EF           MOV     A,R7
   \   000095   12....       LCALL   ?Subroutine134 & 0xFFFF
   1513            if((state=AT_AF_Cmd_send_simple(addr,AT_AF_POWER_SVING_EXP_CLUSTERID,sizeof(buf), &buf))==ZSuccess){
   \                     ??CrossCallReturnLabel_260:
   \   000098   8582..       MOV     ?V0 + 6,DPL
   \   00009B   8583..       MOV     ?V0 + 7,DPH
   \   00009E   78..         MOV     R0,#?V0 + 6
   \   0000A0   12....       LCALL   ?PUSH_XSTACK_I_TWO
   \   0000A3   7906         MOV     R1,#0x6
   \   0000A5   7C06         MOV     R4,#0x6
   \   0000A7   7D00         MOV     R5,#0x0
   \   0000A9   AA..         MOV     R2,?V0 + 0
   \   0000AB   AB..         MOV     R3,?V0 + 1
   \   0000AD   12....       LCALL   ??Subroutine182_0 & 0xFFFF
   \                     ??CrossCallReturnLabel_339:
   \   0000B0   12....       LCALL   ?DEALLOC_XSTACK8
   \   0000B3   E9           MOV     A,R1
   \   0000B4   7040         JNZ     ??AT_Cmd_PSEXP_1
   1514              
   1515              AT_App_Cmd_POWER_SAVING_EXP_t pseBuf;
   1516              pseBuf.nwkAddr =addr;
   \   0000B6   7406         MOV     A,#0x6
   \   0000B8   12....       LCALL   ?XSTACK_DISP0_8
   \   0000BB   E5..         MOV     A,?V0 + 0
   \   0000BD   F0           MOVX    @DPTR,A
   \   0000BE   A3           INC     DPTR
   \   0000BF   E5..         MOV     A,?V0 + 1
   \   0000C1   F0           MOVX    @DPTR,A
   1517              pseBuf.count = count;
   \   0000C2   7408         MOV     A,#0x8
   \   0000C4   12....       LCALL   ?XSTACK_DISP0_8
   \   0000C7   E5..         MOV     A,?V0 + 2
   \   0000C9   F0           MOVX    @DPTR,A
   \   0000CA   A3           INC     DPTR
   \   0000CB   E5..         MOV     A,?V0 + 3
   \   0000CD   F0           MOVX    @DPTR,A
   1518              pseBuf.interval=interval;
   \   0000CE   740A         MOV     A,#0xa
   \   0000D0   12....       LCALL   ?XSTACK_DISP0_8
   \   0000D3   EE           MOV     A,R6
   \   0000D4   F0           MOVX    @DPTR,A
   \   0000D5   A3           INC     DPTR
   \   0000D6   EF           MOV     A,R7
   \   0000D7   F0           MOVX    @DPTR,A
   1519              
   1520              if((state=AT_App_Power_saving_exp(&pseBuf))==AT_NO_ERROR){
   \   0000D8                ; Setup parameters for call to function AT_App_Power_saving_exp
   \   0000D8   7406         MOV     A,#0x6
   \   0000DA   12....       LCALL   ?XSTACK_DISP0_8
   \   0000DD   AA82         MOV     R2,DPL
   \   0000DF   AB83         MOV     R3,DPH
   \   0000E1   12....       LCALL   ??AT_App_Power_saving_exp?relay
   \   0000E4   E9           MOV     A,R1
   \   0000E5   700F         JNZ     ??AT_Cmd_PSEXP_1
   1521                AT_OK();
   \   0000E7                ; Setup parameters for call to function AT_HalUARTWrite
   \   0000E7   7C07         MOV     R4,#0x7
   \   0000E9   7D00         MOV     R5,#0x0
   \   0000EB   7A..         MOV     R2,#`?<Constant "\\r\\nOK\\r\\n">` & 0xff
   \   0000ED   7B..         MOV     R3,#(`?<Constant "\\r\\nOK\\r\\n">` >> 8) & 0xff
   \   0000EF   7900         MOV     R1,#0x0
   \   0000F1   12....       LCALL   ??AT_HalUARTWrite?relay
   \   0000F4   8003         SJMP    ??AT_Cmd_PSEXP_2
   1522              }else{
   1523                AT_ERROR(state);
   1524              }
   1525            }else{
   1526              AT_ERROR(state);
   \                     ??AT_Cmd_PSEXP_1:
   \   0000F6                ; Setup parameters for call to function AT_UARTWriteErrMsg
   \   0000F6   12....       LCALL   ??AT_UARTWriteErrMsg?relay
   \                     ??AT_Cmd_PSEXP_2:
   \   0000F9   741C         MOV     A,#0x1c
   1527            }
   \   0000FB                REQUIRE ?Subroutine7
   \   0000FB                ; // Fall through to label ?Subroutine7
   1528          }

   \                                 In  segment BANKED_CODE, align 1, keep-with-next
   \                     ?Subroutine7:
   \   000000   12....       LCALL   ?DEALLOC_XSTACK8
   \   000003   7F08         MOV     R7,#0x8
   \   000005   02....       LJMP    ?BANKED_LEAVE_XDATA

   \                                 In  segment BANKED_CODE, align 1, keep-with-next
   \                     ?Subroutine124:
   \   000000   12....       LCALL   ?Subroutine161 & 0xFFFF
   \                     ??CrossCallReturnLabel_293:
   \   000003   22           RET

   \                                 In  segment BANKED_CODE, align 1, keep-with-next
   \                     ?Subroutine59:
   \   000000   12....       LCALL   ?Subroutine144 & 0xFFFF
   \                     ??CrossCallReturnLabel_278:
   \   000003   12....       LCALL   ??Subroutine204_0 & 0xFFFF
   \                     ??CrossCallReturnLabel_550:
   \   000006   F5..         MOV     ?V0 + 4,A
   \   000008   05..         INC     ?V0 + 2
   \   00000A   E5..         MOV     A,?V0 + 2
   \   00000C   C3           CLR     C
   \   00000D   9404         SUBB    A,#0x4
   \   00000F   22           RET
   1529          
   1530          
   1531          /****************************************************************************
   1532          Stop Power Saving Experiment
   1533          *************************************************************************************/

   \                                 In  segment BANKED_CODE, align 1, keep-with-next
   1534          void AT_Cmd_SPSEXP(uint8 start_point, uint8* msg){
   \                     AT_Cmd_SPSEXP:
   \   000000   74F7         MOV     A,#-0x9
   \   000002   12....       LCALL   ?BANKED_ENTER_XDATA
   \   000005                ; Saved register size: 9
   \   000005                ; Auto size: 4
   \   000005   74FC         MOV     A,#-0x4
   \   000007   12....       LCALL   ?ALLOC_XSTACK8
   1535            AT_CmdUnit cmdUnitArr[1];
   1536            uint8 i;
   1537            for(i=0;i<1;i++)start_point = AT_get_next_cmdUnit(&cmdUnitArr[i],start_point, msg); 
   \   00000A                ; Setup parameters for call to function AT_get_next_cmdUnit
   \   00000A   12....       LCALL   ?Subroutine97 & 0xFFFF
   1538            AT_PARSE_CMD_PATTERN_ERROR("\r",cmdUnitArr); 
   \                     ??CrossCallReturnLabel_158:
   \   00000D   6005         JZ      ??AT_Cmd_SPSEXP_0
   \   00000F                ; Setup parameters for call to function AT_UARTWriteErrMsg
   \   00000F   12....       LCALL   ??AT_UARTWriteErrMsg?relay
   \   000012   8010         SJMP    ??AT_Cmd_SPSEXP_1
   1539            AT_App_Power_saving_exp_stop();
   \                     ??AT_Cmd_SPSEXP_0:
   \   000014                ; Setup parameters for call to function AT_App_Power_saving_exp_stop
   \   000014   12....       LCALL   ??AT_App_Power_saving_exp_stop?relay
   1540            AT_OK();
   \   000017                ; Setup parameters for call to function AT_HalUARTWrite
   \   000017   7C07         MOV     R4,#0x7
   \   000019   7D00         MOV     R5,#0x0
   \   00001B   7A..         MOV     R2,#`?<Constant "\\r\\nOK\\r\\n">` & 0xff
   \   00001D   7B..         MOV     R3,#(`?<Constant "\\r\\nOK\\r\\n">` >> 8) & 0xff
   \   00001F   7900         MOV     R1,#0x0
   \   000021   12....       LCALL   ??AT_HalUARTWrite?relay
   1541          }
   \                     ??AT_Cmd_SPSEXP_1:
   \   000024   02....       LJMP    ?Subroutine0 & 0xFFFF
   1542          
   1543          /****************************************************************************
   1544          execute command on remote device 
   1545            R:<address>|<AT command>
   1546          *************************************************************************************/

   \                                 In  segment BANKED_CODE, align 1, keep-with-next
   1547          void AT_Cmd_R(uint8 start_point, uint8* msg){
   \                     AT_Cmd_R:
   \   000000   74F4         MOV     A,#-0xc
   \   000002   12....       LCALL   ?BANKED_ENTER_XDATA
   \   000005                ; Saved register size: 12
   \   000005                ; Auto size: 12
   \   000005   74F4         MOV     A,#-0xc
   \   000007   12....       LCALL   ?ALLOC_XSTACK8
   \   00000A   89..         MOV     ?V0 + 0,R1
   \   00000C   EA           MOV     A,R2
   \   00000D   FE           MOV     R6,A
   \   00000E   EB           MOV     A,R3
   \   00000F   FF           MOV     R7,A
   1548            AT_CmdUnit cmdUnitArr[3];
   1549            uint8 i;
   1550            for(i=0;i<3;i++)start_point = AT_get_next_cmdUnit(&cmdUnitArr[i],start_point, msg); 
   \   000010   75..00       MOV     ?V0 + 1,#0x0
   \                     ??AT_Cmd_R_0:
   \   000013                ; Setup parameters for call to function AT_get_next_cmdUnit
   \   000013   EE           MOV     A,R6
   \   000014   FC           MOV     R4,A
   \   000015   EF           MOV     A,R7
   \   000016   FD           MOV     R5,A
   \   000017   A9..         MOV     R1,?V0 + 0
   \   000019   85....       MOV     ?V0 + 2,?V0 + 1
   \   00001C   75..00       MOV     ?V0 + 3,#0x0
   \   00001F   7402         MOV     A,#0x2
   \   000021   78..         MOV     R0,#?V0 + 2
   \   000023   12....       LCALL   ?S_SHL
   \   000026   12....       LCALL   ?Subroutine100 & 0xFFFF
   \                     ??CrossCallReturnLabel_170:
   \   000029   40E8         JC      ??AT_Cmd_R_0
   1551            uint8 sendmode;
   1552            uint8 *pCmd;
   1553           #if AT_CMD_PATTERN_CHECK
   1554            //built check pattern
   1555            if(cmdUnitArr[0].symbol!=':')  AT_ERROR(AT_OPERATOR_ERROR);
   \   00002B   85..82       MOV     DPL,?XSP + 0
   \   00002E   85..83       MOV     DPH,?XSP + 1
   \   000031   E0           MOVX    A,@DPTR
   \   000032   643A         XRL     A,#0x3a
   \   000034   6005         JZ      ??AT_Cmd_R_1
   \   000036                ; Setup parameters for call to function AT_UARTWriteErrMsg
   \   000036   7911         MOV     R1,#0x11
   \   000038   12....       LCALL   ??AT_UARTWriteErrMsg?relay
   1556            
   1557            if(cmdUnitArr[1].symbol==',' && cmdUnitArr[2].symbol=='|') {
   \                     ??AT_Cmd_R_1:
   \   00003B   7404         MOV     A,#0x4
   \   00003D   12....       LCALL   ?XSTACK_DISP0_8
   \   000040   E0           MOVX    A,@DPTR
   \   000041   642C         XRL     A,#0x2c
   \   000043   703F         JNZ     ??AT_Cmd_R_2
   \   000045   7408         MOV     A,#0x8
   \   000047   12....       LCALL   ?XSTACK_DISP0_8
   \   00004A   E0           MOVX    A,@DPTR
   \   00004B   647C         XRL     A,#0x7c
   \   00004D   704A         JNZ     ??AT_Cmd_R_3
   1558              sendmode=AT_ChartoInt8(&cmdUnitArr[1]);
   \   00004F                ; Setup parameters for call to function AT_ChartoInt8
   \   00004F   7404         MOV     A,#0x4
   \   000051   12....       LCALL   ?XSTACK_DISP0_8
   \   000054   AA82         MOV     R2,DPL
   \   000056   AB83         MOV     R3,DPH
   \   000058   12....       LCALL   ??AT_ChartoInt8?relay
   1559              pCmd = cmdUnitArr[2].unit;
   \   00005B   740A         MOV     A,#0xa
   \   00005D   12....       LCALL   ?XSTACK_DISP0_8
   \   000060   E0           MOVX    A,@DPTR
   \   000061   FE           MOV     R6,A
   \   000062   A3           INC     DPTR
   \   000063   E0           MOVX    A,@DPTR
   \   000064   FF           MOV     R7,A
   1560              AT_capitalizeCmd(&cmdUnitArr[2]);
   \   000065                ; Setup parameters for call to function AT_capitalizeCmd
   \   000065   7408         MOV     A,#0x8
   \                     ??AT_Cmd_R_4:
   \   000067   12....       LCALL   ?XSTACK_DISP0_8
   \   00006A   AA82         MOV     R2,DPL
   \   00006C   AB83         MOV     R3,DPH
   \   00006E   12....       LCALL   ??AT_capitalizeCmd?relay
   1561            }else if(cmdUnitArr[1].symbol=='|'){
   1562              sendmode=0;
   1563              pCmd = cmdUnitArr[1].unit;
   1564              AT_capitalizeCmd(&cmdUnitArr[1]);
   1565            }else {
   1566              AT_ERROR(AT_OPERATOR_ERROR);
   1567              return;
   1568            }
   1569            
   1570            //check command header
   1571            if(pCmd[0]=='A' && pCmd[1]=='T'){}
   \   000071   8E82         MOV     DPL,R6
   \   000073   8F83         MOV     DPH,R7
   \   000075   E0           MOVX    A,@DPTR
   \   000076   6441         XRL     A,#0x41
   \   000078   7006         JNZ     ??AT_Cmd_R_5
   \   00007A   A3           INC     DPTR
   \   00007B   E0           MOVX    A,@DPTR
   \   00007C   6454         XRL     A,#0x54
   \   00007E   6021         JZ      ??AT_Cmd_R_6
   1572            else{
   1573              AT_ERROR(AT_CMD_ERROR);
   \                     ??AT_Cmd_R_5:
   \   000080                ; Setup parameters for call to function AT_UARTWriteErrMsg
   \   000080   7921         MOV     R1,#0x21
   \   000082   8017         SJMP    ??AT_Cmd_R_7
   1574              return;
   1575            }
   \                     ??AT_Cmd_R_2:
   \   000084   E0           MOVX    A,@DPTR
   \   000085   647C         XRL     A,#0x7c
   \   000087   7010         JNZ     ??AT_Cmd_R_3
   \   000089   7406         MOV     A,#0x6
   \   00008B   12....       LCALL   ?XSTACK_DISP0_8
   \   00008E   12....       LCALL   ?Subroutine50 & 0xFFFF
   \                     ??CrossCallReturnLabel_61:
   \   000091   E8           MOV     A,R0
   \   000092   FE           MOV     R6,A
   \   000093   E9           MOV     A,R1
   \   000094   FF           MOV     R7,A
   \   000095                ; Setup parameters for call to function AT_capitalizeCmd
   \   000095   7404         MOV     A,#0x4
   \   000097   80CE         SJMP    ??AT_Cmd_R_4
   \                     ??AT_Cmd_R_3:
   \   000099                ; Setup parameters for call to function AT_UARTWriteErrMsg
   \   000099   7911         MOV     R1,#0x11
   \                     ??AT_Cmd_R_7:
   \   00009B   12....       LCALL   ??AT_UARTWriteErrMsg?relay
   \   00009E   02....       LJMP    ?Subroutine14 & 0xFFFF
   1576            pCmd+=2;
   1577          #endif
   1578            
   1579            uint8 len =0;
   1580            for(i=0;i<AT_UART_RX_BUFF_MAX;i++){
   \                     ??AT_Cmd_R_6:
   \   0000A1   75..00       MOV     ?V0 + 1,#0x0
   1581              if(pCmd[i]!='\r') len++;
   \                     ??AT_Cmd_R_8:
   \   0000A4   05..         INC     ?V0 + 1
   \   0000A6   E5..         MOV     A,?V0 + 1
   \   0000A8   C3           CLR     C
   \   0000A9   9480         SUBB    A,#-0x80
   \   0000AB   50D3         JNC     ??AT_Cmd_R_5
   \   0000AD   80F5         SJMP    ??AT_Cmd_R_8
   1582            }
   1583            if(i>=AT_UART_RX_BUFF_MAX) {AT_ERROR(AT_CMD_ERROR); return;}
   1584            
   1585            len++;//to include the end '\r'
   1586            
   1587            //build destination address
   1588            afAddrType_t dstAddr;
   1589            dstAddr.endPoint = AT_AF_ENDPOINT;
   1590            dstAddr.addrMode = sendmode==0 ? (afAddrMode_t)Addr16Bit : (afAddrMode_t) AddrGroup;  
   1591            if(cmdUnitArr[0].unitLen==0){
   1592              dstAddr.addr.shortAddr=NLME_GetShortAddr();     
   1593            }else{    
   1594              dstAddr.addr.shortAddr =AT_ChartoInt16(&cmdUnitArr[0]);             
   1595            }
   1596            
   1597            //contruct data buff
   1598            AT_AF_Cmd_RCIDDISC_req_t *pBuf =(AT_AF_Cmd_RCIDDISC_req_t *) osal_mem_alloc(sizeof(AT_AF_Cmd_RCIDDISC_req_t)+len);
   1599            if(pBuf==NULL) {
   1600              AT_ERROR(AT_MEM_ERROR);
   1601              return;
   1602            }
   1603            pBuf->hdr.cmd = AT_AF_Cmd_req;
   1604            pBuf->hdr.numItem=len;
   1605            uint8 state;
   1606            if((state=AF_DataRequest( &dstAddr, & AT_AF_epDesc,
   1607                                 AT_AF_Cmd_R_CIDDISC_CLUSTERID,
   1608                                 sizeof(AT_AF_Cmd_RCIDDISC_req_t)+len,
   1609                                 (uint8 *)pBuf,
   1610                                 &AT_AF_TransID,
   1611                                 AF_DISCV_ROUTE,
   1612                                 AF_DEFAULT_RADIUS ))==ZSuccess){
   1613                                   AT_OK();
   1614                                 }
   1615                else{
   1616                  AT_ERROR(state);
   1617                }
   1618            
   1619            osal_mem_free(pBuf);
   1620            
   1621          }

   \                                 In  segment BANKED_CODE, align 1, keep-with-next
   \                     ?Subroutine50:
   \   000000   E0           MOVX    A,@DPTR
   \   000001   F8           MOV     R0,A
   \   000002   A3           INC     DPTR
   \   000003   E0           MOVX    A,@DPTR
   \   000004   F9           MOV     R1,A
   \   000005   22           RET
   1622          /***********************************************************************
   1623          read non-volatile memory
   1624          ***************************************************************************/

   \                                 In  segment BANKED_CODE, align 1, keep-with-next
   1625          void AT_Cmd_READNV(uint8 start_point, uint8* msg){
   \                     AT_Cmd_READNV:
   \   000000   74EE         MOV     A,#-0x12
   \   000002   12....       LCALL   ?BANKED_ENTER_XDATA
   \   000005                ; Saved register size: 18
   \   000005                ; Auto size: 18
   \   000005   74EE         MOV     A,#-0x12
   \   000007   12....       LCALL   ?ALLOC_XSTACK8
   \   00000A   89..         MOV     ?V0 + 0,R1
   \   00000C   EA           MOV     A,R2
   \   00000D   FE           MOV     R6,A
   \   00000E   EB           MOV     A,R3
   \   00000F   FF           MOV     R7,A
   1626            AT_CmdUnit cmdUnitArr[4];
   1627            uint8 i;
   1628            for(i=0;i<4;i++)start_point = AT_get_next_cmdUnit(&cmdUnitArr[i],start_point, msg);  
   \   000010   75..00       MOV     ?V0 + 1,#0x0
   \                     ??AT_Cmd_READNV_0:
   \   000013                ; Setup parameters for call to function AT_get_next_cmdUnit
   \   000013   EE           MOV     A,R6
   \   000014   FC           MOV     R4,A
   \   000015   EF           MOV     A,R7
   \   000016   FD           MOV     R5,A
   \   000017   A9..         MOV     R1,?V0 + 0
   \   000019   85....       MOV     ?V0 + 2,?V0 + 1
   \   00001C   75..00       MOV     ?V0 + 3,#0x0
   \   00001F   7402         MOV     A,#0x2
   \   000021   78..         MOV     R0,#?V0 + 2
   \   000023   12....       LCALL   ?S_SHL
   \   000026   7402         MOV     A,#0x2
   \   000028   12....       LCALL   ?XSTACK_DISP0_8
   \   00002B   12....       LCALL   ??Subroutine211_0 & 0xFFFF
   \                     ??CrossCallReturnLabel_542:
   \   00002E   40E3         JC      ??AT_Cmd_READNV_0
   1629            
   1630            AT_PARSE_CMD_PATTERN_ERROR(":,,\r",cmdUnitArr); 
   \   000030                ; Setup parameters for call to function AT_pattern_check
   \   000030   7402         MOV     A,#0x2
   \   000032   12....       LCALL   ?XSTACK_DISP0_8
   \   000035   AC82         MOV     R4,DPL
   \   000037   AD83         MOV     R5,DPH
   \   000039   7A..         MOV     R2,#`?<Constant ":,,\\r">` & 0xff
   \   00003B   7B..         MOV     R3,#(`?<Constant ":,,\\r">` >> 8) & 0xff
   \   00003D   12....       LCALL   ??Subroutine200_0 & 0xFFFF
   \                     ??CrossCallReturnLabel_450:
   \   000040   6006         JZ      ??AT_Cmd_READNV_1
   \   000042                ; Setup parameters for call to function AT_UARTWriteErrMsg
   \   000042   12....       LCALL   ??AT_UARTWriteErrMsg?relay
   \   000045   02....       LJMP    ??AT_Cmd_READNV_2 & 0xFFFF
   1631            char str[2];
   1632            uint8 state;
   1633            uint16 id=AT_ChartoInt16(&cmdUnitArr[0]);
   \                     ??AT_Cmd_READNV_1:
   \   000048                ; Setup parameters for call to function AT_ChartoInt16
   \   000048   7402         MOV     A,#0x2
   \   00004A   12....       LCALL   ?XSTACK_DISP0_8
   \   00004D   12....       LCALL   ?Subroutine124 & 0xFFFF
   1634            uint16 offset =AT_ChartoInt16(&cmdUnitArr[1]);
   \                     ??CrossCallReturnLabel_227:
   \   000050                ; Setup parameters for call to function AT_ChartoInt16
   \   000050   7406         MOV     A,#0x6
   \   000052   12....       LCALL   ?XSTACK_DISP0_8
   \   000055   AA82         MOV     R2,DPL
   \   000057   AB83         MOV     R3,DPH
   \   000059   12....       LCALL   ??AT_ChartoInt16?relay
   \   00005C   8A..         MOV     ?V0 + 4,R2
   \   00005E   8B..         MOV     ?V0 + 5,R3
   \   000060   AE..         MOV     R6,?V0 + 4
   \   000062   AF..         MOV     R7,?V0 + 5
   1635            uint16 len =AT_ChartoInt16(&cmdUnitArr[2]);
   \   000064                ; Setup parameters for call to function AT_ChartoInt16
   \   000064   740A         MOV     A,#0xa
   \   000066   12....       LCALL   ?XSTACK_DISP0_8
   \   000069   AA82         MOV     R2,DPL
   \   00006B   AB83         MOV     R3,DPH
   \   00006D   12....       LCALL   ??AT_ChartoInt16?relay
   \   000070   8A..         MOV     ?V0 + 6,R2
   \   000072   8B..         MOV     ?V0 + 7,R3
   1636            uint8 *buf = osal_msg_allocate( len);
   \   000074                ; Setup parameters for call to function osal_msg_allocate
   \   000074   12....       LCALL   ??osal_msg_allocate?relay
   \   000077   8A..         MOV     ?V0 + 4,R2
   \   000079   8B..         MOV     ?V0 + 5,R3
   1637            if((state=osal_nv_read(id, offset, len, buf ))==SUCCESS){
   \   00007B                ; Setup parameters for call to function osal_nv_read
   \   00007B   78..         MOV     R0,#?V0 + 4
   \   00007D   12....       LCALL   ?PUSH_XSTACK_I_TWO
   \   000080   78..         MOV     R0,#?V0 + 6
   \   000082   12....       LCALL   ?PUSH_XSTACK_I_TWO
   \   000085   EE           MOV     A,R6
   \   000086   FC           MOV     R4,A
   \   000087   EF           MOV     A,R7
   \   000088   FD           MOV     R5,A
   \   000089   AA..         MOV     R2,?V0 + 2
   \   00008B   AB..         MOV     R3,?V0 + 3
   \   00008D   12....       LCALL   ?Subroutine159 & 0xFFFF
   \                     ??CrossCallReturnLabel_292:
   \   000090   12....       LCALL   ?DEALLOC_XSTACK8
   \   000093   E9           MOV     A,R1
   \   000094   704D         JNZ     ??AT_Cmd_READNV_3
   1638                uint8 i;  
   1639                AT_RESP_START();
   \   000096                ; Setup parameters for call to function AT_HalUARTWrite
   \   000096   7C02         MOV     R4,#0x2
   \   000098   7D00         MOV     R5,#0x0
   \   00009A   7A..         MOV     R2,#`?<Constant "\\r\\n">` & 0xff
   \   00009C   7B..         MOV     R3,#(`?<Constant "\\r\\n">` >> 8) & 0xff
   \   00009E   7900         MOV     R1,#0x0
   \   0000A0   12....       LCALL   ??AT_HalUARTWrite?relay
   1640                for(i=0;i<len;i++){
   \   0000A3   7E00         MOV     R6,#0x0
   \   0000A5   802B         SJMP    ??AT_Cmd_READNV_4
   1641                  AT_Int8toChar(buf[i],str); 
   \                     ??AT_Cmd_READNV_5:
   \   0000A7                ; Setup parameters for call to function AT_Int8toChar
   \   0000A7   85..82       MOV     DPL,?XSP + 0
   \   0000AA   85..83       MOV     DPH,?XSP + 1
   \   0000AD   AA82         MOV     R2,DPL
   \   0000AF   AB83         MOV     R3,DPH
   \   0000B1   E5..         MOV     A,?V0 + 4
   \   0000B3   25..         ADD     A,?V0 + 2
   \   0000B5   F582         MOV     DPL,A
   \   0000B7   E5..         MOV     A,?V0 + 5
   \   0000B9   12....       LCALL   ??Subroutine193_0 & 0xFFFF
   1642                  AT_RESP(str,2);
   1643                  AT_RESP(" ",1);
   1644                }
   \                     ??CrossCallReturnLabel_404:
   \   0000BC   12....       LCALL   ?Subroutine51 & 0xFFFF
   \                     ??CrossCallReturnLabel_66:
   \   0000BF   85..82       MOV     DPL,?XSP + 0
   \   0000C2   85..83       MOV     DPH,?XSP + 1
   \   0000C5   12....       LCALL   ?Subroutine147 & 0xFFFF
   \                     ??CrossCallReturnLabel_376:
   \   0000C8   7A..         MOV     R2,#`?<Constant " ">` & 0xff
   \   0000CA   7B..         MOV     R3,#(`?<Constant " ">` >> 8) & 0xff
   \   0000CC   7900         MOV     R1,#0x0
   \   0000CE   12....       LCALL   ??AT_HalUARTWrite?relay
   \   0000D1   0E           INC     R6
   \                     ??AT_Cmd_READNV_4:
   \   0000D2   8E..         MOV     ?V0 + 2,R6
   \   0000D4   C3           CLR     C
   \   0000D5   E5..         MOV     A,?V0 + 2
   \   0000D7   95..         SUBB    A,?V0 + 6
   \   0000D9   E4           CLR     A
   \   0000DA   95..         SUBB    A,?V0 + 7
   \   0000DC   40C9         JC      ??AT_Cmd_READNV_5
   1645                AT_RESP_END(); 
   \   0000DE                ; Setup parameters for call to function AT_HalUARTWrite
   \   0000DE   12....       LCALL   ?Subroutine68 & 0xFFFF
   1646                AT_OK();
   1647            }else AT_ERROR(state);
   \                     ??CrossCallReturnLabel_394:
   \   0000E1   8003         SJMP    ??AT_Cmd_READNV_6
   \                     ??AT_Cmd_READNV_3:
   \   0000E3                ; Setup parameters for call to function AT_UARTWriteErrMsg
   \   0000E3   12....       LCALL   ??AT_UARTWriteErrMsg?relay
   1648            osal_msg_deallocate( buf );
   \                     ??AT_Cmd_READNV_6:
   \   0000E6                ; Setup parameters for call to function osal_msg_deallocate
   \   0000E6   AA..         MOV     R2,?V0 + 4
   \   0000E8   AB..         MOV     R3,?V0 + 5
   \   0000EA   12....       LCALL   ??osal_msg_deallocate?relay
   1649          }
   \                     ??AT_Cmd_READNV_2:
   \   0000ED   7412         MOV     A,#0x12
   \   0000EF   02....       LJMP    ?Subroutine5 & 0xFFFF

   \                                 In  segment BANKED_CODE, align 1, keep-with-next
   \                     ??Subroutine211_0:
   \   000000   12....       LCALL   ?Subroutine160 & 0xFFFF
   \                     ??CrossCallReturnLabel_547:
   \   000003   9404         SUBB    A,#0x4
   \   000005   22           RET

   \                                 In  segment BANKED_CODE, align 1, keep-with-next
   1650          void AT_Cmd_WRITENV(uint8 start_point, uint8* msg){
   \                     AT_Cmd_WRITENV:
   \   000000   74F3         MOV     A,#-0xd
   \   000002   12....       LCALL   ?BANKED_ENTER_XDATA
   \   000005                ; Saved register size: 13
   \   000005                ; Auto size: 17
   \   000005   74EF         MOV     A,#-0x11
   \   000007   12....       LCALL   ?ALLOC_XSTACK8
   \   00000A   89..         MOV     ?V0 + 4,R1
   \   00000C   EA           MOV     A,R2
   \   00000D   FE           MOV     R6,A
   \   00000E   EB           MOV     A,R3
   \   00000F   FF           MOV     R7,A
   1651             AT_CmdUnit cmdUnitArr[4];
   1652            uint8 i;
   1653            for(i=0;i<4;i++)start_point = AT_get_next_cmdUnit(&cmdUnitArr[i],start_point, msg);  
   \   000010   75..00       MOV     ?V0 + 2,#0x0
   \                     ??AT_Cmd_WRITENV_0:
   \   000013                ; Setup parameters for call to function AT_get_next_cmdUnit
   \   000013   EE           MOV     A,R6
   \   000014   FC           MOV     R4,A
   \   000015   EF           MOV     A,R7
   \   000016   FD           MOV     R5,A
   \   000017   A9..         MOV     R1,?V0 + 4
   \   000019   85....       MOV     ?V0 + 0,?V0 + 2
   \   00001C   75..00       MOV     ?V0 + 1,#0x0
   \   00001F   7402         MOV     A,#0x2
   \   000021   78..         MOV     R0,#?V0 + 0
   \   000023   12....       LCALL   ?S_SHL
   \   000026   04           INC     A
   \   000027   12....       LCALL   ?XSTACK_DISP0_8
   \   00002A   12....       LCALL   ?Subroutine59 & 0xFFFF
   \                     ??CrossCallReturnLabel_87:
   \   00002D   40E4         JC      ??AT_Cmd_WRITENV_0
   1654            
   1655            AT_PARSE_CMD_PATTERN_ERROR(":,,\r",cmdUnitArr); 
   \   00002F                ; Setup parameters for call to function AT_pattern_check
   \   00002F   7401         MOV     A,#0x1
   \   000031   12....       LCALL   ?XSTACK_DISP0_8
   \   000034   AC82         MOV     R4,DPL
   \   000036   AD83         MOV     R5,DPH
   \   000038   7A..         MOV     R2,#`?<Constant ":,,\\r">` & 0xff
   \   00003A   7B..         MOV     R3,#(`?<Constant ":,,\\r">` >> 8) & 0xff
   \   00003C   12....       LCALL   ??Subroutine200_0 & 0xFFFF
   \                     ??CrossCallReturnLabel_451:
   \   00003F   7056         JNZ     ??AT_Cmd_WRITENV_1
   \   000041                ; Setup parameters for call to function AT_UARTWriteErrMsg
   1656            uint16 id=AT_ChartoInt16(&cmdUnitArr[0]);
   \   000041                ; Setup parameters for call to function AT_ChartoInt16
   \   000041   7401         MOV     A,#0x1
   \   000043   12....       LCALL   ?XSTACK_DISP0_8
   \   000046   AA82         MOV     R2,DPL
   \   000048   AB83         MOV     R3,DPH
   \   00004A   12....       LCALL   ??AT_ChartoInt16?relay
   \   00004D   8A..         MOV     ?V0 + 0,R2
   \   00004F   8B..         MOV     ?V0 + 1,R3
   1657            uint16 offset =AT_ChartoInt16(&cmdUnitArr[1]);
   \   000051                ; Setup parameters for call to function AT_ChartoInt16
   \   000051   7405         MOV     A,#0x5
   \   000053   12....       LCALL   ?XSTACK_DISP0_8
   \   000056   12....       LCALL   ?Subroutine119 & 0xFFFF
   1658            uint8 data =AT_ChartoInt8(&cmdUnitArr[2]);
   \                     ??CrossCallReturnLabel_216:
   \   000059                ; Setup parameters for call to function AT_ChartoInt8
   \   000059   7409         MOV     A,#0x9
   \   00005B   12....       LCALL   ?XSTACK_DISP0_8
   \   00005E   12....       LCALL   ?Subroutine112 & 0xFFFF
   1659            uint8 state;
   1660            if((state=osal_nv_write( id, offset,1, &data ))==SUCCESS) AT_OK();
   \                     ??CrossCallReturnLabel_200:
   \   000061                ; Setup parameters for call to function osal_nv_write
   \   000061   8582..       MOV     ?V0 + 2,DPL
   \   000064   8583..       MOV     ?V0 + 3,DPH
   \   000067   78..         MOV     R0,#?V0 + 2
   \   000069   12....       LCALL   ?PUSH_XSTACK_I_TWO
   \   00006C   75..01       MOV     ?V0 + 2,#0x1
   \   00006F   75..00       MOV     ?V0 + 3,#0x0
   \   000072   78..         MOV     R0,#?V0 + 2
   \   000074   12....       LCALL   ?PUSH_XSTACK_I_TWO
   \   000077   EE           MOV     A,R6
   \   000078   FC           MOV     R4,A
   \   000079   EF           MOV     A,R7
   \   00007A   FD           MOV     R5,A
   \   00007B   AA..         MOV     R2,?V0 + 0
   \   00007D   AB..         MOV     R3,?V0 + 1
   \   00007F   12....       LCALL   ?Subroutine156 & 0xFFFF
   \                     ??CrossCallReturnLabel_288:
   \   000082   12....       LCALL   ?DEALLOC_XSTACK8
   \   000085   E9           MOV     A,R1
   \   000086   700F         JNZ     ??AT_Cmd_WRITENV_1
   \   000088                ; Setup parameters for call to function AT_HalUARTWrite
   \   000088   7C07         MOV     R4,#0x7
   \   00008A   7D00         MOV     R5,#0x0
   \   00008C   7A..         MOV     R2,#`?<Constant "\\r\\nOK\\r\\n">` & 0xff
   \   00008E   7B..         MOV     R3,#(`?<Constant "\\r\\nOK\\r\\n">` >> 8) & 0xff
   \   000090   7900         MOV     R1,#0x0
   \   000092   12....       LCALL   ??AT_HalUARTWrite?relay
   \   000095   8003         SJMP    ??AT_Cmd_WRITENV_2
   1661            else AT_ERROR(state);
   \                     ??AT_Cmd_WRITENV_1:
   \   000097                ; Setup parameters for call to function AT_UARTWriteErrMsg
   \   000097   12....       LCALL   ??AT_UARTWriteErrMsg?relay
   \                     ??AT_Cmd_WRITENV_2:
   \   00009A   7411         MOV     A,#0x11
   \   00009C   12....       LCALL   ?DEALLOC_XSTACK8
   \   00009F   02....       LJMP    ?Subroutine6 & 0xFFFF
   1662            
   1663            
   1664          }
   1665          /****************************************************
   1666          +IDREQ C Request Nodes NodeID (ZDO) 
   1667            Execute Command 
   1668                      AT+IDREQ:<Address>[,XX]
   1669                      AT+IDREQ:
   1670            Response OK or ERROR:<errorcode>
   1671            Prompt AddrResp:
   1672              <errorcode>[,<NodeID>,<EUI64>] [nn. <NodeID>]
   1673          
   1674              Where <Address> can be a nodes EUI64, or address table entry 
   1675              and XX is an optional index number.
   1676              Where an index number is provided, an extended response is requested 
   1677              asking the remote device to list its associated devices (ie children). 
   1678              It then sends a broadcast to obtain the specified Devices NodeID 
   1679              and optionally also elements of its associated devices list.
   1680          
   1681          ***************************************************/

   \                                 In  segment BANKED_CODE, align 1, keep-with-next
   1682          void AT_Cmd_IDREQ(uint8 start_point, uint8* msg){
   \                     AT_Cmd_IDREQ:
   \   000000   74F4         MOV     A,#-0xc
   \   000002   12....       LCALL   ?BANKED_ENTER_XDATA
   \   000005                ; Saved register size: 12
   \   000005                ; Auto size: 20
   \   000005   74EC         MOV     A,#-0x14
   \   000007   12....       LCALL   ?ALLOC_XSTACK8
   \   00000A   89..         MOV     ?V0 + 0,R1
   \   00000C   EA           MOV     A,R2
   \   00000D   FE           MOV     R6,A
   \   00000E   EB           MOV     A,R3
   \   00000F   FF           MOV     R7,A
   1683            AT_CmdUnit cmdUnitArr[3];
   1684            uint8 i;
   1685            for(i=0;i<3;i++)start_point = AT_get_next_cmdUnit(&cmdUnitArr[i],start_point, msg);  
   \   000010   75..00       MOV     ?V0 + 1,#0x0
   \                     ??AT_Cmd_IDREQ_0:
   \   000013                ; Setup parameters for call to function AT_get_next_cmdUnit
   \   000013   EE           MOV     A,R6
   \   000014   FC           MOV     R4,A
   \   000015   EF           MOV     A,R7
   \   000016   FD           MOV     R5,A
   \   000017   A9..         MOV     R1,?V0 + 0
   \   000019   85....       MOV     ?V0 + 2,?V0 + 1
   \   00001C   75..00       MOV     ?V0 + 3,#0x0
   \   00001F   7402         MOV     A,#0x2
   \   000021   78..         MOV     R0,#?V0 + 2
   \   000023   12....       LCALL   ?S_SHL
   \   000026   12....       LCALL   ?Subroutine100 & 0xFFFF
   \                     ??CrossCallReturnLabel_171:
   \   000029   40E8         JC      ??AT_Cmd_IDREQ_0
   1686           
   1687              uint8 ext[8];
   1688              AT_ChartoIntx(&cmdUnitArr[0],ext, 64);
   \   00002B                ; Setup parameters for call to function AT_ChartoIntx
   \   00002B   7940         MOV     R1,#0x40
   \   00002D   740C         MOV     A,#0xc
   \   00002F   12....       LCALL   ?XSTACK_DISP0_8
   \   000032   AC82         MOV     R4,DPL
   \   000034   AD83         MOV     R5,DPH
   \   000036   85..82       MOV     DPL,?XSP + 0
   \   000039   85..83       MOV     DPH,?XSP + 1
   \   00003C   AA82         MOV     R2,DPL
   \   00003E   AB83         MOV     R3,DPH
   \   000040   12....       LCALL   ??AT_ChartoIntx?relay
   1689              if(cmdUnitArr[0].unitLen==0) {
   \   000043   7401         MOV     A,#0x1
   \   000045   12....       LCALL   ?XSTACK_DISP0_8
   \   000048   E0           MOVX    A,@DPTR
   \   000049   701E         JNZ     ??AT_Cmd_IDREQ_1
   1690                AT_PARSE_CMD_PATTERN_ERROR(":\r",cmdUnitArr);
   \   00004B                ; Setup parameters for call to function AT_pattern_check
   \   00004B   12....       LCALL   ?Subroutine108 & 0xFFFF
   \                     ??CrossCallReturnLabel_425:
   \   00004E   6005         JZ      ??AT_Cmd_IDREQ_2
   \   000050                ; Setup parameters for call to function AT_UARTWriteErrMsg
   \                     ??AT_Cmd_IDREQ_3:
   \   000050   12....       LCALL   ??AT_UARTWriteErrMsg?relay
   \   000053   8060         SJMP    ??AT_Cmd_IDREQ_4
   1691                uint8 state;
   1692                state = ZDP_IEEEAddrReq( NLME_GetShortAddr(), ZDP_ADDR_REQTYPE_SINGLE,
   1693                                      0, 0 );
   \                     ??AT_Cmd_IDREQ_2:
   \   000055                ; Setup parameters for call to function ZDP_IEEEAddrReq
   \   000055   7900         MOV     R1,#0x0
   \   000057   E9           MOV     A,R1
   \   000058   C0E0         PUSH    A
   \   00005A                ; Setup parameters for call to function NLME_GetShortAddr
   \   00005A   12....       LCALL   ??NLME_GetShortAddr?relay
   \   00005D   7D00         MOV     R5,#0x0
   \   00005F   7C00         MOV     R4,#0x0
   \   000061   D0E0         POP     A
   \   000063   F9           MOV     R1,A
   \   000064   12....       LCALL   ??ZDP_IEEEAddrReq?relay
   \   000067   8039         SJMP    ??AT_Cmd_IDREQ_5
   1694                if(state!=afStatus_SUCCESS) AT_ERROR(state); 
   1695              }else if(cmdUnitArr[1].symbol==',' ){
   \                     ??AT_Cmd_IDREQ_1:
   \   000069   7404         MOV     A,#0x4
   \   00006B   12....       LCALL   ?XSTACK_DISP0_8
   \   00006E   12....       LCALL   ?Subroutine47 & 0xFFFF
   \                     ??CrossCallReturnLabel_57:
   \   000071   7018         JNZ     ??AT_Cmd_IDREQ_6
   1696                
   1697                AT_PARSE_CMD_PATTERN_ERROR(":,\r",cmdUnitArr);
   \   000073                ; Setup parameters for call to function AT_pattern_check
   \   000073   7A..         MOV     R2,#`?<Constant ":,\\r">` & 0xff
   \   000075   7B..         MOV     R3,#(`?<Constant ":,\\r">` >> 8) & 0xff
   \   000077   12....       LCALL   ??Subroutine200_0 & 0xFFFF
   \                     ??CrossCallReturnLabel_452:
   \   00007A   70D4         JNZ     ??AT_Cmd_IDREQ_3
   \   00007C                ; Setup parameters for call to function AT_UARTWriteErrMsg
   1698                uint8 state;
   1699                state = ZDP_NwkAddrReq( ext, ZDP_ADDR_REQTYPE_EXTENDED,
   1700                                          AT_ChartoInt8(&cmdUnitArr[1]), 0 );
   \   00007C                ; Setup parameters for call to function ZDP_NwkAddrReq
   \   00007C                ; Setup parameters for call to function AT_ChartoInt8
   \   00007C   7404         MOV     A,#0x4
   \   00007E   12....       LCALL   ?XSTACK_DISP0_8
   \   000081   12....       LCALL   ??Subroutine201_0 & 0xFFFF
   1701                if(state!=afStatus_SUCCESS) AT_ERROR(state);
   1702              }else{
   \                     ??CrossCallReturnLabel_485:
   \   000084   FC           MOV     R4,A
   \   000085   E4           CLR     A
   \   000086   FD           MOV     R5,A
   \   000087   7901         MOV     R1,#0x1
   \   000089   800B         SJMP    ??AT_Cmd_IDREQ_7
   1703                AT_PARSE_CMD_PATTERN_ERROR(":\r",cmdUnitArr);
   \                     ??AT_Cmd_IDREQ_6:
   \   00008B                ; Setup parameters for call to function AT_pattern_check
   \   00008B   12....       LCALL   ??Subroutine199_0 & 0xFFFF
   \                     ??CrossCallReturnLabel_434:
   \   00008E   70C0         JNZ     ??AT_Cmd_IDREQ_3
   \   000090                ; Setup parameters for call to function AT_UARTWriteErrMsg
   1704                uint8 state;
   1705                state = ZDP_NwkAddrReq( ext, ZDP_ADDR_REQTYPE_SINGLE,
   1706                                      0, 0 );
   \   000090                ; Setup parameters for call to function ZDP_NwkAddrReq
   \   000090   7D00         MOV     R5,#0x0
   \   000092   7C00         MOV     R4,#0x0
   \   000094   7900         MOV     R1,#0x0
   \                     ??AT_Cmd_IDREQ_7:
   \   000096   740C         MOV     A,#0xc
   \   000098   12....       LCALL   ?XSTACK_DISP0_8
   \   00009B   AA82         MOV     R2,DPL
   \   00009D   AB83         MOV     R3,DPH
   \   00009F   12....       LCALL   ??ZDP_NwkAddrReq?relay
   \                     ??AT_Cmd_IDREQ_5:
   \   0000A2   E9           MOV     A,R1
   1707                if(state!=afStatus_SUCCESS) AT_ERROR(state);
   \   0000A3   6003         JZ      ??AT_Cmd_IDREQ_8
   \   0000A5                ; Setup parameters for call to function AT_UARTWriteErrMsg
   \   0000A5   12....       LCALL   ??AT_UARTWriteErrMsg?relay
   1708             
   1709              }
   1710              AT_OK();
   \                     ??AT_Cmd_IDREQ_8:
   \   0000A8                ; Setup parameters for call to function AT_HalUARTWrite
   \   0000A8   7C07         MOV     R4,#0x7
   \   0000AA   7D00         MOV     R5,#0x0
   \   0000AC   7A..         MOV     R2,#`?<Constant "\\r\\nOK\\r\\n">` & 0xff
   \   0000AE   7B..         MOV     R3,#(`?<Constant "\\r\\nOK\\r\\n">` >> 8) & 0xff
   \   0000B0   7900         MOV     R1,#0x0
   \   0000B2   12....       LCALL   ??AT_HalUARTWrite?relay
   1711            
   1712          }
   \                     ??AT_Cmd_IDREQ_4:
   \   0000B5   02....       LJMP    ?Subroutine10 & 0xFFFF

   \                                 In  segment BANKED_CODE, align 1, keep-with-next
   \                     ?Subroutine47:
   \   000000   E0           MOVX    A,@DPTR
   \   000001   642C         XRL     A,#0x2c
   \   000003   85..82       MOV     DPL,?XSP + 0
   \   000006   85..83       MOV     DPH,?XSP + 1
   \   000009   AC82         MOV     R4,DPL
   \   00000B   AD83         MOV     R5,DPH
   \   00000D   22           RET
   1713          /******************************************************************************
   1714          Execute Command 
   1715                AT+EUIREQ:< Address>,<NodeID>[,XX]
   1716                AT+EUIREQ:
   1717                      Where <Address> is the EUI64, Node ID or address table entry 
   1718                      of the node which is to be interrogated about the node with 
   1719                      the Node ID specified in <NodeID>. XX is an optional index number. 
   1720                      In case an index number is provided, an extended response is 
   1721                      requested asking the remote device to list its associated devices (i.e. children).
   1722          
   1723          Prompt 
   1724                AddrResp:<errorcode>[,<NodeID>,<EUI64>] 
   1725                   <EUI64> is the Remote nodes EUI64 and 
   1726                  <NodeID> is its Node ID.When an extended response has been requested
   1727                          the requested NodeIDs from the associated devices list are listed.
   1728          
   1729          *****************************************************************************/

   \                                 In  segment BANKED_CODE, align 1, keep-with-next
   1730          void AT_Cmd_EUIREQ(uint8 start_point, uint8* msg){
   \                     AT_Cmd_EUIREQ:
   \   000000   74F4         MOV     A,#-0xc
   \   000002   12....       LCALL   ?BANKED_ENTER_XDATA
   \   000005                ; Saved register size: 12
   \   000005                ; Auto size: 16
   \   000005   74F0         MOV     A,#-0x10
   \   000007   12....       LCALL   ?ALLOC_XSTACK8
   \   00000A   89..         MOV     ?V0 + 0,R1
   \   00000C   EA           MOV     A,R2
   \   00000D   FE           MOV     R6,A
   \   00000E   EB           MOV     A,R3
   \   00000F   FF           MOV     R7,A
   1731            AT_CmdUnit cmdUnitArr[4];
   1732            uint8 i;
   1733            for(i=0;i<4;i++)start_point = AT_get_next_cmdUnit(&cmdUnitArr[i],start_point, msg);  
   \   000010   75..00       MOV     ?V0 + 1,#0x0
   \                     ??AT_Cmd_EUIREQ_0:
   \   000013                ; Setup parameters for call to function AT_get_next_cmdUnit
   \   000013   EE           MOV     A,R6
   \   000014   FC           MOV     R4,A
   \   000015   EF           MOV     A,R7
   \   000016   FD           MOV     R5,A
   \   000017   A9..         MOV     R1,?V0 + 0
   \   000019   85....       MOV     ?V0 + 2,?V0 + 1
   \   00001C   75..00       MOV     ?V0 + 3,#0x0
   \   00001F   7402         MOV     A,#0x2
   \   000021   78..         MOV     R0,#?V0 + 2
   \   000023   12....       LCALL   ?S_SHL
   \   000026   12....       LCALL   ?Subroutine98 & 0xFFFF
   \                     ??CrossCallReturnLabel_540:
   \   000029   40E8         JC      ??AT_Cmd_EUIREQ_0
   1734            if(cmdUnitArr[1].symbol=='\r'){
   \   00002B   7404         MOV     A,#0x4
   \   00002D   12....       LCALL   ?XSTACK_DISP0_8
   \   000030   E0           MOVX    A,@DPTR
   \   000031   640D         XRL     A,#0xd
   \   000033   7014         JNZ     ??AT_Cmd_EUIREQ_1
   1735              AT_PARSE_CMD_PATTERN_ERROR(":\r",cmdUnitArr);
   \   000035                ; Setup parameters for call to function AT_pattern_check
   \   000035   12....       LCALL   ?Subroutine108 & 0xFFFF
   \                     ??CrossCallReturnLabel_426:
   \   000038   6005         JZ      ??AT_Cmd_EUIREQ_2
   \   00003A                ; Setup parameters for call to function AT_UARTWriteErrMsg
   \                     ??AT_Cmd_EUIREQ_3:
   \   00003A   12....       LCALL   ??AT_UARTWriteErrMsg?relay
   \   00003D   8079         SJMP    ??AT_Cmd_EUIREQ_4
   1736              uint8 state;
   1737              state = ZDP_IEEEAddrReq( NLME_GetShortAddr(), ZDP_ADDR_REQTYPE_SINGLE,
   1738                                      0, 0 );
   \                     ??AT_Cmd_EUIREQ_2:
   \   00003F                ; Setup parameters for call to function ZDP_IEEEAddrReq
   \   00003F   7900         MOV     R1,#0x0
   \   000041   E9           MOV     A,R1
   \   000042   C0E0         PUSH    A
   \   000044                ; Setup parameters for call to function NLME_GetShortAddr
   \   000044   12....       LCALL   ??NLME_GetShortAddr?relay
   \   000047   8052         SJMP    ??AT_Cmd_EUIREQ_5
   1739              if(state!=afStatus_SUCCESS) AT_ERROR(state); 
   1740            }else if(cmdUnitArr[2].symbol==',' ){
   \                     ??AT_Cmd_EUIREQ_1:
   \   000049   7408         MOV     A,#0x8
   \   00004B   12....       LCALL   ?XSTACK_DISP0_8
   \   00004E   12....       LCALL   ?Subroutine47 & 0xFFFF
   \                     ??CrossCallReturnLabel_58:
   \   000051   702D         JNZ     ??AT_Cmd_EUIREQ_6
   1741              AT_PARSE_CMD_PATTERN_ERROR(":,,\r",cmdUnitArr);
   \   000053                ; Setup parameters for call to function AT_pattern_check
   \   000053   7A..         MOV     R2,#`?<Constant ":,,\\r">` & 0xff
   \   000055   7B..         MOV     R3,#(`?<Constant ":,,\\r">` >> 8) & 0xff
   \   000057   12....       LCALL   ??Subroutine200_0 & 0xFFFF
   \                     ??CrossCallReturnLabel_453:
   \   00005A   70DE         JNZ     ??AT_Cmd_EUIREQ_3
   \   00005C                ; Setup parameters for call to function AT_UARTWriteErrMsg
   1742              uint8 state;
   1743              state = ZDP_IEEEAddrReq( AT_ChartoInt16(&cmdUnitArr[0]), ZDP_ADDR_REQTYPE_EXTENDED,
   1744                                      AT_ChartoInt8(&cmdUnitArr[2]), 0 );
   \   00005C                ; Setup parameters for call to function AT_ChartoInt8
   \   00005C   7408         MOV     A,#0x8
   \   00005E   12....       LCALL   ?XSTACK_DISP0_8
   \   000061   12....       LCALL   ??Subroutine201_0 & 0xFFFF
   1745              if(state!=afStatus_SUCCESS) AT_ERROR(state);
   1746              
   1747            }else{
   \                     ??CrossCallReturnLabel_486:
   \   000064                ; Setup parameters for call to function ZDP_IEEEAddrReq
   \   000064   7901         MOV     R1,#0x1
   \   000066   C9           XCH     A,R1
   \   000067   C0E0         PUSH    A
   \   000069   E9           MOV     A,R1
   \   00006A   FF           MOV     R7,A
   \   00006B   E4           CLR     A
   \   00006C   FE           MOV     R6,A
   \   00006D                ; Setup parameters for call to function AT_ChartoInt16
   \   00006D   85..82       MOV     DPL,?XSP + 0
   \   000070   85..83       MOV     DPH,?XSP + 1
   \   000073   AA82         MOV     R2,DPL
   \   000075   AB83         MOV     R3,DPH
   \   000077   12....       LCALL   ??AT_ChartoInt16?relay
   \   00007A   EE           MOV     A,R6
   \   00007B   FD           MOV     R5,A
   \   00007C   EF           MOV     A,R7
   \   00007D   FC           MOV     R4,A
   \   00007E   801F         SJMP    ??AT_Cmd_EUIREQ_7
   1748              AT_PARSE_CMD_PATTERN_ERROR(":,\r",cmdUnitArr); 
   \                     ??AT_Cmd_EUIREQ_6:
   \   000080                ; Setup parameters for call to function AT_pattern_check
   \   000080   7A..         MOV     R2,#`?<Constant ":,\\r">` & 0xff
   \   000082   7B..         MOV     R3,#(`?<Constant ":,\\r">` >> 8) & 0xff
   \   000084   12....       LCALL   ??Subroutine200_0 & 0xFFFF
   \                     ??CrossCallReturnLabel_454:
   \   000087   70B1         JNZ     ??AT_Cmd_EUIREQ_3
   \   000089                ; Setup parameters for call to function AT_UARTWriteErrMsg
   1749              uint8 state;
   1750              state = ZDP_IEEEAddrReq( AT_ChartoInt16(&cmdUnitArr[0]), ZDP_ADDR_REQTYPE_SINGLE,
   1751                                      0, 0 );
   \   000089                ; Setup parameters for call to function ZDP_IEEEAddrReq
   \   000089   7900         MOV     R1,#0x0
   \   00008B   E9           MOV     A,R1
   \   00008C   C0E0         PUSH    A
   \   00008E                ; Setup parameters for call to function AT_ChartoInt16
   \   00008E   85..82       MOV     DPL,?XSP + 0
   \   000091   85..83       MOV     DPH,?XSP + 1
   \   000094   AA82         MOV     R2,DPL
   \   000096   AB83         MOV     R3,DPH
   \   000098   12....       LCALL   ??AT_ChartoInt16?relay
   \                     ??AT_Cmd_EUIREQ_5:
   \   00009B   7D00         MOV     R5,#0x0
   \   00009D   7C00         MOV     R4,#0x0
   \                     ??AT_Cmd_EUIREQ_7:
   \   00009F   D0E0         POP     A
   \   0000A1   F9           MOV     R1,A
   \   0000A2   12....       LCALL   ??ZDP_IEEEAddrReq?relay
   \   0000A5   E9           MOV     A,R1
   1752              if(state!=afStatus_SUCCESS) AT_ERROR(state); 
   \   0000A6   6003         JZ      ??AT_Cmd_EUIREQ_8
   \   0000A8                ; Setup parameters for call to function AT_UARTWriteErrMsg
   \   0000A8   12....       LCALL   ??AT_UARTWriteErrMsg?relay
   1753              
   1754            }
   1755            AT_OK();
   \                     ??AT_Cmd_EUIREQ_8:
   \   0000AB                ; Setup parameters for call to function AT_HalUARTWrite
   \   0000AB   7C07         MOV     R4,#0x7
   \   0000AD   7D00         MOV     R5,#0x0
   \   0000AF   7A..         MOV     R2,#`?<Constant "\\r\\nOK\\r\\n">` & 0xff
   \   0000B1   7B..         MOV     R3,#(`?<Constant "\\r\\nOK\\r\\n">` >> 8) & 0xff
   \   0000B3   7900         MOV     R1,#0x0
   \   0000B5   12....       LCALL   ??AT_HalUARTWrite?relay
   1756          }
   \                     ??AT_Cmd_EUIREQ_4:
   \   0000B8                REQUIRE ?Subroutine15
   \   0000B8                ; // Fall through to label ?Subroutine15

   \                                 In  segment BANKED_CODE, align 1, keep-with-next
   \                     ?Subroutine15:
   \   000000   7410         MOV     A,#0x10
   \   000002   02....       LJMP    ??Subroutine195_0 & 0xFFFF

   \                                 In  segment BANKED_CODE, align 1, keep-with-next
   \                     ?Subroutine98:
   \   000000   85..82       MOV     DPL,?XSP + 0
   \   000003   85..83       MOV     DPH,?XSP + 1
   \   000006                REQUIRE ??Subroutine211_0
   \   000006                ; // Fall through to label ??Subroutine211_0
   1757          
   1758          /************************************************************************
   1759          +EN C Establish Network 
   1760                AT+EN:[<channel>],[<POWER>],[<PANID>] 
   1761                Use on: Coordinator which are not part of a PAN 
   1762                Note: Establishing a PAN can take up to 16 seconds. 
   1763                This command can only be executed if the local node is 
   1764                not part of a PAN already.
   1765          **************************************************************************/

   \                                 In  segment BANKED_CODE, align 1, keep-with-next
   1766          void AT_Cmd_EN(uint8 start_point, uint8* msg){
   \                     AT_Cmd_EN:
   \   000000   74F0         MOV     A,#-0x10
   \   000002   12....       LCALL   ?BANKED_ENTER_XDATA
   \   000005                ; Saved register size: 16
   \   000005                ; Auto size: 16
   \   000005   74F0         MOV     A,#-0x10
   \   000007   12....       LCALL   ?ALLOC_XSTACK8
   \   00000A   89..         MOV     ?V0 + 0,R1
   \   00000C   EA           MOV     A,R2
   \   00000D   FE           MOV     R6,A
   \   00000E   EB           MOV     A,R3
   \   00000F   FF           MOV     R7,A
   1767             AT_CmdUnit cmdUnitArr[4];
   1768            uint8 i;
   1769            for(i=0;i<4;i++)start_point = AT_get_next_cmdUnit(&cmdUnitArr[i],start_point, msg); 
   \   000010   75..00       MOV     ?V0 + 1,#0x0
   \                     ??AT_Cmd_EN_0:
   \   000013                ; Setup parameters for call to function AT_get_next_cmdUnit
   \   000013   EE           MOV     A,R6
   \   000014   FC           MOV     R4,A
   \   000015   EF           MOV     A,R7
   \   000016   FD           MOV     R5,A
   \   000017   A9..         MOV     R1,?V0 + 0
   \   000019   85....       MOV     ?V0 + 2,?V0 + 1
   \   00001C   75..00       MOV     ?V0 + 3,#0x0
   \   00001F   7402         MOV     A,#0x2
   \   000021   78..         MOV     R0,#?V0 + 2
   \   000023   12....       LCALL   ?S_SHL
   \   000026   12....       LCALL   ?Subroutine98 & 0xFFFF
   \                     ??CrossCallReturnLabel_541:
   \   000029   40E8         JC      ??AT_Cmd_EN_0
   1770            /*if(cmdUnitArr[0].symbol=='\r'){
   1771              AT_PARSE_CMD_PATTERN_ERROR("\r",cmdUnitArr); 
   1772            }else if(cmdUnitArr[1].symbol=='\r'){
   1773              AT_PARSE_CMD_PATTERN_ERROR(":\r",cmdUnitArr);  
   1774            }else{
   1775              AT_PARSE_CMD_PATTERN_ERROR(":,,\r",cmdUnitArr); 
   1776            }
   1777            */
   1778            
   1779            if(devState==DEV_ZB_COORD){// if Started as Zigbee Coordinator. means: coordinator has started a network, so do nothing, only when a coordinator is not in a PAN, this command is valid
   \   00002B   90....       MOV     DPTR,#devState
   \   00002E   E0           MOVX    A,@DPTR
   \   00002F   6409         XRL     A,#0x9
   \   000031   7008         JNZ     ??AT_Cmd_EN_1
   1780              AT_ERROR(AT_nwkState_ERROR);
   \   000033                ; Setup parameters for call to function AT_UARTWriteErrMsg
   \   000033   7907         MOV     R1,#0x7
   \                     ??AT_Cmd_EN_2:
   \   000035   12....       LCALL   ??AT_UARTWriteErrMsg?relay
   1781              return;
   \   000038   02....       LJMP    ??AT_Cmd_EN_3 & 0xFFFF
   1782            }
   1783            AT_PARSE_CMD_PATTERN_ERROR(":,,\r",cmdUnitArr);
   \                     ??AT_Cmd_EN_1:
   \   00003B                ; Setup parameters for call to function AT_pattern_check
   \   00003B   85..82       MOV     DPL,?XSP + 0
   \   00003E   85..83       MOV     DPH,?XSP + 1
   \   000041   AC82         MOV     R4,DPL
   \   000043   AD83         MOV     R5,DPH
   \   000045   7A..         MOV     R2,#`?<Constant ":,,\\r">` & 0xff
   \   000047   7B..         MOV     R3,#(`?<Constant ":,,\\r">` >> 8) & 0xff
   \   000049   12....       LCALL   ??Subroutine200_0 & 0xFFFF
   \                     ??CrossCallReturnLabel_455:
   \   00004C   70E7         JNZ     ??AT_Cmd_EN_2
   \   00004E                ; Setup parameters for call to function AT_UARTWriteErrMsg
   1784            uint8 status;
   1785            uint32 channel=1;
   1786            uint16 PANID;
   1787            AT_ChartoIntx(&cmdUnitArr[2],ZDO_UseExtendedPANID, 64);
   \   00004E                ; Setup parameters for call to function AT_ChartoIntx
   \   00004E   7940         MOV     R1,#0x40
   \   000050   7C..         MOV     R4,#ZDO_UseExtendedPANID & 0xff
   \   000052   7D..         MOV     R5,#(ZDO_UseExtendedPANID >> 8) & 0xff
   \   000054   7408         MOV     A,#0x8
   \   000056   12....       LCALL   ?XSTACK_DISP0_8
   \   000059   12....       LCALL   ?Subroutine132 & 0xFFFF
   1788            if(cmdUnitArr[2].unitLen==0){
   \                     ??CrossCallReturnLabel_251:
   \   00005C   12....       LCALL   ?XSTACK_DISP0_8
   \   00005F   E0           MOVX    A,@DPTR
   \   000060   7006         JNZ     ??AT_Cmd_EN_4
   1789               PANID =0xFFFF;
   \   000062   7EFF         MOV     R6,#-0x1
   \   000064   7FFF         MOV     R7,#-0x1
   \   000066   8008         SJMP    ??CrossCallReturnLabel_217
   1790            }else PANID=AT_ChartoInt16(&cmdUnitArr[2]);
   \                     ??AT_Cmd_EN_4:
   \   000068                ; Setup parameters for call to function AT_ChartoInt16
   \   000068   7408         MOV     A,#0x8
   \   00006A   12....       LCALL   ?XSTACK_DISP0_8
   \   00006D   12....       LCALL   ?Subroutine119 & 0xFFFF
   1791            if(cmdUnitArr[0].unitLen==0){
   \                     ??CrossCallReturnLabel_217:
   \   000070   7401         MOV     A,#0x1
   \   000072   12....       LCALL   ?XSTACK_DISP0_8
   \   000075   E0           MOVX    A,@DPTR
   \   000076   700A         JNZ     ??AT_Cmd_EN_5
   1792              channel =0x07FFF800;
   \   000078   90....       MOV     DPTR,#__Constant_7fff800
   \   00007B   78..         MOV     R0,#?V0 + 4
   \   00007D   12....       LCALL   ?L_MOV_X
   \   000080   8014         SJMP    ??AT_Cmd_EN_6
   1793            }else channel=((uint32) 1)<<AT_ChartoInt8(&cmdUnitArr[0]);
   \                     ??AT_Cmd_EN_5:
   \   000082   75..01       MOV     ?V0 + 4,#0x1
   \   000085   75..00       MOV     ?V0 + 5,#0x0
   \   000088   75..00       MOV     ?V0 + 6,#0x0
   \   00008B   75..00       MOV     ?V0 + 7,#0x0
   \   00008E                ; Setup parameters for call to function AT_ChartoInt8
   \   00008E   12....       LCALL   ?Subroutine116 & 0xFFFF
   \                     ??CrossCallReturnLabel_480:
   \   000091   78..         MOV     R0,#?V0 + 4
   \   000093   12....       LCALL   ?L_SHL
   1794            
   1795            if (ZG_BUILD_COORDINATOR_TYPE )
   1796            {  
   1797              //register the ZDO call back functio to receive the join confirm
   1798              ZDO_RegisterForZdoCB(ZDO_JOIN_CNF_CBID, AT_ZDO_ProcessJOIN_CNF_CB);
   \                     ??AT_Cmd_EN_6:
   \   000096                ; Setup parameters for call to function ZDO_RegisterForZdoCB
   \   000096   7A..         MOV     R2,#??AT_ZDO_ProcessJOIN_CNF_CB?relay & 0xff
   \   000098   7B..         MOV     R3,#(??AT_ZDO_ProcessJOIN_CNF_CB?relay >> 8) & 0xff
   \   00009A   7904         MOV     R1,#0x4
   \   00009C   12....       LCALL   ??ZDO_RegisterForZdoCB?relay
   1799              status = NLME_NetworkFormationRequest( PANID, _NIB.extendedPANID, channel,
   1800                                                    STARTING_SCAN_DURATION, BEACON_ORDER_NO_BEACONS,
   1801                                                    BEACON_ORDER_NO_BEACONS, AT_ChartoInt16(&cmdUnitArr[1]) );
   \   00009F                ; Setup parameters for call to function NLME_NetworkFormationRequest
   \   00009F                ; Setup parameters for call to function AT_ChartoInt16
   \   00009F   7404         MOV     A,#0x4
   \   0000A1   12....       LCALL   ?XSTACK_DISP0_8
   \   0000A4   12....       LCALL   ?Subroutine127 & 0xFFFF
   1802            }
   \                     ??CrossCallReturnLabel_235:
   \   0000A7   F5..         MOV     ?V0 + 1,A
   \   0000A9   78..         MOV     R0,#?V0 + 1
   \   0000AB   12....       LCALL   ?PUSH_XSTACK_I_ONE
   \   0000AE   75..0F       MOV     ?V0 + 1,#0xf
   \   0000B1   78..         MOV     R0,#?V0 + 1
   \   0000B3   12....       LCALL   ?PUSH_XSTACK_I_ONE
   \   0000B6   78..         MOV     R0,#?V0 + 1
   \   0000B8   12....       LCALL   ?PUSH_XSTACK_I_ONE
   \   0000BB   78..         MOV     R0,#?V0 + 4
   \   0000BD   12....       LCALL   ?PUSH_XSTACK_I_FOUR
   \   0000C0   7905         MOV     R1,#0x5
   \   0000C2   7C..         MOV     R4,#(_NIB + 53) & 0xff
   \   0000C4   7D..         MOV     R5,#((_NIB + 53) >> 8) & 0xff
   \   0000C6   EE           MOV     A,R6
   \   0000C7   FA           MOV     R2,A
   \   0000C8   EF           MOV     A,R7
   \   0000C9   FB           MOV     R3,A
   \   0000CA   12....       LCALL   ??NLME_NetworkFormationRequest?relay
   \   0000CD   7407         MOV     A,#0x7
   \   0000CF   12....       LCALL   ?DEALLOC_XSTACK8
   \   0000D2   E9           MOV     A,R1
   1803            else{
   1804              AT_ERROR(AT_WRONG_DEV_ERROR);
   1805              
   1806              //cancel the join confirm call back function because of the error
   1807              ZDO_RegisterForZdoCB(ZDO_JOIN_CNF_CBID, AT_ZDO_ProcessJOIN_CNF_CB);
   1808              return;
   1809            }
   1810            if(status!=ZSUCCESS){
   \   0000D3   6003         JZ      $+5
   \   0000D5   02....       LJMP    ??AT_Cmd_EN_2 & 0xFFFF
   1811              AT_ERROR(status);
   \   0000D8                ; Setup parameters for call to function AT_UARTWriteErrMsg
   1812              return;
   1813            }
   1814            AT_OK();
   \   0000D8                ; Setup parameters for call to function AT_HalUARTWrite
   \   0000D8   7C07         MOV     R4,#0x7
   \   0000DA   7D00         MOV     R5,#0x0
   \   0000DC   7A..         MOV     R2,#`?<Constant "\\r\\nOK\\r\\n">` & 0xff
   \   0000DE   7B..         MOV     R3,#(`?<Constant "\\r\\nOK\\r\\n">` >> 8) & 0xff
   \   0000E0   7900         MOV     R1,#0x0
   \   0000E2   12....       LCALL   ??AT_HalUARTWrite?relay
   1815          }
   \                     ??AT_Cmd_EN_3:
   \   0000E5   7410         MOV     A,#0x10
   \   0000E7   02....       LJMP    ?Subroutine7 & 0xFFFF

   \                                 In  segment BANKED_CODE, align 1, keep-with-next
   \                     ?Subroutine132:
   \   000000   AA82         MOV     R2,DPL
   \   000002   AB83         MOV     R3,DPH
   \   000004   12....       LCALL   ??AT_ChartoIntx?relay
   \   000007   7409         MOV     A,#0x9
   \   000009   22           RET

   \                                 In  segment BANKED_CODE, align 1, keep-with-next
   \                     ?Subroutine127:
   \   000000   AA82         MOV     R2,DPL
   \   000002   AB83         MOV     R3,DPH
   \   000004   12....       LCALL   ??AT_ChartoInt16?relay
   \   000007   EA           MOV     A,R2
   \   000008   22           RET
   1816          

   \                                 In  segment BANKED_CODE, align 1, keep-with-next
   1817          void AT_Cmd_DASSL(uint8 start_point, uint8* msg){
   \                     AT_Cmd_DASSL:
   \   000000   74F7         MOV     A,#-0x9
   \   000002   12....       LCALL   ?BANKED_ENTER_XDATA
   \   000005                ; Saved register size: 9
   \   000005                ; Auto size: 9
   \   000005   74F7         MOV     A,#-0x9
   \   000007   12....       LCALL   ?ALLOC_XSTACK8
   1818            AT_CmdUnit cmdUnitArr[1];
   1819            start_point = AT_get_next_cmdUnit(&cmdUnitArr[0],start_point, msg);
   \   00000A                ; Setup parameters for call to function AT_get_next_cmdUnit
   \   00000A   12....       LCALL   ?Subroutine97 & 0xFFFF
   1820            AT_PARSE_CMD_PATTERN_ERROR("\r",cmdUnitArr);  
   \                     ??CrossCallReturnLabel_159:
   \   00000D   7032         JNZ     ??AT_Cmd_DASSL_0
   \   00000F                ; Setup parameters for call to function AT_UARTWriteErrMsg
   1821            
   1822            /*typedef struct
   1823              {
   1824              uint8* extAddr;
   1825              uint8 removeChildren;
   1826              uint8 rejoin;
   1827              uint8 silent;
   1828              } NLME_LeaveReq_t;
   1829            */
   1830          //be careful with the coordinator, it cannot join the network again.
   1831            NLME_LeaveReq_t req={
   1832              NULL, //NULL: remove this device. otherwise remove child device
   1833              false,
   1834              false,
   1835              true
   1836            };
   \   00000F   7404         MOV     A,#0x4
   \   000011   12....       LCALL   ?XSTACK_DISP0_8
   \   000014   AC82         MOV     R4,DPL
   \   000016   AD83         MOV     R5,DPH
   \   000018   7583..       MOV     DPH,#(`?<Constant {(unsigned char *)0, 0, 0, 1}>` >> 8) & 0xff
   \   00001B   7582..       MOV     DPL,#`?<Constant {(unsigned char *)0, 0, 0, 1}>` & 0xff
   \   00001E   7405         MOV     A,#0x5
   \   000020   12....       LCALL   ?MOVE_LONG8_XDATA_XDATA
   1837            uint8 state;
   1838            if((state=NLME_LeaveReq( &req ))==ZSUCCESS){
   \   000023                ; Setup parameters for call to function NLME_LeaveReq
   \   000023   7404         MOV     A,#0x4
   \   000025   12....       LCALL   ?XSTACK_DISP0_8
   \   000028   AA82         MOV     R2,DPL
   \   00002A   AB83         MOV     R3,DPH
   \   00002C   12....       LCALL   ??NLME_LeaveReq?relay
   \   00002F   E9           MOV     A,R1
   \   000030   700F         JNZ     ??AT_Cmd_DASSL_0
   1839              AT_OK();
   \   000032                ; Setup parameters for call to function AT_HalUARTWrite
   \   000032   7C07         MOV     R4,#0x7
   \   000034   7D00         MOV     R5,#0x0
   \   000036   7A..         MOV     R2,#`?<Constant "\\r\\nOK\\r\\n">` & 0xff
   \   000038   7B..         MOV     R3,#(`?<Constant "\\r\\nOK\\r\\n">` >> 8) & 0xff
   \   00003A   7900         MOV     R1,#0x0
   \   00003C   12....       LCALL   ??AT_HalUARTWrite?relay
   \   00003F   8003         SJMP    ??AT_Cmd_DASSL_1
   1840            }else AT_ERROR(state);
   \                     ??AT_Cmd_DASSL_0:
   \   000041                ; Setup parameters for call to function AT_UARTWriteErrMsg
   \   000041   12....       LCALL   ??AT_UARTWriteErrMsg?relay
   \                     ??AT_Cmd_DASSL_1:
   \   000044   7409         MOV     A,#0x9
   \   000046   02....       LJMP    ??Subroutine172_0 & 0xFFFF
   1841          }
   1842          /*****************************************************************
   1843          +DASSR C Disassociate Remote Node from PAN (ZDO) 
   1844                Execute Command AT+DASSR:<address> 
   1845                        Where 
   1846                        <address> can be a nodes EUI64, NodeID or address table index 
   1847                        Use on All Devices 
   1848          
   1849          
   1850                Note
   1851                        Use with care when targeting a Coordinator. 
   1852                        It will not be able to rejoin the PAN
   1853          
   1854          
   1855          ********************************************************************/

   \                                 In  segment BANKED_CODE, align 1, keep-with-next
   1856          void AT_Cmd_DASSR(uint8 start_point, uint8* msg){
   \                     AT_Cmd_DASSR:
   \   000000   74F4         MOV     A,#-0xc
   \   000002   12....       LCALL   ?BANKED_ENTER_XDATA
   \   000005                ; Saved register size: 12
   \   000005                ; Auto size: 25
   \   000005   74E7         MOV     A,#-0x19
   \   000007   12....       LCALL   ?ALLOC_XSTACK8
   \   00000A   89..         MOV     ?V0 + 2,R1
   \   00000C   EA           MOV     A,R2
   \   00000D   FE           MOV     R6,A
   \   00000E   EB           MOV     A,R3
   \   00000F   FF           MOV     R7,A
   1857            AT_CmdUnit cmdUnitArr[2];
   1858            uint8 i;
   1859            for(i=0;i<2;i++)start_point = AT_get_next_cmdUnit(&cmdUnitArr[i],start_point, msg);  
   \   000010   75..00       MOV     ?V0 + 3,#0x0
   \                     ??AT_Cmd_DASSR_0:
   \   000013                ; Setup parameters for call to function AT_get_next_cmdUnit
   \   000013   EE           MOV     A,R6
   \   000014   FC           MOV     R4,A
   \   000015   EF           MOV     A,R7
   \   000016   FD           MOV     R5,A
   \   000017   A9..         MOV     R1,?V0 + 2
   \   000019   85....       MOV     ?V0 + 0,?V0 + 3
   \   00001C   75..00       MOV     ?V0 + 1,#0x0
   \   00001F   7402         MOV     A,#0x2
   \   000021   78..         MOV     R0,#?V0 + 0
   \   000023   12....       LCALL   ?S_SHL
   \   000026   12....       LCALL   ?Subroutine56 & 0xFFFF
   \                     ??CrossCallReturnLabel_380:
   \   000029   40E8         JC      ??AT_Cmd_DASSR_0
   1860            AT_PARSE_CMD_PATTERN_ERROR(":\r",cmdUnitArr); 
   \   00002B                ; Setup parameters for call to function AT_pattern_check
   \   00002B   12....       LCALL   ?Subroutine108 & 0xFFFF
   \                     ??CrossCallReturnLabel_427:
   \   00002E   6003         JZ      $+5
   \   000030   02....       LJMP    ??AT_Cmd_DASSR_1 & 0xFFFF
   \   000033                ; Setup parameters for call to function AT_UARTWriteErrMsg
   1861            
   1862          
   1863            zAddrType_t addr;
   1864            if(cmdUnitArr[0].unitLen==0){
   \   000033   7401         MOV     A,#0x1
   \   000035   12....       LCALL   ?XSTACK_DISP0_8
   \   000038   E0           MOVX    A,@DPTR
   \   000039   7005         JNZ     ??AT_Cmd_DASSR_2
   1865              AT_ERROR(AT_LACK_PARA);
   \   00003B                ; Setup parameters for call to function AT_UARTWriteErrMsg
   \   00003B   7925         MOV     R1,#0x25
   \   00003D   02....       LJMP    ??AT_Cmd_DASSR_1 & 0xFFFF
   1866              return;
   1867            }else if(cmdUnitArr[0].unitLen>10){               
   \                     ??AT_Cmd_DASSR_2:
   \   000040   C3           CLR     C
   \   000041   940B         SUBB    A,#0xb
   \   000043   4021         JC      ??AT_Cmd_DASSR_3
   1868              AT_ChartoIntx(&cmdUnitArr[0],addr.addr.extAddr, 64);  
   \   000045                ; Setup parameters for call to function AT_ChartoIntx
   \   000045   7940         MOV     R1,#0x40
   \   000047   7408         MOV     A,#0x8
   \   000049   12....       LCALL   ?XSTACK_DISP0_8
   \   00004C   AC82         MOV     R4,DPL
   \   00004E   AD83         MOV     R5,DPH
   \   000050   85..82       MOV     DPL,?XSP + 0
   \   000053   85..83       MOV     DPH,?XSP + 1
   \   000056   AA82         MOV     R2,DPL
   \   000058   AB83         MOV     R3,DPH
   \   00005A   12....       LCALL   ??AT_ChartoIntx?relay
   1869              addr.addrMode = (afAddrMode_t)Addr64Bit;                  
   \   00005D   7410         MOV     A,#0x10
   \   00005F   12....       LCALL   ?XSTACK_DISP0_8
   \   000062   7403         MOV     A,#0x3
   \   000064   801C         SJMP    ??AT_Cmd_DASSR_4
   1870            }else{                                                         
   1871              addr.addr.shortAddr =AT_ChartoInt16(&cmdUnitArr[0]);            
   \                     ??AT_Cmd_DASSR_3:
   \   000066                ; Setup parameters for call to function AT_ChartoInt16
   \   000066   85..82       MOV     DPL,?XSP + 0
   \   000069   85..83       MOV     DPH,?XSP + 1
   \   00006C   AA82         MOV     R2,DPL
   \   00006E   AB83         MOV     R3,DPH
   \   000070   12....       LCALL   ??AT_ChartoInt16?relay
   \   000073   7408         MOV     A,#0x8
   \   000075   12....       LCALL   ?XSTACK_DISP0_8
   \   000078   12....       LCALL   ??Subroutine209_0 & 0xFFFF
   1872              addr.addrMode = (afAddrMode_t)Addr16Bit;       
   \                     ??CrossCallReturnLabel_519:
   \   00007B   7410         MOV     A,#0x10
   \   00007D   12....       LCALL   ?XSTACK_DISP0_8
   \   000080   7402         MOV     A,#0x2
   \                     ??AT_Cmd_DASSR_4:
   \   000082   F0           MOVX    @DPTR,A
   1873            }
   1874            uint8 state;
   1875            uint8 nonValidIEEEAddr[8] ={0,0,0,0,0,0,0,0};
   \   000083   7411         MOV     A,#0x11
   \   000085   12....       LCALL   ?XSTACK_DISP0_8
   \   000088   AC82         MOV     R4,DPL
   \   00008A   AD83         MOV     R5,DPH
   \   00008C   7583..       MOV     DPH,#(`?<Constant {0, 0, 0, 0, 0, 0, 0, 0}>` >> 8) & 0xff
   \   00008F   7582..       MOV     DPL,#`?<Constant {0, 0, 0, 0, 0, 0, 0, 0}>` & 0xff
   \   000092   7408         MOV     A,#0x8
   \   000094   12....       LCALL   ?MOVE_LONG8_XDATA_XDATA
   1876            state = ZDP_MgmtLeaveReq( &addr,nonValidIEEEAddr, 
   1877                                             false,
   1878                                             false, 
   1879                                             false );
   \   000097                ; Setup parameters for call to function ZDP_MgmtLeaveReq
   \   000097   F5..         MOV     ?V0 + 0,A
   \   000099   78..         MOV     R0,#?V0 + 0
   \   00009B   12....       LCALL   ?PUSH_XSTACK_I_ONE
   \   00009E   78..         MOV     R0,#?V0 + 0
   \   0000A0   12....       LCALL   ?PUSH_XSTACK_I_ONE
   \   0000A3   7900         MOV     R1,#0x0
   \   0000A5   7413         MOV     A,#0x13
   \   0000A7   12....       LCALL   ?XSTACK_DISP0_8
   \   0000AA   AC82         MOV     R4,DPL
   \   0000AC   AD83         MOV     R5,DPH
   \   0000AE   740A         MOV     A,#0xa
   \   0000B0   12....       LCALL   ?XSTACK_DISP0_8
   \   0000B3   AA82         MOV     R2,DPL
   \   0000B5   AB83         MOV     R3,DPH
   \   0000B7   12....       LCALL   ??ZDP_MgmtLeaveReq?relay
   \   0000BA   7402         MOV     A,#0x2
   \   0000BC   12....       LCALL   ?DEALLOC_XSTACK8
   \   0000BF   E9           MOV     A,R1
   1880          
   1881            if(state==ZSUCCESS){
   \   0000C0   700F         JNZ     ??AT_Cmd_DASSR_1
   1882              AT_OK();
   \   0000C2                ; Setup parameters for call to function AT_HalUARTWrite
   \   0000C2   7C07         MOV     R4,#0x7
   \   0000C4   7D00         MOV     R5,#0x0
   \   0000C6   7A..         MOV     R2,#`?<Constant "\\r\\nOK\\r\\n">` & 0xff
   \   0000C8   7B..         MOV     R3,#(`?<Constant "\\r\\nOK\\r\\n">` >> 8) & 0xff
   \   0000CA   7900         MOV     R1,#0x0
   \   0000CC   12....       LCALL   ??AT_HalUARTWrite?relay
   \   0000CF   8003         SJMP    ??AT_Cmd_DASSR_5
   1883            }else AT_ERROR(state);
   \                     ??AT_Cmd_DASSR_1:
   \   0000D1                ; Setup parameters for call to function AT_UARTWriteErrMsg
   \   0000D1   12....       LCALL   ??AT_UARTWriteErrMsg?relay
   \                     ??AT_Cmd_DASSR_5:
   \   0000D4                REQUIRE ?Subroutine16
   \   0000D4                ; // Fall through to label ?Subroutine16
   1884          }

   \                                 In  segment BANKED_CODE, align 1, keep-with-next
   \                     ?Subroutine16:
   \   000000   7419         MOV     A,#0x19
   \   000002   02....       LJMP    ??Subroutine195_0 & 0xFFFF
   1885          /****************************************************************
   1886          AT+PJOIN:<sec> or AT+PJOIN 
   1887                        <sec> - 16 bit hexadecimal number which represents the length 
   1888                                of time in seconds during which the ZigBee coordinator 
   1889                                or router will allow associations.
   1890          
   1891          in my: 0xff for permitting all the time
   1892          0x00 for disable the permitting
   1893          *****************************************************************/

   \                                 In  segment BANKED_CODE, align 1, keep-with-next
   1894          void AT_Cmd_PJOIN(uint8 start_point, uint8* msg){
   \                     AT_Cmd_PJOIN:
   \   000000   74F4         MOV     A,#-0xc
   \   000002   12....       LCALL   ?BANKED_ENTER_XDATA
   \   000005                ; Saved register size: 12
   \   000005                ; Auto size: 8
   \   000005   74F8         MOV     A,#-0x8
   \   000007   12....       LCALL   ?ALLOC_XSTACK8
   \   00000A   89..         MOV     ?V0 + 2,R1
   \   00000C   EA           MOV     A,R2
   \   00000D   FE           MOV     R6,A
   \   00000E   EB           MOV     A,R3
   \   00000F   FF           MOV     R7,A
   1895             AT_CmdUnit cmdUnitArr[2];
   1896            uint8 i;
   1897            for(i=0;i<2;i++)start_point = AT_get_next_cmdUnit(&cmdUnitArr[i],start_point, msg);  
   \   000010   75..00       MOV     ?V0 + 3,#0x0
   \                     ??AT_Cmd_PJOIN_0:
   \   000013                ; Setup parameters for call to function AT_get_next_cmdUnit
   \   000013   EE           MOV     A,R6
   \   000014   FC           MOV     R4,A
   \   000015   EF           MOV     A,R7
   \   000016   FD           MOV     R5,A
   \   000017   A9..         MOV     R1,?V0 + 2
   \   000019   85....       MOV     ?V0 + 0,?V0 + 3
   \   00001C   75..00       MOV     ?V0 + 1,#0x0
   \   00001F   7402         MOV     A,#0x2
   \   000021   78..         MOV     R0,#?V0 + 0
   \   000023   12....       LCALL   ?S_SHL
   \   000026   12....       LCALL   ?Subroutine56 & 0xFFFF
   \                     ??CrossCallReturnLabel_381:
   \   000029   40E8         JC      ??AT_Cmd_PJOIN_0
   1898            AT_PARSE_CMD_PATTERN_ERROR(":\r",cmdUnitArr); 
   \   00002B                ; Setup parameters for call to function AT_pattern_check
   \   00002B   12....       LCALL   ?Subroutine108 & 0xFFFF
   \                     ??CrossCallReturnLabel_428:
   \   00002E   702F         JNZ     ??AT_Cmd_PJOIN_1
   \   000030                ; Setup parameters for call to function AT_UARTWriteErrMsg
   1899          /*  
   1900            zAddrType_t addr={
   1901              {_NIB.nwkDevAddress},
   1902              (afAddrMode_t)Addr16Bit
   1903            };
   1904          */  
   1905            
   1906            uint8 state;
   1907            if(cmdUnitArr[0].unitLen==0){
   \   000030   7401         MOV     A,#0x1
   \   000032   12....       LCALL   ?XSTACK_DISP0_8
   \   000035   E0           MOVX    A,@DPTR
   \   000036   7017         JNZ     ??AT_Cmd_PJOIN_2
   1908              //if((state=ZDP_MgmtPermitJoinReq(&addr,60,false,0))==ZSUCCESS){ 
   1909              if((state=NLME_PermitJoiningRequest(60))==ZSUCCESS){
   \   000038                ; Setup parameters for call to function NLME_PermitJoiningRequest
   \   000038   793C         MOV     R1,#0x3c
   \   00003A   12....       LCALL   ??NLME_PermitJoiningRequest?relay
   \   00003D   E9           MOV     A,R1
   \   00003E   701F         JNZ     ??AT_Cmd_PJOIN_1
   1910                AT_OK();
   \                     ??AT_Cmd_PJOIN_3:
   \   000040                ; Setup parameters for call to function AT_HalUARTWrite
   \   000040   7C07         MOV     R4,#0x7
   \   000042   7D00         MOV     R5,#0x0
   \   000044   7A..         MOV     R2,#`?<Constant "\\r\\nOK\\r\\n">` & 0xff
   \   000046   7B..         MOV     R3,#(`?<Constant "\\r\\nOK\\r\\n">` >> 8) & 0xff
   \   000048   7900         MOV     R1,#0x0
   \   00004A   12....       LCALL   ??AT_HalUARTWrite?relay
   \   00004D   8013         SJMP    ??AT_Cmd_PJOIN_4
   1911              }else AT_ERROR(state);
   1912            }
   1913            else{
   1914              uint16 duration = AT_ChartoInt16(&cmdUnitArr[0]);
   1915              //if((state=ZDP_MgmtPermitJoinReq(&addr,duration,false,0))==ZSUCCESS){
   1916              if((state=NLME_PermitJoiningRequest(duration))==ZSUCCESS){
   \                     ??AT_Cmd_PJOIN_2:
   \   00004F                ; Setup parameters for call to function NLME_PermitJoiningRequest
   \   00004F                ; Setup parameters for call to function AT_ChartoInt16
   \   00004F   85..82       MOV     DPL,?XSP + 0
   \   000052   85..83       MOV     DPH,?XSP + 1
   \   000055   12....       LCALL   ?Subroutine127 & 0xFFFF
   \                     ??CrossCallReturnLabel_236:
   \   000058   F9           MOV     R1,A
   \   000059   12....       LCALL   ??NLME_PermitJoiningRequest?relay
   \   00005C   E9           MOV     A,R1
   \   00005D   60E1         JZ      ??AT_Cmd_PJOIN_3
   1917                AT_OK();
   1918              }else AT_ERROR(state);
   \   00005F                ; Setup parameters for call to function AT_UARTWriteErrMsg
   \                     ??AT_Cmd_PJOIN_1:
   \   00005F   12....       LCALL   ??AT_UARTWriteErrMsg?relay
   1919            }
   \                     ??AT_Cmd_PJOIN_4:
   \   000062   02....       LJMP    ?Subroutine12 & 0xFFFF
   1920            
   1921          }
   1922          
   1923          /***************************************
   1924          +JPAN C Join Specific PAN Execute Command 
   1925              AT+JPAN:[<channel>],[<PANID>],[<EPANID>]
   1926          
   1927          **************************************************/

   \                                 In  segment BANKED_CODE, align 1, keep-with-next
   1928          void AT_Cmd_JPAN(uint8 start_point, uint8* msg){
   \                     AT_Cmd_JPAN:
   \   000000   74F4         MOV     A,#-0xc
   \   000002   12....       LCALL   ?BANKED_ENTER_XDATA
   \   000005                ; Saved register size: 12
   \   000005                ; Auto size: 16
   \   000005   74F0         MOV     A,#-0x10
   \   000007   12....       LCALL   ?ALLOC_XSTACK8
   \   00000A   89..         MOV     ?V0 + 2,R1
   \   00000C   EA           MOV     A,R2
   \   00000D   FE           MOV     R6,A
   \   00000E   EB           MOV     A,R3
   \   00000F   FF           MOV     R7,A
   1929            AT_CmdUnit cmdUnitArr[4];
   1930            uint8 i;
   1931            for(i=0;i<4;i++)start_point = AT_get_next_cmdUnit(&cmdUnitArr[i],start_point, msg);  
   \   000010   75..00       MOV     ?V0 + 3,#0x0
   \                     ??AT_Cmd_JPAN_0:
   \   000013                ; Setup parameters for call to function AT_get_next_cmdUnit
   \   000013   EE           MOV     A,R6
   \   000014   FC           MOV     R4,A
   \   000015   EF           MOV     A,R7
   \   000016   FD           MOV     R5,A
   \   000017   A9..         MOV     R1,?V0 + 2
   \   000019   85....       MOV     ?V0 + 0,?V0 + 3
   \   00001C   75..00       MOV     ?V0 + 1,#0x0
   \   00001F   7402         MOV     A,#0x2
   \   000021   78..         MOV     R0,#?V0 + 0
   \   000023   12....       LCALL   ?S_SHL
   \   000026   85..82       MOV     DPL,?XSP + 0
   \   000029   85..83       MOV     DPH,?XSP + 1
   \   00002C   12....       LCALL   ?Subroutine57 & 0xFFFF
   \                     ??CrossCallReturnLabel_83:
   \   00002F   40E2         JC      ??AT_Cmd_JPAN_0
   1932            AT_PARSE_CMD_PATTERN_ERROR(":,,\r",cmdUnitArr); 
   \   000031                ; Setup parameters for call to function AT_pattern_check
   \   000031   85..82       MOV     DPL,?XSP + 0
   \   000034   85..83       MOV     DPH,?XSP + 1
   \   000037   AC82         MOV     R4,DPL
   \   000039   AD83         MOV     R5,DPH
   \   00003B   7A..         MOV     R2,#`?<Constant ":,,\\r">` & 0xff
   \   00003D   7B..         MOV     R3,#(`?<Constant ":,,\\r">` >> 8) & 0xff
   \   00003F   12....       LCALL   ??Subroutine200_0 & 0xFFFF
   \                     ??CrossCallReturnLabel_456:
   \   000042   7002         JNZ     ??AT_Cmd_JPAN_1
   \   000044                ; Setup parameters for call to function AT_UARTWriteErrMsg
   1933            
   1934          
   1935            uint8 state;
   1936           // uint8 extPANID[8];
   1937            uint32 channels;
   1938            
   1939            if(ZG_BUILD_JOINING_TYPE){
   1940              AT_ChartoIntx(&cmdUnitArr[2],ZDO_UseExtendedPANID, 64);
   1941              if(cmdUnitArr[1].unitLen==0){
   1942                 zgConfigPANID =0xFFFF;
   1943              }else zgConfigPANID=AT_ChartoInt16(&cmdUnitArr[1]);
   1944              if(cmdUnitArr[0].unitLen==0){
   1945                channels =0x07FFF800;
   1946              }else channels=((uint32) 1)<<AT_ChartoInt8(&cmdUnitArr[0]);
   1947              if(cmdUnitArr[2].unitLen==0){
   1948                osal_memcpy( ZDO_UseExtendedPANID, "\0\0\0\0\0\0\0\0", 8);//invalid address enable the device allow all the ExtPANid
   1949              }else AT_ChartoIntx(&cmdUnitArr[2],ZDO_UseExtendedPANID, 64);;
   1950              
   1951              //_NIB.nwkState = NWK_DISC;
   1952              
   1953              //register the ZDO call back functio to receive the join confirm 
   1954              ZDO_RegisterForZdoCB(ZDO_JOIN_CNF_CBID, AT_ZDO_ProcessJOIN_CNF_CB);
   1955              
   1956              //these variable in ZDO layer will control the flow process of ZDO APP, so change it 
   1957              //to reach the needed purpose.
   1958              //similar with state machine
   1959              extern devStartModes_t devStartMode;
   1960              //zdoDiscCounter=1;
   1961              //continueJoining=true;
   1962              //zgDefaultChannelList =channels;
   1963              //zgDefaultStartingScanDuration = BEACON_ORDER_480_MSEC;
   1964              devState=DEV_NWK_DISC;    //change state to DEV_NEW_DISC the flow proces will tend to join or rejoin a network after a discover requset
   1965              devStartMode=MODE_JOIN;   //change start mode will let the ZDO folow the JOIN proces, rather than the REJOIN process
   1966             
   1967              state=NLME_NetworkDiscoveryRequest( channels,BEACON_ORDER_480_MSEC);  //can be substitute by ZDO_StartDevice( byte logicalType, devStartModes_t startMode,
   1968                                                                                    //byte beaconOrder, byte superframeOrder );
   1969                                                                                    //however, if do so, the zgDefaultChannelList and the zgDefaultStartingScanDuration need to be set
   1970                                                                                    //to control channel and scan duration
   1971                                                          //using ZDO layer discover call back funtion to keep the ZDO working well, rather than bother it
   1972            
   1973            }else{
   1974              //coordinator can't join to any pan
   1975              //pan coordinator have only address 0x0000
   1976              //it is the network starter
   1977              AT_ERROR(AT_WRONG_DEV_ERROR);
   \   000044                ; Setup parameters for call to function AT_UARTWriteErrMsg
   \   000044   7903         MOV     R1,#0x3
   \                     ??AT_Cmd_JPAN_1:
   \   000046   12....       LCALL   ??AT_UARTWriteErrMsg?relay
   1978              return;
   \   000049   02....       LJMP    ?Subroutine15 & 0xFFFF
   1979            }
   1980            if(state==ZSUCCESS){
   1981              AT_OK();
   1982            }else {
   1983              //here I should recover the change of the ZDO variables, such as devState and devStartMode..
   1984              //however, I don't want to change it, because, I want it try its best to join a network.
   1985              
   1986              //cancel the join confirm call back function because of the error 
   1987              
   1988              //ZDO_RegisterForZdoCB(ZDO_JOIN_CNF_CBID, NULL);
   1989              AT_ERROR(state);
   1990            }
   1991            
   1992           
   1993            /*
   1994            if ( (state=NLME_JoinRequest( extPANID,
   1995                           AT_ChartoInt16(&cmdUnitArr[1]),
   1996                           AT_ChartoInt8(&cmdUnitArr[0]),
   1997                           ZDO_Config_Node_Descriptor.CapabilityFlags )) == ZSuccess )
   1998                      {
   1999                        AT_OK();
   2000                      }
   2001            else AT_ERROR(state);
   2002              */
   2003            
   2004            
   2005          }

   \                                 In  segment BANKED_CODE, align 1, keep-with-next
   2006          void AT_Cmd_JN(uint8 start_point, uint8* msg){
   \                     AT_Cmd_JN:
   \   000000   74F7         MOV     A,#-0x9
   \   000002   12....       LCALL   ?BANKED_ENTER_XDATA
   \   000005                ; Saved register size: 9
   \   000005                ; Auto size: 4
   \   000005   74FC         MOV     A,#-0x4
   \   000007   12....       LCALL   ?ALLOC_XSTACK8
   2007            AT_CmdUnit cmdUnitArr[1];
   2008            start_point = AT_get_next_cmdUnit(&cmdUnitArr[0],start_point, msg);
   \   00000A                ; Setup parameters for call to function AT_get_next_cmdUnit
   \   00000A   12....       LCALL   ?Subroutine97 & 0xFFFF
   2009            AT_PARSE_CMD_PATTERN_ERROR("\r",cmdUnitArr); 
   \                     ??CrossCallReturnLabel_160:
   \   00000D   7002         JNZ     ??AT_Cmd_JN_0
   \   00000F                ; Setup parameters for call to function AT_UARTWriteErrMsg
   2010            uint8 state;
   2011            
   2012            
   2013            if(ZG_BUILD_JOINING_TYPE){
   2014              //continueJoining=true;
   2015              //zdoDiscCounter=1;
   2016              //ZDO_UpdateNwkStatus( DEV_NWK_DISC );
   2017              devState=DEV_NWK_DISC;
   2018              zgConfigPANID =0xFFFF;    //JOIN ANY EXIT NETWORK
   2019              
   2020              extern devStartModes_t devStartMode;
   2021              devStartMode=MODE_JOIN;   //change start mode will let the ZDO folow the JOIN proces, rather than the REJOIN process
   2022              //register the ZDO call back functio to receive the join confirm 
   2023              ZDO_RegisterForZdoCB(ZDO_JOIN_CNF_CBID, AT_ZDO_ProcessJOIN_CNF_CB);
   2024              if((state=NLME_NetworkDiscoveryRequest( 0x07FFF800,BEACON_ORDER_480_MSEC))==ZSUCCESS){
   2025                AT_OK();
   2026              }else {
   2027                AT_ERROR(state);
   2028                
   2029                //here I should recover the change of the ZDO variables, such as devState and devStartMode..
   2030                //however, I don't want to change it, because, I want it try its best to join a network.
   2031                
   2032                //cancel/retrieve the join confirm call back function because of the error 
   2033                ZDO_RegisterForZdoCB(ZDO_JOIN_CNF_CBID, NULL);
   2034              }
   2035            }
   2036            else{
   2037              //a coordinator cannot join any network,
   2038              //it takes charge of starting a network
   2039              AT_ERROR(AT_WRONG_DEV_ERROR);
   \   00000F                ; Setup parameters for call to function AT_UARTWriteErrMsg
   \   00000F   7903         MOV     R1,#0x3
   \                     ??AT_Cmd_JN_0:
   \   000011   12....       LCALL   ??AT_UARTWriteErrMsg?relay
   2040            }
   \   000014   02....       LJMP    ?Subroutine0 & 0xFFFF
   2041          }
   2042          
   2043          /*****************************************************************************
   2044          +NTABLE C Display Neighbour Table
   2045               AT+NTABLE:XX,<address> 
   2046                  Where XX is the start index of the remote LQI table and 
   2047                  <address> can be the remote nodes EUI64, Node ID or address table entry.
   2048          
   2049              This command requests the target node to respond by listing its neighbour table 
   2050              starting from the requested index. Can be used to find the identity of all ZigBee 
   2051              devices in the network including non-Telegesis devices. 
   2052              Prompt (example) 
   2053                    NTable:<NodeID>,<errorcode> 
   2054                    Length:03 
   2055                    No.| Type | EUI | ID | LQI 
   2056                    0. | FFD | 000D6F000015896B | BC04 | FF 
   2057                    1. | FFD | 000D6F00000B3E77 | 739D | FF 
   2058                    2. | FFD | 000D6F00000AAD11 | 75E3 | FF
   2059          ******************************************************************************/
   2060          

   \                                 In  segment BANKED_CODE, align 1, keep-with-next
   2061          void AT_Cmd_NTABLE(uint8 start_point, uint8* msg){
   \                     AT_Cmd_NTABLE:
   \   000000   74F4         MOV     A,#-0xc
   \   000002   12....       LCALL   ?BANKED_ENTER_XDATA
   \   000005                ; Saved register size: 12
   \   000005                ; Auto size: 22
   \   000005   74EA         MOV     A,#-0x16
   \   000007   12....       LCALL   ?ALLOC_XSTACK8
   \   00000A   89..         MOV     ?V0 + 2,R1
   \   00000C   EA           MOV     A,R2
   \   00000D   FE           MOV     R6,A
   \   00000E   EB           MOV     A,R3
   \   00000F   FF           MOV     R7,A
   2062            AT_CmdUnit cmdUnitArr[3];
   2063            uint8 i;
   2064            for(i=0;i<3;i++)start_point = AT_get_next_cmdUnit(&cmdUnitArr[i],start_point, msg);  
   \   000010   75..00       MOV     ?V0 + 3,#0x0
   \                     ??AT_Cmd_NTABLE_0:
   \   000013                ; Setup parameters for call to function AT_get_next_cmdUnit
   \   000013   EE           MOV     A,R6
   \   000014   FC           MOV     R4,A
   \   000015   EF           MOV     A,R7
   \   000016   FD           MOV     R5,A
   \   000017   A9..         MOV     R1,?V0 + 2
   \   000019   85....       MOV     ?V0 + 0,?V0 + 3
   \   00001C   75..00       MOV     ?V0 + 1,#0x0
   \   00001F   7402         MOV     A,#0x2
   \   000021   78..         MOV     R0,#?V0 + 0
   \   000023   12....       LCALL   ?S_SHL
   \   000026   740A         MOV     A,#0xa
   \   000028   12....       LCALL   ?XSTACK_DISP0_8
   \   00002B   12....       LCALL   ?Subroutine55 & 0xFFFF
   \                     ??CrossCallReturnLabel_74:
   \   00002E   40E3         JC      ??AT_Cmd_NTABLE_0
   2065            AT_PARSE_CMD_PATTERN_ERROR(":,\r",cmdUnitArr); 
   \   000030                ; Setup parameters for call to function AT_pattern_check
   \   000030   740A         MOV     A,#0xa
   \   000032   12....       LCALL   ?XSTACK_DISP0_8
   \   000035   AC82         MOV     R4,DPL
   \   000037   AD83         MOV     R5,DPH
   \   000039   7A..         MOV     R2,#`?<Constant ":,\\r">` & 0xff
   \   00003B   7B..         MOV     R3,#(`?<Constant ":,\\r">` >> 8) & 0xff
   \   00003D   12....       LCALL   ??Subroutine200_0 & 0xFFFF
   \                     ??CrossCallReturnLabel_457:
   \   000040   6006         JZ      ??AT_Cmd_NTABLE_1
   \   000042                ; Setup parameters for call to function AT_UARTWriteErrMsg
   \                     ??AT_Cmd_NTABLE_2:
   \   000042   12....       LCALL   ??AT_UARTWriteErrMsg?relay
   \   000045   02....       LJMP    ??AT_Cmd_NTABLE_3 & 0xFFFF
   2066          
   2067            zAddrType_t dstAddr;
   2068            uint8 startIndex = AT_ChartoInt16(&cmdUnitArr[0]);
   \                     ??AT_Cmd_NTABLE_1:
   \   000048                ; Setup parameters for call to function AT_ChartoInt16
   \   000048   740A         MOV     A,#0xa
   \   00004A   12....       LCALL   ?XSTACK_DISP0_8
   \   00004D   12....       LCALL   ?Subroutine118 & 0xFFFF
   2069            if(cmdUnitArr[1].unitLen==16){               
   \                     ??CrossCallReturnLabel_212:
   \   000050   12....       LCALL   ?XSTACK_DISP0_8
   \   000053   E0           MOVX    A,@DPTR
   \   000054   6410         XRL     A,#0x10
   \   000056   701A         JNZ     ??AT_Cmd_NTABLE_4
   2070              AT_ChartoIntx(&cmdUnitArr[1],dstAddr.addr.extAddr, 64);  
   \   000058                ; Setup parameters for call to function AT_ChartoIntx
   \   000058   7940         MOV     R1,#0x40
   \   00005A   7401         MOV     A,#0x1
   \   00005C   12....       LCALL   ?XSTACK_DISP0_8
   \   00005F   AC82         MOV     R4,DPL
   \   000061   AD83         MOV     R5,DPH
   \   000063   740E         MOV     A,#0xe
   \   000065   12....       LCALL   ?XSTACK_DISP0_8
   \   000068   12....       LCALL   ?Subroutine132 & 0xFFFF
   2071              dstAddr.addrMode = (afAddrMode_t)Addr64Bit;                  
   2072            }else{                                                         
   \                     ??CrossCallReturnLabel_252:
   \   00006B   12....       LCALL   ?XSTACK_DISP0_8
   \   00006E   7403         MOV     A,#0x3
   \   000070   8013         SJMP    ??AT_Cmd_NTABLE_5
   2073              dstAddr.addr.shortAddr =AT_ChartoInt16(&cmdUnitArr[1]);            
   \                     ??AT_Cmd_NTABLE_4:
   \   000072                ; Setup parameters for call to function AT_ChartoInt16
   \   000072   740E         MOV     A,#0xe
   \   000074   12....       LCALL   ?XSTACK_DISP0_8
   \   000077   12....       LCALL   ?Subroutine125 & 0xFFFF
   2074              dstAddr.addrMode = (afAddrMode_t)Addr16Bit;       
   2075            }
   \                     ??CrossCallReturnLabel_229:
   \   00007A   12....       LCALL   ?XSTACK_DISP0_8
   \   00007D   12....       LCALL   ?Subroutine21 & 0xFFFF
   \                     ??CrossCallReturnLabel_7:
   \   000080   12....       LCALL   ?XSTACK_DISP0_8
   \   000083   7402         MOV     A,#0x2
   \                     ??AT_Cmd_NTABLE_5:
   \   000085   12....       LCALL   ?Subroutine20 & 0xFFFF
   2076            uint8 state;
   2077            state = ZDP_MgmtLqiReq( &dstAddr, startIndex, 0 );
   \                     ??CrossCallReturnLabel_0:
   \   000088   12....       LCALL   ?PUSH_XSTACK_I_ONE
   \   00008B   7401         MOV     A,#0x1
   \   00008D   12....       LCALL   ?XSTACK_DISP0_8
   \   000090   8582..       MOV     ?V0 + 0,DPL
   \   000093   8583..       MOV     ?V0 + 1,DPH
   \   000096   78..         MOV     R0,#?V0 + 0
   \   000098   12....       LCALL   ?PUSH_XSTACK_I_TWO
   \   00009B   75..31       MOV     ?V0 + 0,#0x31
   \   00009E   75..00       MOV     ?V0 + 1,#0x0
   \   0000A1   78..         MOV     R0,#?V0 + 0
   \   0000A3   12....       LCALL   ?PUSH_XSTACK_I_TWO
   \   0000A6   7901         MOV     R1,#0x1
   \   0000A8   7406         MOV     A,#0x6
   \   0000AA   12....       LCALL   ?XSTACK_DISP0_8
   \   0000AD   AC82         MOV     R4,DPL
   \   0000AF   AD83         MOV     R5,DPH
   \   0000B1   7A..         MOV     R2,#ZDP_TransID & 0xff
   \   0000B3   7B..         MOV     R3,#(ZDP_TransID >> 8) & 0xff
   \   0000B5   12....       LCALL   ??ZDP_SendData?relay
   \   0000B8   7405         MOV     A,#0x5
   \   0000BA   12....       LCALL   ?DEALLOC_XSTACK8
   \   0000BD   E9           MOV     A,R1
   2078            if(state!=afStatus_SUCCESS) AT_ERROR(state);
   \   0000BE   7082         JNZ     ??AT_Cmd_NTABLE_2
   \   0000C0                ; Setup parameters for call to function AT_UARTWriteErrMsg
   2079            else AT_OK();
   \   0000C0                ; Setup parameters for call to function AT_HalUARTWrite
   \   0000C0   7C07         MOV     R4,#0x7
   \   0000C2   7D00         MOV     R5,#0x0
   \   0000C4   7A..         MOV     R2,#`?<Constant "\\r\\nOK\\r\\n">` & 0xff
   \   0000C6   7B..         MOV     R3,#(`?<Constant "\\r\\nOK\\r\\n">` >> 8) & 0xff
   \   0000C8   7900         MOV     R1,#0x0
   \   0000CA   12....       LCALL   ??AT_HalUARTWrite?relay
   \                     ??AT_Cmd_NTABLE_3:
   \   0000CD                REQUIRE ?Subroutine17
   \   0000CD                ; // Fall through to label ?Subroutine17
   2080          }

   \                                 In  segment BANKED_CODE, align 1, keep-with-next
   \                     ?Subroutine17:
   \   000000   7416         MOV     A,#0x16
   \   000002   02....       LJMP    ??Subroutine195_0 & 0xFFFF

   \                                 In  segment BANKED_CODE, align 1, keep-with-next
   \                     ?Subroutine118:
   \   000000   AA82         MOV     R2,DPL
   \   000002   AB83         MOV     R3,DPH
   \   000004   12....       LCALL   ??AT_ChartoInt16?relay
   \   000007   EA           MOV     A,R2
   \   000008   85..82       MOV     DPL,?XSP + 0
   \   00000B   85..83       MOV     DPH,?XSP + 1
   \   00000E   F0           MOVX    @DPTR,A
   \   00000F   740F         MOV     A,#0xf
   \   000011   22           RET

   \                                 In  segment BANKED_CODE, align 1, keep-with-next
   \                     ?Subroutine20:
   \   000000   F0           MOVX    @DPTR,A
   \   000001                ; Setup parameters for call to function ZDP_SendData
   \   000001                ; Setup parameters for call to function ZDP_SendData
   \   000001                ; Setup parameters for call to function ZDP_NWKAddrOfInterestReq
   \   000001                ; Setup parameters for call to function ZDP_NWKAddrOfInterestReq
   \   000001                ; Setup parameters for call to function ZDP_NWKAddrOfInterestReq
   \   000001                ; Setup parameters for call to function ZDP_SendData
   \   000001                ; Setup parameters for call to function zcl_SendDiscoverCmd
   \   000001   75..00       MOV     ?V0 + 0,#0x0
   \   000004   78..         MOV     R0,#?V0 + 0
   \   000006   22           RET

   \                                 In  segment BANKED_CODE, align 1, keep-with-next
   \                     ?Subroutine125:
   \   000000   AA82         MOV     R2,DPL
   \   000002   AB83         MOV     R3,DPH
   \   000004   12....       LCALL   ??AT_ChartoInt16?relay
   \   000007   7401         MOV     A,#0x1
   \   000009   22           RET

   \                                 In  segment BANKED_CODE, align 1, keep-with-next
   \                     ?Subroutine21:
   \   000000   EA           MOV     A,R2
   \   000001   F0           MOVX    @DPTR,A
   \   000002   A3           INC     DPTR
   \   000003   EB           MOV     A,R3
   \   000004   F0           MOVX    @DPTR,A
   \   000005   7409         MOV     A,#0x9
   \   000007   22           RET
   2081          
   2082          
   2083          /*****************************************************************************
   2084          +RTABLE C Display Routing Table
   2085               AT+NTABLE:XX,<address> 
   2086                  Where XX is the start index of the remote LQI table and 
   2087                  <address> can be the remote nodes EUI64, Node ID or address table entry.
   2088          
   2089              This command requests the target node to respond by listing its routing table 
   2090              starting from the requested index. 
   2091              Prompt (example) 
   2092                  RTable:<NodeID>,<errorcode> 
   2093                  Length:03 
   2094                  No.| Dest | Next | Status 
   2095                  0. | 1234 | ABCD | 00 
   2096                  1. | 4321 | 739D | 00 
   2097                  2. | 0000 | 0000 | 03
   2098          ******************************************************************************/
   2099          

   \                                 In  segment BANKED_CODE, align 1, keep-with-next
   2100          void AT_Cmd_RTABLE(uint8 start_point, uint8* msg){
   \                     AT_Cmd_RTABLE:
   \   000000   74F4         MOV     A,#-0xc
   \   000002   12....       LCALL   ?BANKED_ENTER_XDATA
   \   000005                ; Saved register size: 12
   \   000005                ; Auto size: 22
   \   000005   74EA         MOV     A,#-0x16
   \   000007   12....       LCALL   ?ALLOC_XSTACK8
   \   00000A   89..         MOV     ?V0 + 2,R1
   \   00000C   EA           MOV     A,R2
   \   00000D   FE           MOV     R6,A
   \   00000E   EB           MOV     A,R3
   \   00000F   FF           MOV     R7,A
   2101            AT_CmdUnit cmdUnitArr[3];
   2102            uint8 i;
   2103            for(i=0;i<3;i++)start_point = AT_get_next_cmdUnit(&cmdUnitArr[i],start_point, msg);  
   \   000010   75..00       MOV     ?V0 + 3,#0x0
   \                     ??AT_Cmd_RTABLE_0:
   \   000013                ; Setup parameters for call to function AT_get_next_cmdUnit
   \   000013   EE           MOV     A,R6
   \   000014   FC           MOV     R4,A
   \   000015   EF           MOV     A,R7
   \   000016   FD           MOV     R5,A
   \   000017   A9..         MOV     R1,?V0 + 2
   \   000019   85....       MOV     ?V0 + 0,?V0 + 3
   \   00001C   75..00       MOV     ?V0 + 1,#0x0
   \   00001F   7402         MOV     A,#0x2
   \   000021   78..         MOV     R0,#?V0 + 0
   \   000023   12....       LCALL   ?S_SHL
   \   000026   740A         MOV     A,#0xa
   \   000028   12....       LCALL   ?XSTACK_DISP0_8
   \   00002B   12....       LCALL   ?Subroutine55 & 0xFFFF
   \                     ??CrossCallReturnLabel_75:
   \   00002E   40E3         JC      ??AT_Cmd_RTABLE_0
   2104            AT_PARSE_CMD_PATTERN_ERROR(":,\r",cmdUnitArr); 
   \   000030                ; Setup parameters for call to function AT_pattern_check
   \   000030   740A         MOV     A,#0xa
   \   000032   12....       LCALL   ?XSTACK_DISP0_8
   \   000035   AC82         MOV     R4,DPL
   \   000037   AD83         MOV     R5,DPH
   \   000039   7A..         MOV     R2,#`?<Constant ":,\\r">` & 0xff
   \   00003B   7B..         MOV     R3,#(`?<Constant ":,\\r">` >> 8) & 0xff
   \   00003D   12....       LCALL   ??Subroutine200_0 & 0xFFFF
   \                     ??CrossCallReturnLabel_458:
   \   000040   6006         JZ      ??AT_Cmd_RTABLE_1
   \   000042                ; Setup parameters for call to function AT_UARTWriteErrMsg
   \                     ??AT_Cmd_RTABLE_2:
   \   000042   12....       LCALL   ??AT_UARTWriteErrMsg?relay
   \   000045   02....       LJMP    ??AT_Cmd_RTABLE_3 & 0xFFFF
   2105          
   2106            zAddrType_t dstAddr;
   2107            uint8 startIndex = AT_ChartoInt16(&cmdUnitArr[0]);
   \                     ??AT_Cmd_RTABLE_1:
   \   000048                ; Setup parameters for call to function AT_ChartoInt16
   \   000048   740A         MOV     A,#0xa
   \   00004A   12....       LCALL   ?XSTACK_DISP0_8
   \   00004D   12....       LCALL   ?Subroutine118 & 0xFFFF
   2108            if(cmdUnitArr[1].unitLen==16){               
   \                     ??CrossCallReturnLabel_213:
   \   000050   12....       LCALL   ?XSTACK_DISP0_8
   \   000053   E0           MOVX    A,@DPTR
   \   000054   6410         XRL     A,#0x10
   \   000056   701A         JNZ     ??AT_Cmd_RTABLE_4
   2109              AT_ChartoIntx(&cmdUnitArr[1],dstAddr.addr.extAddr, 64);  
   \   000058                ; Setup parameters for call to function AT_ChartoIntx
   \   000058   7940         MOV     R1,#0x40
   \   00005A   7401         MOV     A,#0x1
   \   00005C   12....       LCALL   ?XSTACK_DISP0_8
   \   00005F   AC82         MOV     R4,DPL
   \   000061   AD83         MOV     R5,DPH
   \   000063   740E         MOV     A,#0xe
   \   000065   12....       LCALL   ?XSTACK_DISP0_8
   \   000068   12....       LCALL   ?Subroutine132 & 0xFFFF
   2110              dstAddr.addrMode = (afAddrMode_t)Addr64Bit;                  
   2111            }else{                                                         
   \                     ??CrossCallReturnLabel_253:
   \   00006B   12....       LCALL   ?XSTACK_DISP0_8
   \   00006E   7403         MOV     A,#0x3
   \   000070   8013         SJMP    ??AT_Cmd_RTABLE_5
   2112              dstAddr.addr.shortAddr =AT_ChartoInt16(&cmdUnitArr[1]);            
   \                     ??AT_Cmd_RTABLE_4:
   \   000072                ; Setup parameters for call to function AT_ChartoInt16
   \   000072   740E         MOV     A,#0xe
   \   000074   12....       LCALL   ?XSTACK_DISP0_8
   \   000077   12....       LCALL   ?Subroutine125 & 0xFFFF
   2113              dstAddr.addrMode = (afAddrMode_t)Addr16Bit;       
   2114            }
   \                     ??CrossCallReturnLabel_230:
   \   00007A   12....       LCALL   ?XSTACK_DISP0_8
   \   00007D   12....       LCALL   ?Subroutine21 & 0xFFFF
   \                     ??CrossCallReturnLabel_8:
   \   000080   12....       LCALL   ?XSTACK_DISP0_8
   \   000083   7402         MOV     A,#0x2
   \                     ??AT_Cmd_RTABLE_5:
   \   000085   12....       LCALL   ?Subroutine20 & 0xFFFF
   2115            uint8 state;
   2116            state = ZDP_MgmtRtgReq( &dstAddr, startIndex, 0 );
   \                     ??CrossCallReturnLabel_1:
   \   000088   12....       LCALL   ?PUSH_XSTACK_I_ONE
   \   00008B   7401         MOV     A,#0x1
   \   00008D   12....       LCALL   ?XSTACK_DISP0_8
   \   000090   8582..       MOV     ?V0 + 0,DPL
   \   000093   8583..       MOV     ?V0 + 1,DPH
   \   000096   78..         MOV     R0,#?V0 + 0
   \   000098   12....       LCALL   ?PUSH_XSTACK_I_TWO
   \   00009B   75..32       MOV     ?V0 + 0,#0x32
   \   00009E   75..00       MOV     ?V0 + 1,#0x0
   \   0000A1   78..         MOV     R0,#?V0 + 0
   \   0000A3   12....       LCALL   ?PUSH_XSTACK_I_TWO
   \   0000A6   7901         MOV     R1,#0x1
   \   0000A8   7406         MOV     A,#0x6
   \   0000AA   12....       LCALL   ?XSTACK_DISP0_8
   \   0000AD   AC82         MOV     R4,DPL
   \   0000AF   AD83         MOV     R5,DPH
   \   0000B1   7A..         MOV     R2,#ZDP_TransID & 0xff
   \   0000B3   7B..         MOV     R3,#(ZDP_TransID >> 8) & 0xff
   \   0000B5   12....       LCALL   ??ZDP_SendData?relay
   \   0000B8   7405         MOV     A,#0x5
   \   0000BA   12....       LCALL   ?DEALLOC_XSTACK8
   \   0000BD   E9           MOV     A,R1
   2117            if(state!=afStatus_SUCCESS) AT_ERROR(state);
   \   0000BE   7082         JNZ     ??AT_Cmd_RTABLE_2
   \   0000C0                ; Setup parameters for call to function AT_UARTWriteErrMsg
   2118            else AT_OK();
   \   0000C0                ; Setup parameters for call to function AT_HalUARTWrite
   \   0000C0   7C07         MOV     R4,#0x7
   \   0000C2   7D00         MOV     R5,#0x0
   \   0000C4   7A..         MOV     R2,#`?<Constant "\\r\\nOK\\r\\n">` & 0xff
   \   0000C6   7B..         MOV     R3,#(`?<Constant "\\r\\nOK\\r\\n">` >> 8) & 0xff
   \   0000C8   7900         MOV     R1,#0x0
   \   0000CA   12....       LCALL   ??AT_HalUARTWrite?relay
   \                     ??AT_Cmd_RTABLE_3:
   \   0000CD   02....       LJMP    ?Subroutine17 & 0xFFFF
   2119          }
   2120          
   2121          /***********************************************************************
   2122          +NODEDESC C Request Nodes Descriptor (ZDO)
   2123                AT+NODEDESC:<Address>,<NodeID> Where 
   2124                      <Address> is the EUI64, NodeID or Address table entry of the node
   2125                                which is to be interrogated about the node with the NodeID 
   2126                                specified in <NodeID>. 
   2127                      Sends a unicast to obtain the specified devices node descriptor.
   2128          
   2129          
   2130          Prompt (example) 
   2131          
   2132              NodeDesc:<NodeID>,<errorcode>
   2133              Type:FFD 
   2134              ComplexDesc:No 
   2135              UserDesc:No 
   2136              APSFlags:00 
   2137              FreqBand:40 
   2138              MacCap:8E 
   2139              ManufCode:1010 
   2140              MaxBufSize:52 
   2141              MaxInSize:0080 
   2142              SrvMask:0000 
   2143              MaxOutSize:0080 
   2144              DescCap:00
   2145          ***************************************************************************/

   \                                 In  segment BANKED_CODE, align 1, keep-with-next
   2146          void AT_Cmd_NODEDESC(uint8 start_point, uint8* msg){
   \                     AT_Cmd_NODEDESC:
   \   000000   74F4         MOV     A,#-0xc
   \   000002   12....       LCALL   ?BANKED_ENTER_XDATA
   \   000005                ; Saved register size: 12
   \   000005                ; Auto size: 21
   \   000005   74EB         MOV     A,#-0x15
   \   000007   12....       LCALL   ?ALLOC_XSTACK8
   \   00000A   89..         MOV     ?V0 + 2,R1
   \   00000C   EA           MOV     A,R2
   \   00000D   FE           MOV     R6,A
   \   00000E   EB           MOV     A,R3
   \   00000F   FF           MOV     R7,A
   2147            AT_CmdUnit cmdUnitArr[3];
   2148            uint8 i;
   2149            for(i=0;i<3;i++)start_point = AT_get_next_cmdUnit(&cmdUnitArr[i],start_point, msg);  
   \   000010   75..00       MOV     ?V0 + 3,#0x0
   \                     ??AT_Cmd_NODEDESC_0:
   \   000013                ; Setup parameters for call to function AT_get_next_cmdUnit
   \   000013   EE           MOV     A,R6
   \   000014   FC           MOV     R4,A
   \   000015   EF           MOV     A,R7
   \   000016   FD           MOV     R5,A
   \   000017   A9..         MOV     R1,?V0 + 2
   \   000019   85....       MOV     ?V0 + 0,?V0 + 3
   \   00001C   75..00       MOV     ?V0 + 1,#0x0
   \   00001F   7402         MOV     A,#0x2
   \   000021   78..         MOV     R0,#?V0 + 0
   \   000023   12....       LCALL   ?S_SHL
   \   000026   7409         MOV     A,#0x9
   \   000028   12....       LCALL   ?XSTACK_DISP0_8
   \   00002B   12....       LCALL   ?Subroutine55 & 0xFFFF
   \                     ??CrossCallReturnLabel_76:
   \   00002E   40E3         JC      ??AT_Cmd_NODEDESC_0
   2150            AT_PARSE_CMD_PATTERN_ERROR(":,\r",cmdUnitArr); 
   \   000030                ; Setup parameters for call to function AT_pattern_check
   \   000030   7409         MOV     A,#0x9
   \   000032   12....       LCALL   ?XSTACK_DISP0_8
   \   000035   AC82         MOV     R4,DPL
   \   000037   AD83         MOV     R5,DPH
   \   000039   7A..         MOV     R2,#`?<Constant ":,\\r">` & 0xff
   \   00003B   7B..         MOV     R3,#(`?<Constant ":,\\r">` >> 8) & 0xff
   \   00003D   12....       LCALL   ??Subroutine200_0 & 0xFFFF
   \                     ??CrossCallReturnLabel_459:
   \   000040   6005         JZ      ??AT_Cmd_NODEDESC_1
   \   000042                ; Setup parameters for call to function AT_UARTWriteErrMsg
   \                     ??AT_Cmd_NODEDESC_2:
   \   000042   12....       LCALL   ??AT_UARTWriteErrMsg?relay
   \   000045   8062         SJMP    ??AT_Cmd_NODEDESC_3
   2151          
   2152            zAddrType_t dstAddr;
   2153            //uint8 startIndex = AT_ChartoInt16(&cmdUnitArr[2]);
   2154            if(cmdUnitArr[0].unitLen>10){               
   \                     ??AT_Cmd_NODEDESC_1:
   \   000047   740A         MOV     A,#0xa
   \   000049   12....       LCALL   ?XSTACK_DISP0_8
   \   00004C   E0           MOVX    A,@DPTR
   \   00004D   C3           CLR     C
   \   00004E   940B         SUBB    A,#0xb
   \   000050   401B         JC      ??AT_Cmd_NODEDESC_4
   2155              AT_ChartoIntx(&cmdUnitArr[0],dstAddr.addr.extAddr, 64);  
   \   000052                ; Setup parameters for call to function AT_ChartoIntx
   \   000052   7940         MOV     R1,#0x40
   \   000054   85..82       MOV     DPL,?XSP + 0
   \   000057   85..83       MOV     DPH,?XSP + 1
   \   00005A   AC82         MOV     R4,DPL
   \   00005C   AD83         MOV     R5,DPH
   \   00005E   7409         MOV     A,#0x9
   \   000060   12....       LCALL   ?XSTACK_DISP0_8
   \   000063   12....       LCALL   ?Subroutine131 & 0xFFFF
   2156              dstAddr.addrMode = (afAddrMode_t)Addr64Bit;                  
   2157            }else{                                                         
   \                     ??CrossCallReturnLabel_245:
   \   000066   12....       LCALL   ?XSTACK_DISP0_8
   \   000069   7403         MOV     A,#0x3
   \   00006B   800D         SJMP    ??AT_Cmd_NODEDESC_5
   2158              dstAddr.addr.shortAddr =AT_ChartoInt16(&cmdUnitArr[0]);            
   \                     ??AT_Cmd_NODEDESC_4:
   \   00006D                ; Setup parameters for call to function AT_ChartoInt16
   \   00006D   7409         MOV     A,#0x9
   \   00006F   12....       LCALL   ?XSTACK_DISP0_8
   \   000072   12....       LCALL   ?Subroutine19 & 0xFFFF
   2159              dstAddr.addrMode = (afAddrMode_t)Addr16Bit;       
   2160            }
   \                     ??CrossCallReturnLabel_416:
   \   000075   12....       LCALL   ?XSTACK_DISP0_8
   \   000078   7402         MOV     A,#0x2
   \                     ??AT_Cmd_NODEDESC_5:
   \   00007A   12....       LCALL   ?Subroutine20 & 0xFFFF
   2161            uint8 state;
   2162            state = ZDP_NodeDescReq(&dstAddr,AT_ChartoInt16(&cmdUnitArr[1]), 0);
   \                     ??CrossCallReturnLabel_2:
   \   00007D   12....       LCALL   ?PUSH_XSTACK_I_ONE
   \   000080                ; Setup parameters for call to function AT_ChartoInt16
   \   000080   740E         MOV     A,#0xe
   \   000082   12....       LCALL   ?XSTACK_DISP0_8
   \   000085   12....       LCALL   ?Subroutine121 & 0xFFFF
   \                     ??CrossCallReturnLabel_220:
   \   000088   F9           MOV     R1,A
   \   000089   14           DEC     A
   \   00008A   12....       LCALL   ?XSTACK_DISP0_8
   \   00008D   AA82         MOV     R2,DPL
   \   00008F   AB83         MOV     R3,DPH
   \   000091   12....       LCALL   ??ZDP_NWKAddrOfInterestReq?relay
   \   000094   7401         MOV     A,#0x1
   \   000096   12....       LCALL   ?DEALLOC_XSTACK8
   \   000099   E9           MOV     A,R1
   2163            if(state!=afStatus_SUCCESS) AT_ERROR(state);
   \   00009A   70A6         JNZ     ??AT_Cmd_NODEDESC_2
   \   00009C                ; Setup parameters for call to function AT_UARTWriteErrMsg
   2164            else AT_OK();
   \   00009C                ; Setup parameters for call to function AT_HalUARTWrite
   \   00009C   7C07         MOV     R4,#0x7
   \   00009E   7D00         MOV     R5,#0x0
   \   0000A0   7A..         MOV     R2,#`?<Constant "\\r\\nOK\\r\\n">` & 0xff
   \   0000A2   7B..         MOV     R3,#(`?<Constant "\\r\\nOK\\r\\n">` >> 8) & 0xff
   \   0000A4   7900         MOV     R1,#0x0
   \   0000A6   12....       LCALL   ??AT_HalUARTWrite?relay
   \                     ??AT_Cmd_NODEDESC_3:
   \   0000A9   02....       LJMP    ?Subroutine13 & 0xFFFF
   2165          }

   \                                 In  segment BANKED_CODE, align 1, keep-with-next
   \                     ?Subroutine19:
   \   000000   AA82         MOV     R2,DPL
   \   000002   AB83         MOV     R3,DPH
   \   000004   12....       LCALL   ??AT_ChartoInt16?relay
   \   000007                REQUIRE ??Subroutine197_0
   \   000007                ; // Fall through to label ??Subroutine197_0

   \                                 In  segment BANKED_CODE, align 1, keep-with-next
   \                     ?Subroutine131:
   \   000000   AA82         MOV     R2,DPL
   \   000002   AB83         MOV     R3,DPH
   \   000004   12....       LCALL   ??AT_ChartoIntx?relay
   \   000007   7408         MOV     A,#0x8
   \   000009   22           RET

   \                                 In  segment BANKED_CODE, align 1, keep-with-next
   \                     ?Subroutine121:
   \   000000   12....       LCALL   ?Subroutine162 & 0xFFFF
   \                     ??CrossCallReturnLabel_298:
   \   000003   7402         MOV     A,#0x2
   \   000005   22           RET
   2166          
   2167          /***********************************************************************
   2168          +POWERDESC C Request Nodes Power Descriptor (ZDO) 
   2169              AT+POWERDESC:<Address>,<NodeID> Where 
   2170                    <Address> is the EUI64, Node ID or Address table entry of the node 
   2171                              which is to be interrogated about the node with the Node 
   2172                              ID specified in <NodeID>. 
   2173                    Sends a unicast to obtain the specified devices power descriptor.
   2174          
   2175              Prompt 
   2176                    PowerDesc:<NodeID>,<errorcode>[,<PowerDescriptor>]
   2177          ***************************************************************************/

   \                                 In  segment BANKED_CODE, align 1, keep-with-next
   2178          void AT_Cmd_POWERDESC(uint8 start_point, uint8* msg){
   \                     AT_Cmd_POWERDESC:
   \   000000   74F4         MOV     A,#-0xc
   \   000002   12....       LCALL   ?BANKED_ENTER_XDATA
   \   000005                ; Saved register size: 12
   \   000005                ; Auto size: 21
   \   000005   74EB         MOV     A,#-0x15
   \   000007   12....       LCALL   ?ALLOC_XSTACK8
   \   00000A   89..         MOV     ?V0 + 2,R1
   \   00000C   EA           MOV     A,R2
   \   00000D   FE           MOV     R6,A
   \   00000E   EB           MOV     A,R3
   \   00000F   FF           MOV     R7,A
   2179            AT_CmdUnit cmdUnitArr[3];
   2180            uint8 i;
   2181            for(i=0;i<3;i++)start_point = AT_get_next_cmdUnit(&cmdUnitArr[i],start_point, msg);  
   \   000010   75..00       MOV     ?V0 + 3,#0x0
   \                     ??AT_Cmd_POWERDESC_0:
   \   000013                ; Setup parameters for call to function AT_get_next_cmdUnit
   \   000013   EE           MOV     A,R6
   \   000014   FC           MOV     R4,A
   \   000015   EF           MOV     A,R7
   \   000016   FD           MOV     R5,A
   \   000017   A9..         MOV     R1,?V0 + 2
   \   000019   85....       MOV     ?V0 + 0,?V0 + 3
   \   00001C   75..00       MOV     ?V0 + 1,#0x0
   \   00001F   7402         MOV     A,#0x2
   \   000021   78..         MOV     R0,#?V0 + 0
   \   000023   12....       LCALL   ?S_SHL
   \   000026   7409         MOV     A,#0x9
   \   000028   12....       LCALL   ?XSTACK_DISP0_8
   \   00002B   12....       LCALL   ?Subroutine55 & 0xFFFF
   \                     ??CrossCallReturnLabel_77:
   \   00002E   40E3         JC      ??AT_Cmd_POWERDESC_0
   2182            AT_PARSE_CMD_PATTERN_ERROR(":,\r",cmdUnitArr); 
   \   000030                ; Setup parameters for call to function AT_pattern_check
   \   000030   7409         MOV     A,#0x9
   \   000032   12....       LCALL   ?XSTACK_DISP0_8
   \   000035   AC82         MOV     R4,DPL
   \   000037   AD83         MOV     R5,DPH
   \   000039   7A..         MOV     R2,#`?<Constant ":,\\r">` & 0xff
   \   00003B   7B..         MOV     R3,#(`?<Constant ":,\\r">` >> 8) & 0xff
   \   00003D   12....       LCALL   ??Subroutine200_0 & 0xFFFF
   \                     ??CrossCallReturnLabel_460:
   \   000040   6005         JZ      ??AT_Cmd_POWERDESC_1
   \   000042                ; Setup parameters for call to function AT_UARTWriteErrMsg
   \                     ??AT_Cmd_POWERDESC_2:
   \   000042   12....       LCALL   ??AT_UARTWriteErrMsg?relay
   \   000045   8068         SJMP    ??AT_Cmd_POWERDESC_3
   2183          
   2184            zAddrType_t dstAddr;
   2185            //uint8 startIndex = AT_ChartoInt16(&cmdUnitArr[2]);
   2186            if(cmdUnitArr[0].unitLen>10){               
   \                     ??AT_Cmd_POWERDESC_1:
   \   000047   740A         MOV     A,#0xa
   \   000049   12....       LCALL   ?XSTACK_DISP0_8
   \   00004C   E0           MOVX    A,@DPTR
   \   00004D   C3           CLR     C
   \   00004E   940B         SUBB    A,#0xb
   \   000050   401B         JC      ??AT_Cmd_POWERDESC_4
   2187              AT_ChartoIntx(&cmdUnitArr[0],dstAddr.addr.extAddr, 64);  
   \   000052                ; Setup parameters for call to function AT_ChartoIntx
   \   000052   7940         MOV     R1,#0x40
   \   000054   85..82       MOV     DPL,?XSP + 0
   \   000057   85..83       MOV     DPH,?XSP + 1
   \   00005A   AC82         MOV     R4,DPL
   \   00005C   AD83         MOV     R5,DPH
   \   00005E   7409         MOV     A,#0x9
   \   000060   12....       LCALL   ?XSTACK_DISP0_8
   \   000063   12....       LCALL   ?Subroutine131 & 0xFFFF
   2188              dstAddr.addrMode = (afAddrMode_t)Addr64Bit;                  
   2189            }else{                                                         
   \                     ??CrossCallReturnLabel_246:
   \   000066   12....       LCALL   ?XSTACK_DISP0_8
   \   000069   7403         MOV     A,#0x3
   \   00006B   800D         SJMP    ??AT_Cmd_POWERDESC_5
   2190              dstAddr.addr.shortAddr =AT_ChartoInt16(&cmdUnitArr[0]);            
   \                     ??AT_Cmd_POWERDESC_4:
   \   00006D                ; Setup parameters for call to function AT_ChartoInt16
   \   00006D   7409         MOV     A,#0x9
   \   00006F   12....       LCALL   ?XSTACK_DISP0_8
   \   000072   12....       LCALL   ?Subroutine19 & 0xFFFF
   2191              dstAddr.addrMode = (afAddrMode_t)Addr16Bit;       
   2192            }
   \                     ??CrossCallReturnLabel_417:
   \   000075   12....       LCALL   ?XSTACK_DISP0_8
   \   000078   7402         MOV     A,#0x2
   \                     ??AT_Cmd_POWERDESC_5:
   \   00007A   12....       LCALL   ?Subroutine20 & 0xFFFF
   2193            uint8 state;
   2194            state = ZDP_PowerDescReq(&dstAddr,AT_ChartoInt16(&cmdUnitArr[1]), 0);
   \                     ??CrossCallReturnLabel_3:
   \   00007D   12....       LCALL   ?PUSH_XSTACK_I_ONE
   \   000080                ; Setup parameters for call to function AT_ChartoInt16
   \   000080   740E         MOV     A,#0xe
   \   000082   12....       LCALL   ?XSTACK_DISP0_8
   \   000085   12....       LCALL   ?Subroutine127 & 0xFFFF
   \                     ??CrossCallReturnLabel_237:
   \   000088   FC           MOV     R4,A
   \   000089   EB           MOV     A,R3
   \   00008A   FD           MOV     R5,A
   \   00008B   7403         MOV     A,#0x3
   \   00008D   F9           MOV     R1,A
   \   00008E   7401         MOV     A,#0x1
   \   000090   12....       LCALL   ?XSTACK_DISP0_8
   \   000093   AA82         MOV     R2,DPL
   \   000095   AB83         MOV     R3,DPH
   \   000097   12....       LCALL   ??ZDP_NWKAddrOfInterestReq?relay
   \   00009A   7401         MOV     A,#0x1
   \   00009C   12....       LCALL   ?DEALLOC_XSTACK8
   \   00009F   E9           MOV     A,R1
   2195            if(state!=afStatus_SUCCESS) AT_ERROR(state);
   \   0000A0   70A0         JNZ     ??AT_Cmd_POWERDESC_2
   \   0000A2                ; Setup parameters for call to function AT_UARTWriteErrMsg
   2196            else AT_OK();
   \   0000A2                ; Setup parameters for call to function AT_HalUARTWrite
   \   0000A2   7C07         MOV     R4,#0x7
   \   0000A4   7D00         MOV     R5,#0x0
   \   0000A6   7A..         MOV     R2,#`?<Constant "\\r\\nOK\\r\\n">` & 0xff
   \   0000A8   7B..         MOV     R3,#(`?<Constant "\\r\\nOK\\r\\n">` >> 8) & 0xff
   \   0000AA   7900         MOV     R1,#0x0
   \   0000AC   12....       LCALL   ??AT_HalUARTWrite?relay
   \                     ??AT_Cmd_POWERDESC_3:
   \   0000AF                REQUIRE ?Subroutine13
   \   0000AF                ; // Fall through to label ?Subroutine13
   2197          }
   2198          
   2199          /***********************************************************************
   2200          +ACTEPDESC C Request Nodes Active Endpoint List (ZDO) 
   2201                  AT+ACTEPDESC:<Address>,<NodeID> Where 
   2202                            <Address> is the EUI64, NodeID or Address table entry of the node 
   2203                                      which is to be interrogated about the node with the NodeID 
   2204                                      specified in <NodeID>. 
   2205                            It then sends a unicast to obtain the specified devices active endpoint list.
   2206          
   2207          
   2208          Prompt 
   2209                  ActEpDesc:<NodeID>,<errorcode>[,XX,]
   2210          ***************************************************************************/

   \                                 In  segment BANKED_CODE, align 1, keep-with-next
   2211          void AT_Cmd_ACTEPDESC(uint8 start_point, uint8* msg){
   \                     AT_Cmd_ACTEPDESC:
   \   000000   74F4         MOV     A,#-0xc
   \   000002   12....       LCALL   ?BANKED_ENTER_XDATA
   \   000005                ; Saved register size: 12
   \   000005                ; Auto size: 21
   \   000005   74EB         MOV     A,#-0x15
   \   000007   12....       LCALL   ?ALLOC_XSTACK8
   \   00000A   89..         MOV     ?V0 + 2,R1
   \   00000C   EA           MOV     A,R2
   \   00000D   FE           MOV     R6,A
   \   00000E   EB           MOV     A,R3
   \   00000F   FF           MOV     R7,A
   2212            AT_CmdUnit cmdUnitArr[3];
   2213            uint8 i;
   2214            for(i=0;i<3;i++)start_point = AT_get_next_cmdUnit(&cmdUnitArr[i],start_point, msg);  
   \   000010   75..00       MOV     ?V0 + 3,#0x0
   \                     ??AT_Cmd_ACTEPDESC_0:
   \   000013                ; Setup parameters for call to function AT_get_next_cmdUnit
   \   000013   EE           MOV     A,R6
   \   000014   FC           MOV     R4,A
   \   000015   EF           MOV     A,R7
   \   000016   FD           MOV     R5,A
   \   000017   A9..         MOV     R1,?V0 + 2
   \   000019   85....       MOV     ?V0 + 0,?V0 + 3
   \   00001C   75..00       MOV     ?V0 + 1,#0x0
   \   00001F   7402         MOV     A,#0x2
   \   000021   78..         MOV     R0,#?V0 + 0
   \   000023   12....       LCALL   ?S_SHL
   \   000026   7409         MOV     A,#0x9
   \   000028   12....       LCALL   ?XSTACK_DISP0_8
   \   00002B   12....       LCALL   ?Subroutine55 & 0xFFFF
   \                     ??CrossCallReturnLabel_78:
   \   00002E   40E3         JC      ??AT_Cmd_ACTEPDESC_0
   2215            AT_PARSE_CMD_PATTERN_ERROR(":,\r",cmdUnitArr); 
   \   000030                ; Setup parameters for call to function AT_pattern_check
   \   000030   7409         MOV     A,#0x9
   \   000032   12....       LCALL   ?XSTACK_DISP0_8
   \   000035   AC82         MOV     R4,DPL
   \   000037   AD83         MOV     R5,DPH
   \   000039   7A..         MOV     R2,#`?<Constant ":,\\r">` & 0xff
   \   00003B   7B..         MOV     R3,#(`?<Constant ":,\\r">` >> 8) & 0xff
   \   00003D   12....       LCALL   ??Subroutine200_0 & 0xFFFF
   \                     ??CrossCallReturnLabel_461:
   \   000040   6005         JZ      ??AT_Cmd_ACTEPDESC_1
   \   000042                ; Setup parameters for call to function AT_UARTWriteErrMsg
   \                     ??AT_Cmd_ACTEPDESC_2:
   \   000042   12....       LCALL   ??AT_UARTWriteErrMsg?relay
   \   000045   8063         SJMP    ??AT_Cmd_ACTEPDESC_3
   2216          
   2217            zAddrType_t dstAddr;
   2218            //uint8 startIndex = AT_ChartoInt16(&cmdUnitArr[2]);
   2219            if(cmdUnitArr[0].unitLen>10){               
   \                     ??AT_Cmd_ACTEPDESC_1:
   \   000047   740A         MOV     A,#0xa
   \   000049   12....       LCALL   ?XSTACK_DISP0_8
   \   00004C   E0           MOVX    A,@DPTR
   \   00004D   C3           CLR     C
   \   00004E   940B         SUBB    A,#0xb
   \   000050   401B         JC      ??AT_Cmd_ACTEPDESC_4
   2220              AT_ChartoIntx(&cmdUnitArr[0],dstAddr.addr.extAddr, 64);  
   \   000052                ; Setup parameters for call to function AT_ChartoIntx
   \   000052   7940         MOV     R1,#0x40
   \   000054   85..82       MOV     DPL,?XSP + 0
   \   000057   85..83       MOV     DPH,?XSP + 1
   \   00005A   AC82         MOV     R4,DPL
   \   00005C   AD83         MOV     R5,DPH
   \   00005E   7409         MOV     A,#0x9
   \   000060   12....       LCALL   ?XSTACK_DISP0_8
   \   000063   12....       LCALL   ?Subroutine131 & 0xFFFF
   2221              dstAddr.addrMode = (afAddrMode_t)Addr64Bit;                  
   2222            }else{                                                         
   \                     ??CrossCallReturnLabel_247:
   \   000066   12....       LCALL   ?XSTACK_DISP0_8
   \   000069   7403         MOV     A,#0x3
   \   00006B   800D         SJMP    ??AT_Cmd_ACTEPDESC_5
   2223              dstAddr.addr.shortAddr =AT_ChartoInt16(&cmdUnitArr[0]);            
   \                     ??AT_Cmd_ACTEPDESC_4:
   \   00006D                ; Setup parameters for call to function AT_ChartoInt16
   \   00006D   7409         MOV     A,#0x9
   \   00006F   12....       LCALL   ?XSTACK_DISP0_8
   \   000072   12....       LCALL   ?Subroutine19 & 0xFFFF
   2224              dstAddr.addrMode = (afAddrMode_t)Addr16Bit;       
   2225            }
   \                     ??CrossCallReturnLabel_418:
   \   000075   12....       LCALL   ?XSTACK_DISP0_8
   \   000078   7402         MOV     A,#0x2
   \                     ??AT_Cmd_ACTEPDESC_5:
   \   00007A   12....       LCALL   ?Subroutine20 & 0xFFFF
   2226            uint8 state;
   2227            state = ZDP_ActiveEPReq(&dstAddr,AT_ChartoInt16(&cmdUnitArr[1]), 0);
   \                     ??CrossCallReturnLabel_4:
   \   00007D   12....       LCALL   ?PUSH_XSTACK_I_ONE
   \   000080                ; Setup parameters for call to function AT_ChartoInt16
   \   000080   740E         MOV     A,#0xe
   \   000082   12....       LCALL   ?XSTACK_DISP0_8
   \   000085   12....       LCALL   ?Subroutine122 & 0xFFFF
   \                     ??CrossCallReturnLabel_222:
   \   000088   F9           MOV     R1,A
   \   000089   7401         MOV     A,#0x1
   \   00008B   12....       LCALL   ?XSTACK_DISP0_8
   \   00008E   AA82         MOV     R2,DPL
   \   000090   AB83         MOV     R3,DPH
   \   000092   12....       LCALL   ??ZDP_NWKAddrOfInterestReq?relay
   \   000095   7401         MOV     A,#0x1
   \   000097   12....       LCALL   ?DEALLOC_XSTACK8
   \   00009A   E9           MOV     A,R1
   2228            if(state!=afStatus_SUCCESS) AT_ERROR(state);
   \   00009B   70A5         JNZ     ??AT_Cmd_ACTEPDESC_2
   \   00009D                ; Setup parameters for call to function AT_UARTWriteErrMsg
   2229            else AT_OK();
   \   00009D                ; Setup parameters for call to function AT_HalUARTWrite
   \   00009D   7C07         MOV     R4,#0x7
   \   00009F   7D00         MOV     R5,#0x0
   \   0000A1   7A..         MOV     R2,#`?<Constant "\\r\\nOK\\r\\n">` & 0xff
   \   0000A3   7B..         MOV     R3,#(`?<Constant "\\r\\nOK\\r\\n">` >> 8) & 0xff
   \   0000A5   7900         MOV     R1,#0x0
   \   0000A7   12....       LCALL   ??AT_HalUARTWrite?relay
   \                     ??AT_Cmd_ACTEPDESC_3:
   \   0000AA   02....       LJMP    ?Subroutine13 & 0xFFFF
   2230          }

   \                                 In  segment BANKED_CODE, align 1, keep-with-next
   \                     ?Subroutine122:
   \   000000   12....       LCALL   ?Subroutine162 & 0xFFFF
   \                     ??CrossCallReturnLabel_297:
   \   000003   7405         MOV     A,#0x5
   \   000005   22           RET
   2231          
   2232          
   2233          /*************************************************************
   2234          
   2235          +SIMPLEDESC C Request Endpoints Simple Descriptor (ZDO) 
   2236              AT+SIMPLEDESC:<Address>,<NodeID>,<XX> Where 
   2237                            <Address> is the EUI64, NodeID or Address table entry of the node 
   2238                                      which is to be interrogated about the node with the NodeID 
   2239                                      specified in <NodeID> and 
   2240                            XX is the number of the endpoint, which simple descriptor is to be read.
   2241                            XX should be hexadecimal number. It then sends a unicast to obtain the 
   2242                            specified devices active endpoint list.
   2243          
   2244          Prompt 
   2245              SimpleDesc:<NodeID>,<errorcode>   
   2246              EP:XX 
   2247              ProfileID:XXXX 
   2248              DeviceID:XXXXvXX 
   2249              InCluster:<Cluster List> 
   2250              OutCluster:<Cluster List>
   2251          *************************************************************/

   \                                 In  segment BANKED_CODE, align 1, keep-with-next
   2252          void AT_Cmd_SIMPLEDESC(uint8 start_point, uint8* msg){
   \                     AT_Cmd_SIMPLEDESC:
   \   000000   74F4         MOV     A,#-0xc
   \   000002   12....       LCALL   ?BANKED_ENTER_XDATA
   \   000005                ; Saved register size: 12
   \   000005                ; Auto size: 25
   \   000005   74E7         MOV     A,#-0x19
   \   000007   12....       LCALL   ?ALLOC_XSTACK8
   \   00000A   89..         MOV     ?V0 + 0,R1
   \   00000C   EA           MOV     A,R2
   \   00000D   FE           MOV     R6,A
   \   00000E   EB           MOV     A,R3
   \   00000F   FF           MOV     R7,A
   2253            AT_CmdUnit cmdUnitArr[4];
   2254            uint8 i;
   2255            for(i=0;i<4;i++)start_point = AT_get_next_cmdUnit(&cmdUnitArr[i],start_point, msg);  
   \   000010   75..00       MOV     ?V0 + 1,#0x0
   \                     ??AT_Cmd_SIMPLEDESC_0:
   \   000013                ; Setup parameters for call to function AT_get_next_cmdUnit
   \   000013   EE           MOV     A,R6
   \   000014   FC           MOV     R4,A
   \   000015   EF           MOV     A,R7
   \   000016   FD           MOV     R5,A
   \   000017   A9..         MOV     R1,?V0 + 0
   \   000019   85....       MOV     ?V0 + 2,?V0 + 1
   \   00001C   75..00       MOV     ?V0 + 3,#0x0
   \   00001F   7402         MOV     A,#0x2
   \   000021   78..         MOV     R0,#?V0 + 2
   \   000023   12....       LCALL   ?S_SHL
   \   000026   7409         MOV     A,#0x9
   \   000028   12....       LCALL   ?XSTACK_DISP0_8
   \   00002B   12....       LCALL   ??Subroutine211_0 & 0xFFFF
   \                     ??CrossCallReturnLabel_543:
   \   00002E   40E3         JC      ??AT_Cmd_SIMPLEDESC_0
   2256            AT_PARSE_CMD_PATTERN_ERROR(":,,\r",cmdUnitArr); 
   \   000030                ; Setup parameters for call to function AT_pattern_check
   \   000030   7409         MOV     A,#0x9
   \   000032   12....       LCALL   ?XSTACK_DISP0_8
   \   000035   AC82         MOV     R4,DPL
   \   000037   AD83         MOV     R5,DPH
   \   000039   7A..         MOV     R2,#`?<Constant ":,,\\r">` & 0xff
   \   00003B   7B..         MOV     R3,#(`?<Constant ":,,\\r">` >> 8) & 0xff
   \   00003D   12....       LCALL   ??Subroutine200_0 & 0xFFFF
   \                     ??CrossCallReturnLabel_462:
   \   000040   6005         JZ      ??AT_Cmd_SIMPLEDESC_1
   \   000042                ; Setup parameters for call to function AT_UARTWriteErrMsg
   \                     ??AT_Cmd_SIMPLEDESC_2:
   \   000042   12....       LCALL   ??AT_UARTWriteErrMsg?relay
   \   000045   806C         SJMP    ??AT_Cmd_SIMPLEDESC_3
   2257          
   2258            zAddrType_t dstAddr;
   2259            uint8 XX = AT_ChartoInt16(&cmdUnitArr[2]);
   \                     ??AT_Cmd_SIMPLEDESC_1:
   \   000047                ; Setup parameters for call to function AT_ChartoInt16
   \   000047   7411         MOV     A,#0x11
   \   000049   12....       LCALL   ?XSTACK_DISP0_8
   \   00004C   12....       LCALL   ?Subroutine127 & 0xFFFF
   \                     ??CrossCallReturnLabel_238:
   \   00004F   FE           MOV     R6,A
   2260            if(cmdUnitArr[0].unitLen>10){               
   \   000050   740A         MOV     A,#0xa
   \   000052   12....       LCALL   ?XSTACK_DISP0_8
   \   000055   E0           MOVX    A,@DPTR
   \   000056   C3           CLR     C
   \   000057   940B         SUBB    A,#0xb
   \   000059   401B         JC      ??AT_Cmd_SIMPLEDESC_4
   2261              AT_ChartoIntx(&cmdUnitArr[0],dstAddr.addr.extAddr, 64);  
   \   00005B                ; Setup parameters for call to function AT_ChartoIntx
   \   00005B   7940         MOV     R1,#0x40
   \   00005D   85..82       MOV     DPL,?XSP + 0
   \   000060   85..83       MOV     DPH,?XSP + 1
   \   000063   AC82         MOV     R4,DPL
   \   000065   AD83         MOV     R5,DPH
   \   000067   7409         MOV     A,#0x9
   \   000069   12....       LCALL   ?XSTACK_DISP0_8
   \   00006C   12....       LCALL   ?Subroutine131 & 0xFFFF
   2262              dstAddr.addrMode = (afAddrMode_t)Addr64Bit;                  
   2263            }else{                                                         
   \                     ??CrossCallReturnLabel_248:
   \   00006F   12....       LCALL   ?XSTACK_DISP0_8
   \   000072   7403         MOV     A,#0x3
   \   000074   800D         SJMP    ??AT_Cmd_SIMPLEDESC_5
   2264              dstAddr.addr.shortAddr =AT_ChartoInt16(&cmdUnitArr[0]);            
   \                     ??AT_Cmd_SIMPLEDESC_4:
   \   000076                ; Setup parameters for call to function AT_ChartoInt16
   \   000076   7409         MOV     A,#0x9
   \   000078   12....       LCALL   ?XSTACK_DISP0_8
   \   00007B   12....       LCALL   ?Subroutine19 & 0xFFFF
   2265              dstAddr.addrMode = (afAddrMode_t)Addr16Bit;       
   2266            }
   \                     ??CrossCallReturnLabel_419:
   \   00007E   12....       LCALL   ?XSTACK_DISP0_8
   \   000081   7402         MOV     A,#0x2
   \                     ??AT_Cmd_SIMPLEDESC_5:
   \   000083   12....       LCALL   ?Subroutine27 & 0xFFFF
   2267            uint8 state;
   2268            state = ZDP_SimpleDescReq( &dstAddr, AT_ChartoInt16(&cmdUnitArr[1]), XX, 0 );
   \                     ??CrossCallReturnLabel_19:
   \   000086   12....       LCALL   ?PUSH_XSTACK_I_ONE
   \   000089                ; Setup parameters for call to function AT_ChartoInt16
   \   000089   740E         MOV     A,#0xe
   \   00008B   12....       LCALL   ?XSTACK_DISP0_8
   \   00008E   12....       LCALL   ?Subroutine126 & 0xFFFF
   \                     ??CrossCallReturnLabel_234:
   \   000091   F9           MOV     R1,A
   \   000092   7401         MOV     A,#0x1
   \   000094   12....       LCALL   ?XSTACK_DISP0_8
   \   000097   AA82         MOV     R2,DPL
   \   000099   AB83         MOV     R3,DPH
   \   00009B   12....       LCALL   ??ZDP_SimpleDescReq?relay
   \   00009E   7401         MOV     A,#0x1
   \   0000A0   12....       LCALL   ?DEALLOC_XSTACK8
   \   0000A3   E9           MOV     A,R1
   2269            if(state!=afStatus_SUCCESS) AT_ERROR(state);
   \   0000A4   709C         JNZ     ??AT_Cmd_SIMPLEDESC_2
   \   0000A6                ; Setup parameters for call to function AT_UARTWriteErrMsg
   2270            else AT_OK();
   \   0000A6                ; Setup parameters for call to function AT_HalUARTWrite
   \   0000A6   7C07         MOV     R4,#0x7
   \   0000A8   7D00         MOV     R5,#0x0
   \   0000AA   7A..         MOV     R2,#`?<Constant "\\r\\nOK\\r\\n">` & 0xff
   \   0000AC   7B..         MOV     R3,#(`?<Constant "\\r\\nOK\\r\\n">` >> 8) & 0xff
   \   0000AE   7900         MOV     R1,#0x0
   \   0000B0   12....       LCALL   ??AT_HalUARTWrite?relay
   \                     ??AT_Cmd_SIMPLEDESC_3:
   \   0000B3   02....       LJMP    ?Subroutine16 & 0xFFFF
   2271          }

   \                                 In  segment BANKED_CODE, align 1, keep-with-next
   \                     ?Subroutine27:
   \   000000   F0           MOVX    @DPTR,A
   \   000001                ; Setup parameters for call to function ZDP_SimpleDescReq
   \   000001                ; Setup parameters for call to function ZDP_BindUnbindReq
   \   000001                ; Setup parameters for call to function ZDP_BindUnbindReq
   \   000001   75..00       MOV     ?V0 + 1,#0x0
   \   000004   78..         MOV     R0,#?V0 + 1
   \   000006   22           RET
   2272          
   2273          
   2274          /*************************************************************
   2275          
   2276          +MATCHREQ C Find Nodes which Match a Specific Descriptor (ZDO) 
   2277              AT+MATCHREQ:<ProfileID>,<NumInClusters>[,<InClusterList>],<NumOutClusters>[,<OutClusterList>] Where 
   2278                          <ProfileID> Required profile ID of the device being searched for followed by
   2279                                      a specification of required input and output clusters. If a remote
   2280                                       node has a matching ProfileID and matches at least one of the specified 
   2281                                      clusters it will respond to this broadcast listing the matching endpoint(s). 
   2282          
   2283                          <NumInClusters> and <NumOutClusters> must be 2 hexadecimal digits
   2284          
   2285          Prompt 
   2286              MatchDesc:<NodeID>,<errorcode>,XX,
   2287          *************************************************************/

   \                                 In  segment BANKED_CODE, align 1, keep-with-next
   2288          void AT_Cmd_MATCHREQ(uint8 start_point, uint8* msg){
   \                     AT_Cmd_MATCHREQ:
   \   000000   74EC         MOV     A,#-0x14
   \   000002   12....       LCALL   ?BANKED_ENTER_XDATA
   \   000005                ; Saved register size: 20
   \   000005                ; Auto size: 13
   \   000005   74F3         MOV     A,#-0xd
   \   000007   12....       LCALL   ?ALLOC_XSTACK8
   \   00000A   EA           MOV     A,R2
   \   00000B   FE           MOV     R6,A
   \   00000C   EB           MOV     A,R3
   \   00000D   FF           MOV     R7,A
   2289            AT_CmdUnit cmdUnitArr[1];
   2290            uint8 i;
   2291            uint16 ProfileID;
   2292            uint8 NumInClusters;
   2293            uint8 NumOutClusters;
   2294            uint16 *InClusterList;
   2295            uint16 *OutClusterList;
   2296            //ProfileID
   2297            start_point = AT_get_next_cmdUnit(&cmdUnitArr[0],start_point, msg);
   \   00000E                ; Setup parameters for call to function AT_get_next_cmdUnit
   \   00000E   EE           MOV     A,R6
   \   00000F   FC           MOV     R4,A
   \   000010   EF           MOV     A,R7
   \   000011   FD           MOV     R5,A
   \   000012   12....       LCALL   ?Subroutine104 & 0xFFFF
   \                     ??CrossCallReturnLabel_497:
   \   000015   F5..         MOV     ?V0 + 0,A
   2298            AT_PARSE_CMD_PATTERN_ERROR_1(":",cmdUnitArr);
   \   000017   85..82       MOV     DPL,?XSP + 0
   \   00001A   85..83       MOV     DPH,?XSP + 1
   \   00001D   E0           MOVX    A,@DPTR
   \   00001E   643A         XRL     A,#0x3a
   \   000020   6008         JZ      ??AT_Cmd_MATCHREQ_0
   \                     ??AT_Cmd_MATCHREQ_1:
   \   000022                ; Setup parameters for call to function AT_UARTWriteErrMsg
   \   000022   7911         MOV     R1,#0x11
   \                     ??AT_Cmd_MATCHREQ_2:
   \   000024   12....       LCALL   ??AT_UARTWriteErrMsg?relay
   \   000027   02....       LJMP    ??AT_Cmd_MATCHREQ_3 & 0xFFFF
   2299            ProfileID= AT_ChartoInt16(&cmdUnitArr[0]);
   \                     ??AT_Cmd_MATCHREQ_0:
   \   00002A                ; Setup parameters for call to function AT_ChartoInt16
   \   00002A   AA82         MOV     R2,DPL
   \   00002C   AB83         MOV     R3,DPH
   \   00002E   12....       LCALL   ??AT_ChartoInt16?relay
   \   000031   8A..         MOV     ?V0 + 8,R2
   \   000033   8B..         MOV     ?V0 + 9,R3
   2300            
   2301            //NumInClusters
   2302            start_point = AT_get_next_cmdUnit(&cmdUnitArr[0],start_point, msg);
   \   000035                ; Setup parameters for call to function AT_get_next_cmdUnit
   \   000035   EE           MOV     A,R6
   \   000036   FC           MOV     R4,A
   \   000037   EF           MOV     A,R7
   \   000038   FD           MOV     R5,A
   \   000039   A9..         MOV     R1,?V0 + 0
   \   00003B   85..82       MOV     DPL,?XSP + 0
   \   00003E   85..83       MOV     DPH,?XSP + 1
   \   000041   AA82         MOV     R2,DPL
   \   000043   AB83         MOV     R3,DPH
   \   000045   12....       LCALL   ?Subroutine99 & 0xFFFF
   2303            AT_PARSE_CMD_PATTERN_ERROR_1(",",cmdUnitArr);
   \                     ??CrossCallReturnLabel_165:
   \   000048   70D8         JNZ     ??AT_Cmd_MATCHREQ_1
   2304            NumInClusters = AT_ChartoInt8(&cmdUnitArr[0]);
   \   00004A                ; Setup parameters for call to function AT_ChartoInt8
   \   00004A   12....       LCALL   ??Subroutine207_0 & 0xFFFF
   2305            
   2306            //InClusterList
   2307            InClusterList = (uint16*)osal_mem_alloc(NumInClusters*2);
   \                     ??CrossCallReturnLabel_507:
   \   00004D                ; Setup parameters for call to function osal_mem_alloc
   \   00004D   C3           CLR     C
   \   00004E   33           RLC     A
   \   00004F   FA           MOV     R2,A
   \   000050   E4           CLR     A
   \   000051   33           RLC     A
   \   000052   FB           MOV     R3,A
   \   000053   12....       LCALL   ??osal_mem_alloc?relay
   \   000056   8A..         MOV     ?V0 + 6,R2
   \   000058   8B..         MOV     ?V0 + 7,R3
   2308            if(InClusterList==NULL) {
   \   00005A   EA           MOV     A,R2
   \   00005B   45..         ORL     A,?V0 + 7
   \   00005D   7004         JNZ     ??AT_Cmd_MATCHREQ_4
   2309              AT_ERROR(AT_MEM_ERROR);
   \                     ??AT_Cmd_MATCHREQ_5:
   \   00005F                ; Setup parameters for call to function AT_UARTWriteErrMsg
   \   00005F   7906         MOV     R1,#0x6
   \   000061   80C1         SJMP    ??AT_Cmd_MATCHREQ_2
   2310              return;
   2311            }
   2312            for(i=0;i<NumInClusters;i++){
   \                     ??AT_Cmd_MATCHREQ_4:
   \   000063   75..00       MOV     ?V0 + 2,#0x0
   \   000066   8017         SJMP    ??AT_Cmd_MATCHREQ_6
   2313              start_point = AT_get_next_cmdUnit(&cmdUnitArr[0],start_point, msg);
   \                     ??AT_Cmd_MATCHREQ_7:
   \   000068                ; Setup parameters for call to function AT_get_next_cmdUnit
   \   000068   12....       LCALL   ?Subroutine99 & 0xFFFF
   2314              AT_PARSE_CMD_PATTERN_ERROR_1(",",cmdUnitArr);
   \                     ??CrossCallReturnLabel_166:
   \   00006B   70B5         JNZ     ??AT_Cmd_MATCHREQ_1
   2315              InClusterList[i]= AT_ChartoInt16(&cmdUnitArr[0]);
   \   00006D                ; Setup parameters for call to function AT_ChartoInt16
   \   00006D   12....       LCALL   ?Subroutine120 & 0xFFFF
   2316            }
   \                     ??CrossCallReturnLabel_218:
   \   000070   E5..         MOV     A,?V0 + 6
   \   000072   28           ADD     A,R0
   \   000073   F582         MOV     DPL,A
   \   000075   E5..         MOV     A,?V0 + 7
   \   000077   39           ADDC    A,R1
   \   000078   F583         MOV     DPH,A
   \   00007A   12....       LCALL   ??Subroutine209_0 & 0xFFFF
   \                     ??CrossCallReturnLabel_520:
   \   00007D   05..         INC     ?V0 + 2
   \                     ??AT_Cmd_MATCHREQ_6:
   \   00007F   E5..         MOV     A,?V0 + 2
   \   000081   C3           CLR     C
   \   000082   95..         SUBB    A,?V0 + 1
   \   000084   EE           MOV     A,R6
   \   000085   FC           MOV     R4,A
   \   000086   EF           MOV     A,R7
   \   000087   FD           MOV     R5,A
   \   000088   A9..         MOV     R1,?V0 + 0
   \   00008A   85..82       MOV     DPL,?XSP + 0
   \   00008D   85..83       MOV     DPH,?XSP + 1
   \   000090   AA82         MOV     R2,DPL
   \   000092   AB83         MOV     R3,DPH
   \   000094   40D2         JC      ??AT_Cmd_MATCHREQ_7
   2317            
   2318          
   2319            
   2320            //NumOutClusters
   2321            start_point = AT_get_next_cmdUnit(&cmdUnitArr[0],start_point, msg);
   \   000096                ; Setup parameters for call to function AT_get_next_cmdUnit
   \   000096   12....       LCALL   ?Subroutine99 & 0xFFFF
   2322            AT_PARSE_CMD_PATTERN_ERROR_1(",",cmdUnitArr);
   \                     ??CrossCallReturnLabel_167:
   \   000099   7087         JNZ     ??AT_Cmd_MATCHREQ_1
   2323            NumOutClusters = AT_ChartoInt8(&cmdUnitArr[0]);
   \   00009B                ; Setup parameters for call to function AT_ChartoInt8
   \   00009B   12....       LCALL   ??Subroutine201_0 & 0xFFFF
   \                     ??CrossCallReturnLabel_487:
   \   00009E   F5..         MOV     ?V0 + 3,A
   2324            
   2325            //OutClusterList
   2326            OutClusterList = (uint16*)osal_mem_alloc(NumOutClusters*2);
   \   0000A0                ; Setup parameters for call to function osal_mem_alloc
   \   0000A0   C3           CLR     C
   \   0000A1   33           RLC     A
   \   0000A2   FA           MOV     R2,A
   \   0000A3   E4           CLR     A
   \   0000A4   33           RLC     A
   \   0000A5   12....       LCALL   ?Subroutine130 & 0xFFFF
   2327            if(OutClusterList==NULL) {
   \                     ??CrossCallReturnLabel_244:
   \   0000A8   45..         ORL     A,?V0 + 5
   \   0000AA   60B3         JZ      ??AT_Cmd_MATCHREQ_5
   2328              AT_ERROR(AT_MEM_ERROR);
   2329              return;
   2330            }
   2331            for(i=0;i<NumOutClusters;i++){
   \   0000AC   75..00       MOV     ?V0 + 2,#0x0
   \   0000AF   801A         SJMP    ??AT_Cmd_MATCHREQ_8
   2332              start_point = AT_get_next_cmdUnit(&cmdUnitArr[0],start_point, msg);
   \                     ??AT_Cmd_MATCHREQ_9:
   \   0000B1                ; Setup parameters for call to function AT_get_next_cmdUnit
   \   0000B1   12....       LCALL   ?Subroutine99 & 0xFFFF
   2333              AT_PARSE_CMD_PATTERN_ERROR_1(",",cmdUnitArr);
   \                     ??CrossCallReturnLabel_168:
   \   0000B4   6003         JZ      $+5
   \   0000B6   02....       LJMP    ??AT_Cmd_MATCHREQ_1 & 0xFFFF
   2334              OutClusterList[i]= AT_ChartoInt16(&cmdUnitArr[0]);
   \   0000B9                ; Setup parameters for call to function AT_ChartoInt16
   \   0000B9   12....       LCALL   ?Subroutine120 & 0xFFFF
   2335            }
   \                     ??CrossCallReturnLabel_219:
   \   0000BC   E5..         MOV     A,?V0 + 4
   \   0000BE   28           ADD     A,R0
   \   0000BF   F582         MOV     DPL,A
   \   0000C1   E5..         MOV     A,?V0 + 5
   \   0000C3   39           ADDC    A,R1
   \   0000C4   F583         MOV     DPH,A
   \   0000C6   12....       LCALL   ??Subroutine209_0 & 0xFFFF
   \                     ??CrossCallReturnLabel_521:
   \   0000C9   05..         INC     ?V0 + 2
   \                     ??AT_Cmd_MATCHREQ_8:
   \   0000CB   E5..         MOV     A,?V0 + 2
   \   0000CD   C3           CLR     C
   \   0000CE   95..         SUBB    A,?V0 + 3
   \   0000D0   EE           MOV     A,R6
   \   0000D1   FC           MOV     R4,A
   \   0000D2   EF           MOV     A,R7
   \   0000D3   FD           MOV     R5,A
   \   0000D4   A9..         MOV     R1,?V0 + 0
   \   0000D6   85..82       MOV     DPL,?XSP + 0
   \   0000D9   85..83       MOV     DPH,?XSP + 1
   \   0000DC   AA82         MOV     R2,DPL
   \   0000DE   AB83         MOV     R3,DPH
   \   0000E0   40CF         JC      ??AT_Cmd_MATCHREQ_9
   2336            
   2337            //chaeck the end of the command
   2338            start_point = AT_get_next_cmdUnit(&cmdUnitArr[0],start_point, msg);
   \   0000E2                ; Setup parameters for call to function AT_get_next_cmdUnit
   \   0000E2   12....       LCALL   ?Subroutine105 & 0xFFFF
   2339            AT_PARSE_CMD_PATTERN_ERROR_1("\r",cmdUnitArr);
   \                     ??CrossCallReturnLabel_181:
   \   0000E5   E0           MOVX    A,@DPTR
   \   0000E6   640D         XRL     A,#0xd
   \   0000E8   6003         JZ      $+5
   \   0000EA   02....       LJMP    ??AT_Cmd_MATCHREQ_1 & 0xFFFF
   2340            
   2341              //build broadcast address
   2342            zAddrType_t broad_addr={
   2343              {0xffff},                       //addr
   2344              (afAddrMode_t)AddrBroadcast,              //addr mode
   2345            };
   \   0000ED   7404         MOV     A,#0x4
   \   0000EF   12....       LCALL   ?XSTACK_DISP0_8
   \   0000F2   AC82         MOV     R4,DPL
   \   0000F4   AD83         MOV     R5,DPH
   \   0000F6   7583..       MOV     DPH,#(`?<Constant {{65535}, 15}>` >> 8) & 0xff
   \   0000F9   7582..       MOV     DPL,#`?<Constant {{65535}, 15}>` & 0xff
   \   0000FC   7409         MOV     A,#0x9
   \   0000FE   12....       LCALL   ?MOVE_LONG8_XDATA_XDATA
   2346          
   2347            uint8 state;
   2348            state = ZDP_MatchDescReq( &broad_addr,0xffff,ProfileID,
   2349                                     NumInClusters ,InClusterList, 
   2350                                     NumOutClusters,OutClusterList,0);
   \   000101                ; Setup parameters for call to function ZDP_MatchDescReq
   \   000101   F5..         MOV     ?V0 + 2,A
   \   000103   78..         MOV     R0,#?V0 + 2
   \   000105   12....       LCALL   ?PUSH_XSTACK_I_ONE
   \   000108   78..         MOV     R0,#?V0 + 4
   \   00010A   12....       LCALL   ?PUSH_XSTACK_I_TWO
   \   00010D   E5..         MOV     A,?V0 + 3
   \   00010F   F5..         MOV     ?V0 + 2,A
   \   000111   78..         MOV     R0,#?V0 + 2
   \   000113   12....       LCALL   ?PUSH_XSTACK_I_ONE
   \   000116   78..         MOV     R0,#?V0 + 6
   \   000118   12....       LCALL   ?PUSH_XSTACK_I_TWO
   \   00011B   78..         MOV     R0,#?V0 + 8
   \   00011D   12....       LCALL   ?PUSH_XSTACK_I_TWO
   \   000120   A9..         MOV     R1,?V0 + 1
   \   000122   7CFF         MOV     R4,#-0x1
   \   000124   7DFF         MOV     R5,#-0x1
   \   000126   740C         MOV     A,#0xc
   \   000128   12....       LCALL   ?XSTACK_DISP0_8
   \   00012B   AA82         MOV     R2,DPL
   \   00012D   AB83         MOV     R3,DPH
   \   00012F   12....       LCALL   ??ZDP_MatchDescReq?relay
   \   000132   7408         MOV     A,#0x8
   \   000134   12....       LCALL   ?DEALLOC_XSTACK8
   \   000137   E9           MOV     A,R1
   2351            if(state!=afStatus_SUCCESS) AT_ERROR(state);
   \   000138   6005         JZ      ??AT_Cmd_MATCHREQ_10
   \   00013A                ; Setup parameters for call to function AT_UARTWriteErrMsg
   \   00013A   12....       LCALL   ??AT_UARTWriteErrMsg?relay
   \   00013D   800D         SJMP    ??AT_Cmd_MATCHREQ_11
   2352            else AT_OK();
   \                     ??AT_Cmd_MATCHREQ_10:
   \   00013F                ; Setup parameters for call to function AT_HalUARTWrite
   \   00013F   7C07         MOV     R4,#0x7
   \   000141   7D00         MOV     R5,#0x0
   \   000143   7A..         MOV     R2,#`?<Constant "\\r\\nOK\\r\\n">` & 0xff
   \   000145   7B..         MOV     R3,#(`?<Constant "\\r\\nOK\\r\\n">` >> 8) & 0xff
   \   000147   7900         MOV     R1,#0x0
   \   000149   12....       LCALL   ??AT_HalUARTWrite?relay
   2353            
   2354            osal_mem_free(OutClusterList);
   \                     ??AT_Cmd_MATCHREQ_11:
   \   00014C                ; Setup parameters for call to function osal_mem_free
   \   00014C   AA..         MOV     R2,?V0 + 4
   \   00014E   AB..         MOV     R3,?V0 + 5
   \   000150   12....       LCALL   ??osal_mem_free?relay
   2355            osal_mem_free(InClusterList);
   \   000153                ; Setup parameters for call to function osal_mem_free
   \   000153   AA..         MOV     R2,?V0 + 6
   \   000155   AB..         MOV     R3,?V0 + 7
   \   000157   12....       LCALL   ??osal_mem_free?relay
   2356            
   2357            /*
   2358            
   2359            ZDP_MatchDescReq( zAddrType_t *dstAddr, uint16 nwkAddr,
   2360                                          uint16 ProfileID,
   2361                                          byte NumInClusters, uint16 *InClusterList,
   2362                                          byte NumOutClusters, uint16 *OutClusterList,
   2363                                          byte SecurityEnable );*/
   2364          }
   \                     ??AT_Cmd_MATCHREQ_3:
   \   00015A   740D         MOV     A,#0xd
   \   00015C   12....       LCALL   ?DEALLOC_XSTACK8
   \   00015F   7F0C         MOV     R7,#0xc
   \   000161   02....       LJMP    ?BANKED_LEAVE_XDATA

   \                                 In  segment BANKED_CODE, align 1, keep-with-next
   \                     ?Subroutine120:
   \   000000   AA82         MOV     R2,DPL
   \   000002   AB83         MOV     R3,DPH
   \   000004   12....       LCALL   ??AT_ChartoInt16?relay
   \   000007   E5..         MOV     A,?V0 + 2
   \   000009   C3           CLR     C
   \   00000A   33           RLC     A
   \   00000B   F8           MOV     R0,A
   \   00000C   E4           CLR     A
   \   00000D   33           RLC     A
   \   00000E   F9           MOV     R1,A
   \   00000F   22           RET

   \                                 In  segment BANKED_CODE, align 1, keep-with-next
   \                     ?Subroutine99:
   \   000000   12....       LCALL   ??Subroutine204_0 & 0xFFFF
   \                     ??CrossCallReturnLabel_552:
   \   000003   F5..         MOV     ?V0 + 0,A
   \   000005   85..82       MOV     DPL,?XSP + 0
   \   000008   85..83       MOV     DPH,?XSP + 1
   \   00000B   E0           MOVX    A,@DPTR
   \   00000C   642C         XRL     A,#0x2c
   \   00000E   22           RET
   2365          
   2366          
   2367          /*************************************************************
   2368          
   2369          +ANNCE C Announce Local Device In The Network (ZDO)
   2370              AT+ANNCE Send a ZigBee device announcement. 
   2371                       Broadcast announcing the local node on the network.
   2372          
   2373          *************************************************************/

   \                                 In  segment BANKED_CODE, align 1, keep-with-next
   2374          void AT_Cmd_ANNCE(uint8 start_point, uint8* msg){
   \                     AT_Cmd_ANNCE:
   \   000000   74F4         MOV     A,#-0xc
   \   000002   12....       LCALL   ?BANKED_ENTER_XDATA
   \   000005                ; Saved register size: 12
   \   000005                ; Auto size: 4
   \   000005   74FC         MOV     A,#-0x4
   \   000007   12....       LCALL   ?ALLOC_XSTACK8
   2375            
   2376            AT_CmdUnit cmdUnitArr[1];
   2377            uint8 i;
   2378            for(i=0;i<1;i++)start_point = AT_get_next_cmdUnit(&cmdUnitArr[i],start_point, msg);  
   \   00000A                ; Setup parameters for call to function AT_get_next_cmdUnit
   \   00000A   12....       LCALL   ?Subroutine97 & 0xFFFF
   2379            AT_PARSE_CMD_PATTERN_ERROR("\r",cmdUnitArr);
   \                     ??CrossCallReturnLabel_161:
   \   00000D   6005         JZ      ??AT_Cmd_ANNCE_0
   \   00000F                ; Setup parameters for call to function AT_UARTWriteErrMsg
   \                     ??AT_Cmd_ANNCE_1:
   \   00000F   12....       LCALL   ??AT_UARTWriteErrMsg?relay
   \   000012   8033         SJMP    ??AT_Cmd_ANNCE_2
   2380            
   2381            uint8 state;
   2382            state = ZDP_DeviceAnnce( NLME_GetShortAddr(), NLME_GetExtAddr(), _NIB.CapabilityFlags,0 );
   \                     ??AT_Cmd_ANNCE_0:
   \   000014                ; Setup parameters for call to function NLME_GetExtAddr
   \   000014   12....       LCALL   ??NLME_GetExtAddr?relay
   \   000017   8A..         MOV     ?V0 + 2,R2
   \   000019   8B..         MOV     ?V0 + 3,R3
   \   00001B                ; Setup parameters for call to function NLME_GetShortAddr
   \   00001B   12....       LCALL   ??NLME_GetShortAddr?relay
   \   00001E                ; Setup parameters for call to function ZDP_DeviceAnnce
   \   00001E   75..00       MOV     ?V0 + 1,#0x0
   \   000021   78..         MOV     R0,#?V0 + 1
   \   000023   12....       LCALL   ?PUSH_XSTACK_I_ONE
   \   000026   90....       MOV     DPTR,#_NIB + 14
   \   000029   E0           MOVX    A,@DPTR
   \   00002A   F9           MOV     R1,A
   \   00002B   AC..         MOV     R4,?V0 + 2
   \   00002D   AD..         MOV     R5,?V0 + 3
   \   00002F   12....       LCALL   ??ZDP_DeviceAnnce?relay
   \   000032   7401         MOV     A,#0x1
   \   000034   12....       LCALL   ?DEALLOC_XSTACK8
   \   000037   E9           MOV     A,R1
   2383            if(state!=afStatus_SUCCESS) AT_ERROR(state);
   \   000038   70D5         JNZ     ??AT_Cmd_ANNCE_1
   \   00003A                ; Setup parameters for call to function AT_UARTWriteErrMsg
   2384            else AT_OK();
   \   00003A                ; Setup parameters for call to function AT_HalUARTWrite
   \   00003A   7C07         MOV     R4,#0x7
   \   00003C   7D00         MOV     R5,#0x0
   \   00003E   7A..         MOV     R2,#`?<Constant "\\r\\nOK\\r\\n">` & 0xff
   \   000040   7B..         MOV     R3,#(`?<Constant "\\r\\nOK\\r\\n">` >> 8) & 0xff
   \   000042   7900         MOV     R1,#0x0
   \   000044   12....       LCALL   ??AT_HalUARTWrite?relay
   \                     ??AT_Cmd_ANNCE_2:
   \   000047                REQUIRE ?Subroutine18
   \   000047                ; // Fall through to label ?Subroutine18
   2385            /*
   2386            // CapabilityFlags Bitmap values
   2387          #define CAPINFO_ALTPANCOORD           0x01
   2388          #define CAPINFO_DEVICETYPE_FFD        0x02
   2389          #define CAPINFO_DEVICETYPE_RFD        0x00
   2390          #define CAPINFO_POWER_AC              0x04
   2391          #define CAPINFO_RCVR_ON_IDLE          0x08
   2392          #define CAPINFO_SECURITY_CAPABLE      0x40
   2393          #define CAPINFO_ALLOC_ADDR            0x80*/
   2394          }

   \                                 In  segment BANKED_CODE, align 1, keep-with-next
   \                     ?Subroutine18:
   \   000000   7404         MOV     A,#0x4
   \   000002   02....       LJMP    ??Subroutine195_0 & 0xFFFF
   2395          /*********************************************************************
   2396          +ATABLE C Display Address Table 
   2397                    AT+ATABLE
   2398          Response 
   2399                  No. | Active | ID | EUI 
   2400                  00 | N | 0000 |000D6F0000012345 
   2401                  () 
   2402                   OK
   2403          ***********************************************************************/
   2404          

   \                                 In  segment BANKED_CODE, align 1, keep-with-next
   2405          void AT_Cmd_ATABLE(uint8 start_point, uint8* msg){AT_CmdUnit cmdUnitArr[1];
   \                     AT_Cmd_ATABLE:
   \   000000   74F6         MOV     A,#-0xa
   \   000002   12....       LCALL   ?BANKED_ENTER_XDATA
   \   000005                ; Saved register size: 10
   \   000005                ; Auto size: 17
   \   000005   74EF         MOV     A,#-0x11
   \   000007   12....       LCALL   ?ALLOC_XSTACK8
   2406            uint8 i;
   2407            for(i=0;i<1;i++)start_point = AT_get_next_cmdUnit(&cmdUnitArr[i],start_point, msg);  
   \   00000A                ; Setup parameters for call to function AT_get_next_cmdUnit
   \   00000A   EA           MOV     A,R2
   \   00000B   FC           MOV     R4,A
   \   00000C   EB           MOV     A,R3
   \   00000D   FD           MOV     R5,A
   \   00000E   740D         MOV     A,#0xd
   \   000010   12....       LCALL   ?XSTACK_DISP0_8
   \   000013   AA82         MOV     R2,DPL
   \   000015   AB83         MOV     R3,DPH
   \   000017   12....       LCALL   ??AT_get_next_cmdUnit?relay
   2408            AT_PARSE_CMD_PATTERN_ERROR("\r",cmdUnitArr); 
   \   00001A                ; Setup parameters for call to function AT_pattern_check
   \   00001A   740D         MOV     A,#0xd
   \   00001C   12....       LCALL   ?XSTACK_DISP0_8
   \   00001F   AC82         MOV     R4,DPL
   \   000021   AD83         MOV     R5,DPH
   \   000023   7A..         MOV     R2,#`?<Constant "\\r">` & 0xff
   \   000025   7B..         MOV     R3,#(`?<Constant "\\r">` >> 8) & 0xff
   \   000027   12....       LCALL   ??Subroutine200_0 & 0xFFFF
   \                     ??CrossCallReturnLabel_463:
   \   00002A   6006         JZ      ??AT_Cmd_ATABLE_0
   \   00002C                ; Setup parameters for call to function AT_UARTWriteErrMsg
   \   00002C   12....       LCALL   ??AT_UARTWriteErrMsg?relay
   \   00002F   02....       LJMP    ??CrossCallReturnLabel_395 & 0xFFFF
   2409            
   2410            AddrMgrEntry_t entry;
   2411            AT_RESP_START();
   \                     ??AT_Cmd_ATABLE_0:
   \   000032                ; Setup parameters for call to function AT_HalUARTWrite
   \   000032   7C02         MOV     R4,#0x2
   \   000034   7D00         MOV     R5,#0x0
   \   000036   7A..         MOV     R2,#`?<Constant "\\r\\n">` & 0xff
   \   000038   7B..         MOV     R3,#(`?<Constant "\\r\\n">` >> 8) & 0xff
   \   00003A   7900         MOV     R1,#0x0
   \   00003C   12....       LCALL   ??AT_HalUARTWrite?relay
   2412            printf("No. | user |  ID  | EUI ");
   \   00003F                ; Setup parameters for call to function printf
   \   00003F   7A..         MOV     R2,#`?<Constant "No. | user |  ID  | EUI ">` & 0xff
   \   000041   7B..         MOV     R3,#(`?<Constant "No. | user |  ID  | EUI ">` >> 8) & 0xff
   \   000043   12....       LCALL   ??printf?relay
   2413            for(entry.index=0;entry.index< NWK_MAX_ADDRESSES;entry.index++){
   \   000046   740B         MOV     A,#0xb
   \   000048   12....       LCALL   ?XSTACK_DISP0_8
   \   00004B   E4           CLR     A
   \   00004C   F0           MOVX    @DPTR,A
   \   00004D   A3           INC     DPTR
   \   00004E   F0           MOVX    @DPTR,A
   2414              if(AddrMgrEntryGet( &entry )){
   \                     ??AT_Cmd_ATABLE_1:
   \   00004F                ; Setup parameters for call to function AddrMgrEntryGet
   \   00004F   85..82       MOV     DPL,?XSP + 0
   \   000052   85..83       MOV     DPH,?XSP + 1
   \   000055   AA82         MOV     R2,DPL
   \   000057   AB83         MOV     R3,DPH
   \   000059   12....       LCALL   ??AddrMgrEntryGet?relay
   \   00005C   E9           MOV     A,R1
   \   00005D   6054         JZ      ??AT_Cmd_ATABLE_2
   2415                AT_NEXT_LINE();
   \   00005F                ; Setup parameters for call to function AT_HalUARTWrite
   \   00005F   7C02         MOV     R4,#0x2
   \   000061   7D00         MOV     R5,#0x0
   \   000063   7A..         MOV     R2,#`?<Constant "\\n\\r">` & 0xff
   \   000065   7B..         MOV     R3,#(`?<Constant "\\n\\r">` >> 8) & 0xff
   \   000067   7900         MOV     R1,#0x0
   \   000069   12....       LCALL   ??AT_HalUARTWrite?relay
   2416                uint16* ext= (uint16*) entry.extAddr;
   2417                printf("%02X. |  %02X  | %04X | %04X%04X%04X%04X",
   2418                       entry.index, entry.user,entry.nwkAddr,
   2419                       ext[3],ext[2],ext[1],ext[0]);
   \   00006C                ; Setup parameters for call to function printf
   \   00006C   7403         MOV     A,#0x3
   \   00006E   12....       LCALL   ?XSTACK_DISP0_8
   \   000071   12....       LCALL   ?PUSH_XSTACK8_X_TWO
   \   000074   7407         MOV     A,#0x7
   \   000076   12....       LCALL   ?XSTACK_DISP0_8
   \   000079   12....       LCALL   ?PUSH_XSTACK8_X_TWO
   \   00007C   740B         MOV     A,#0xb
   \   00007E   12....       LCALL   ?XSTACK_DISP0_8
   \   000081   12....       LCALL   ?PUSH_XSTACK8_X_TWO
   \   000084   740F         MOV     A,#0xf
   \   000086   12....       LCALL   ?XSTACK_DISP0_8
   \   000089   12....       LCALL   ?PUSH_XSTACK8_X_TWO
   \   00008C   7409         MOV     A,#0x9
   \   00008E   12....       LCALL   ?XSTACK_DISP0_8
   \   000091   12....       LCALL   ?PUSH_XSTACK8_X_TWO
   \   000094   740A         MOV     A,#0xa
   \   000096   12....       LCALL   ?XSTACK_DISP0_8
   \   000099   12....       LCALL   ?Subroutine53 & 0xFFFF
   2420              }
   2421              
   2422            }
   \                     ??CrossCallReturnLabel_70:
   \   00009C   12....       LCALL   ?PUSH_XSTACK_I_TWO
   \   00009F   7417         MOV     A,#0x17
   \   0000A1   12....       LCALL   ?XSTACK_DISP0_8
   \   0000A4   12....       LCALL   ?PUSH_XSTACK8_X_TWO
   \   0000A7   7A..         MOV     R2,#`?<Constant "%02X. |  %02X  | %04X...">` & 0xff
   \   0000A9   7B..         MOV     R3,#(`?<Constant "%02X. |  %02X  | %04X...">` >> 8) & 0xff
   \   0000AB   12....       LCALL   ??printf?relay
   \   0000AE   740E         MOV     A,#0xe
   \   0000B0   12....       LCALL   ?DEALLOC_XSTACK8
   \                     ??AT_Cmd_ATABLE_2:
   \   0000B3   740B         MOV     A,#0xb
   \   0000B5   12....       LCALL   ?XSTACK_DISP0_8
   \   0000B8   E0           MOVX    A,@DPTR
   \   0000B9   2401         ADD     A,#0x1
   \   0000BB   F0           MOVX    @DPTR,A
   \   0000BC   A3           INC     DPTR
   \   0000BD   E0           MOVX    A,@DPTR
   \   0000BE   3400         ADDC    A,#0x0
   \   0000C0   F0           MOVX    @DPTR,A
   \   0000C1   740B         MOV     A,#0xb
   \   0000C3   12....       LCALL   ?XSTACK_DISP0_8
   \   0000C6   C3           CLR     C
   \   0000C7   E0           MOVX    A,@DPTR
   \   0000C8   941A         SUBB    A,#0x1a
   \   0000CA   A3           INC     DPTR
   \   0000CB   E0           MOVX    A,@DPTR
   \   0000CC   9400         SUBB    A,#0x0
   \   0000CE   5003         JNC     $+5
   \   0000D0   02....       LJMP    ??AT_Cmd_ATABLE_1 & 0xFFFF
   2423            AT_RESP_END();
   \   0000D3                ; Setup parameters for call to function AT_HalUARTWrite
   \   0000D3   12....       LCALL   ?Subroutine68 & 0xFFFF
   2424            AT_OK();
   2425          }
   \                     ??CrossCallReturnLabel_395:
   \   0000D6   7411         MOV     A,#0x11
   \   0000D8   02....       LJMP    ?Subroutine1 & 0xFFFF
   2426          
   2427          /*****************************************************************************
   2428          +LBTABLE C Display Local Binding Table
   2429                  AT+LBTABLE 
   2430                        Use on All Devices The binding table is cleared by a reset
   2431          Response 
   2432                        No. | Type | Active | LocalEP | ClusterID | Addr | RemEP 
   2433                        10. | Ucast | No | 01 | DEAD | 1234567887654321 | 01 
   2434                        11. | MTO | No | 01 | DEAD | E012345678876543 | 88 
   2435                        12. | Mcast | No | 01 | DEAD | CDAB 
   2436                        13. | Unused 
   2437                        14. | Unused 
   2438                        15. | Unused 
   2439                        16. | Unused 
   2440                        17. | Unused 
   2441                        18. | Unused 
   2442                        19. | Unused
   2443          ******************************************************************************/
   2444          

   \                                 In  segment BANKED_CODE, align 1, keep-with-next
   2445          void AT_Cmd_LBTABLE(uint8 start_point, uint8* msg){
   \                     AT_Cmd_LBTABLE:
   \   000000   74F0         MOV     A,#-0x10
   \   000002   12....       LCALL   ?BANKED_ENTER_XDATA
   \   000005                ; Saved register size: 16
   \   000005                ; Auto size: 39
   \   000005   74D9         MOV     A,#-0x27
   \   000007   12....       LCALL   ?ALLOC_XSTACK8
   2446            AT_CmdUnit cmdUnitArr[1];
   2447            uint8 i;
   2448            for(i=0;i<1;i++)start_point = AT_get_next_cmdUnit(&cmdUnitArr[i],start_point, msg);  
   \   00000A                ; Setup parameters for call to function AT_get_next_cmdUnit
   \   00000A   EA           MOV     A,R2
   \   00000B   FC           MOV     R4,A
   \   00000C   EB           MOV     A,R3
   \   00000D   FD           MOV     R5,A
   \   00000E   7409         MOV     A,#0x9
   \   000010   12....       LCALL   ?XSTACK_DISP0_8
   \   000013   AA82         MOV     R2,DPL
   \   000015   AB83         MOV     R3,DPH
   \   000017   12....       LCALL   ??AT_get_next_cmdUnit?relay
   2449            AT_PARSE_CMD_PATTERN_ERROR("\r",cmdUnitArr); 
   \   00001A                ; Setup parameters for call to function AT_pattern_check
   \   00001A   7409         MOV     A,#0x9
   \   00001C   12....       LCALL   ?XSTACK_DISP0_8
   \   00001F   AC82         MOV     R4,DPL
   \   000021   AD83         MOV     R5,DPH
   \   000023   7A..         MOV     R2,#`?<Constant "\\r">` & 0xff
   \   000025   7B..         MOV     R3,#(`?<Constant "\\r">` >> 8) & 0xff
   \   000027   12....       LCALL   ??Subroutine200_0 & 0xFFFF
   \                     ??CrossCallReturnLabel_464:
   \   00002A   6006         JZ      ??AT_Cmd_LBTABLE_0
   \   00002C                ; Setup parameters for call to function AT_UARTWriteErrMsg
   \   00002C   12....       LCALL   ??AT_UARTWriteErrMsg?relay
   \   00002F   02....       LJMP    ??CrossCallReturnLabel_396 & 0xFFFF
   2450            
   2451            AT_RESP_START();
   \                     ??AT_Cmd_LBTABLE_0:
   \   000032                ; Setup parameters for call to function AT_HalUARTWrite
   \   000032   7C02         MOV     R4,#0x2
   \   000034   7D00         MOV     R5,#0x0
   \   000036   7A..         MOV     R2,#`?<Constant "\\r\\n">` & 0xff
   \   000038   7B..         MOV     R3,#(`?<Constant "\\r\\n">` >> 8) & 0xff
   \   00003A   7900         MOV     R1,#0x0
   \   00003C   12....       LCALL   ??AT_HalUARTWrite?relay
   2452            uint8 j;
   2453            uint16 maxEntries,usedEntries;
   2454            bindCapacity( &maxEntries,&usedEntries );
   \   00003F                ; Setup parameters for call to function bindCapacity
   \   00003F   7407         MOV     A,#0x7
   \   000041   12....       LCALL   ?XSTACK_DISP0_8
   \   000044   AC82         MOV     R4,DPL
   \   000046   AD83         MOV     R5,DPH
   \   000048   85..82       MOV     DPL,?XSP + 0
   \   00004B   85..83       MOV     DPH,?XSP + 1
   \   00004E   AA82         MOV     R2,DPL
   \   000050   AB83         MOV     R3,DPH
   \   000052   12....       LCALL   ??bindCapacity?relay
   2455            printf("maxEntries %d, maxCID %d", maxEntries,gMAX_BINDING_CLUSTER_IDS);
   \   000055                ; Setup parameters for call to function printf
   \   000055   90....       MOV     DPTR,#gMAX_BINDING_CLUSTER_IDS
   \   000058   E4           CLR     A
   \   000059   93           MOVC    A,@A+DPTR
   \   00005A   F5..         MOV     ?V0 + 0,A
   \   00005C   75..00       MOV     ?V0 + 1,#0x0
   \   00005F   78..         MOV     R0,#?V0 + 0
   \   000061   12....       LCALL   ?PUSH_XSTACK_I_TWO
   \   000064   7402         MOV     A,#0x2
   \   000066   12....       LCALL   ?XSTACK_DISP0_8
   \   000069   12....       LCALL   ?PUSH_XSTACK8_X_TWO
   \   00006C   7A..         MOV     R2,#`?<Constant "maxEntries %d, maxCID %d">` & 0xff
   \   00006E   7B..         MOV     R3,#(`?<Constant "maxEntries %d, maxCID %d">` >> 8) & 0xff
   \   000070   12....       LCALL   ??printf?relay
   \   000073   7404         MOV     A,#0x4
   \   000075   12....       LCALL   ?DEALLOC_XSTACK8
   2456            AT_NEXT_LINE();
   \   000078                ; Setup parameters for call to function AT_HalUARTWrite
   \   000078   7C02         MOV     R4,#0x2
   \   00007A   7D00         MOV     R5,#0x0
   \   00007C   7A..         MOV     R2,#`?<Constant "\\n\\r">` & 0xff
   \   00007E   7B..         MOV     R3,#(`?<Constant "\\n\\r">` >> 8) & 0xff
   \   000080   7900         MOV     R1,#0x0
   \   000082   12....       LCALL   ??AT_HalUARTWrite?relay
   2457            printf("No. |  Type  | Active | LocalEP | ClusterIDs |      Address     | RemEP");
   \   000085                ; Setup parameters for call to function printf
   \   000085   7A..         MOV     R2,#`?<Constant "No. |  Type  | Active...">` & 0xff
   \   000087   7B..         MOV     R3,#(`?<Constant "No. |  Type  | Active...">` >> 8) & 0xff
   \   000089   12....       LCALL   ??printf?relay
   2458            char* type;
   2459            zAddrType_t addr;
   2460            char address[17];
   2461            char dstEP[5];
   2462            //j = bindAddClusterIdToList(BindingTable,2);
   2463            uint16 cnt=0;
   \   00008C   75..00       MOV     ?V0 + 0,#0x0
   2464            for(i=0;i<maxEntries;i++){
   \   00008F   7E00         MOV     R6,#0x0
   \   000091   8022         SJMP    ??AT_Cmd_LBTABLE_1
   2465              if(BindingTable[i].srcEP !=0xff){ //valid check
   2466                if(BindingTable[i].dstGroupMode==1) {
   2467                  type="Mcast";
   2468                  sprintf(address,"%04X",BindingTable[i].dstIdx);
   2469                  dstEP[0]='\0';
   2470                }
   2471                else{
   2472                  bindingAddrMgsHelperConvert(BindingTable[i].dstIdx, &addr );
   2473                  if(addr.addrMode== Addr64Bit){
   2474                    type="Ucast";
   2475                    AT_EUI64toChar(addr.addr.extAddr,address);
   2476                    address[16]='\0';
   2477                    sprintf(dstEP,"| %02X",BindingTable[i].dstEP);
   2478                  }else{
   2479                    type="??";
   2480                    sprintf(address,"???????");
   2481                    sprintf(dstEP,"| %02X",BindingTable[i].dstEP);
   2482                  }
   2483                }
   2484                if(BindingTable[i].numClusterIds==0) {
   2485                    AT_NEXT_LINE();
   2486                    printf("%02X. | %-6s |  ????  |   %02X    |   unused   | %-16s %s",
   2487                           cnt,type,BindingTable[i].srcEP,address, dstEP);
   2488                }
   2489                for(j=0;j<gMAX_BINDING_CLUSTER_IDS;j++){
   2490                  
   2491                  AT_NEXT_LINE();
   2492                  if(j<BindingTable[i].numClusterIds){
   2493                    printf("%02X. | %-6s |  ????  |   %02X    |    %04X    | %-16s %s",
   2494                           cnt,type,BindingTable[i].srcEP,BindingTable[i].clusterIdList[j],address, dstEP);
   2495                  }else{
   2496                    printf("%02X. | %-6s |  ????  |   %02X    |   unused   | %-16s %s",
   2497                           cnt,type,BindingTable[i].srcEP,address, dstEP);
   2498                  }
   2499                }
   2500              }else{
   2501                AT_NEXT_LINE();
   \                     ??AT_Cmd_LBTABLE_2:
   \   000093                ; Setup parameters for call to function AT_HalUARTWrite
   \   000093   7C02         MOV     R4,#0x2
   \   000095   7D00         MOV     R5,#0x0
   \   000097   7A..         MOV     R2,#`?<Constant "\\n\\r">` & 0xff
   \   000099   7B..         MOV     R3,#(`?<Constant "\\n\\r">` >> 8) & 0xff
   \   00009B   7900         MOV     R1,#0x0
   \   00009D   12....       LCALL   ??AT_HalUARTWrite?relay
   2502                printf("%d. | Unused", cnt);
   \   0000A0                ; Setup parameters for call to function printf
   \   0000A0   78..         MOV     R0,#?V0 + 0
   \   0000A2   12....       LCALL   ?PUSH_XSTACK_I_TWO
   \   0000A5   7A..         MOV     R2,#`?<Constant "%d. | Unused">` & 0xff
   \   0000A7   7B..         MOV     R3,#(`?<Constant "%d. | Unused">` >> 8) & 0xff
   \   0000A9   12....       LCALL   ??printf?relay
   \   0000AC   7402         MOV     A,#0x2
   \   0000AE   12....       LCALL   ?DEALLOC_XSTACK8
   2503              }
   2504              cnt++;
   \                     ??AT_Cmd_LBTABLE_3:
   \   0000B1   12....       LCALL   ?Subroutine155 & 0xFFFF
   \                     ??CrossCallReturnLabel_283:
   \   0000B4   0E           INC     R6
   \                     ??AT_Cmd_LBTABLE_1:
   \   0000B5   8E..         MOV     ?V0 + 2,R6
   \   0000B7   85..82       MOV     DPL,?XSP + 0
   \   0000BA   85..83       MOV     DPH,?XSP + 1
   \   0000BD   12....       LCALL   ?Subroutine50 & 0xFFFF
   \                     ??CrossCallReturnLabel_62:
   \   0000C0   C3           CLR     C
   \   0000C1   E5..         MOV     A,?V0 + 2
   \   0000C3   98           SUBB    A,R0
   \   0000C4   E4           CLR     A
   \   0000C5   99           SUBB    A,R1
   \   0000C6   4003         JC      $+5
   \   0000C8   02....       LJMP    ??AT_Cmd_LBTABLE_4 & 0xFFFF
   \   0000CB   EE           MOV     A,R6
   \   0000CC   75F00E       MOV     B,#0xe
   \   0000CF   A4           MUL     AB
   \   0000D0   F8           MOV     R0,A
   \   0000D1   A9F0         MOV     R1,B
   \   0000D3   12....       LCALL   ?Subroutine84 & 0xFFFF
   \                     ??CrossCallReturnLabel_131:
   \   0000D6   E0           MOVX    A,@DPTR
   \   0000D7   F4           CPL     A
   \   0000D8   60B9         JZ      ??AT_Cmd_LBTABLE_2
   \   0000DA   74..         MOV     A,#(BindingTable + 1) & 0xff
   \   0000DC   28           ADD     A,R0
   \   0000DD   F582         MOV     DPL,A
   \   0000DF   74..         MOV     A,#((BindingTable + 1) >> 8) & 0xff
   \   0000E1   12....       LCALL   ?Subroutine157 & 0xFFFF
   \                     ??CrossCallReturnLabel_561:
   \   0000E4   6401         XRL     A,#0x1
   \   0000E6   702B         JNZ     ??AT_Cmd_LBTABLE_5
   \   0000E8   75....       MOV     ?V0 + 4,#`?<Constant "Mcast">` & 0xff
   \   0000EB   75....       MOV     ?V0 + 5,#(`?<Constant "Mcast">` >> 8) & 0xff
   \   0000EE                ; Setup parameters for call to function sprintf
   \   0000EE   12....       LCALL   ?Subroutine85 & 0xFFFF
   \                     ??CrossCallReturnLabel_133:
   \   0000F1   12....       LCALL   ?PUSH_XSTACK8_X_TWO
   \   0000F4   7C..         MOV     R4,#`?<Constant "%04X">` & 0xff
   \   0000F6   7D..         MOV     R5,#(`?<Constant "%04X">` >> 8) & 0xff
   \   0000F8   740F         MOV     A,#0xf
   \   0000FA   12....       LCALL   ?XSTACK_DISP0_8
   \   0000FD   AA82         MOV     R2,DPL
   \   0000FF   AB83         MOV     R3,DPH
   \   000101   12....       LCALL   ??sprintf?relay
   \   000104   7402         MOV     A,#0x2
   \   000106   12....       LCALL   ?DEALLOC_XSTACK8
   \   000109   7402         MOV     A,#0x2
   \   00010B   12....       LCALL   ?XSTACK_DISP0_8
   \   00010E   E4           CLR     A
   \   00010F   F0           MOVX    @DPTR,A
   \   000110   02....       LJMP    ??AT_Cmd_LBTABLE_6 & 0xFFFF
   \                     ??AT_Cmd_LBTABLE_5:
   \   000113                ; Setup parameters for call to function bindingAddrMgsHelperConvert
   \   000113   741E         MOV     A,#0x1e
   \   000115   12....       LCALL   ?XSTACK_DISP0_8
   \   000118   AC82         MOV     R4,DPL
   \   00011A   AD83         MOV     R5,DPH
   \   00011C   12....       LCALL   ?Subroutine85 & 0xFFFF
   \                     ??CrossCallReturnLabel_134:
   \   00011F   E0           MOVX    A,@DPTR
   \   000120   FA           MOV     R2,A
   \   000121   A3           INC     DPTR
   \   000122   E0           MOVX    A,@DPTR
   \   000123   FB           MOV     R3,A
   \   000124   12....       LCALL   ??bindingAddrMgsHelperConvert?relay
   \   000127   7426         MOV     A,#0x26
   \   000129   12....       LCALL   ?XSTACK_DISP0_8
   \   00012C   E0           MOVX    A,@DPTR
   \   00012D   6403         XRL     A,#0x3
   \   00012F   7024         JNZ     ??AT_Cmd_LBTABLE_7
   \   000131   75....       MOV     ?V0 + 4,#`?<Constant "Ucast">` & 0xff
   \   000134   75....       MOV     ?V0 + 5,#(`?<Constant "Ucast">` >> 8) & 0xff
   \   000137                ; Setup parameters for call to function AT_EUI64toChar
   \   000137   740D         MOV     A,#0xd
   \   000139   12....       LCALL   ?XSTACK_DISP0_8
   \   00013C   AC82         MOV     R4,DPL
   \   00013E   AD83         MOV     R5,DPH
   \   000140   741E         MOV     A,#0x1e
   \   000142   12....       LCALL   ?XSTACK_DISP0_8
   \   000145   AA82         MOV     R2,DPL
   \   000147   AB83         MOV     R3,DPH
   \   000149   12....       LCALL   ??AT_EUI64toChar?relay
   \   00014C   741D         MOV     A,#0x1d
   \   00014E   12....       LCALL   ?XSTACK_DISP0_8
   \   000151   E4           CLR     A
   \   000152   F0           MOVX    @DPTR,A
   \   000153                ; Setup parameters for call to function sprintf
   \   000153   8016         SJMP    ??AT_Cmd_LBTABLE_8
   \                     ??AT_Cmd_LBTABLE_7:
   \   000155   75....       MOV     ?V0 + 4,#`?<Constant "??">` & 0xff
   \   000158   75....       MOV     ?V0 + 5,#(`?<Constant "??">` >> 8) & 0xff
   \   00015B                ; Setup parameters for call to function sprintf
   \   00015B   7C..         MOV     R4,#`?<Constant "???????">` & 0xff
   \   00015D   7D..         MOV     R5,#(`?<Constant "???????">` >> 8) & 0xff
   \   00015F   740D         MOV     A,#0xd
   \   000161   12....       LCALL   ?XSTACK_DISP0_8
   \   000164   AA82         MOV     R2,DPL
   \   000166   AB83         MOV     R3,DPH
   \   000168   12....       LCALL   ??sprintf?relay
   \   00016B                ; Setup parameters for call to function sprintf
   \                     ??AT_Cmd_LBTABLE_8:
   \   00016B   EE           MOV     A,R6
   \   00016C   75F00E       MOV     B,#0xe
   \   00016F   A4           MUL     AB
   \   000170   F8           MOV     R0,A
   \   000171   A9F0         MOV     R1,B
   \   000173   74..         MOV     A,#(BindingTable + 4) & 0xff
   \   000175   28           ADD     A,R0
   \   000176   F582         MOV     DPL,A
   \   000178   74..         MOV     A,#((BindingTable + 4) >> 8) & 0xff
   \   00017A   12....       LCALL   ??Subroutine202_0 & 0xFFFF
   \                     ??CrossCallReturnLabel_492:
   \   00017D   12....       LCALL   ?PUSH_XSTACK_I_TWO
   \   000180   7C..         MOV     R4,#`?<Constant "| %02X">` & 0xff
   \   000182   7D..         MOV     R5,#(`?<Constant "| %02X">` >> 8) & 0xff
   \   000184   7404         MOV     A,#0x4
   \   000186   12....       LCALL   ?XSTACK_DISP0_8
   \   000189   AA82         MOV     R2,DPL
   \   00018B   AB83         MOV     R3,DPH
   \   00018D   12....       LCALL   ??sprintf?relay
   \   000190   7402         MOV     A,#0x2
   \   000192   12....       LCALL   ?DEALLOC_XSTACK8
   \                     ??AT_Cmd_LBTABLE_6:
   \   000195   12....       LCALL   ?Subroutine82 & 0xFFFF
   \                     ??CrossCallReturnLabel_127:
   \   000198   7058         JNZ     ??AT_Cmd_LBTABLE_9
   \   00019A                ; Setup parameters for call to function AT_HalUARTWrite
   \   00019A   7C02         MOV     R4,#0x2
   \   00019C   7D00         MOV     R5,#0x0
   \   00019E   7A..         MOV     R2,#`?<Constant "\\n\\r">` & 0xff
   \   0001A0   7B..         MOV     R3,#(`?<Constant "\\n\\r">` >> 8) & 0xff
   \   0001A2   7900         MOV     R1,#0x0
   \   0001A4   12....       LCALL   ??AT_HalUARTWrite?relay
   \   0001A7                ; Setup parameters for call to function printf
   \   0001A7   7402         MOV     A,#0x2
   \   0001A9   12....       LCALL   ?XSTACK_DISP0_8
   \   0001AC   8582..       MOV     ?V0 + 2,DPL
   \   0001AF   8583..       MOV     ?V0 + 3,DPH
   \   0001B2   78..         MOV     R0,#?V0 + 2
   \   0001B4   12....       LCALL   ?PUSH_XSTACK_I_TWO
   \   0001B7   740F         MOV     A,#0xf
   \   0001B9   12....       LCALL   ?XSTACK_DISP0_8
   \   0001BC   8582..       MOV     ?V0 + 2,DPL
   \   0001BF   8583..       MOV     ?V0 + 3,DPH
   \   0001C2   78..         MOV     R0,#?V0 + 2
   \   0001C4   12....       LCALL   ?PUSH_XSTACK_I_TWO
   \   0001C7   EE           MOV     A,R6
   \   0001C8   75F00E       MOV     B,#0xe
   \   0001CB   A4           MUL     AB
   \   0001CC   F8           MOV     R0,A
   \   0001CD   A9F0         MOV     R1,B
   \   0001CF   74..         MOV     A,#BindingTable & 0xff
   \   0001D1   28           ADD     A,R0
   \   0001D2   F582         MOV     DPL,A
   \   0001D4   74..         MOV     A,#(BindingTable >> 8) & 0xff
   \   0001D6   12....       LCALL   ??Subroutine202_0 & 0xFFFF
   \                     ??CrossCallReturnLabel_493:
   \   0001D9   12....       LCALL   ?PUSH_XSTACK_I_TWO
   \   0001DC   78..         MOV     R0,#?V0 + 4
   \   0001DE   12....       LCALL   ?PUSH_XSTACK_I_TWO
   \   0001E1   78..         MOV     R0,#?V0 + 0
   \   0001E3   12....       LCALL   ?PUSH_XSTACK_I_TWO
   \   0001E6   7A..         MOV     R2,#`?<Constant "%02X. | %-6s |  ???? ...">` & 0xff
   \   0001E8   7B..         MOV     R3,#(`?<Constant "%02X. | %-6s |  ???? ...">` >> 8) & 0xff
   \   0001EA   12....       LCALL   ??printf?relay
   \   0001ED   740A         MOV     A,#0xa
   \   0001EF   12....       LCALL   ?DEALLOC_XSTACK8
   \                     ??AT_Cmd_LBTABLE_9:
   \   0001F2   75..00       MOV     ?V0 + 2,#0x0
   \   0001F5   8047         SJMP    ??AT_Cmd_LBTABLE_10
   \                     ??AT_Cmd_LBTABLE_11:
   \   0001F7                ; Setup parameters for call to function printf
   \   0001F7   7402         MOV     A,#0x2
   \   0001F9   12....       LCALL   ?XSTACK_DISP0_8
   \   0001FC   8582..       MOV     ?V0 + 6,DPL
   \   0001FF   8583..       MOV     ?V0 + 7,DPH
   \   000202   78..         MOV     R0,#?V0 + 6
   \   000204   12....       LCALL   ?PUSH_XSTACK_I_TWO
   \   000207   740F         MOV     A,#0xf
   \   000209   12....       LCALL   ?XSTACK_DISP0_8
   \   00020C   8582..       MOV     ?V0 + 6,DPL
   \   00020F   8583..       MOV     ?V0 + 7,DPH
   \   000212   78..         MOV     R0,#?V0 + 6
   \   000214   12....       LCALL   ?PUSH_XSTACK_I_TWO
   \   000217   EE           MOV     A,R6
   \   000218   75F00E       MOV     B,#0xe
   \   00021B   A4           MUL     AB
   \   00021C   F8           MOV     R0,A
   \   00021D   12....       LCALL   ?Subroutine84 & 0xFFFF
   \                     ??CrossCallReturnLabel_132:
   \   000220   12....       LCALL   ?Subroutine54 & 0xFFFF
   \                     ??CrossCallReturnLabel_71:
   \   000223   12....       LCALL   ?PUSH_XSTACK_I_TWO
   \   000226   78..         MOV     R0,#?V0 + 4
   \   000228   12....       LCALL   ?PUSH_XSTACK_I_TWO
   \   00022B   78..         MOV     R0,#?V0 + 0
   \   00022D   12....       LCALL   ?PUSH_XSTACK_I_TWO
   \   000230   7A..         MOV     R2,#`?<Constant "%02X. | %-6s |  ???? ...">` & 0xff
   \   000232   7B..         MOV     R3,#(`?<Constant "%02X. | %-6s |  ???? ...">` >> 8) & 0xff
   \   000234   12....       LCALL   ??printf?relay
   \   000237   740A         MOV     A,#0xa
   \   000239   12....       LCALL   ?DEALLOC_XSTACK8
   \                     ??AT_Cmd_LBTABLE_12:
   \   00023C   05..         INC     ?V0 + 2
   \                     ??AT_Cmd_LBTABLE_10:
   \   00023E   90....       MOV     DPTR,#gMAX_BINDING_CLUSTER_IDS
   \   000241   E4           CLR     A
   \   000242   93           MOVC    A,@A+DPTR
   \   000243   F8           MOV     R0,A
   \   000244   E5..         MOV     A,?V0 + 2
   \   000246   C3           CLR     C
   \   000247   98           SUBB    A,R0
   \   000248   4003         JC      $+5
   \   00024A   02....       LJMP    ??AT_Cmd_LBTABLE_3 & 0xFFFF
   \   00024D                ; Setup parameters for call to function AT_HalUARTWrite
   \   00024D   7C02         MOV     R4,#0x2
   \   00024F   7D00         MOV     R5,#0x0
   \   000251   7A..         MOV     R2,#`?<Constant "\\n\\r">` & 0xff
   \   000253   7B..         MOV     R3,#(`?<Constant "\\n\\r">` >> 8) & 0xff
   \   000255   7900         MOV     R1,#0x0
   \   000257   12....       LCALL   ??AT_HalUARTWrite?relay
   \   00025A   12....       LCALL   ?Subroutine82 & 0xFFFF
   \                     ??CrossCallReturnLabel_128:
   \   00025D   F8           MOV     R0,A
   \   00025E   E5..         MOV     A,?V0 + 2
   \   000260   C3           CLR     C
   \   000261   98           SUBB    A,R0
   \   000262   5093         JNC     ??AT_Cmd_LBTABLE_11
   \   000264   EE           MOV     A,R6
   \   000265   75F00E       MOV     B,#0xe
   \   000268   A4           MUL     AB
   \   000269   F8           MOV     R0,A
   \   00026A   74..         MOV     A,#BindingTable & 0xff
   \   00026C   28           ADD     A,R0
   \   00026D   F8           MOV     R0,A
   \   00026E   74..         MOV     A,#(BindingTable >> 8) & 0xff
   \   000270   39           ADDC    A,R1
   \   000271   F9           MOV     R1,A
   \   000272   E8           MOV     A,R0
   \   000273   FA           MOV     R2,A
   \   000274   E9           MOV     A,R1
   \   000275   FB           MOV     R3,A
   \   000276                ; Setup parameters for call to function printf
   \   000276   7402         MOV     A,#0x2
   \   000278   12....       LCALL   ?XSTACK_DISP0_8
   \   00027B   8582..       MOV     ?V0 + 6,DPL
   \   00027E   8583..       MOV     ?V0 + 7,DPH
   \   000281   78..         MOV     R0,#?V0 + 6
   \   000283   12....       LCALL   ?PUSH_XSTACK_I_TWO
   \   000286   740F         MOV     A,#0xf
   \   000288   12....       LCALL   ?XSTACK_DISP0_8
   \   00028B   8582..       MOV     ?V0 + 6,DPL
   \   00028E   8583..       MOV     ?V0 + 7,DPH
   \   000291   78..         MOV     R0,#?V0 + 6
   \   000293   12....       LCALL   ?PUSH_XSTACK_I_TWO
   \   000296   E5..         MOV     A,?V0 + 2
   \   000298   C3           CLR     C
   \   000299   33           RLC     A
   \   00029A   F8           MOV     R0,A
   \   00029B   E4           CLR     A
   \   00029C   33           RLC     A
   \   00029D   F9           MOV     R1,A
   \   00029E   EA           MOV     A,R2
   \   00029F   12....       LCALL   ??Subroutine189_0 & 0xFFFF
   2505            }
   \                     ??CrossCallReturnLabel_371:
   \   0002A2   A3           INC     DPTR
   \   0002A3   A3           INC     DPTR
   \   0002A4   A3           INC     DPTR
   \   0002A5   A3           INC     DPTR
   \   0002A6   A3           INC     DPTR
   \   0002A7   A3           INC     DPTR
   \   0002A8   12....       LCALL   ?PUSH_XSTACK8_X_TWO
   \   0002AB   8A82         MOV     DPL,R2
   \   0002AD   8B83         MOV     DPH,R3
   \   0002AF   12....       LCALL   ?Subroutine54 & 0xFFFF
   \                     ??CrossCallReturnLabel_72:
   \   0002B2   12....       LCALL   ?PUSH_XSTACK_I_TWO
   \   0002B5   78..         MOV     R0,#?V0 + 4
   \   0002B7   12....       LCALL   ?PUSH_XSTACK_I_TWO
   \   0002BA   78..         MOV     R0,#?V0 + 0
   \   0002BC   12....       LCALL   ?PUSH_XSTACK_I_TWO
   \   0002BF   7A..         MOV     R2,#`?<Constant "%02X. | %-6s |  ???? ...">_1` & 0xff
   \   0002C1   7B..         MOV     R3,#(`?<Constant "%02X. | %-6s |  ???? ...">_1` >> 8) & 0xff
   \   0002C3   12....       LCALL   ??printf?relay
   \   0002C6   740C         MOV     A,#0xc
   \   0002C8   12....       LCALL   ?DEALLOC_XSTACK8
   \   0002CB   02....       LJMP    ??AT_Cmd_LBTABLE_12 & 0xFFFF
   2506            AT_RESP_END();
   \                     ??AT_Cmd_LBTABLE_4:
   \   0002CE                ; Setup parameters for call to function AT_HalUARTWrite
   \   0002CE   12....       LCALL   ?Subroutine68 & 0xFFFF
   2507            AT_OK();
   2508          }
   \                     ??CrossCallReturnLabel_396:
   \   0002D1   7427         MOV     A,#0x27
   \   0002D3   02....       LJMP    ?Subroutine7 & 0xFFFF

   \                                 In  segment BANKED_CODE, align 1, keep-with-next
   \                     ?Subroutine85:
   \   000000   74..         MOV     A,#(BindingTable + 2) & 0xff
   \   000002   28           ADD     A,R0
   \   000003   F582         MOV     DPL,A
   \   000005   74..         MOV     A,#((BindingTable + 2) >> 8) & 0xff
   \   000007   39           ADDC    A,R1
   \   000008   F583         MOV     DPH,A
   \   00000A   22           RET

   \                                 In  segment BANKED_CODE, align 1, keep-with-next
   \                     ?Subroutine84:
   \   000000   74..         MOV     A,#BindingTable & 0xff
   \   000002   28           ADD     A,R0
   \   000003   F582         MOV     DPL,A
   \   000005   74..         MOV     A,#(BindingTable >> 8) & 0xff
   \   000007   39           ADDC    A,R1
   \   000008   F583         MOV     DPH,A
   \   00000A   22           RET

   \                                 In  segment BANKED_CODE, align 1, keep-with-next
   \                     ?Subroutine82:
   \   000000   EE           MOV     A,R6
   \   000001   75F00E       MOV     B,#0xe
   \   000004   A4           MUL     AB
   \   000005   F8           MOV     R0,A
   \   000006   A9F0         MOV     R1,B
   \   000008   74..         MOV     A,#(BindingTable + 5) & 0xff
   \   00000A   28           ADD     A,R0
   \   00000B   F582         MOV     DPL,A
   \   00000D   74..         MOV     A,#((BindingTable + 5) >> 8) & 0xff
   \   00000F   12....       LCALL   ?Subroutine157 & 0xFFFF
   \                     ??CrossCallReturnLabel_562:
   \   000012   22           RET

   \                                 In  segment BANKED_CODE, align 1, keep-with-next
   \                     ?Subroutine54:
   \   000000   E0           MOVX    A,@DPTR
   \   000001   F5..         MOV     ?V0 + 6,A
   \   000003   75..00       MOV     ?V0 + 7,#0x0
   \   000006   78..         MOV     R0,#?V0 + 6
   \   000008   22           RET
   2509          
   2510          
   2511          /*****************************************************************************
   2512          +BSET C Set local Binding Table Entry 
   2513                AT+BSET:<type>,<LocalEP>,<ClusterID>,<DstAddress>[,<DstEP>]  Where: 
   2514                      <Type> is the type of binding: 
   2515                              1= Unicast Binding with EUI64 and remote EP specified 
   2516                              2= Many to one Binding with EUI64 and remote EP Specified 
   2517                              3= Multicast Binding with Multicast ID Specified 
   2518                      <LocalEP> is the local endpoint 
   2519                      <ClusterID> is the t cluster ID, Address is either the EUI64 of the 
   2520                              target device, or a multicast ID 
   2521                      <DstEP> the remote endpoint which is not specified in case of a multicast 
   2522                              binding. 
   2523          
   2524                      The new binding is created in the next available free binding table entry.
   2525          ******************************************************************************/

   \                                 In  segment BANKED_CODE, align 1, keep-with-next
   2526          void AT_Cmd_BSET(uint8 start_point, uint8* msg){
   \                     AT_Cmd_BSET:
   \   000000   74F4         MOV     A,#-0xc
   \   000002   12....       LCALL   ?BANKED_ENTER_XDATA
   \   000005                ; Saved register size: 12
   \   000005                ; Auto size: 37
   \   000005   74DB         MOV     A,#-0x25
   \   000007   12....       LCALL   ?ALLOC_XSTACK8
   \   00000A   89..         MOV     ?V0 + 2,R1
   \   00000C   EA           MOV     A,R2
   \   00000D   FE           MOV     R6,A
   \   00000E   EB           MOV     A,R3
   \   00000F   FF           MOV     R7,A
   2527            AT_CmdUnit cmdUnitArr[6];
   2528            uint8 i;
   2529            for(i=0;i<6;i++)start_point = AT_get_next_cmdUnit(&cmdUnitArr[i],start_point, msg);  
   \   000010   75..00       MOV     ?V0 + 3,#0x0
   \                     ??AT_Cmd_BSET_0:
   \   000013                ; Setup parameters for call to function AT_get_next_cmdUnit
   \   000013   EE           MOV     A,R6
   \   000014   FC           MOV     R4,A
   \   000015   EF           MOV     A,R7
   \   000016   FD           MOV     R5,A
   \   000017   A9..         MOV     R1,?V0 + 2
   \   000019   85....       MOV     ?V0 + 0,?V0 + 3
   \   00001C   75..00       MOV     ?V0 + 1,#0x0
   \   00001F   7402         MOV     A,#0x2
   \   000021   78..         MOV     R0,#?V0 + 0
   \   000023   12....       LCALL   ?S_SHL
   \   000026   740D         MOV     A,#0xd
   \   000028   12....       LCALL   ?XSTACK_DISP0_8
   \   00002B   12....       LCALL   ?Subroutine58 & 0xFFFF
   \                     ??CrossCallReturnLabel_84:
   \   00002E   40E3         JC      ??AT_Cmd_BSET_0
   2530            AT_PARSE_CMD_PATTERN_ERROR(":,,,,\r",cmdUnitArr); 
   \   000030                ; Setup parameters for call to function AT_pattern_check
   \   000030   740D         MOV     A,#0xd
   \   000032   12....       LCALL   ?XSTACK_DISP0_8
   \   000035   AC82         MOV     R4,DPL
   \   000037   AD83         MOV     R5,DPH
   \   000039   7A..         MOV     R2,#`?<Constant ":,,,,\\r">` & 0xff
   \   00003B   7B..         MOV     R3,#(`?<Constant ":,,,,\\r">` >> 8) & 0xff
   \   00003D   12....       LCALL   ??Subroutine200_0 & 0xFFFF
   \                     ??CrossCallReturnLabel_465:
   \   000040   6006         JZ      ??AT_Cmd_BSET_1
   \   000042                ; Setup parameters for call to function AT_UARTWriteErrMsg
   \                     ??AT_Cmd_BSET_2:
   \   000042   12....       LCALL   ??AT_UARTWriteErrMsg?relay
   \   000045   02....       LJMP    ??AT_Cmd_BSET_3 & 0xFFFF
   2531            
   2532            uint8 type    = AT_ChartoInt8(&cmdUnitArr[0]);
   \                     ??AT_Cmd_BSET_1:
   \   000048                ; Setup parameters for call to function AT_ChartoInt8
   \   000048   740D         MOV     A,#0xd
   \   00004A   12....       LCALL   ?XSTACK_DISP0_8
   \   00004D   12....       LCALL   ??Subroutine201_0 & 0xFFFF
   \                     ??CrossCallReturnLabel_488:
   \   000050   F5..         MOV     ?V0 + 0,A
   2533            uint8 localEP = AT_ChartoInt8(&cmdUnitArr[1]);
   \   000052                ; Setup parameters for call to function AT_ChartoInt8
   \   000052   7411         MOV     A,#0x11
   \   000054   12....       LCALL   ?XSTACK_DISP0_8
   \   000057   12....       LCALL   ?Subroutine111 & 0xFFFF
   2534            uint8 dstEP   = AT_ChartoInt8(&cmdUnitArr[4]);
   \                     ??CrossCallReturnLabel_194:
   \   00005A                ; Setup parameters for call to function AT_ChartoInt8
   \   00005A   741D         MOV     A,#0x1d
   \   00005C   12....       LCALL   ?XSTACK_DISP0_8
   \   00005F   12....       LCALL   ?Subroutine110 & 0xFFFF
   2535            uint16 CID    = AT_ChartoInt16(&cmdUnitArr[2]);
   \                     ??CrossCallReturnLabel_186:
   \   000062                ; Setup parameters for call to function AT_ChartoInt16
   \   000062   7415         MOV     A,#0x15
   \   000064   12....       LCALL   ?XSTACK_DISP0_8
   \   000067   12....       LCALL   ?Subroutine22 & 0xFFFF
   2536            
   2537            zAddrType_t dstAddr;
   2538            
   2539          
   2540            if(type==1 || type==2) {
   \                     ??CrossCallReturnLabel_518:
   \   00006A   7401         MOV     A,#0x1
   \   00006C   65..         XRL     A,?V0 + 0
   \   00006E   6006         JZ      ??AT_Cmd_BSET_4
   \   000070   7402         MOV     A,#0x2
   \   000072   65..         XRL     A,?V0 + 0
   \   000074   7052         JNZ     ??AT_Cmd_BSET_5
   2541              /*if(cmdUnitArr[3].unitLen!=16) {
   2542                AT_ERROR(AT_PARA_ERROR);
   2543                return;
   2544              }*/
   2545              dstAddr.addrMode =Addr64Bit;
   \                     ??AT_Cmd_BSET_4:
   \   000076   740C         MOV     A,#0xc
   \   000078   12....       LCALL   ?XSTACK_DISP0_8
   \   00007B   7403         MOV     A,#0x3
   \   00007D   F0           MOVX    @DPTR,A
   2546              AT_ChartoIntx(&cmdUnitArr[3],dstAddr.addr.extAddr, 64);
   \   00007E                ; Setup parameters for call to function AT_ChartoIntx
   \   00007E   7940         MOV     R1,#0x40
   \   000080   04           INC     A
   \   000081   12....       LCALL   ?XSTACK_DISP0_8
   \   000084   AC82         MOV     R4,DPL
   \   000086   AD83         MOV     R5,DPH
   \   000088   7419         MOV     A,#0x19
   \   00008A   12....       LCALL   ?XSTACK_DISP0_8
   \   00008D   AA82         MOV     R2,DPL
   \   00008F   AB83         MOV     R3,DPH
   \   000091   12....       LCALL   ??AT_ChartoIntx?relay
   2547            }
   2548            else if(type==3) {
   2549              dstAddr.addrMode =AddrGroup;
   2550              dstAddr.addr.shortAddr = AT_ChartoInt16(&cmdUnitArr[3]);
   2551            }
   2552            else {
   2553              AT_ERROR(AT_PARA_ERROR);
   2554              return;
   2555            }
   2556            
   2557            if(NULL==bindAddEntry( localEP,&dstAddr,dstEP, 1,&CID )){
   \                     ??AT_Cmd_BSET_6:
   \   000094                ; Setup parameters for call to function bindAddEntry
   \   000094   85..82       MOV     DPL,?XSP + 0
   \   000097   85..83       MOV     DPH,?XSP + 1
   \   00009A   8582..       MOV     ?V0 + 0,DPL
   \   00009D   8583..       MOV     ?V0 + 1,DPH
   \   0000A0   78..         MOV     R0,#?V0 + 0
   \   0000A2   12....       LCALL   ?PUSH_XSTACK_I_TWO
   \   0000A5   7D01         MOV     R5,#0x1
   \   0000A7   EE           MOV     A,R6
   \   0000A8   FC           MOV     R4,A
   \   0000A9   7406         MOV     A,#0x6
   \   0000AB   12....       LCALL   ?XSTACK_DISP0_8
   \   0000AE   AA82         MOV     R2,DPL
   \   0000B0   AB83         MOV     R3,DPH
   \   0000B2   EF           MOV     A,R7
   \   0000B3   F9           MOV     R1,A
   \   0000B4   12....       LCALL   ??bindAddEntry?relay
   \   0000B7   7402         MOV     A,#0x2
   \   0000B9   12....       LCALL   ?DEALLOC_XSTACK8
   \   0000BC   8B..         MOV     ?V0 + 1,R3
   \   0000BE   EA           MOV     A,R2
   \   0000BF   45..         ORL     A,?V0 + 1
   \   0000C1   7030         JNZ     ??AT_Cmd_BSET_7
   2558                 AT_ERROR(AT_FATAL_ERROR);            
   \   0000C3                ; Setup parameters for call to function AT_UARTWriteErrMsg
   \   0000C3   7901         MOV     R1,#0x1
   \   0000C5   02....       LJMP    ??AT_Cmd_BSET_2 & 0xFFFF
   2559            }else{
   \                     ??AT_Cmd_BSET_5:
   \   0000C8   7403         MOV     A,#0x3
   \   0000CA   65..         XRL     A,?V0 + 0
   \   0000CC   701E         JNZ     ??AT_Cmd_BSET_8
   \   0000CE   740C         MOV     A,#0xc
   \   0000D0   12....       LCALL   ?XSTACK_DISP0_8
   \   0000D3   7401         MOV     A,#0x1
   \   0000D5   F0           MOVX    @DPTR,A
   \   0000D6                ; Setup parameters for call to function AT_ChartoInt16
   \   0000D6   7419         MOV     A,#0x19
   \   0000D8   12....       LCALL   ?XSTACK_DISP0_8
   \   0000DB   AA82         MOV     R2,DPL
   \   0000DD   AB83         MOV     R3,DPH
   \   0000DF   12....       LCALL   ??AT_ChartoInt16?relay
   \   0000E2   7404         MOV     A,#0x4
   \   0000E4   12....       LCALL   ?XSTACK_DISP0_8
   \   0000E7   12....       LCALL   ??Subroutine209_0 & 0xFFFF
   \                     ??CrossCallReturnLabel_522:
   \   0000EA   80A8         SJMP    ??AT_Cmd_BSET_6
   \                     ??AT_Cmd_BSET_8:
   \   0000EC                ; Setup parameters for call to function AT_UARTWriteErrMsg
   \   0000EC   7924         MOV     R1,#0x24
   \   0000EE   12....       LCALL   ??AT_UARTWriteErrMsg?relay
   \   0000F1   804D         SJMP    ??AT_Cmd_BSET_3
   2560                 AT_OK();
   \                     ??AT_Cmd_BSET_7:
   \   0000F3                ; Setup parameters for call to function AT_HalUARTWrite
   \   0000F3   7C07         MOV     R4,#0x7
   \   0000F5   7D00         MOV     R5,#0x0
   \   0000F7   7A..         MOV     R2,#`?<Constant "\\r\\nOK\\r\\n">` & 0xff
   \   0000F9   7B..         MOV     R3,#(`?<Constant "\\r\\nOK\\r\\n">` >> 8) & 0xff
   \   0000FB   7900         MOV     R1,#0x0
   \   0000FD   12....       LCALL   ??AT_HalUARTWrite?relay
   2561                 // up data the NwkAddr
   2562                 if ( dstAddr.addrMode == Addr64Bit ){
   \   000100   740C         MOV     A,#0xc
   \   000102   12....       LCALL   ?XSTACK_DISP0_8
   \   000105   E0           MOVX    A,@DPTR
   \   000106   6403         XRL     A,#0x3
   \   000108   7033         JNZ     ??AT_Cmd_BSET_9
   2563                   uint16 nwkAddr=0;
   \   00010A   7402         MOV     A,#0x2
   \   00010C   12....       LCALL   ?XSTACK_DISP0_8
   \   00010F   E4           CLR     A
   \   000110   F0           MOVX    @DPTR,A
   \   000111   A3           INC     DPTR
   \   000112   F0           MOVX    @DPTR,A
   2564                   if ( APSME_LookupNwkAddr( dstAddr.addr.extAddr, &nwkAddr ) == FALSE ){
   \   000113                ; Setup parameters for call to function APSME_LookupNwkAddr
   \   000113   7402         MOV     A,#0x2
   \   000115   12....       LCALL   ?XSTACK_DISP0_8
   \   000118   AC82         MOV     R4,DPL
   \   00011A   AD83         MOV     R5,DPH
   \   00011C   7404         MOV     A,#0x4
   \   00011E   12....       LCALL   ?XSTACK_DISP0_8
   \   000121   AA82         MOV     R2,DPL
   \   000123   AB83         MOV     R3,DPH
   \   000125   12....       LCALL   ??APSME_LookupNwkAddr?relay
   \   000128   E9           MOV     A,R1
   \   000129   7012         JNZ     ??AT_Cmd_BSET_9
   2565                     ZDP_NwkAddrReq( dstAddr.addr.extAddr, ZDP_ADDR_REQTYPE_SINGLE, 0, 0 );
   \   00012B                ; Setup parameters for call to function ZDP_NwkAddrReq
   \   00012B   7D00         MOV     R5,#0x0
   \   00012D   7C00         MOV     R4,#0x0
   \   00012F   7900         MOV     R1,#0x0
   \   000131   7404         MOV     A,#0x4
   \   000133   12....       LCALL   ?XSTACK_DISP0_8
   \   000136   AA82         MOV     R2,DPL
   \   000138   AB83         MOV     R3,DPH
   \   00013A   12....       LCALL   ??ZDP_NwkAddrReq?relay
   2566                   }
   2567                 }
   2568                 BindWriteNV();
   \                     ??AT_Cmd_BSET_9:
   \   00013D                ; Setup parameters for call to function BindWriteNV
   \   00013D   12....       LCALL   ??BindWriteNV?relay
   \                     ??AT_Cmd_BSET_3:
   \   000140   7425         MOV     A,#0x25
   2569            }  
   \   000142   02....       LJMP    ??Subroutine195_0 & 0xFFFF
   2570          }

   \                                 In  segment BANKED_CODE, align 1, keep-with-next
   \                     ?Subroutine58:
   \   000000   12....       LCALL   ?Subroutine140 & 0xFFFF
   \                     ??CrossCallReturnLabel_387:
   \   000003   9406         SUBB    A,#0x6
   \   000005   22           RET
   2571          
   2572          
   2573          /*****************************************************************************
   2574          +BCLR C Clear local Binding Table Entry
   2575                AT+BCLR:XX [,<ClusterID>]
   2576                    Where 
   2577                    XX is the entry number of the binding table which is to be cleared.
   2578                    <clsusterID> is the cluster ID to be removed. without this parameter,will
   2579                        the whole entry.
   2580          
   2581          ******************************************************************************/

   \                                 In  segment BANKED_CODE, align 1, keep-with-next
   2582          void AT_Cmd_BCLR(uint8 start_point, uint8* msg){
   \                     AT_Cmd_BCLR:
   \   000000   74F4         MOV     A,#-0xc
   \   000002   12....       LCALL   ?BANKED_ENTER_XDATA
   \   000005                ; Saved register size: 12
   \   000005                ; Auto size: 12
   \   000005   74F4         MOV     A,#-0xc
   \   000007   12....       LCALL   ?ALLOC_XSTACK8
   \   00000A   89..         MOV     ?V0 + 0,R1
   \   00000C   EA           MOV     A,R2
   \   00000D   FE           MOV     R6,A
   \   00000E   EB           MOV     A,R3
   \   00000F   FF           MOV     R7,A
   2583             AT_CmdUnit cmdUnitArr[3];
   2584            uint8 i;
   2585            for(i=0;i<3;i++)start_point = AT_get_next_cmdUnit(&cmdUnitArr[i],start_point, msg);  
   \   000010   75..00       MOV     ?V0 + 1,#0x0
   \                     ??AT_Cmd_BCLR_0:
   \   000013                ; Setup parameters for call to function AT_get_next_cmdUnit
   \   000013   EE           MOV     A,R6
   \   000014   FC           MOV     R4,A
   \   000015   EF           MOV     A,R7
   \   000016   FD           MOV     R5,A
   \   000017   A9..         MOV     R1,?V0 + 0
   \   000019   85....       MOV     ?V0 + 2,?V0 + 1
   \   00001C   75..00       MOV     ?V0 + 3,#0x0
   \   00001F   7402         MOV     A,#0x2
   \   000021   78..         MOV     R0,#?V0 + 2
   \   000023   12....       LCALL   ?S_SHL
   \   000026   12....       LCALL   ?Subroutine100 & 0xFFFF
   \                     ??CrossCallReturnLabel_172:
   \   000029   40E8         JC      ??AT_Cmd_BCLR_0
   2586            uint8 XX    = AT_ChartoInt8(&cmdUnitArr[0]);
   \   00002B                ; Setup parameters for call to function AT_ChartoInt8
   \   00002B   12....       LCALL   ?Subroutine109 & 0xFFFF
   2587            if(cmdUnitArr[1].symbol ==','){
   \                     ??CrossCallReturnLabel_503:
   \   00002E   7404         MOV     A,#0x4
   \   000030   12....       LCALL   ?XSTACK_DISP0_8
   \   000033   E0           MOVX    A,@DPTR
   \   000034   642C         XRL     A,#0x2c
   \   000036   705D         JNZ     ??AT_Cmd_BCLR_1
   2588              uint16 CID = AT_ChartoInt16(&cmdUnitArr[1]);
   \   000038                ; Setup parameters for call to function AT_ChartoInt16
   \   000038   12....       LCALL   ?Subroutine124 & 0xFFFF
   2589              AT_PARSE_CMD_PATTERN_ERROR(":,\r",cmdUnitArr);
   \                     ??CrossCallReturnLabel_228:
   \   00003B                ; Setup parameters for call to function AT_pattern_check
   \   00003B   85..82       MOV     DPL,?XSP + 0
   \   00003E   85..83       MOV     DPH,?XSP + 1
   \   000041   AC82         MOV     R4,DPL
   \   000043   AD83         MOV     R5,DPH
   \   000045   7A..         MOV     R2,#`?<Constant ":,\\r">` & 0xff
   \   000047   7B..         MOV     R3,#(`?<Constant ":,\\r">` >> 8) & 0xff
   \   000049   12....       LCALL   ??Subroutine200_0 & 0xFFFF
   \                     ??CrossCallReturnLabel_466:
   \   00004C   6006         JZ      ??AT_Cmd_BCLR_2
   \   00004E                ; Setup parameters for call to function AT_UARTWriteErrMsg
   \                     ??AT_Cmd_BCLR_3:
   \   00004E   12....       LCALL   ??AT_UARTWriteErrMsg?relay
   \                     ??AT_Cmd_BCLR_4:
   \   000051   02....       LJMP    ?Subroutine14 & 0xFFFF
   2590              if(bindRemoveClusterIdFromList( BindingTable+XX,CID )){//true if at least 1 cluster ID is left in the list after the delete, 
   \                     ??AT_Cmd_BCLR_2:
   \   000054                ; Setup parameters for call to function bindRemoveClusterIdFromList
   \   000054   AC..         MOV     R4,?V0 + 2
   \   000056   AD..         MOV     R5,?V0 + 3
   \   000058   E5..         MOV     A,?V0 + 1
   \   00005A   75F00E       MOV     B,#0xe
   \   00005D   A4           MUL     AB
   \   00005E   F8           MOV     R0,A
   \   00005F   A9F0         MOV     R1,B
   \   000061   74..         MOV     A,#BindingTable & 0xff
   \   000063   28           ADD     A,R0
   \   000064   FA           MOV     R2,A
   \   000065   74..         MOV     A,#(BindingTable >> 8) & 0xff
   \   000067   39           ADDC    A,R1
   \   000068   FB           MOV     R3,A
   \   000069   12....       LCALL   ??bindRemoveClusterIdFromList?relay
   \   00006C   E9           MOV     A,R1
   \   00006D   600F         JZ      ??AT_Cmd_BCLR_5
   2591                                                                     //false if cluster list is empty. If the cluster list is empty itshould be deleted by the calling function.
   2592                AT_OK();
   \   00006F                ; Setup parameters for call to function AT_HalUARTWrite
   \   00006F   7C07         MOV     R4,#0x7
   \   000071   7D00         MOV     R5,#0x0
   \   000073   7A..         MOV     R2,#`?<Constant "\\r\\nOK\\r\\n">` & 0xff
   \   000075   7B..         MOV     R3,#(`?<Constant "\\r\\nOK\\r\\n">` >> 8) & 0xff
   \   000077   7900         MOV     R1,#0x0
   \   000079   12....       LCALL   ??AT_HalUARTWrite?relay
   \   00007C   80D3         SJMP    ??AT_Cmd_BCLR_4
   2593              }else{
   2594                if(bindRemoveEntry( BindingTable+XX )){
   \                     ??AT_Cmd_BCLR_5:
   \   00007E                ; Setup parameters for call to function bindRemoveEntry
   \   00007E   12....       LCALL   ?Subroutine81 & 0xFFFF
   \                     ??CrossCallReturnLabel_125:
   \   000081   601C         JZ      ??AT_Cmd_BCLR_6
   2595                  AT_OK();
   \                     ??AT_Cmd_BCLR_7:
   \   000083                ; Setup parameters for call to function AT_HalUARTWrite
   \   000083   7C07         MOV     R4,#0x7
   \   000085   7D00         MOV     R5,#0x0
   \   000087   7A..         MOV     R2,#`?<Constant "\\r\\nOK\\r\\n">` & 0xff
   \   000089   7B..         MOV     R3,#(`?<Constant "\\r\\nOK\\r\\n">` >> 8) & 0xff
   \   00008B   7900         MOV     R1,#0x0
   \   00008D   12....       LCALL   ??AT_HalUARTWrite?relay
   2596                  BindWriteNV();
   \   000090                ; Setup parameters for call to function BindWriteNV
   \   000090   12....       LCALL   ??BindWriteNV?relay
   \   000093   80BC         SJMP    ??AT_Cmd_BCLR_4
   2597                }else{
   2598                  AT_ERROR(AT_FATAL_ERROR); 
   2599                }
   2600              }
   2601            }else{
   2602              AT_PARSE_CMD_PATTERN_ERROR(":\r",cmdUnitArr);
   \                     ??AT_Cmd_BCLR_1:
   \   000095                ; Setup parameters for call to function AT_pattern_check
   \   000095   12....       LCALL   ?Subroutine108 & 0xFFFF
   \                     ??CrossCallReturnLabel_429:
   \   000098   70B4         JNZ     ??AT_Cmd_BCLR_3
   \   00009A                ; Setup parameters for call to function AT_UARTWriteErrMsg
   2603              if(bindRemoveEntry( BindingTable+XX )){
   \   00009A                ; Setup parameters for call to function bindRemoveEntry
   \   00009A   12....       LCALL   ?Subroutine81 & 0xFFFF
   2604                AT_OK();
   2605                BindWriteNV();
   2606              }else{
   2607                AT_ERROR(AT_FATAL_ERROR); 
   2608              }
   2609            }
   \                     ??CrossCallReturnLabel_126:
   \   00009D   70E4         JNZ     ??AT_Cmd_BCLR_7
   \                     ??AT_Cmd_BCLR_6:
   \   00009F                ; Setup parameters for call to function AT_UARTWriteErrMsg
   \   00009F   7901         MOV     R1,#0x1
   \   0000A1   80AB         SJMP    ??AT_Cmd_BCLR_3
   2610          }

   \                                 In  segment BANKED_CODE, align 1, keep-with-next
   \                     ?Subroutine81:
   \   000000   E5..         MOV     A,?V0 + 1
   \   000002   75F00E       MOV     B,#0xe
   \   000005   A4           MUL     AB
   \   000006   F8           MOV     R0,A
   \   000007   A9F0         MOV     R1,B
   \   000009   74..         MOV     A,#BindingTable & 0xff
   \   00000B   28           ADD     A,R0
   \   00000C   FA           MOV     R2,A
   \   00000D   74..         MOV     A,#(BindingTable >> 8) & 0xff
   \   00000F   39           ADDC    A,R1
   \   000010   FB           MOV     R3,A
   \   000011   12....       LCALL   ??bindRemoveEntry?relay
   \   000014   E9           MOV     A,R1
   \   000015   22           RET

   \                                 In  segment BANKED_CODE, align 1, keep-with-next
   \                     ?Subroutine109:
   \   000000   85..82       MOV     DPL,?XSP + 0
   \   000003   85..83       MOV     DPH,?XSP + 1
   \   000006                REQUIRE ??Subroutine207_0
   \   000006                ; // Fall through to label ??Subroutine207_0
   2611          
   2612          
   2613          
   2614          /*****************************************************************************
   2615          +BTABLE C Display Binding Table (ZDO)
   2616                AT+BTABLE:XX,<address> 
   2617                      Where 
   2618                      XX is the start index of the remote binding table and 
   2619                      <address> can be the remote nodes EUI64, NodeID or address/binding table entry.
   2620          
   2621                AT+BTABLE:00,0000 
   2622                SEQ:01 
   2623                OK 
   2624                BTable:0000,00 
   2625                Length:03 
   2626                No. | SrcAddr | SrcEP | ClusterID | DstAddr | DstEP 
   2627                00. | 000D6F000059474E | 01 | DEAD |1234567887654321 | 12 
   2628                01. | 000D6F000059474E | 01 | DEAD |E012345678876543 | E0 
   2629                02. | 000D6F000059474E | 01 | DEAD | ABCD 
   2630                ACK:01
   2631          
   2632          
   2633          ******************************************************************************/

   \                                 In  segment BANKED_CODE, align 1, keep-with-next
   2634          void AT_Cmd_BTABLE(uint8 start_point, uint8* msg){
   \                     AT_Cmd_BTABLE:
   \   000000   74F4         MOV     A,#-0xc
   \   000002   12....       LCALL   ?BANKED_ENTER_XDATA
   \   000005                ; Saved register size: 12
   \   000005                ; Auto size: 22
   \   000005   74EA         MOV     A,#-0x16
   \   000007   12....       LCALL   ?ALLOC_XSTACK8
   \   00000A   89..         MOV     ?V0 + 2,R1
   \   00000C   EA           MOV     A,R2
   \   00000D   FE           MOV     R6,A
   \   00000E   EB           MOV     A,R3
   \   00000F   FF           MOV     R7,A
   2635            AT_CmdUnit cmdUnitArr[3];
   2636            uint8 i;
   2637            for(i=0;i<3;i++)start_point = AT_get_next_cmdUnit(&cmdUnitArr[i],start_point, msg);  
   \   000010   75..00       MOV     ?V0 + 3,#0x0
   \                     ??AT_Cmd_BTABLE_0:
   \   000013                ; Setup parameters for call to function AT_get_next_cmdUnit
   \   000013   EE           MOV     A,R6
   \   000014   FC           MOV     R4,A
   \   000015   EF           MOV     A,R7
   \   000016   FD           MOV     R5,A
   \   000017   A9..         MOV     R1,?V0 + 2
   \   000019   85....       MOV     ?V0 + 0,?V0 + 3
   \   00001C   75..00       MOV     ?V0 + 1,#0x0
   \   00001F   7402         MOV     A,#0x2
   \   000021   78..         MOV     R0,#?V0 + 0
   \   000023   12....       LCALL   ?S_SHL
   \   000026   740A         MOV     A,#0xa
   \   000028   12....       LCALL   ?XSTACK_DISP0_8
   \   00002B   12....       LCALL   ?Subroutine55 & 0xFFFF
   \                     ??CrossCallReturnLabel_79:
   \   00002E   40E3         JC      ??AT_Cmd_BTABLE_0
   2638            AT_PARSE_CMD_PATTERN_ERROR(":,\r",cmdUnitArr); 
   \   000030                ; Setup parameters for call to function AT_pattern_check
   \   000030   740A         MOV     A,#0xa
   \   000032   12....       LCALL   ?XSTACK_DISP0_8
   \   000035   AC82         MOV     R4,DPL
   \   000037   AD83         MOV     R5,DPH
   \   000039   7A..         MOV     R2,#`?<Constant ":,\\r">` & 0xff
   \   00003B   7B..         MOV     R3,#(`?<Constant ":,\\r">` >> 8) & 0xff
   \   00003D   12....       LCALL   ??Subroutine200_0 & 0xFFFF
   \                     ??CrossCallReturnLabel_467:
   \   000040   6006         JZ      ??AT_Cmd_BTABLE_1
   \   000042                ; Setup parameters for call to function AT_UARTWriteErrMsg
   \                     ??AT_Cmd_BTABLE_2:
   \   000042   12....       LCALL   ??AT_UARTWriteErrMsg?relay
   \   000045   02....       LJMP    ??AT_Cmd_BTABLE_3 & 0xFFFF
   2639          
   2640            zAddrType_t dstAddr;
   2641            uint8 startIndex = AT_ChartoInt16(&cmdUnitArr[0]);
   \                     ??AT_Cmd_BTABLE_1:
   \   000048                ; Setup parameters for call to function AT_ChartoInt16
   \   000048   740A         MOV     A,#0xa
   \   00004A   12....       LCALL   ?XSTACK_DISP0_8
   \   00004D   12....       LCALL   ?Subroutine118 & 0xFFFF
   2642            if(cmdUnitArr[1].unitLen==16){               
   \                     ??CrossCallReturnLabel_214:
   \   000050   12....       LCALL   ?XSTACK_DISP0_8
   \   000053   E0           MOVX    A,@DPTR
   \   000054   6410         XRL     A,#0x10
   \   000056   701A         JNZ     ??AT_Cmd_BTABLE_4
   2643              AT_ChartoIntx(&cmdUnitArr[1],dstAddr.addr.extAddr, 64);  
   \   000058                ; Setup parameters for call to function AT_ChartoIntx
   \   000058   7940         MOV     R1,#0x40
   \   00005A   7401         MOV     A,#0x1
   \   00005C   12....       LCALL   ?XSTACK_DISP0_8
   \   00005F   AC82         MOV     R4,DPL
   \   000061   AD83         MOV     R5,DPH
   \   000063   740E         MOV     A,#0xe
   \   000065   12....       LCALL   ?XSTACK_DISP0_8
   \   000068   12....       LCALL   ?Subroutine132 & 0xFFFF
   2644              dstAddr.addrMode = (afAddrMode_t)Addr64Bit;                  
   2645            }else{                                                         
   \                     ??CrossCallReturnLabel_254:
   \   00006B   12....       LCALL   ?XSTACK_DISP0_8
   \   00006E   7403         MOV     A,#0x3
   \   000070   8013         SJMP    ??AT_Cmd_BTABLE_5
   2646              dstAddr.addr.shortAddr =AT_ChartoInt16(&cmdUnitArr[1]);            
   \                     ??AT_Cmd_BTABLE_4:
   \   000072                ; Setup parameters for call to function AT_ChartoInt16
   \   000072   740E         MOV     A,#0xe
   \   000074   12....       LCALL   ?XSTACK_DISP0_8
   \   000077   12....       LCALL   ?Subroutine125 & 0xFFFF
   2647              dstAddr.addrMode = (afAddrMode_t)Addr16Bit;       
   2648            }
   \                     ??CrossCallReturnLabel_231:
   \   00007A   12....       LCALL   ?XSTACK_DISP0_8
   \   00007D   12....       LCALL   ?Subroutine21 & 0xFFFF
   \                     ??CrossCallReturnLabel_9:
   \   000080   12....       LCALL   ?XSTACK_DISP0_8
   \   000083   7402         MOV     A,#0x2
   \                     ??AT_Cmd_BTABLE_5:
   \   000085   12....       LCALL   ?Subroutine20 & 0xFFFF
   2649            uint8 state;
   2650            state = ZDP_MgmtBindReq( &dstAddr, startIndex, 0 );
   \                     ??CrossCallReturnLabel_5:
   \   000088   12....       LCALL   ?PUSH_XSTACK_I_ONE
   \   00008B   7401         MOV     A,#0x1
   \   00008D   12....       LCALL   ?XSTACK_DISP0_8
   \   000090   8582..       MOV     ?V0 + 0,DPL
   \   000093   8583..       MOV     ?V0 + 1,DPH
   \   000096   78..         MOV     R0,#?V0 + 0
   \   000098   12....       LCALL   ?PUSH_XSTACK_I_TWO
   \   00009B   75..33       MOV     ?V0 + 0,#0x33
   \   00009E   75..00       MOV     ?V0 + 1,#0x0
   \   0000A1   78..         MOV     R0,#?V0 + 0
   \   0000A3   12....       LCALL   ?PUSH_XSTACK_I_TWO
   \   0000A6   7901         MOV     R1,#0x1
   \   0000A8   7406         MOV     A,#0x6
   \   0000AA   12....       LCALL   ?XSTACK_DISP0_8
   \   0000AD   AC82         MOV     R4,DPL
   \   0000AF   AD83         MOV     R5,DPH
   \   0000B1   7A..         MOV     R2,#ZDP_TransID & 0xff
   \   0000B3   7B..         MOV     R3,#(ZDP_TransID >> 8) & 0xff
   \   0000B5   12....       LCALL   ??ZDP_SendData?relay
   \   0000B8   7405         MOV     A,#0x5
   \   0000BA   12....       LCALL   ?DEALLOC_XSTACK8
   \   0000BD   E9           MOV     A,R1
   2651            if(state!=afStatus_SUCCESS) AT_ERROR(state);
   \   0000BE   7082         JNZ     ??AT_Cmd_BTABLE_2
   \   0000C0                ; Setup parameters for call to function AT_UARTWriteErrMsg
   2652            else AT_OK();
   \   0000C0                ; Setup parameters for call to function AT_HalUARTWrite
   \   0000C0   7C07         MOV     R4,#0x7
   \   0000C2   7D00         MOV     R5,#0x0
   \   0000C4   7A..         MOV     R2,#`?<Constant "\\r\\nOK\\r\\n">` & 0xff
   \   0000C6   7B..         MOV     R3,#(`?<Constant "\\r\\nOK\\r\\n">` >> 8) & 0xff
   \   0000C8   7900         MOV     R1,#0x0
   \   0000CA   12....       LCALL   ??AT_HalUARTWrite?relay
   \                     ??AT_Cmd_BTABLE_3:
   \   0000CD   02....       LJMP    ?Subroutine17 & 0xFFFF
   2653            
   2654          }
   2655          
   2656          /*****************************************************************************
   2657          +BIND C Create Binding on Remote Device (ZDO) 
   2658              AT+BIND:<address>,[<SrcAddress>],<SrcEP>,<ClusterID>,[<DstAddress>][,<DstEP>] 
   2659                    Create Binding on a remote device with 
   2660          
   2661                    <address> the target Nodes EUI64, Node ID, or Address Table entry 
   2662          
   2663                    [<SrcAddress>] The EUI64 of the Source 
   2664          
   2665                    <SrcEP> The source Endpoint <ClusterID> The Cluster ID on the source Device 
   2666          
   2667                    <DstAddress> The EUI64 or 16-bit multicast ID
   2668          
   2669                    <DstEP> Only in Mode 2: The destination endpoint
   2670          
   2671          
   2672          
   2673          Prompt 
   2674                    Bind:<NodeID>,<status>
   2675          
   2676                    In case of an error an status other than 00 will be displayed 
   2677                    <NodeID> is the Remote nodes Node ID.
   2678          
   2679          
   2680          ******************************************************************************/

   \                                 In  segment BANKED_CODE, align 1, keep-with-next
   2681          void AT_Cmd_BIND(uint8 start_point, uint8* msg){
   \                     AT_Cmd_BIND:
   \   000000   74F1         MOV     A,#-0xf
   \   000002   12....       LCALL   ?BANKED_ENTER_XDATA
   \   000005                ; Saved register size: 15
   \   000005                ; Auto size: 54
   \   000005   74CA         MOV     A,#-0x36
   \   000007   12....       LCALL   ?ALLOC_XSTACK8
   \   00000A   E9           MOV     A,R1
   \   00000B   FE           MOV     R6,A
   \   00000C   8A..         MOV     ?V0 + 0,R2
   \   00000E   8B..         MOV     ?V0 + 1,R3
   2682            AT_CmdUnit cmdUnitArr[7];
   2683            uint8 i;
   2684            for(i=0;i<7;i++)start_point = AT_get_next_cmdUnit(&cmdUnitArr[i],start_point, msg); 
   \   000010   7F00         MOV     R7,#0x0
   \                     ??AT_Cmd_BIND_0:
   \   000012                ; Setup parameters for call to function AT_get_next_cmdUnit
   \   000012   AC..         MOV     R4,?V0 + 0
   \   000014   AD..         MOV     R5,?V0 + 1
   \   000016   EE           MOV     A,R6
   \   000017   F9           MOV     R1,A
   \   000018   8F..         MOV     ?V0 + 2,R7
   \   00001A   75..00       MOV     ?V0 + 3,#0x0
   \   00001D   7402         MOV     A,#0x2
   \   00001F   78..         MOV     R0,#?V0 + 2
   \   000021   12....       LCALL   ?S_SHL
   \   000024   7412         MOV     A,#0x12
   \   000026   12....       LCALL   ?XSTACK_DISP0_8
   \   000029   12....       LCALL   ?Subroutine103 & 0xFFFF
   \                     ??CrossCallReturnLabel_178:
   \   00002C   40E4         JC      ??AT_Cmd_BIND_0
   2685            
   2686            uint8 dstEP;
   2687            uint8 srcEP   = AT_ChartoInt8(&cmdUnitArr[2]);
   \   00002E                ; Setup parameters for call to function AT_ChartoInt8
   \   00002E   741A         MOV     A,#0x1a
   \   000030   12....       LCALL   ?XSTACK_DISP0_8
   \   000033   12....       LCALL   ?Subroutine115 & 0xFFFF
   2688            uint16 CID    = AT_ChartoInt16(&cmdUnitArr[3]);
   \                     ??CrossCallReturnLabel_206:
   \   000036   12....       LCALL   ?XSTACK_DISP0_8
   \   000039   12....       LCALL   ?Subroutine123 & 0xFFFF
   2689            zAddrType_t dstAddr;
   2690            zAddrType_t addr;
   2691            uint8 srcAddr[8];
   2692            
   2693            if(cmdUnitArr[5].symbol==','){
   \                     ??CrossCallReturnLabel_224:
   \   00003C   12....       LCALL   ?XSTACK_DISP0_8
   \   00003F   E0           MOVX    A,@DPTR
   \   000040   642C         XRL     A,#0x2c
   \   000042   7022         JNZ     ??AT_Cmd_BIND_1
   2694              AT_PARSE_CMD_PATTERN_ERROR(":,,,,,\r",cmdUnitArr); 
   \   000044                ; Setup parameters for call to function AT_pattern_check
   \   000044   7412         MOV     A,#0x12
   \   000046   12....       LCALL   ?XSTACK_DISP0_8
   \   000049   AC82         MOV     R4,DPL
   \   00004B   AD83         MOV     R5,DPH
   \   00004D   7A..         MOV     R2,#`?<Constant ":,,,,,\\r">` & 0xff
   \   00004F   7B..         MOV     R3,#(`?<Constant ":,,,,,\\r">` >> 8) & 0xff
   \   000051   12....       LCALL   ??Subroutine200_0 & 0xFFFF
   \                     ??CrossCallReturnLabel_468:
   \   000054   6006         JZ      ??AT_Cmd_BIND_2
   \   000056                ; Setup parameters for call to function AT_UARTWriteErrMsg
   \                     ??AT_Cmd_BIND_3:
   \   000056   12....       LCALL   ??AT_UARTWriteErrMsg?relay
   \   000059   02....       LJMP    ??AT_Cmd_BIND_4 & 0xFFFF
   2695              dstEP   = AT_ChartoInt8(&cmdUnitArr[5]);
   \                     ??AT_Cmd_BIND_2:
   \   00005C                ; Setup parameters for call to function AT_ChartoInt8
   \   00005C   7426         MOV     A,#0x26
   \   00005E   12....       LCALL   ?XSTACK_DISP0_8
   \   000061   12....       LCALL   ?Subroutine111 & 0xFFFF
   2696            }else{
   \                     ??CrossCallReturnLabel_195:
   \   000064   8014         SJMP    ??AT_Cmd_BIND_5
   2697              AT_PARSE_CMD_PATTERN_ERROR(":,,,,\r",cmdUnitArr);
   \                     ??AT_Cmd_BIND_1:
   \   000066                ; Setup parameters for call to function AT_pattern_check
   \   000066   7412         MOV     A,#0x12
   \   000068   12....       LCALL   ?XSTACK_DISP0_8
   \   00006B   AC82         MOV     R4,DPL
   \   00006D   AD83         MOV     R5,DPH
   \   00006F   7A..         MOV     R2,#`?<Constant ":,,,,\\r">` & 0xff
   \   000071   7B..         MOV     R3,#(`?<Constant ":,,,,\\r">` >> 8) & 0xff
   \   000073   12....       LCALL   ??Subroutine200_0 & 0xFFFF
   \                     ??CrossCallReturnLabel_469:
   \   000076   70DE         JNZ     ??AT_Cmd_BIND_3
   \   000078                ; Setup parameters for call to function AT_UARTWriteErrMsg
   2698              dstEP =0;
   \   000078   7F00         MOV     R7,#0x0
   2699            }
   2700            
   2701          
   2702            //<address>,<SrcAddress>,<SrcEP>,<ClusterID>,<DstAddress>[,<DstEP>]
   2703            if(cmdUnitArr[1].unitLen==0){//if the user din't type this parameter, it will filled in by self address;
   \                     ??AT_Cmd_BIND_5:
   \   00007A   7417         MOV     A,#0x17
   \   00007C   12....       LCALL   ?XSTACK_DISP0_8
   \   00007F   E0           MOVX    A,@DPTR
   \   000080   7017         JNZ     ??AT_Cmd_BIND_6
   2704              osal_memcpy(srcAddr,NLME_GetExtAddr(),8);
   \   000082                ; Setup parameters for call to function osal_memcpy
   \   000082                ; Setup parameters for call to function NLME_GetExtAddr
   \   000082   12....       LCALL   ?Subroutine117 & 0xFFFF
   2705            }else{
   \                     ??CrossCallReturnLabel_208:
   \   000085   12....       LCALL   ?PUSH_XSTACK_I_THREE
   \   000088   7C08         MOV     R4,#0x8
   \   00008A   7D00         MOV     R5,#0x0
   \   00008C   7431         MOV     A,#0x31
   \   00008E   12....       LCALL   ?XSTACK_DISP0_8
   \   000091   12....       LCALL   ?Subroutine133 & 0xFFFF
   \                     ??CrossCallReturnLabel_255:
   \   000094   12....       LCALL   ?DEALLOC_XSTACK8
   \   000097   8017         SJMP    ??AT_Cmd_BIND_7
   2706              AT_ChartoIntx(&cmdUnitArr[1],srcAddr, 64); 
   \                     ??AT_Cmd_BIND_6:
   \   000099                ; Setup parameters for call to function AT_ChartoIntx
   \   000099   7940         MOV     R1,#0x40
   \   00009B   742E         MOV     A,#0x2e
   \   00009D   12....       LCALL   ?XSTACK_DISP0_8
   \   0000A0   AC82         MOV     R4,DPL
   \   0000A2   AD83         MOV     R5,DPH
   \   0000A4   7416         MOV     A,#0x16
   \   0000A6   12....       LCALL   ?XSTACK_DISP0_8
   \   0000A9   AA82         MOV     R2,DPL
   \   0000AB   AB83         MOV     R3,DPH
   \   0000AD   12....       LCALL   ??AT_ChartoIntx?relay
   2707            }
   2708            
   2709            if(cmdUnitArr[0].unitLen==0){
   \                     ??AT_Cmd_BIND_7:
   \   0000B0   7413         MOV     A,#0x13
   \   0000B2   12....       LCALL   ?XSTACK_DISP0_8
   \   0000B5   E0           MOVX    A,@DPTR
   \   0000B6   7005         JNZ     ??AT_Cmd_BIND_8
   2710              addr.addr.shortAddr=NLME_GetShortAddr();              
   \   0000B8                ; Setup parameters for call to function NLME_GetShortAddr
   \   0000B8   12....       LCALL   ??NLME_GetShortAddr?relay
   \   0000BB   802C         SJMP    ??AT_Cmd_BIND_9
   2711              addr.addrMode = (afAddrMode_t)Addr16Bit; 
   2712            }else if(cmdUnitArr[0].unitLen>10){               
   \                     ??AT_Cmd_BIND_8:
   \   0000BD   C3           CLR     C
   \   0000BE   940B         SUBB    A,#0xb
   \   0000C0   401B         JC      ??AT_Cmd_BIND_10
   2713              AT_ChartoIntx(&cmdUnitArr[0],addr.addr.extAddr, 64);  
   \   0000C2                ; Setup parameters for call to function AT_ChartoIntx
   \   0000C2   7940         MOV     R1,#0x40
   \   0000C4   85..82       MOV     DPL,?XSP + 0
   \   0000C7   85..83       MOV     DPH,?XSP + 1
   \   0000CA   AC82         MOV     R4,DPL
   \   0000CC   AD83         MOV     R5,DPH
   \   0000CE   7412         MOV     A,#0x12
   \   0000D0   12....       LCALL   ?XSTACK_DISP0_8
   \   0000D3   12....       LCALL   ?Subroutine131 & 0xFFFF
   2714              addr.addrMode = (afAddrMode_t)Addr64Bit;                  
   2715            }else{                                                         
   \                     ??CrossCallReturnLabel_249:
   \   0000D6   12....       LCALL   ?XSTACK_DISP0_8
   \   0000D9   7403         MOV     A,#0x3
   \   0000DB   8014         SJMP    ??AT_Cmd_BIND_11
   2716              addr.addr.shortAddr =AT_ChartoInt16(&cmdUnitArr[0]);            
   \                     ??AT_Cmd_BIND_10:
   \   0000DD                ; Setup parameters for call to function AT_ChartoInt16
   \   0000DD   7412         MOV     A,#0x12
   \   0000DF   12....       LCALL   ?XSTACK_DISP0_8
   \   0000E2   AA82         MOV     R2,DPL
   \   0000E4   AB83         MOV     R3,DPH
   \   0000E6   12....       LCALL   ??AT_ChartoInt16?relay
   2717              addr.addrMode = (afAddrMode_t)Addr16Bit;       
   2718            }
   \                     ??AT_Cmd_BIND_9:
   \   0000E9   12....       LCALL   ??Subroutine197_0 & 0xFFFF
   \                     ??CrossCallReturnLabel_421:
   \   0000EC   12....       LCALL   ?XSTACK_DISP0_8
   \   0000EF   7402         MOV     A,#0x2
   \                     ??AT_Cmd_BIND_11:
   \   0000F1   F0           MOVX    @DPTR,A
   2719            
   2720            if(cmdUnitArr[4].unitLen==0){//if the user din't type this parameter, it will filled in by self address;
   \   0000F2   7423         MOV     A,#0x23
   \   0000F4   12....       LCALL   ?XSTACK_DISP0_8
   \   0000F7   E0           MOVX    A,@DPTR
   \   0000F8   701E         JNZ     ??AT_Cmd_BIND_12
   2721              osal_memcpy(dstAddr.addr.extAddr,NLME_GetExtAddr(),8);
   \   0000FA                ; Setup parameters for call to function osal_memcpy
   \   0000FA                ; Setup parameters for call to function NLME_GetExtAddr
   \   0000FA   12....       LCALL   ?Subroutine117 & 0xFFFF
   \                     ??CrossCallReturnLabel_209:
   \   0000FD   12....       LCALL   ?PUSH_XSTACK_I_THREE
   \   000100   7C08         MOV     R4,#0x8
   \   000102   7D00         MOV     R5,#0x0
   \   000104   740C         MOV     A,#0xc
   \   000106   12....       LCALL   ?XSTACK_DISP0_8
   \   000109   12....       LCALL   ?Subroutine133 & 0xFFFF
   \                     ??CrossCallReturnLabel_256:
   \   00010C   12....       LCALL   ?DEALLOC_XSTACK8
   2722              dstAddr.addrMode = (afAddrMode_t)Addr64Bit;
   \                     ??AT_Cmd_BIND_13:
   \   00010F   7411         MOV     A,#0x11
   \   000111   12....       LCALL   ?XSTACK_DISP0_8
   \   000114   7403         MOV     A,#0x3
   \   000116   8039         SJMP    ??AT_Cmd_BIND_14
   2723            }else if(cmdUnitArr[4].unitLen>10){ 
   \                     ??AT_Cmd_BIND_12:
   \   000118   C3           CLR     C
   \   000119   940B         SUBB    A,#0xb
   \   00011B   4019         JC      ??AT_Cmd_BIND_15
   2724              AT_ChartoIntx(&cmdUnitArr[4],dstAddr.addr.extAddr, 64);  
   \   00011D                ; Setup parameters for call to function AT_ChartoIntx
   \   00011D   7940         MOV     R1,#0x40
   \   00011F   7409         MOV     A,#0x9
   \   000121   12....       LCALL   ?XSTACK_DISP0_8
   \   000124   AC82         MOV     R4,DPL
   \   000126   AD83         MOV     R5,DPH
   \   000128   7422         MOV     A,#0x22
   \   00012A   12....       LCALL   ?XSTACK_DISP0_8
   \   00012D   AA82         MOV     R2,DPL
   \   00012F   AB83         MOV     R3,DPH
   \   000131   12....       LCALL   ??AT_ChartoIntx?relay
   2725              dstAddr.addrMode = (afAddrMode_t)Addr64Bit;                  
   \   000134   80D9         SJMP    ??AT_Cmd_BIND_13
   2726            }else{                                                         
   2727              dstAddr.addr.shortAddr =AT_ChartoInt16(&cmdUnitArr[4]);            
   \                     ??AT_Cmd_BIND_15:
   \   000136                ; Setup parameters for call to function AT_ChartoInt16
   \   000136   7422         MOV     A,#0x22
   \   000138   12....       LCALL   ?XSTACK_DISP0_8
   \   00013B   AA82         MOV     R2,DPL
   \   00013D   AB83         MOV     R3,DPH
   \   00013F   12....       LCALL   ??AT_ChartoInt16?relay
   \   000142   7409         MOV     A,#0x9
   \   000144   12....       LCALL   ?XSTACK_DISP0_8
   \   000147   12....       LCALL   ??Subroutine209_0 & 0xFFFF
   2728              dstAddr.addrMode = (afAddrMode_t)AddrGroup;       
   \                     ??CrossCallReturnLabel_523:
   \   00014A   7411         MOV     A,#0x11
   \   00014C   12....       LCALL   ?XSTACK_DISP0_8
   \   00014F   7401         MOV     A,#0x1
   2729            }
   \                     ??AT_Cmd_BIND_14:
   \   000151   12....       LCALL   ?Subroutine27 & 0xFFFF
   2730            uint8 state;
   2731            state = ZDP_BindReq( &addr, srcAddr, srcEP, CID, &dstAddr, dstEP,0 );
   \                     ??CrossCallReturnLabel_20:
   \   000154   12....       LCALL   ?PUSH_XSTACK_I_ONE
   \   000157   EF           MOV     A,R7
   \   000158   F5..         MOV     ?V0 + 1,A
   \   00015A   78..         MOV     R0,#?V0 + 1
   \   00015C   12....       LCALL   ?PUSH_XSTACK_I_ONE
   \   00015F   740B         MOV     A,#0xb
   \   000161   12....       LCALL   ?XSTACK_DISP0_8
   \   000164   8582..       MOV     ?V0 + 4,DPL
   \   000167   8583..       MOV     ?V0 + 5,DPH
   \   00016A   78..         MOV     R0,#?V0 + 4
   \   00016C   12....       LCALL   ?PUSH_XSTACK_I_TWO
   \   00016F   78..         MOV     R0,#?V0 + 2
   \   000171   12....       LCALL   ?PUSH_XSTACK_I_TWO
   \   000174   7434         MOV     A,#0x34
   \   000176   12....       LCALL   ?XSTACK_DISP0_8
   \   000179   8582..       MOV     ?V0 + 2,DPL
   \   00017C   8583..       MOV     ?V0 + 3,DPH
   \   00017F   78..         MOV     R0,#?V0 + 2
   \   000181   12....       LCALL   ?PUSH_XSTACK_I_TWO
   \   000184   A9..         MOV     R1,?V0 + 0
   \   000186   7408         MOV     A,#0x8
   \   000188   12....       LCALL   ?XSTACK_DISP0_8
   \   00018B   AC82         MOV     R4,DPL
   \   00018D   AD83         MOV     R5,DPH
   \   00018F   7A21         MOV     R2,#0x21
   \   000191   7B00         MOV     R3,#0x0
   \   000193   12....       LCALL   ??ZDP_BindUnbindReq?relay
   \   000196   7408         MOV     A,#0x8
   \   000198   12....       LCALL   ?DEALLOC_XSTACK8
   \   00019B   E9           MOV     A,R1
   2732            if(state!=afStatus_SUCCESS) AT_ERROR(state);
   \   00019C   6003         JZ      $+5
   \   00019E   02....       LJMP    ??AT_Cmd_BIND_3 & 0xFFFF
   \   0001A1                ; Setup parameters for call to function AT_UARTWriteErrMsg
   2733            else AT_OK();
   \   0001A1                ; Setup parameters for call to function AT_HalUARTWrite
   \   0001A1   7C07         MOV     R4,#0x7
   \   0001A3   7D00         MOV     R5,#0x0
   \   0001A5   7A..         MOV     R2,#`?<Constant "\\r\\nOK\\r\\n">` & 0xff
   \   0001A7   7B..         MOV     R3,#(`?<Constant "\\r\\nOK\\r\\n">` >> 8) & 0xff
   \   0001A9   7900         MOV     R1,#0x0
   \   0001AB   12....       LCALL   ??AT_HalUARTWrite?relay
   \                     ??AT_Cmd_BIND_4:
   \   0001AE                REQUIRE ?Subroutine8
   \   0001AE                ; // Fall through to label ?Subroutine8
   2734          }

   \                                 In  segment BANKED_CODE, align 1, keep-with-next
   \                     ?Subroutine8:
   \   000000   7436         MOV     A,#0x36
   \   000002   12....       LCALL   ?DEALLOC_XSTACK8
   \   000005   7F07         MOV     R7,#0x7
   \   000007   02....       LJMP    ?BANKED_LEAVE_XDATA

   \                                 In  segment BANKED_CODE, align 1, keep-with-next
   \                     ?Subroutine133:
   \   000000   AA82         MOV     R2,DPL
   \   000002   AB83         MOV     R3,DPH
   \   000004   12....       LCALL   ??osal_memcpy?relay
   \   000007   7403         MOV     A,#0x3
   \   000009   22           RET

   \                                 In  segment BANKED_CODE, align 1, keep-with-next
   \                     ?Subroutine123:
   \   000000   12....       LCALL   ?Subroutine161 & 0xFFFF
   \                     ??CrossCallReturnLabel_295:
   \   000003   7426         MOV     A,#0x26
   \   000005   22           RET

   \                                 In  segment BANKED_CODE, align 1, keep-with-next
   \                     ?Subroutine117:
   \   000000   12....       LCALL   ??NLME_GetExtAddr?relay
   \   000003   8A..         MOV     ?V0 + 4,R2
   \   000005   8B..         MOV     ?V0 + 5,R3
   \   000007   75..00       MOV     ?V0 + 6,#0x0
   \   00000A   78..         MOV     R0,#?V0 + 4
   \   00000C   22           RET

   \                                 In  segment BANKED_CODE, align 1, keep-with-next
   \                     ?Subroutine115:
   \   000000   12....       LCALL   ?Subroutine163 & 0xFFFF
   \                     ??CrossCallReturnLabel_513:
   \   000003   F5..         MOV     ?V0 + 0,A
   \   000005                ; Setup parameters for call to function AT_ChartoInt16
   \   000005                ; Setup parameters for call to function AT_ChartoInt16
   \   000005   741E         MOV     A,#0x1e
   \   000007   22           RET

   \                                 In  segment BANKED_CODE, align 1, keep-with-next
   \                     ?Subroutine103:
   \   000000   12....       LCALL   ?Subroutine165 & 0xFFFF
   \                     ??CrossCallReturnLabel_301:
   \   000003   12....       LCALL   ??Subroutine204_0 & 0xFFFF
   \                     ??CrossCallReturnLabel_553:
   \   000006   FE           MOV     R6,A
   \   000007   0F           INC     R7
   \   000008   EF           MOV     A,R7
   \   000009   C3           CLR     C
   \   00000A   9407         SUBB    A,#0x7
   \   00000C   22           RET
   2735          /*****************************************************************************
   2736          +UNBIND C Delete Binding on Remote Device 
   2737              AT+UNBIND:<address>,[<SrcAddress>],<SrcEP>,<ClusterID>,[<DstAddress>][,<DstEP>] 
   2738                    Create Binding on a remote device with 
   2739          
   2740                    <address> the target Nodes EUI64, Node ID, or Address Table entry 
   2741          
   2742                    [<SrcAddress>] The EUI64 of the Source 
   2743          
   2744                    <SrcEP> The source Endpoint <ClusterID> The Cluster ID on the source Device 
   2745          
   2746                    <DstAddress> The EUI64 or 16-bit multicast ID
   2747          
   2748                    <DstEP> Only in Mode 2: The destination endpoint
   2749          
   2750          
   2751          
   2752          Prompt 
   2753                    Unbind:<NodeID>,<status>
   2754          
   2755                    In case of an error an status other than 00 will be displayed 
   2756                    <NodeID> is the Remote nodes Node ID.
   2757          
   2758          
   2759          ******************************************************************************/

   \                                 In  segment BANKED_CODE, align 1, keep-with-next
   2760          void AT_Cmd_UNBIND(uint8 start_point, uint8* msg){
   \                     AT_Cmd_UNBIND:
   \   000000   74F1         MOV     A,#-0xf
   \   000002   12....       LCALL   ?BANKED_ENTER_XDATA
   \   000005                ; Saved register size: 15
   \   000005                ; Auto size: 54
   \   000005   74CA         MOV     A,#-0x36
   \   000007   12....       LCALL   ?ALLOC_XSTACK8
   \   00000A   E9           MOV     A,R1
   \   00000B   FE           MOV     R6,A
   \   00000C   8A..         MOV     ?V0 + 0,R2
   \   00000E   8B..         MOV     ?V0 + 1,R3
   2761            AT_CmdUnit cmdUnitArr[7];
   2762            uint8 i;
   2763            for(i=0;i<7;i++)start_point = AT_get_next_cmdUnit(&cmdUnitArr[i],start_point, msg); 
   \   000010   7F00         MOV     R7,#0x0
   \                     ??AT_Cmd_UNBIND_0:
   \   000012                ; Setup parameters for call to function AT_get_next_cmdUnit
   \   000012   AC..         MOV     R4,?V0 + 0
   \   000014   AD..         MOV     R5,?V0 + 1
   \   000016   EE           MOV     A,R6
   \   000017   F9           MOV     R1,A
   \   000018   8F..         MOV     ?V0 + 2,R7
   \   00001A   75..00       MOV     ?V0 + 3,#0x0
   \   00001D   7402         MOV     A,#0x2
   \   00001F   78..         MOV     R0,#?V0 + 2
   \   000021   12....       LCALL   ?S_SHL
   \   000024   7412         MOV     A,#0x12
   \   000026   12....       LCALL   ?XSTACK_DISP0_8
   \   000029   12....       LCALL   ?Subroutine103 & 0xFFFF
   \                     ??CrossCallReturnLabel_179:
   \   00002C   40E4         JC      ??AT_Cmd_UNBIND_0
   2764            
   2765            uint8 dstEP;
   2766            uint8 srcEP   = AT_ChartoInt8(&cmdUnitArr[2]);
   \   00002E                ; Setup parameters for call to function AT_ChartoInt8
   \   00002E   741A         MOV     A,#0x1a
   \   000030   12....       LCALL   ?XSTACK_DISP0_8
   \   000033   12....       LCALL   ?Subroutine115 & 0xFFFF
   2767            uint16 CID    = AT_ChartoInt16(&cmdUnitArr[3]);
   \                     ??CrossCallReturnLabel_207:
   \   000036   12....       LCALL   ?XSTACK_DISP0_8
   \   000039   12....       LCALL   ?Subroutine123 & 0xFFFF
   2768            zAddrType_t dstAddr;
   2769            zAddrType_t addr;
   2770            uint8 srcAddr[8];
   2771            
   2772            if(cmdUnitArr[5].symbol==','){
   \                     ??CrossCallReturnLabel_225:
   \   00003C   12....       LCALL   ?XSTACK_DISP0_8
   \   00003F   E0           MOVX    A,@DPTR
   \   000040   642C         XRL     A,#0x2c
   \   000042   7022         JNZ     ??AT_Cmd_UNBIND_1
   2773              AT_PARSE_CMD_PATTERN_ERROR(":,,,,,\r",cmdUnitArr); 
   \   000044                ; Setup parameters for call to function AT_pattern_check
   \   000044   7412         MOV     A,#0x12
   \   000046   12....       LCALL   ?XSTACK_DISP0_8
   \   000049   AC82         MOV     R4,DPL
   \   00004B   AD83         MOV     R5,DPH
   \   00004D   7A..         MOV     R2,#`?<Constant ":,,,,,\\r">` & 0xff
   \   00004F   7B..         MOV     R3,#(`?<Constant ":,,,,,\\r">` >> 8) & 0xff
   \   000051   12....       LCALL   ??Subroutine200_0 & 0xFFFF
   \                     ??CrossCallReturnLabel_470:
   \   000054   6006         JZ      ??AT_Cmd_UNBIND_2
   \   000056                ; Setup parameters for call to function AT_UARTWriteErrMsg
   \                     ??AT_Cmd_UNBIND_3:
   \   000056   12....       LCALL   ??AT_UARTWriteErrMsg?relay
   \   000059   02....       LJMP    ??AT_Cmd_UNBIND_4 & 0xFFFF
   2774              dstEP   = AT_ChartoInt8(&cmdUnitArr[5]);
   \                     ??AT_Cmd_UNBIND_2:
   \   00005C                ; Setup parameters for call to function AT_ChartoInt8
   \   00005C   7426         MOV     A,#0x26
   \   00005E   12....       LCALL   ?XSTACK_DISP0_8
   \   000061   12....       LCALL   ?Subroutine111 & 0xFFFF
   2775            }else{
   \                     ??CrossCallReturnLabel_196:
   \   000064   8014         SJMP    ??AT_Cmd_UNBIND_5
   2776              AT_PARSE_CMD_PATTERN_ERROR(":,,,,\r",cmdUnitArr);
   \                     ??AT_Cmd_UNBIND_1:
   \   000066                ; Setup parameters for call to function AT_pattern_check
   \   000066   7412         MOV     A,#0x12
   \   000068   12....       LCALL   ?XSTACK_DISP0_8
   \   00006B   AC82         MOV     R4,DPL
   \   00006D   AD83         MOV     R5,DPH
   \   00006F   7A..         MOV     R2,#`?<Constant ":,,,,\\r">` & 0xff
   \   000071   7B..         MOV     R3,#(`?<Constant ":,,,,\\r">` >> 8) & 0xff
   \   000073   12....       LCALL   ??Subroutine200_0 & 0xFFFF
   \                     ??CrossCallReturnLabel_471:
   \   000076   70DE         JNZ     ??AT_Cmd_UNBIND_3
   \   000078                ; Setup parameters for call to function AT_UARTWriteErrMsg
   2777              dstEP =0;
   \   000078   7F00         MOV     R7,#0x0
   2778            }
   2779            
   2780          
   2781            //<address>,<SrcAddress>,<SrcEP>,<ClusterID>,<DstAddress>[,<DstEP>]
   2782            if(cmdUnitArr[1].unitLen==0){//if the user din't type this parameter, it will filled in by self address;
   \                     ??AT_Cmd_UNBIND_5:
   \   00007A   7417         MOV     A,#0x17
   \   00007C   12....       LCALL   ?XSTACK_DISP0_8
   \   00007F   E0           MOVX    A,@DPTR
   \   000080   7017         JNZ     ??AT_Cmd_UNBIND_6
   2783              osal_memcpy(srcAddr,NLME_GetExtAddr(),8);
   \   000082                ; Setup parameters for call to function osal_memcpy
   \   000082                ; Setup parameters for call to function NLME_GetExtAddr
   \   000082   12....       LCALL   ?Subroutine117 & 0xFFFF
   2784            }else{
   \                     ??CrossCallReturnLabel_210:
   \   000085   12....       LCALL   ?PUSH_XSTACK_I_THREE
   \   000088   7C08         MOV     R4,#0x8
   \   00008A   7D00         MOV     R5,#0x0
   \   00008C   7431         MOV     A,#0x31
   \   00008E   12....       LCALL   ?XSTACK_DISP0_8
   \   000091   12....       LCALL   ?Subroutine133 & 0xFFFF
   \                     ??CrossCallReturnLabel_257:
   \   000094   12....       LCALL   ?DEALLOC_XSTACK8
   \   000097   8017         SJMP    ??AT_Cmd_UNBIND_7
   2785              AT_ChartoIntx(&cmdUnitArr[1],srcAddr, 64); 
   \                     ??AT_Cmd_UNBIND_6:
   \   000099                ; Setup parameters for call to function AT_ChartoIntx
   \   000099   7940         MOV     R1,#0x40
   \   00009B   742E         MOV     A,#0x2e
   \   00009D   12....       LCALL   ?XSTACK_DISP0_8
   \   0000A0   AC82         MOV     R4,DPL
   \   0000A2   AD83         MOV     R5,DPH
   \   0000A4   7416         MOV     A,#0x16
   \   0000A6   12....       LCALL   ?XSTACK_DISP0_8
   \   0000A9   AA82         MOV     R2,DPL
   \   0000AB   AB83         MOV     R3,DPH
   \   0000AD   12....       LCALL   ??AT_ChartoIntx?relay
   2786            }
   2787            
   2788            if(cmdUnitArr[0].unitLen==0){//if the user din't type this parameter, it will filled in by self address;
   \                     ??AT_Cmd_UNBIND_7:
   \   0000B0   7413         MOV     A,#0x13
   \   0000B2   12....       LCALL   ?XSTACK_DISP0_8
   \   0000B5   E0           MOVX    A,@DPTR
   \   0000B6   7005         JNZ     ??AT_Cmd_UNBIND_8
   2789              addr.addr.shortAddr=NLME_GetShortAddr();              
   \   0000B8                ; Setup parameters for call to function NLME_GetShortAddr
   \   0000B8   12....       LCALL   ??NLME_GetShortAddr?relay
   \   0000BB   802C         SJMP    ??AT_Cmd_UNBIND_9
   2790              addr.addrMode = (afAddrMode_t)Addr16Bit; 
   2791            }else if(cmdUnitArr[0].unitLen>10){               
   \                     ??AT_Cmd_UNBIND_8:
   \   0000BD   C3           CLR     C
   \   0000BE   940B         SUBB    A,#0xb
   \   0000C0   401B         JC      ??AT_Cmd_UNBIND_10
   2792              AT_ChartoIntx(&cmdUnitArr[0],addr.addr.extAddr, 64);  
   \   0000C2                ; Setup parameters for call to function AT_ChartoIntx
   \   0000C2   7940         MOV     R1,#0x40
   \   0000C4   85..82       MOV     DPL,?XSP + 0
   \   0000C7   85..83       MOV     DPH,?XSP + 1
   \   0000CA   AC82         MOV     R4,DPL
   \   0000CC   AD83         MOV     R5,DPH
   \   0000CE   7412         MOV     A,#0x12
   \   0000D0   12....       LCALL   ?XSTACK_DISP0_8
   \   0000D3   12....       LCALL   ?Subroutine131 & 0xFFFF
   2793              addr.addrMode = (afAddrMode_t)Addr64Bit;                  
   2794            }else{                                                         
   \                     ??CrossCallReturnLabel_250:
   \   0000D6   12....       LCALL   ?XSTACK_DISP0_8
   \   0000D9   7403         MOV     A,#0x3
   \   0000DB   8014         SJMP    ??AT_Cmd_UNBIND_11
   2795              addr.addr.shortAddr =AT_ChartoInt16(&cmdUnitArr[0]);            
   \                     ??AT_Cmd_UNBIND_10:
   \   0000DD                ; Setup parameters for call to function AT_ChartoInt16
   \   0000DD   7412         MOV     A,#0x12
   \   0000DF   12....       LCALL   ?XSTACK_DISP0_8
   \   0000E2   AA82         MOV     R2,DPL
   \   0000E4   AB83         MOV     R3,DPH
   \   0000E6   12....       LCALL   ??AT_ChartoInt16?relay
   2796              addr.addrMode = (afAddrMode_t)Addr16Bit;       
   2797            }
   \                     ??AT_Cmd_UNBIND_9:
   \   0000E9   12....       LCALL   ??Subroutine197_0 & 0xFFFF
   \                     ??CrossCallReturnLabel_422:
   \   0000EC   12....       LCALL   ?XSTACK_DISP0_8
   \   0000EF   7402         MOV     A,#0x2
   \                     ??AT_Cmd_UNBIND_11:
   \   0000F1   F0           MOVX    @DPTR,A
   2798            
   2799            if(cmdUnitArr[4].unitLen==0){//if the user din't type this parameter, it will filled in by self address;
   \   0000F2   7423         MOV     A,#0x23
   \   0000F4   12....       LCALL   ?XSTACK_DISP0_8
   \   0000F7   E0           MOVX    A,@DPTR
   \   0000F8   701E         JNZ     ??AT_Cmd_UNBIND_12
   2800              osal_memcpy(dstAddr.addr.extAddr,NLME_GetExtAddr(),8);
   \   0000FA                ; Setup parameters for call to function osal_memcpy
   \   0000FA                ; Setup parameters for call to function NLME_GetExtAddr
   \   0000FA   12....       LCALL   ?Subroutine117 & 0xFFFF
   \                     ??CrossCallReturnLabel_211:
   \   0000FD   12....       LCALL   ?PUSH_XSTACK_I_THREE
   \   000100   7C08         MOV     R4,#0x8
   \   000102   7D00         MOV     R5,#0x0
   \   000104   740C         MOV     A,#0xc
   \   000106   12....       LCALL   ?XSTACK_DISP0_8
   \   000109   12....       LCALL   ?Subroutine133 & 0xFFFF
   \                     ??CrossCallReturnLabel_258:
   \   00010C   12....       LCALL   ?DEALLOC_XSTACK8
   2801              dstAddr.addrMode = (afAddrMode_t)Addr64Bit;
   \                     ??AT_Cmd_UNBIND_13:
   \   00010F   7411         MOV     A,#0x11
   \   000111   12....       LCALL   ?XSTACK_DISP0_8
   \   000114   7403         MOV     A,#0x3
   \   000116   8039         SJMP    ??AT_Cmd_UNBIND_14
   2802            }else if(cmdUnitArr[4].unitLen>10){ 
   \                     ??AT_Cmd_UNBIND_12:
   \   000118   C3           CLR     C
   \   000119   940B         SUBB    A,#0xb
   \   00011B   4019         JC      ??AT_Cmd_UNBIND_15
   2803              AT_ChartoIntx(&cmdUnitArr[4],dstAddr.addr.extAddr, 64);  
   \   00011D                ; Setup parameters for call to function AT_ChartoIntx
   \   00011D   7940         MOV     R1,#0x40
   \   00011F   7409         MOV     A,#0x9
   \   000121   12....       LCALL   ?XSTACK_DISP0_8
   \   000124   AC82         MOV     R4,DPL
   \   000126   AD83         MOV     R5,DPH
   \   000128   7422         MOV     A,#0x22
   \   00012A   12....       LCALL   ?XSTACK_DISP0_8
   \   00012D   AA82         MOV     R2,DPL
   \   00012F   AB83         MOV     R3,DPH
   \   000131   12....       LCALL   ??AT_ChartoIntx?relay
   2804              dstAddr.addrMode = (afAddrMode_t)Addr64Bit;                  
   \   000134   80D9         SJMP    ??AT_Cmd_UNBIND_13
   2805            }else{                                                         
   2806              dstAddr.addr.shortAddr =AT_ChartoInt16(&cmdUnitArr[4]);            
   \                     ??AT_Cmd_UNBIND_15:
   \   000136                ; Setup parameters for call to function AT_ChartoInt16
   \   000136   7422         MOV     A,#0x22
   \   000138   12....       LCALL   ?XSTACK_DISP0_8
   \   00013B   AA82         MOV     R2,DPL
   \   00013D   AB83         MOV     R3,DPH
   \   00013F   12....       LCALL   ??AT_ChartoInt16?relay
   \   000142   7409         MOV     A,#0x9
   \   000144   12....       LCALL   ?XSTACK_DISP0_8
   \   000147   12....       LCALL   ??Subroutine209_0 & 0xFFFF
   2807              dstAddr.addrMode = (afAddrMode_t)AddrGroup;       
   \                     ??CrossCallReturnLabel_524:
   \   00014A   7411         MOV     A,#0x11
   \   00014C   12....       LCALL   ?XSTACK_DISP0_8
   \   00014F   7401         MOV     A,#0x1
   2808            }
   \                     ??AT_Cmd_UNBIND_14:
   \   000151   12....       LCALL   ?Subroutine27 & 0xFFFF
   2809            uint8 state;
   2810            state = ZDP_UnbindReq( &addr, srcAddr, srcEP, CID, &dstAddr, dstEP,0 );
   \                     ??CrossCallReturnLabel_21:
   \   000154   12....       LCALL   ?PUSH_XSTACK_I_ONE
   \   000157   EF           MOV     A,R7
   \   000158   F5..         MOV     ?V0 + 1,A
   \   00015A   78..         MOV     R0,#?V0 + 1
   \   00015C   12....       LCALL   ?PUSH_XSTACK_I_ONE
   \   00015F   740B         MOV     A,#0xb
   \   000161   12....       LCALL   ?XSTACK_DISP0_8
   \   000164   8582..       MOV     ?V0 + 4,DPL
   \   000167   8583..       MOV     ?V0 + 5,DPH
   \   00016A   78..         MOV     R0,#?V0 + 4
   \   00016C   12....       LCALL   ?PUSH_XSTACK_I_TWO
   \   00016F   78..         MOV     R0,#?V0 + 2
   \   000171   12....       LCALL   ?PUSH_XSTACK_I_TWO
   \   000174   7434         MOV     A,#0x34
   \   000176   12....       LCALL   ?XSTACK_DISP0_8
   \   000179   8582..       MOV     ?V0 + 2,DPL
   \   00017C   8583..       MOV     ?V0 + 3,DPH
   \   00017F   78..         MOV     R0,#?V0 + 2
   \   000181   12....       LCALL   ?PUSH_XSTACK_I_TWO
   \   000184   A9..         MOV     R1,?V0 + 0
   \   000186   7408         MOV     A,#0x8
   \   000188   12....       LCALL   ?XSTACK_DISP0_8
   \   00018B   AC82         MOV     R4,DPL
   \   00018D   AD83         MOV     R5,DPH
   \   00018F   7A22         MOV     R2,#0x22
   \   000191   7B00         MOV     R3,#0x0
   \   000193   12....       LCALL   ??ZDP_BindUnbindReq?relay
   \   000196   7408         MOV     A,#0x8
   \   000198   12....       LCALL   ?DEALLOC_XSTACK8
   \   00019B   E9           MOV     A,R1
   2811            if(state!=afStatus_SUCCESS) AT_ERROR(state);
   \   00019C   6003         JZ      $+5
   \   00019E   02....       LJMP    ??AT_Cmd_UNBIND_3 & 0xFFFF
   \   0001A1                ; Setup parameters for call to function AT_UARTWriteErrMsg
   2812            else AT_OK();
   \   0001A1                ; Setup parameters for call to function AT_HalUARTWrite
   \   0001A1   7C07         MOV     R4,#0x7
   \   0001A3   7D00         MOV     R5,#0x0
   \   0001A5   7A..         MOV     R2,#`?<Constant "\\r\\nOK\\r\\n">` & 0xff
   \   0001A7   7B..         MOV     R3,#(`?<Constant "\\r\\nOK\\r\\n">` >> 8) & 0xff
   \   0001A9   7900         MOV     R1,#0x0
   \   0001AB   12....       LCALL   ??AT_HalUARTWrite?relay
   \                     ??AT_Cmd_UNBIND_4:
   \   0001AE   02....       LJMP    ?Subroutine8 & 0xFFFF
   2813          }
   2814          
   2815          /***********************************************************
   2816          +EBIND C End Device Bind
   2817                AT+EBIND:<EP> 
   2818                <EP> - Local Endpoint which will initiate end device binding.
   2819          
   2820          Response
   2821                    BIND:<NodeID>,<Status> 
   2822                    OK
   2823          *************************************************************/
   2824          

   \                                 In  segment BANKED_CODE, align 1, keep-with-next
   2825          void AT_Cmd_EBIND(uint8 start_point, uint8* msg){
   \                     AT_Cmd_EBIND:
   \   000000   74F4         MOV     A,#-0xc
   \   000002   12....       LCALL   ?BANKED_ENTER_XDATA
   \   000005                ; Saved register size: 12
   \   000005                ; Auto size: 17
   \   000005   74EF         MOV     A,#-0x11
   \   000007   12....       LCALL   ?ALLOC_XSTACK8
   \   00000A   89..         MOV     ?V0 + 0,R1
   \   00000C   EA           MOV     A,R2
   \   00000D   FE           MOV     R6,A
   \   00000E   EB           MOV     A,R3
   \   00000F   FF           MOV     R7,A
   2826            AT_CmdUnit cmdUnitArr[2];
   2827            uint8 i;
   2828            for(i=0;i<2;i++)start_point = AT_get_next_cmdUnit(&cmdUnitArr[i],start_point, msg); 
   \   000010   75..00       MOV     ?V0 + 1,#0x0
   \                     ??AT_Cmd_EBIND_0:
   \   000013                ; Setup parameters for call to function AT_get_next_cmdUnit
   \   000013   EE           MOV     A,R6
   \   000014   FC           MOV     R4,A
   \   000015   EF           MOV     A,R7
   \   000016   FD           MOV     R5,A
   \   000017   A9..         MOV     R1,?V0 + 0
   \   000019   85....       MOV     ?V0 + 2,?V0 + 1
   \   00001C   75..00       MOV     ?V0 + 3,#0x0
   \   00001F   7402         MOV     A,#0x2
   \   000021   78..         MOV     R0,#?V0 + 2
   \   000023   12....       LCALL   ?S_SHL
   \   000026   85..82       MOV     DPL,?XSP + 0
   \   000029   85..83       MOV     DPH,?XSP + 1
   \   00002C   12....       LCALL   ?Subroutine101 & 0xFFFF
   \                     ??CrossCallReturnLabel_173:
   \   00002F   9402         SUBB    A,#0x2
   \   000031   40E0         JC      ??AT_Cmd_EBIND_0
   2829            AT_PARSE_CMD_PATTERN_ERROR(":\r",cmdUnitArr);
   \   000033                ; Setup parameters for call to function AT_pattern_check
   \   000033   12....       LCALL   ?Subroutine108 & 0xFFFF
   \                     ??CrossCallReturnLabel_430:
   \   000036   6003         JZ      $+5
   \   000038   02....       LJMP    ??AT_Cmd_EBIND_1 & 0xFFFF
   \   00003B                ; Setup parameters for call to function AT_UARTWriteErrMsg
   2830            
   2831            uint8 ep = AT_ChartoInt8(&cmdUnitArr[0]);
   \   00003B                ; Setup parameters for call to function AT_ChartoInt8
   \   00003B   12....       LCALL   ?Subroutine109 & 0xFFFF
   2832             //build self address
   2833            zAddrType_t addr={
   2834              {0x0000},                                     //addr 
   2835              (afAddrMode_t) Addr16Bit,                     //addr mode
   2836            };
   \                     ??CrossCallReturnLabel_504:
   \   00003E   7408         MOV     A,#0x8
   \   000040   12....       LCALL   ?XSTACK_DISP0_8
   \   000043   AC82         MOV     R4,DPL
   \   000045   AD83         MOV     R5,DPH
   \   000047   7583..       MOV     DPH,#(`?<Constant {{0}, 2}>` >> 8) & 0xff
   \   00004A   7582..       MOV     DPL,#`?<Constant {{0}, 2}>` & 0xff
   \   00004D   7409         MOV     A,#0x9
   \   00004F   12....       LCALL   ?MOVE_LONG8_XDATA_XDATA
   2837            
   2838            endPointDesc_t * epDesc = afFindEndPointDesc( ep );
   \   000052                ; Setup parameters for call to function afFindEndPointDesc
   \   000052   12....       LCALL   ??afFindEndPointDesc?relay
   \   000055   8A..         MOV     ?V0 + 2,R2
   \   000057   8B..         MOV     ?V0 + 3,R3
   \   000059   AE..         MOV     R6,?V0 + 2
   \   00005B   AF..         MOV     R7,?V0 + 3
   2839            if(epDesc){
   \   00005D   EE           MOV     A,R6
   \   00005E   4F           ORL     A,R7
   \   00005F   7003         JNZ     $+5
   \   000061   02....       LJMP    ??AT_Cmd_EBIND_2 & 0xFFFF
   2840              uint8 state;
   2841              state = ZDP_EndDeviceBindReq( &addr,
   2842                                        NLME_GetShortAddr(),//struange but check the sorce code, this the only way. or it will return afStatus_INVALID_PARAMETER error
   2843                                        ep,
   2844                                        epDesc->simpleDesc->AppProfId,
   2845                                        epDesc->simpleDesc->AppNumInClusters,
   2846                                        epDesc->simpleDesc->pAppInClusterList,
   2847                                        epDesc->simpleDesc->AppNumOutClusters, 
   2848                                        epDesc->simpleDesc->pAppOutClusterList,
   2849                                        0 );
   \   000064                ; Setup parameters for call to function NLME_GetShortAddr
   \   000064   12....       LCALL   ??NLME_GetShortAddr?relay
   \   000067   8A..         MOV     ?V0 + 2,R2
   \   000069   8B..         MOV     ?V0 + 3,R3
   \   00006B   AC..         MOV     R4,?V0 + 2
   \   00006D   AD..         MOV     R5,?V0 + 3
   \   00006F   8E82         MOV     DPL,R6
   \   000071   8F83         MOV     DPH,R7
   \   000073   A3           INC     DPTR
   \   000074   A3           INC     DPTR
   \   000075   A3           INC     DPTR
   \   000076   12....       LCALL   ?Subroutine50 & 0xFFFF
   \                     ??CrossCallReturnLabel_63:
   \   000079   E8           MOV     A,R0
   \   00007A   FA           MOV     R2,A
   \   00007B   E9           MOV     A,R1
   \   00007C   FB           MOV     R3,A
   \   00007D                ; Setup parameters for call to function ZDP_EndDeviceBindReq
   \   00007D   75..00       MOV     ?V0 + 2,#0x0
   \   000080   78..         MOV     R0,#?V0 + 2
   \   000082   12....       LCALL   ?PUSH_XSTACK_I_ONE
   \   000085   8A82         MOV     DPL,R2
   \   000087   8B83         MOV     DPH,R3
   \   000089   A3           INC     DPTR
   \   00008A   A3           INC     DPTR
   \   00008B   A3           INC     DPTR
   \   00008C   A3           INC     DPTR
   \   00008D   A3           INC     DPTR
   \   00008E   A3           INC     DPTR
   \   00008F   A3           INC     DPTR
   \   000090   A3           INC     DPTR
   \   000091   A3           INC     DPTR
   \   000092   A3           INC     DPTR
   \   000093   12....       LCALL   ?PUSH_XSTACK8_X_TWO
   \   000096   8A82         MOV     DPL,R2
   \   000098   8B83         MOV     DPH,R3
   \   00009A   A3           INC     DPTR
   \   00009B   A3           INC     DPTR
   \   00009C   A3           INC     DPTR
   \   00009D   A3           INC     DPTR
   \   00009E   A3           INC     DPTR
   \   00009F   A3           INC     DPTR
   \   0000A0   A3           INC     DPTR
   \   0000A1   A3           INC     DPTR
   \   0000A2   A3           INC     DPTR
   \   0000A3   E0           MOVX    A,@DPTR
   \   0000A4   F5..         MOV     ?V0 + 2,A
   \   0000A6   78..         MOV     R0,#?V0 + 2
   \   0000A8   12....       LCALL   ?PUSH_XSTACK_I_ONE
   \   0000AB   8A82         MOV     DPL,R2
   \   0000AD   8B83         MOV     DPH,R3
   \   0000AF   A3           INC     DPTR
   \   0000B0   A3           INC     DPTR
   \   0000B1   A3           INC     DPTR
   \   0000B2   A3           INC     DPTR
   \   0000B3   A3           INC     DPTR
   \   0000B4   A3           INC     DPTR
   \   0000B5   A3           INC     DPTR
   \   0000B6   12....       LCALL   ?PUSH_XSTACK8_X_TWO
   \   0000B9   8A82         MOV     DPL,R2
   \   0000BB   8B83         MOV     DPH,R3
   \   0000BD   A3           INC     DPTR
   \   0000BE   A3           INC     DPTR
   \   0000BF   A3           INC     DPTR
   \   0000C0   A3           INC     DPTR
   \   0000C1   A3           INC     DPTR
   \   0000C2   A3           INC     DPTR
   \   0000C3   E0           MOVX    A,@DPTR
   \   0000C4   F5..         MOV     ?V0 + 2,A
   \   0000C6   78..         MOV     R0,#?V0 + 2
   \   0000C8   12....       LCALL   ?PUSH_XSTACK_I_ONE
   \   0000CB   8A82         MOV     DPL,R2
   \   0000CD   8B83         MOV     DPH,R3
   \   0000CF   A3           INC     DPTR
   \   0000D0   12....       LCALL   ?PUSH_XSTACK8_X_TWO
   \   0000D3   A9..         MOV     R1,?V0 + 1
   \   0000D5   7411         MOV     A,#0x11
   \   0000D7   12....       LCALL   ?XSTACK_DISP0_8
   \   0000DA   AA82         MOV     R2,DPL
   \   0000DC   AB83         MOV     R3,DPH
   \   0000DE   12....       LCALL   ??ZDP_EndDeviceBindReq?relay
   \   0000E1   7409         MOV     A,#0x9
   \   0000E3   12....       LCALL   ?DEALLOC_XSTACK8
   \   0000E6   E9           MOV     A,R1
   2850              if(state==SUCCESS){
   \   0000E7   7011         JNZ     ??AT_Cmd_EBIND_1
   2851                AT_OK();
   \   0000E9                ; Setup parameters for call to function AT_HalUARTWrite
   \   0000E9   7C07         MOV     R4,#0x7
   \   0000EB   7D00         MOV     R5,#0x0
   \   0000ED   7A..         MOV     R2,#`?<Constant "\\r\\nOK\\r\\n">` & 0xff
   \   0000EF   7B..         MOV     R3,#(`?<Constant "\\r\\nOK\\r\\n">` >> 8) & 0xff
   \   0000F1   7900         MOV     R1,#0x0
   \   0000F3   12....       LCALL   ??AT_HalUARTWrite?relay
   \   0000F6   8005         SJMP    ??AT_Cmd_EBIND_3
   2852              }else{
   2853                AT_ERROR(state);
   2854              }
   2855            }else{
   2856              AT_ERROR(AT_FATAL_ERROR);
   \                     ??AT_Cmd_EBIND_2:
   \   0000F8                ; Setup parameters for call to function AT_UARTWriteErrMsg
   \   0000F8   7901         MOV     R1,#0x1
   \                     ??AT_Cmd_EBIND_1:
   \   0000FA   12....       LCALL   ??AT_UARTWriteErrMsg?relay
   \                     ??AT_Cmd_EBIND_3:
   \   0000FD   7411         MOV     A,#0x11
   2857            }
   \   0000FF   02....       LJMP    ??Subroutine195_0 & 0xFFFF
   2858          }

   \                                 In  segment BANKED_CODE, align 1, keep-with-next
   \                     ?Subroutine101:
   \   000000   12....       LCALL   ?Subroutine160 & 0xFFFF
   \                     ??CrossCallReturnLabel_546:
   \   000003   22           RET
   2859          /*****************************************************
   2860          +CLEARBIND C Clear Local Binding Table
   2861                AT+CLEARBIND
   2862          
   2863          ***********************************************************/
   2864          

   \                                 In  segment BANKED_CODE, align 1, keep-with-next
   2865          void AT_Cmd_CLEARBIND(uint8 start_point, uint8* msg){
   \                     AT_Cmd_CLEARBIND:
   \   000000   74F7         MOV     A,#-0x9
   \   000002   12....       LCALL   ?BANKED_ENTER_XDATA
   \   000005                ; Saved register size: 9
   \   000005                ; Auto size: 4
   \   000005   74FC         MOV     A,#-0x4
   \   000007   12....       LCALL   ?ALLOC_XSTACK8
   2866            AT_CmdUnit cmdUnitArr[1];
   2867            uint8 i;
   2868            for(i=0;i<1;i++)start_point = AT_get_next_cmdUnit(&cmdUnitArr[i],start_point, msg); 
   \   00000A                ; Setup parameters for call to function AT_get_next_cmdUnit
   \   00000A   12....       LCALL   ?Subroutine97 & 0xFFFF
   2869            AT_PARSE_CMD_PATTERN_ERROR("\r",cmdUnitArr);
   \                     ??CrossCallReturnLabel_162:
   \   00000D   6005         JZ      ??AT_Cmd_CLEARBIND_0
   \   00000F                ; Setup parameters for call to function AT_UARTWriteErrMsg
   \   00000F   12....       LCALL   ??AT_UARTWriteErrMsg?relay
   \   000012   8013         SJMP    ??AT_Cmd_CLEARBIND_1
   2870            
   2871            InitBindingTable( );
   \                     ??AT_Cmd_CLEARBIND_0:
   \   000014                ; Setup parameters for call to function InitBindingTable
   \   000014   12....       LCALL   ??InitBindingTable?relay
   2872            BindWriteNV();
   \   000017                ; Setup parameters for call to function BindWriteNV
   \   000017   12....       LCALL   ??BindWriteNV?relay
   2873            AT_OK();
   \   00001A                ; Setup parameters for call to function AT_HalUARTWrite
   \   00001A   7C07         MOV     R4,#0x7
   \   00001C   7D00         MOV     R5,#0x0
   \   00001E   7A..         MOV     R2,#`?<Constant "\\r\\nOK\\r\\n">` & 0xff
   \   000020   7B..         MOV     R3,#(`?<Constant "\\r\\nOK\\r\\n">` >> 8) & 0xff
   \   000022   7900         MOV     R1,#0x0
   \   000024   12....       LCALL   ??AT_HalUARTWrite?relay
   2874          }
   \                     ??AT_Cmd_CLEARBIND_1:
   \   000027   02....       LJMP    ?Subroutine0 & 0xFFFF
   2875          
   2876          /*****************************************************
   2877          AT+READATR:<Address>,<EP>,<SendMode>,<ClusterID>,<AttrID>,< AttrID >
   2878                    <Address> - 16 bit hexadecimal number.
   2879                                 The node ID of a remote device if the command is 
   2880                                 sent directly to a node or a group ID if the command 
   2881                                 is sent to a group.
   2882          
   2883                    <EP> - 8 bit hexadecimal number, endpoint of a remote device. 
   2884                              Valid end point is 0x01 to 0xF0. 
   2885          
   2886                    <SendMode> - A Boolean type to choose transmission mode, 
   2887                              0 C means sending command directly; 
   2888                              1 C means sending command to a group 
   2889          
   2890                    <ClusterID> 16 bit hexadecimal number which represents the cluster ID
   2891          
   2892                    <AttrID> - 16 bit hexadecimal number which represents the attribute ID
   2893                                according to the ZigBee Home Automation specification.support
   2894                                5 attributes per AT command
   2895          
   2896          RESPATTR:<NodeID>,<EP>,<ClusterID>,<AttrID>,<Status>,<dataType>,<AttrInfo>
   2897                    <NodeID> - 16 bit hexadecimal number. It is the source Node ID 
   2898                               of response. 
   2899          
   2900                    <EP> - 8 bit hexadecimal number, the source endpoint of the response. 
   2901          
   2902                    <ClusterID> - cluster ID, 16 bit hexadecimal number
   2903          
   2904                    <AttrID>: attribute ID 16 bit hexadecimal number 
   2905          
   2906                    <Status> - 8 bit hexadecimal number which indicates the result of
   2907                                the requested operation. 
   2908          
   2909                    <dataType> - 8 bit hexadecimal number which indicates the type of the data
   2910                    
   2911                    <AttrInfo> - hexadecimal number of char string (size depends on 
   2912                                the attribute requested). <AttrInfo> shall only be 
   2913                                valid if <Status> = 0x00. If <Status> indicates error, 
   2914                                <AttrInfo> is not returned.
   2915          
   2916          example:
   2917          AT+READATR:0,4,0,0,6,5,4
   2918          
   2919          *******************************************************/

   \                                 In  segment BANKED_CODE, align 1, keep-with-next
   2920          void AT_Cmd_READATR(uint8 start_point, uint8* msg){
   \                     AT_Cmd_READATR:
   \   000000   74EE         MOV     A,#-0x12
   \   000002   12....       LCALL   ?BANKED_ENTER_XDATA
   \   000005                ; Saved register size: 18
   \   000005                ; Auto size: 63
   \   000005   74C1         MOV     A,#-0x3f
   \   000007   12....       LCALL   ?ALLOC_XSTACK8
   \   00000A   89..         MOV     ?V0 + 3,R1
   \   00000C   EA           MOV     A,R2
   \   00000D   FE           MOV     R6,A
   \   00000E   EB           MOV     A,R3
   \   00000F   FF           MOV     R7,A
   2921            AT_CmdUnit cmdUnitArr[10];
   2922            uint8 i;
   2923            uint8 parameterN=1;
   \   000010   75..01       MOV     ?V0 + 2,#0x1
   2924            char pattern[11];
   2925            for(i=0;i<10;i++){
   \   000013   75..00       MOV     ?V0 + 4,#0x0
   2926              start_point = AT_get_next_cmdUnit(&cmdUnitArr[i],start_point, msg); 
   \                     ??AT_Cmd_READATR_0:
   \   000016   85....       MOV     ?V0 + 0,?V0 + 4
   \   000019   75..00       MOV     ?V0 + 1,#0x0
   \   00001C   7402         MOV     A,#0x2
   \   00001E   78..         MOV     R0,#?V0 + 0
   \   000020   12....       LCALL   ?S_SHL
   \   000023   7417         MOV     A,#0x17
   \   000025   12....       LCALL   ?XSTACK_DISP0_8
   \   000028   E582         MOV     A,DPL
   \   00002A   25..         ADD     A,?V0 + 0
   \   00002C   F5..         MOV     ?V0 + 0,A
   \   00002E   E583         MOV     A,DPH
   \   000030   35..         ADDC    A,?V0 + 1
   \   000032   F5..         MOV     ?V0 + 1,A
   \   000034                ; Setup parameters for call to function AT_get_next_cmdUnit
   \   000034   EE           MOV     A,R6
   \   000035   FC           MOV     R4,A
   \   000036   EF           MOV     A,R7
   \   000037   FD           MOV     R5,A
   \   000038   A9..         MOV     R1,?V0 + 3
   \   00003A   AA..         MOV     R2,?V0 + 0
   \   00003C   AB..         MOV     R3,?V0 + 1
   \   00003E   12....       LCALL   ??Subroutine206_0 & 0xFFFF
   \                     ??CrossCallReturnLabel_502:
   \   000041   F5..         MOV     ?V0 + 3,A
   2927              if(cmdUnitArr[i].symbol == ',') parameterN++;
   \   000043   85..82       MOV     DPL,?V0 + 0
   \   000046   85..83       MOV     DPH,?V0 + 1
   \   000049   E0           MOVX    A,@DPTR
   \   00004A   642C         XRL     A,#0x2c
   \   00004C   7002         JNZ     ??AT_Cmd_READATR_1
   \   00004E   05..         INC     ?V0 + 2
   2928            }
   \                     ??AT_Cmd_READATR_1:
   \   000050   05..         INC     ?V0 + 4
   \   000052   E5..         MOV     A,?V0 + 4
   \   000054   C3           CLR     C
   \   000055   940A         SUBB    A,#0xa
   \   000057   40BD         JC      ??AT_Cmd_READATR_0
   2929            
   2930          #if AT_CMD_PATTERN_CHECK
   2931            //built check pattern
   2932            pattern[0]=':';
   \   000059   740C         MOV     A,#0xc
   \   00005B   12....       LCALL   ?XSTACK_DISP0_8
   \   00005E   743A         MOV     A,#0x3a
   \   000060   F0           MOVX    @DPTR,A
   2933            for(i=1;i<5;i++) pattern[i]=',';
   \   000061   740D         MOV     A,#0xd
   \   000063   12....       LCALL   ?XSTACK_DISP0_8
   \   000066   742C         MOV     A,#0x2c
   \   000068   7804         MOV     R0,#0x4
   \                     ??AT_Cmd_READATR_2:
   \   00006A   F0           MOVX    @DPTR,A
   \   00006B   A3           INC     DPTR
   \   00006C   D8FC         DJNZ    R0,??AT_Cmd_READATR_2
   2934            for(i=5;i<parameterN;i++) pattern[i]=',';
   \   00006E   75..05       MOV     ?V0 + 4,#0x5
   \   000071   74FB         MOV     A,#-0x5
   \   000073   25..         ADD     A,?V0 + 2
   \   000075   FA           MOV     R2,A
   \   000076   E5..         MOV     A,?V0 + 2
   \   000078   C3           CLR     C
   \   000079   9406         SUBB    A,#0x6
   \   00007B   4018         JC      ??AT_Cmd_READATR_3
   \   00007D   8A..         MOV     ?V0 + 0,R2
   \   00007F   A8..         MOV     R0,?V0 + 0
   \   000081   7900         MOV     R1,#0x0
   \   000083   7B2C         MOV     R3,#0x2c
   \   000085   7411         MOV     A,#0x11
   \   000087   12....       LCALL   ?XSTACK_DISP0_8
   \                     ??AT_Cmd_READATR_4:
   \   00008A   EB           MOV     A,R3
   \   00008B   12....       LCALL   ?Subroutine24 & 0xFFFF
   \                     ??CrossCallReturnLabel_14:
   \   00008E   70FA         JNZ     ??AT_Cmd_READATR_4
   \   000090   7405         MOV     A,#0x5
   \   000092   2A           ADD     A,R2
   \   000093   F5..         MOV     ?V0 + 4,A
   2935            pattern[i]='\r';
   \                     ??AT_Cmd_READATR_3:
   \   000095   740C         MOV     A,#0xc
   \   000097   12....       LCALL   ?XSTACK_DISP0_8
   \   00009A   E582         MOV     A,DPL
   \   00009C   25..         ADD     A,?V0 + 4
   \   00009E   12....       LCALL   ?Subroutine67 & 0xFFFF
   \                     ??CrossCallReturnLabel_406:
   \   0000A1   740D         MOV     A,#0xd
   \   0000A3   12....       LCALL   ??Subroutine210_0 & 0xFFFF
   2936            pattern[i+1]='\0';
   2937          #endif
   2938            
   2939            //check pattern
   2940            AT_PARSE_CMD_PATTERN_ERROR(pattern,cmdUnitArr);
   \                     ??CrossCallReturnLabel_534:
   \   0000A6                ; Setup parameters for call to function AT_pattern_check
   \   0000A6   7417         MOV     A,#0x17
   \   0000A8   12....       LCALL   ?XSTACK_DISP0_8
   \   0000AB   AC82         MOV     R4,DPL
   \   0000AD   AD83         MOV     R5,DPH
   \   0000AF   740C         MOV     A,#0xc
   \   0000B1   12....       LCALL   ?XSTACK_DISP0_8
   \   0000B4   AA82         MOV     R2,DPL
   \   0000B6   AB83         MOV     R3,DPH
   \   0000B8   12....       LCALL   ??Subroutine200_0 & 0xFFFF
   \                     ??CrossCallReturnLabel_472:
   \   0000BB   6006         JZ      ??AT_Cmd_READATR_5
   \   0000BD                ; Setup parameters for call to function AT_UARTWriteErrMsg
   \                     ??AT_Cmd_READATR_6:
   \   0000BD   12....       LCALL   ??AT_UARTWriteErrMsg?relay
   \   0000C0   02....       LJMP    ??AT_Cmd_READATR_7 & 0xFFFF
   2941            
   2942            
   2943            uint8 endpoint=AT_ChartoInt8(&cmdUnitArr[1]);
   \                     ??AT_Cmd_READATR_5:
   \   0000C3                ; Setup parameters for call to function AT_ChartoInt8
   \   0000C3   741B         MOV     A,#0x1b
   \   0000C5   12....       LCALL   ?XSTACK_DISP0_8
   \   0000C8   12....       LCALL   ?Subroutine110 & 0xFFFF
   2944            uint8 sendmode=AT_ChartoInt8(&cmdUnitArr[2]);
   \                     ??CrossCallReturnLabel_187:
   \   0000CB                ; Setup parameters for call to function AT_ChartoInt8
   \   0000CB   741F         MOV     A,#0x1f
   \   0000CD   12....       LCALL   ?XSTACK_DISP0_8
   \   0000D0   12....       LCALL   ?Subroutine113 & 0xFFFF
   2945            
   2946            //build destination address
   2947            afAddrType_t dstAddr;
   2948            dstAddr.endPoint = endpoint;
   \                     ??CrossCallReturnLabel_201:
   \   0000D3   12....       LCALL   ?XSTACK_DISP0_8
   \   0000D6   EE           MOV     A,R6
   \   0000D7   F0           MOVX    @DPTR,A
   2949            dstAddr.addrMode = sendmode==0 ? (afAddrMode_t)Addr16Bit : (afAddrMode_t) AddrGroup;
   \   0000D8   E8           MOV     A,R0
   \   0000D9   7009         JNZ     ??AT_Cmd_READATR_8
   \   0000DB   7408         MOV     A,#0x8
   \   0000DD   12....       LCALL   ?XSTACK_DISP0_8
   \   0000E0   7402         MOV     A,#0x2
   \   0000E2   8007         SJMP    ??AT_Cmd_READATR_9
   \                     ??AT_Cmd_READATR_8:
   \   0000E4   7408         MOV     A,#0x8
   \   0000E6   12....       LCALL   ?XSTACK_DISP0_8
   \   0000E9   7401         MOV     A,#0x1
   \                     ??AT_Cmd_READATR_9:
   \   0000EB   F0           MOVX    @DPTR,A
   2950            if(cmdUnitArr[0].unitLen==0){
   \   0000EC   7418         MOV     A,#0x18
   \   0000EE   12....       LCALL   ?XSTACK_DISP0_8
   \   0000F1   E0           MOVX    A,@DPTR
   \   0000F2   7005         JNZ     ??AT_Cmd_READATR_10
   2951              dstAddr.addr.shortAddr=NLME_GetShortAddr();     
   \   0000F4                ; Setup parameters for call to function NLME_GetShortAddr
   \   0000F4   12....       LCALL   ??NLME_GetShortAddr?relay
   \   0000F7   800C         SJMP    ??AT_Cmd_READATR_11
   2952            }else{    
   2953              dstAddr.addr.shortAddr =AT_ChartoInt16(&cmdUnitArr[0]);             
   \                     ??AT_Cmd_READATR_10:
   \   0000F9                ; Setup parameters for call to function AT_ChartoInt16
   \   0000F9   7417         MOV     A,#0x17
   \   0000FB   12....       LCALL   ?XSTACK_DISP0_8
   \   0000FE   AA82         MOV     R2,DPL
   \   000100   AB83         MOV     R3,DPH
   \   000102   12....       LCALL   ??AT_ChartoInt16?relay
   2954            }
   \                     ??AT_Cmd_READATR_11:
   \   000105   12....       LCALL   ??Subroutine208_0 & 0xFFFF
   2955            
   2956            //build ZCL readCmd
   2957            zclReadCmd_t* readCmd = (zclReadCmd_t*) osal_mem_alloc(sizeof(int)+2*(parameterN-4));  //sizeof(int) but not 1. to avoid memory alignment error
   \                     ??CrossCallReturnLabel_531:
   \   000108                ; Setup parameters for call to function osal_mem_alloc
   \   000108   E5..         MOV     A,?V0 + 2
   \   00010A   C3           CLR     C
   \   00010B   33           RLC     A
   \   00010C   F8           MOV     R0,A
   \   00010D   E4           CLR     A
   \   00010E   33           RLC     A
   \   00010F   F9           MOV     R1,A
   \   000110   E8           MOV     A,R0
   \   000111   24FA         ADD     A,#-0x6
   \   000113   FA           MOV     R2,A
   \   000114   E9           MOV     A,R1
   \   000115   34FF         ADDC    A,#-0x1
   \   000117   FB           MOV     R3,A
   \   000118   12....       LCALL   ??osal_mem_alloc?relay
   \   00011B   8A..         MOV     ?V0 + 6,R2
   \   00011D   8B..         MOV     ?V0 + 7,R3
   2958            readCmd->numAttr=parameterN-4;
   \   00011F   74FC         MOV     A,#-0x4
   \   000121   25..         ADD     A,?V0 + 2
   \   000123   8A82         MOV     DPL,R2
   \   000125   8B83         MOV     DPH,R3
   \   000127   F0           MOVX    @DPTR,A
   2959            for(i=0;i<parameterN-4;i++)
   \   000128   75..00       MOV     ?V0 + 4,#0x0
   \   00012B   8040         SJMP    ??AT_Cmd_READATR_12
   2960                readCmd->attrID[i] = AT_ChartoInt16(&cmdUnitArr[4+i]);
   \                     ??AT_Cmd_READATR_13:
   \   00012D   85..82       MOV     DPL,?V0 + 4
   \   000130   AE82         MOV     R6,DPL
   \   000132                ; Setup parameters for call to function AT_ChartoInt16
   \   000132   75..00       MOV     ?V0 + 1,#0x0
   \   000135   7402         MOV     A,#0x2
   \   000137   78..         MOV     R0,#?V0 + 0
   \   000139   12....       LCALL   ?S_SHL
   \   00013C   7417         MOV     A,#0x17
   \   00013E   12....       LCALL   ?XSTACK_DISP0_8
   \   000141   E582         MOV     A,DPL
   \   000143   25..         ADD     A,?V0 + 0
   \   000145   F8           MOV     R0,A
   \   000146   E583         MOV     A,DPH
   \   000148   35..         ADDC    A,?V0 + 1
   \   00014A   F9           MOV     R1,A
   \   00014B   E8           MOV     A,R0
   \   00014C   2410         ADD     A,#0x10
   \   00014E   FA           MOV     R2,A
   \   00014F   E9           MOV     A,R1
   \   000150   3400         ADDC    A,#0x0
   \   000152   FB           MOV     R3,A
   \   000153   12....       LCALL   ??AT_ChartoInt16?relay
   \   000156   EE           MOV     A,R6
   \   000157   C3           CLR     C
   \   000158   33           RLC     A
   \   000159   FE           MOV     R6,A
   \   00015A   E4           CLR     A
   \   00015B   33           RLC     A
   \   00015C   FF           MOV     R7,A
   \   00015D   E5..         MOV     A,?V0 + 6
   \   00015F   2E           ADD     A,R6
   \   000160   F582         MOV     DPL,A
   \   000162   E5..         MOV     A,?V0 + 7
   \   000164   3F           ADDC    A,R7
   \   000165   F583         MOV     DPH,A
   \   000167   A3           INC     DPTR
   \   000168   12....       LCALL   ??Subroutine209_0 & 0xFFFF
   \                     ??CrossCallReturnLabel_525:
   \   00016B   05..         INC     ?V0 + 4
   \                     ??AT_Cmd_READATR_12:
   \   00016D   85....       MOV     ?V0 + 0,?V0 + 4
   \   000170   85....       MOV     ?V0 + 8,?V0 + 2
   \   000173   E5..         MOV     A,?V0 + 8
   \   000175   24FC         ADD     A,#-0x4
   \   000177   F8           MOV     R0,A
   \   000178   E4           CLR     A
   \   000179   34FF         ADDC    A,#-0x1
   \   00017B   12....       LCALL   ?Subroutine96 & 0xFFFF
   \                     ??CrossCallReturnLabel_153:
   \   00017E   40AD         JC      ??AT_Cmd_READATR_13
   2961            
   2962            //send zcl read
   2963            uint8 state;
   2964            state = zcl_SendRead( AT_ZCL_ENDPOINT, &dstAddr,
   2965                                         AT_ChartoInt16(&cmdUnitArr[3]), readCmd,
   2966                                         ZCL_FRAME_CLIENT_SERVER_DIR, 0, 1);
   \   000180                ; Setup parameters for call to function zcl_SendRead
   \   000180   75..01       MOV     ?V0 + 0,#0x1
   \   000183   78..         MOV     R0,#?V0 + 0
   \   000185   12....       LCALL   ?PUSH_XSTACK_I_ONE
   \   000188   75..00       MOV     ?V0 + 0,#0x0
   \   00018B   78..         MOV     R0,#?V0 + 0
   \   00018D   12....       LCALL   ?PUSH_XSTACK_I_ONE
   \   000190   78..         MOV     R0,#?V0 + 0
   \   000192   12....       LCALL   ?PUSH_XSTACK_I_ONE
   \   000195   78..         MOV     R0,#?V0 + 6
   \   000197   12....       LCALL   ?PUSH_XSTACK_I_TWO
   \   00019A                ; Setup parameters for call to function AT_ChartoInt16
   \   00019A   7428         MOV     A,#0x28
   \   00019C   12....       LCALL   ?XSTACK_DISP0_8
   \   00019F   12....       LCALL   ?Subroutine122 & 0xFFFF
   \                     ??CrossCallReturnLabel_223:
   \   0001A2   12....       LCALL   ?XSTACK_DISP0_8
   \   0001A5   AA82         MOV     R2,DPL
   \   0001A7   AB83         MOV     R3,DPH
   \   0001A9   79CB         MOV     R1,#-0x35
   \   0001AB   12....       LCALL   ??zcl_SendRead?relay
   \   0001AE   7405         MOV     A,#0x5
   \   0001B0   12....       LCALL   ?DEALLOC_XSTACK8
   \   0001B3   E9           MOV     A,R1
   \   0001B4   FE           MOV     R6,A
   2967            osal_mem_free(readCmd);
   \   0001B5                ; Setup parameters for call to function osal_mem_free
   \   0001B5   AA..         MOV     R2,?V0 + 6
   \   0001B7   AB..         MOV     R3,?V0 + 7
   \   0001B9   12....       LCALL   ??osal_mem_free?relay
   2968            if(state!=afStatus_SUCCESS) AT_ERROR(state);
   \   0001BC   EE           MOV     A,R6
   \   0001BD   6004         JZ      ??AT_Cmd_READATR_14
   \   0001BF                ; Setup parameters for call to function AT_UARTWriteErrMsg
   \   0001BF   F9           MOV     R1,A
   \   0001C0   02....       LJMP    ??AT_Cmd_READATR_6 & 0xFFFF
   2969            else AT_OK();
   \                     ??AT_Cmd_READATR_14:
   \   0001C3                ; Setup parameters for call to function AT_HalUARTWrite
   \   0001C3   7C07         MOV     R4,#0x7
   \   0001C5   7D00         MOV     R5,#0x0
   \   0001C7   7A..         MOV     R2,#`?<Constant "\\r\\nOK\\r\\n">` & 0xff
   \   0001C9   7B..         MOV     R3,#(`?<Constant "\\r\\nOK\\r\\n">` >> 8) & 0xff
   \   0001CB   7900         MOV     R1,#0x0
   \   0001CD   12....       LCALL   ??AT_HalUARTWrite?relay
   \                     ??AT_Cmd_READATR_7:
   \   0001D0   743F         MOV     A,#0x3f
   \   0001D2   02....       LJMP    ?Subroutine5 & 0xFFFF
   2970            
   2971          }

   \                                 In  segment BANKED_CODE, align 1, keep-with-next
   \                     ?Subroutine113:
   \   000000   12....       LCALL   ?Subroutine163 & 0xFFFF
   \                     ??CrossCallReturnLabel_516:
   \   000003   F8           MOV     R0,A
   \   000004   7409         MOV     A,#0x9
   \   000006   22           RET

   \                                 In  segment BANKED_CODE, align 1, keep-with-next
   \                     ?Subroutine96:
   \   000000   F9           MOV     R1,A
   \   000001   C3           CLR     C
   \   000002   E5..         MOV     A,?V0 + 0
   \   000004   98           SUBB    A,R0
   \   000005   E4           CLR     A
   \   000006   99           SUBB    A,R1
   \   000007   A2D2         MOV     C,0xD0 /* PSW */.2
   \   000009   65D0         XRL     A,PSW
   \   00000B   33           RLC     A
   \   00000C   22           RET
   2972          /****************************************************************************
   2973          AT+WRITEATR:<Address>,<EP>,<SendMode>,<ClusterID>,<AttrID>,<DataType>,<Data>
   2974                    <Address> - 16 bit hexadecimal number.
   2975                                 The node ID of a remote device if the command is 
   2976                                 sent directly to a node or a group ID if the command 
   2977                                 is sent to a group.
   2978          
   2979                    <EP> - 8 bit hexadecimal number, endpoint of a remote device. 
   2980                              Valid end point is 0x01 to 0xF0. 
   2981          
   2982                    <SendMode> - A Boolean type to choose transmission mode, 
   2983                              0 C means sending command directly; 
   2984                              1 C means sending command to a group 
   2985          
   2986                    <ClusterID> 16 bit hexadecimal number which represents attribute ID
   2987          
   2988                    <AttrID> - 16 bit hexadecimal number which represents the attribute ID
   2989                                according to the ZigBee Home Automation specification.
   2990                    <DataType> - 8 bit hexadecimal number that represents the type of the 
   2991                                data accepted by this Attribute (please check HA specification)
   2992          
   2993                    <AttrValue> - If attribute value has an integer type this field shall contain 
   2994                                  hexadecimal representation in big-endian format. If attribute 
   2995                                  value has a string type this field contains sequence of characters.
   2996          
   2997          Response
   2998              WRITEATTR:<NodeID>,<EP>,<Cluster>,<AttrID>,<Status> 
   2999                    <NodeID> - 16 bit hexadecimal number. It is the source Node ID of response.
   3000          
   3001                    <EP> - 8 bit hexadecimal number, the source endpoint of the response. 
   3002          
   3003                    <ClusterID> - cluster ID, 16 bit hexadecimal number, see section 2.2 
   3004          
   3005                    <AttrID>: attribute ID 16 bit hexadecimal number 
   3006          
   3007                    <Status> - 8 bit hexadecimal number which indicates the result of 
   3008                              the requested operation.If < Status > is not 00, it will be an errorcode
   3009          
   3010          ******************************************************************************/

   \                                 In  segment BANKED_CODE, align 1, keep-with-next
   3011          void AT_Cmd_WRITEATR(uint8 start_point, uint8* msg){
   \                     AT_Cmd_WRITEATR:
   \   000000   74F4         MOV     A,#-0xc
   \   000002   12....       LCALL   ?BANKED_ENTER_XDATA
   \   000005                ; Saved register size: 12
   \   000005                ; Auto size: 51
   \   000005   74CD         MOV     A,#-0x33
   \   000007   12....       LCALL   ?ALLOC_XSTACK8
   \   00000A   89..         MOV     ?V0 + 0,R1
   \   00000C   EA           MOV     A,R2
   \   00000D   FE           MOV     R6,A
   \   00000E   EB           MOV     A,R3
   \   00000F   FF           MOV     R7,A
   3012            AT_CmdUnit cmdUnitArr[8];
   3013            uint8 i;
   3014            for(i=0;i<8;i++)start_point = AT_get_next_cmdUnit(&cmdUnitArr[i],start_point, msg); 
   \   000010   75..00       MOV     ?V0 + 1,#0x0
   \                     ??AT_Cmd_WRITEATR_0:
   \   000013                ; Setup parameters for call to function AT_get_next_cmdUnit
   \   000013   EE           MOV     A,R6
   \   000014   FC           MOV     R4,A
   \   000015   EF           MOV     A,R7
   \   000016   FD           MOV     R5,A
   \   000017   A9..         MOV     R1,?V0 + 0
   \   000019   85....       MOV     ?V0 + 2,?V0 + 1
   \   00001C   75..00       MOV     ?V0 + 3,#0x0
   \   00001F   7402         MOV     A,#0x2
   \   000021   78..         MOV     R0,#?V0 + 2
   \   000023   12....       LCALL   ?S_SHL
   \   000026   7407         MOV     A,#0x7
   \   000028   12....       LCALL   ?XSTACK_DISP0_8
   \   00002B   12....       LCALL   ?Subroutine101 & 0xFFFF
   \                     ??CrossCallReturnLabel_174:
   \   00002E   9408         SUBB    A,#0x8
   \   000030   40E1         JC      ??AT_Cmd_WRITEATR_0
   3015            AT_PARSE_CMD_PATTERN_ERROR(":,,,,,,\r",cmdUnitArr);
   \   000032                ; Setup parameters for call to function AT_pattern_check
   \   000032   7407         MOV     A,#0x7
   \   000034   12....       LCALL   ?XSTACK_DISP0_8
   \   000037   AC82         MOV     R4,DPL
   \   000039   AD83         MOV     R5,DPH
   \   00003B   7A..         MOV     R2,#`?<Constant ":,,,,,,\\r">` & 0xff
   \   00003D   7B..         MOV     R3,#(`?<Constant ":,,,,,,\\r">` >> 8) & 0xff
   \   00003F   12....       LCALL   ??Subroutine200_0 & 0xFFFF
   \                     ??CrossCallReturnLabel_473:
   \   000042   6006         JZ      ??AT_Cmd_WRITEATR_1
   \   000044                ; Setup parameters for call to function AT_UARTWriteErrMsg
   \                     ??AT_Cmd_WRITEATR_2:
   \   000044   12....       LCALL   ??AT_UARTWriteErrMsg?relay
   \   000047   02....       LJMP    ??AT_Cmd_WRITEATR_3 & 0xFFFF
   3016            
   3017            uint8 endpoint=AT_ChartoInt8(&cmdUnitArr[1]);
   \                     ??AT_Cmd_WRITEATR_1:
   \   00004A                ; Setup parameters for call to function AT_ChartoInt8
   \   00004A   740B         MOV     A,#0xb
   \   00004C   12....       LCALL   ?XSTACK_DISP0_8
   \   00004F   12....       LCALL   ?Subroutine110 & 0xFFFF
   3018            uint8 sendmode=AT_ChartoInt8(&cmdUnitArr[2]);
   \                     ??CrossCallReturnLabel_188:
   \   000052                ; Setup parameters for call to function AT_ChartoInt8
   \   000052   740F         MOV     A,#0xf
   \   000054   12....       LCALL   ?XSTACK_DISP0_8
   \   000057   12....       LCALL   ?Subroutine111 & 0xFFFF
   3019            uint8 dataType=AT_ChartoInt8(&cmdUnitArr[5]);
   \                     ??CrossCallReturnLabel_197:
   \   00005A                ; Setup parameters for call to function AT_ChartoInt8
   \   00005A   741B         MOV     A,#0x1b
   \   00005C   12....       LCALL   ?XSTACK_DISP0_8
   \   00005F   12....       LCALL   ??Subroutine207_0 & 0xFFFF
   3020            //build destination address
   3021            afAddrType_t dstAddr;
   3022            dstAddr.endPoint = endpoint;
   \                     ??CrossCallReturnLabel_508:
   \   000062   7430         MOV     A,#0x30
   \   000064   12....       LCALL   ?XSTACK_DISP0_8
   \   000067   EE           MOV     A,R6
   \   000068   F0           MOVX    @DPTR,A
   3023            dstAddr.addrMode = sendmode==0 ? (afAddrMode_t)Addr16Bit : (afAddrMode_t) AddrGroup;  
   \   000069   EF           MOV     A,R7
   \   00006A   7004         JNZ     ??AT_Cmd_WRITEATR_4
   \   00006C   7402         MOV     A,#0x2
   \   00006E   8002         SJMP    ??AT_Cmd_WRITEATR_5
   \                     ??AT_Cmd_WRITEATR_4:
   \   000070   7401         MOV     A,#0x1
   \                     ??AT_Cmd_WRITEATR_5:
   \   000072   C0E0         PUSH    A
   \   000074   742F         MOV     A,#0x2f
   \   000076   12....       LCALL   ?XSTACK_DISP0_8
   \   000079   D0E0         POP     A
   \   00007B   F0           MOVX    @DPTR,A
   3024            if(cmdUnitArr[0].unitLen==0){
   \   00007C   7408         MOV     A,#0x8
   \   00007E   12....       LCALL   ?XSTACK_DISP0_8
   \   000081   E0           MOVX    A,@DPTR
   \   000082   7005         JNZ     ??AT_Cmd_WRITEATR_6
   3025              dstAddr.addr.shortAddr=NLME_GetShortAddr();     
   \   000084                ; Setup parameters for call to function NLME_GetShortAddr
   \   000084   12....       LCALL   ??NLME_GetShortAddr?relay
   \   000087   800C         SJMP    ??AT_Cmd_WRITEATR_7
   3026            }else{    
   3027              dstAddr.addr.shortAddr =AT_ChartoInt16(&cmdUnitArr[0]);             
   \                     ??AT_Cmd_WRITEATR_6:
   \   000089                ; Setup parameters for call to function AT_ChartoInt16
   \   000089   7407         MOV     A,#0x7
   \   00008B   12....       LCALL   ?XSTACK_DISP0_8
   \   00008E   AA82         MOV     R2,DPL
   \   000090   AB83         MOV     R3,DPH
   \   000092   12....       LCALL   ??AT_ChartoInt16?relay
   \                     ??AT_Cmd_WRITEATR_7:
   \   000095   7427         MOV     A,#0x27
   \   000097   12....       LCALL   ?XSTACK_DISP0_8
   3028            }
   \   00009A   12....       LCALL   ??Subroutine209_0 & 0xFFFF
   3029            
   3030            //build ZCL writeCmd
   3031            uint8 buf_writeCmd[sizeof(zclWriteRec_t)+sizeof(int)];
   3032            zclWriteCmd_t* writeCmd = (zclWriteCmd_t*) buf_writeCmd;
   3033            writeCmd->numAttr=1;
   \                     ??CrossCallReturnLabel_526:
   \   00009D   85..82       MOV     DPL,?XSP + 0
   \   0000A0   85..83       MOV     DPH,?XSP + 1
   \   0000A3   7401         MOV     A,#0x1
   \   0000A5   F0           MOVX    @DPTR,A
   3034            writeCmd->attrList[0].attrID = AT_ChartoInt16(&cmdUnitArr[4]);
   \   0000A6                ; Setup parameters for call to function AT_ChartoInt16
   \   0000A6   7417         MOV     A,#0x17
   \   0000A8   12....       LCALL   ?XSTACK_DISP0_8
   \   0000AB   12....       LCALL   ?Subroutine125 & 0xFFFF
   \                     ??CrossCallReturnLabel_232:
   \   0000AE   12....       LCALL   ?XSTACK_DISP0_8
   \   0000B1   12....       LCALL   ??Subroutine209_0 & 0xFFFF
   3035            writeCmd->attrList[0].dataType = dataType;
   \                     ??CrossCallReturnLabel_527:
   \   0000B4   7403         MOV     A,#0x3
   \   0000B6   12....       LCALL   ?XSTACK_DISP0_8
   \   0000B9   E5..         MOV     A,?V0 + 1
   \   0000BB   F0           MOVX    @DPTR,A
   3036            
   3037            if(dataType==ZCL_DATATYPE_CHAR_STR){
   \   0000BC   7442         MOV     A,#0x42
   \   0000BE   65..         XRL     A,?V0 + 1
   \   0000C0   7024         JNZ     ??AT_Cmd_WRITEATR_8
   3038              cmdUnitArr[6].unit--;
   \   0000C2   7421         MOV     A,#0x21
   \   0000C4   12....       LCALL   ?XSTACK_DISP0_8
   \   0000C7   E0           MOVX    A,@DPTR
   \   0000C8   24FF         ADD     A,#-0x1
   \   0000CA   F8           MOV     R0,A
   \   0000CB   A3           INC     DPTR
   \   0000CC   E0           MOVX    A,@DPTR
   \   0000CD   34FF         ADDC    A,#-0x1
   \   0000CF   F9           MOV     R1,A
   \   0000D0   7421         MOV     A,#0x21
   \   0000D2   12....       LCALL   ?XSTACK_DISP0_8
   \   0000D5   E8           MOV     A,R0
   \   0000D6   F0           MOVX    @DPTR,A
   \   0000D7   A3           INC     DPTR
   \   0000D8   E9           MOV     A,R1
   \   0000D9   F0           MOVX    @DPTR,A
   3039              *(cmdUnitArr[6].unit)=cmdUnitArr[6].unitLen;
   \   0000DA   7420         MOV     A,#0x20
   \   0000DC   12....       LCALL   ?XSTACK_DISP0_8
   \   0000DF   E0           MOVX    A,@DPTR
   \   0000E0   8882         MOV     DPL,R0
   \   0000E2   8983         MOV     DPH,R1
   \   0000E4   8049         SJMP    ??AT_Cmd_WRITEATR_9
   3040              writeCmd->attrList[0].attrData=cmdUnitArr[6].unit;
   3041            }else if(dataType == ZCL_DATATYPE_DATA16||
   3042                     dataType == ZCL_DATATYPE_UINT16||
   3043                     dataType == ZCL_DATATYPE_INT16){
   \                     ??AT_Cmd_WRITEATR_8:
   \   0000E6   7409         MOV     A,#0x9
   \   0000E8   65..         XRL     A,?V0 + 1
   \   0000EA   600C         JZ      ??AT_Cmd_WRITEATR_10
   \   0000EC   7421         MOV     A,#0x21
   \   0000EE   65..         XRL     A,?V0 + 1
   \   0000F0   6006         JZ      ??AT_Cmd_WRITEATR_10
   \   0000F2   7429         MOV     A,#0x29
   \   0000F4   65..         XRL     A,?V0 + 1
   \   0000F6   7022         JNZ     ??AT_Cmd_WRITEATR_11
   3044               *(uint16*)cmdUnitArr[6].unit = AT_ChartoInt16(&cmdUnitArr[6]);
   \                     ??AT_Cmd_WRITEATR_10:
   \   0000F8                ; Setup parameters for call to function AT_ChartoInt16
   \   0000F8   741F         MOV     A,#0x1f
   \   0000FA   12....       LCALL   ?XSTACK_DISP0_8
   \   0000FD   AA82         MOV     R2,DPL
   \   0000FF   AB83         MOV     R3,DPH
   \   000101   12....       LCALL   ??AT_ChartoInt16?relay
   \   000104   8A..         MOV     ?V0 + 2,R2
   \   000106   7421         MOV     A,#0x21
   \   000108   12....       LCALL   ?XSTACK_DISP0_8
   \   00010B   E0           MOVX    A,@DPTR
   \   00010C   FA           MOV     R2,A
   \   00010D   A3           INC     DPTR
   \   00010E   E0           MOVX    A,@DPTR
   \   00010F   F583         MOV     DPH,A
   \   000111   8A82         MOV     DPL,R2
   \   000113   E5..         MOV     A,?V0 + 2
   \   000115   F0           MOVX    @DPTR,A
   \   000116   A3           INC     DPTR
   \   000117   EB           MOV     A,R3
   \   000118   8015         SJMP    ??AT_Cmd_WRITEATR_9
   3045               writeCmd->attrList[0].attrData=cmdUnitArr[6].unit; 
   3046            }else{
   3047               *(uint8*)cmdUnitArr[6].unit = AT_ChartoInt8(&cmdUnitArr[6]);
   \                     ??AT_Cmd_WRITEATR_11:
   \   00011A                ; Setup parameters for call to function AT_ChartoInt8
   \   00011A   741F         MOV     A,#0x1f
   \   00011C   12....       LCALL   ?XSTACK_DISP0_8
   \   00011F   AA82         MOV     R2,DPL
   \   000121   AB83         MOV     R3,DPH
   \   000123   12....       LCALL   ??AT_ChartoInt8?relay
   \   000126   7421         MOV     A,#0x21
   \   000128   12....       LCALL   ?XSTACK_DISP0_8
   \   00012B   12....       LCALL   ?Subroutine46 & 0xFFFF
   \                     ??CrossCallReturnLabel_56:
   \   00012E   E9           MOV     A,R1
   \                     ??AT_Cmd_WRITEATR_9:
   \   00012F   F0           MOVX    @DPTR,A
   3048               writeCmd->attrList[0].attrData=cmdUnitArr[6].unit;
   \   000130   7421         MOV     A,#0x21
   \   000132   12....       LCALL   ?XSTACK_DISP0_8
   \   000135   12....       LCALL   ?Subroutine50 & 0xFFFF
   3049            }
   \                     ??CrossCallReturnLabel_64:
   \   000138   7404         MOV     A,#0x4
   \   00013A   12....       LCALL   ?XSTACK_DISP0_8
   \   00013D   E8           MOV     A,R0
   \   00013E   F0           MOVX    @DPTR,A
   \   00013F   A3           INC     DPTR
   \   000140   E9           MOV     A,R1
   \   000141   F0           MOVX    @DPTR,A
   3050            
   3051            //send zcl write
   3052            uint8 state;
   3053            state = zcl_SendWrite( AT_ZCL_ENDPOINT, &dstAddr,
   3054                                         AT_ChartoInt16(&cmdUnitArr[3]), writeCmd,
   3055                                         ZCL_FRAME_CLIENT_SERVER_DIR, 0, 1);
   \   000142                ; Setup parameters for call to function zcl_SendWriteRequest
   \   000142   75..01       MOV     ?V0 + 1,#0x1
   \   000145   78..         MOV     R0,#?V0 + 1
   \   000147   12....       LCALL   ?PUSH_XSTACK_I_ONE
   \   00014A   75..00       MOV     ?V0 + 1,#0x0
   \   00014D   78..         MOV     R0,#?V0 + 1
   \   00014F   12....       LCALL   ?PUSH_XSTACK_I_ONE
   \   000152   78..         MOV     R0,#?V0 + 1
   \   000154   12....       LCALL   ?PUSH_XSTACK_I_ONE
   \   000157   75..02       MOV     ?V0 + 1,#0x2
   \   00015A   78..         MOV     R0,#?V0 + 1
   \   00015C   12....       LCALL   ?PUSH_XSTACK_I_ONE
   \   00015F   7404         MOV     A,#0x4
   \   000161   12....       LCALL   ?XSTACK_DISP0_8
   \   000164   8582..       MOV     ?V0 + 2,DPL
   \   000167   8583..       MOV     ?V0 + 3,DPH
   \   00016A   78..         MOV     R0,#?V0 + 2
   \   00016C   12....       LCALL   ?PUSH_XSTACK_I_TWO
   \   00016F                ; Setup parameters for call to function AT_ChartoInt16
   \   00016F   7419         MOV     A,#0x19
   \   000171   12....       LCALL   ?XSTACK_DISP0_8
   \   000174   12....       LCALL   ?Subroutine127 & 0xFFFF
   \                     ??CrossCallReturnLabel_239:
   \   000177   FC           MOV     R4,A
   \   000178   EB           MOV     A,R3
   \   000179   FD           MOV     R5,A
   \   00017A   742D         MOV     A,#0x2d
   \   00017C   12....       LCALL   ?XSTACK_DISP0_8
   \   00017F   AA82         MOV     R2,DPL
   \   000181   AB83         MOV     R3,DPH
   \   000183   79CB         MOV     R1,#-0x35
   \   000185   12....       LCALL   ??zcl_SendWriteRequest?relay
   \   000188   7406         MOV     A,#0x6
   \   00018A   12....       LCALL   ?DEALLOC_XSTACK8
   \   00018D   E9           MOV     A,R1
   3056            
   3057            if(state!=afStatus_SUCCESS) AT_ERROR(state);
   \   00018E   6003         JZ      $+5
   \   000190   02....       LJMP    ??AT_Cmd_WRITEATR_2 & 0xFFFF
   \   000193                ; Setup parameters for call to function AT_UARTWriteErrMsg
   3058            else AT_OK();
   \   000193                ; Setup parameters for call to function AT_HalUARTWrite
   \   000193   7C07         MOV     R4,#0x7
   \   000195   7D00         MOV     R5,#0x0
   \   000197   7A..         MOV     R2,#`?<Constant "\\r\\nOK\\r\\n">` & 0xff
   \   000199   7B..         MOV     R3,#(`?<Constant "\\r\\nOK\\r\\n">` >> 8) & 0xff
   \   00019B   7900         MOV     R1,#0x0
   \   00019D   12....       LCALL   ??AT_HalUARTWrite?relay
   \                     ??AT_Cmd_WRITEATR_3:
   \   0001A0   7433         MOV     A,#0x33
   \   0001A2   02....       LJMP    ??Subroutine195_0 & 0xFFFF
   3059          }
   3060          /******************************************************************************
   3061          +DISCOVER C Discover HA Devices On The HAN
   3062              AT+DISCOVER:<Cluster ID>[,<option>] 
   3063                      <Cluster ID> - 16 bit hexadecimal cluster ID (please see section 2.2).
   3064                      The Five-In-One device can search for HA devices based on a specified cluster ID.
   3065                      <option> 1- display enabled device and disabled device
   3066                               0- dispaly only enabled device
   3067          
   3068          Prompt: 
   3069              DEV:<NodeID>,<EndPoint>,<enable/disable>
   3070              Carry out the ZigBee Service Discovery to 
   3071              find ZigBee HA devices that support the given match criteria.
   3072          *****************************************************************************/
   3073          

   \                                 In  segment BANKED_CODE, align 1, keep-with-next
   3074          void AT_Cmd_DISCOVER(uint8 start_point, uint8* msg){
   \                     AT_Cmd_DISCOVER:
   \   000000   74F4         MOV     A,#-0xc
   \   000002   12....       LCALL   ?BANKED_ENTER_XDATA
   \   000005                ; Saved register size: 12
   \   000005                ; Auto size: 41
   \   000005   74D7         MOV     A,#-0x29
   \   000007   12....       LCALL   ?ALLOC_XSTACK8
   \   00000A   89..         MOV     ?V0 + 2,R1
   \   00000C   EA           MOV     A,R2
   \   00000D   FE           MOV     R6,A
   \   00000E   EB           MOV     A,R3
   \   00000F   FF           MOV     R7,A
   3075            AT_CmdUnit cmdUnitArr[3];
   3076            uint8 i;
   3077            for(i=0;i<3;i++)start_point = AT_get_next_cmdUnit(&cmdUnitArr[i],start_point, msg);  
   \   000010   75..00       MOV     ?V0 + 3,#0x0
   \                     ??AT_Cmd_DISCOVER_0:
   \   000013                ; Setup parameters for call to function AT_get_next_cmdUnit
   \   000013   EE           MOV     A,R6
   \   000014   FC           MOV     R4,A
   \   000015   EF           MOV     A,R7
   \   000016   FD           MOV     R5,A
   \   000017   A9..         MOV     R1,?V0 + 2
   \   000019   85....       MOV     ?V0 + 0,?V0 + 3
   \   00001C   75..00       MOV     ?V0 + 1,#0x0
   \   00001F   7402         MOV     A,#0x2
   \   000021   78..         MOV     R0,#?V0 + 0
   \   000023   12....       LCALL   ?S_SHL
   \   000026   7405         MOV     A,#0x5
   \   000028   12....       LCALL   ?XSTACK_DISP0_8
   \   00002B   12....       LCALL   ?Subroutine55 & 0xFFFF
   \                     ??CrossCallReturnLabel_80:
   \   00002E   40E3         JC      ??AT_Cmd_DISCOVER_0
   3078            
   3079            AT_AF_Cmd_HA_DISC_req_t buff;
   3080            uint8 state; 
   3081            buff.hdr.cmd = AT_AF_Cmd_req;
   \   000030   85..82       MOV     DPL,?XSP + 0
   \   000033   85..83       MOV     DPH,?XSP + 1
   \   000036   E4           CLR     A
   \   000037   F0           MOVX    @DPTR,A
   3082            buff.CID = AT_ChartoInt16(&cmdUnitArr[0]);
   \   000038                ; Setup parameters for call to function AT_ChartoInt16
   \   000038   7405         MOV     A,#0x5
   \   00003A   12....       LCALL   ?XSTACK_DISP0_8
   \   00003D   AA82         MOV     R2,DPL
   \   00003F   AB83         MOV     R3,DPH
   \   000041   12....       LCALL   ??AT_ChartoInt16?relay
   \   000044   7402         MOV     A,#0x2
   \   000046   12....       LCALL   ?XSTACK_DISP0_8
   \   000049   12....       LCALL   ?Subroutine21 & 0xFFFF
   3083            
   3084            if(cmdUnitArr[1].symbol == ','){
   \                     ??CrossCallReturnLabel_10:
   \   00004C   12....       LCALL   ?XSTACK_DISP0_8
   \   00004F   E0           MOVX    A,@DPTR
   \   000050   642C         XRL     A,#0x2c
   \   000052   6003         JZ      $+5
   \   000054   02....       LJMP    ??AT_Cmd_DISCOVER_1 & 0xFFFF
   3085              AT_PARSE_CMD_PATTERN_ERROR(":,\r",cmdUnitArr); 
   \   000057                ; Setup parameters for call to function AT_pattern_check
   \   000057   7405         MOV     A,#0x5
   \   000059   12....       LCALL   ?XSTACK_DISP0_8
   \   00005C   AC82         MOV     R4,DPL
   \   00005E   AD83         MOV     R5,DPH
   \   000060   7A..         MOV     R2,#`?<Constant ":,\\r">` & 0xff
   \   000062   7B..         MOV     R3,#(`?<Constant ":,\\r">` >> 8) & 0xff
   \   000064   12....       LCALL   ??Subroutine200_0 & 0xFFFF
   \                     ??CrossCallReturnLabel_474:
   \   000067   6006         JZ      ??AT_Cmd_DISCOVER_2
   \   000069                ; Setup parameters for call to function AT_UARTWriteErrMsg
   \                     ??AT_Cmd_DISCOVER_3:
   \   000069   12....       LCALL   ??AT_UARTWriteErrMsg?relay
   \   00006C   02....       LJMP    ??AT_Cmd_DISCOVER_4 & 0xFFFF
   3086              if(AT_ChartoInt8(&cmdUnitArr[1])) buff.option=1;
   \                     ??AT_Cmd_DISCOVER_2:
   \   00006F                ; Setup parameters for call to function AT_ChartoInt8
   \   00006F   7409         MOV     A,#0x9
   \   000071   12....       LCALL   ?XSTACK_DISP0_8
   \   000074   12....       LCALL   ??Subroutine201_0 & 0xFFFF
   \                     ??CrossCallReturnLabel_489:
   \   000077   7003         JNZ     $+5
   \   000079   02....       LJMP    ??AT_Cmd_DISCOVER_5 & 0xFFFF
   \   00007C   7404         MOV     A,#0x4
   \   00007E   12....       LCALL   ?XSTACK_DISP0_8
   \   000081   7401         MOV     A,#0x1
   \                     ??AT_Cmd_DISCOVER_6:
   \   000083   F0           MOVX    @DPTR,A
   3087              else buff.option=0;
   3088            }else{
   3089              
   3090              AT_PARSE_CMD_PATTERN_ERROR(":\r",cmdUnitArr); 
   3091              buff.option=0;
   3092            } 
   3093            
   3094           /* 
   3095            //there is a problem that the end devices can't receive the group cast msg. 
   3096            //the snifer indicate the broadcast address is 0xfffd which will not broadcast
   3097            //to RxonIdle device. So some end device can't receive the msg. 
   3098            //but the broad cast can do this. becsue the broad cast address is 0xffff 
   3099            //which means to all device.
   3100            //So, I will think about this after a period of time.
   3101            
   3102            //build group address  
   3103            afAddrType_t AT_AF_group_addr={
   3104              {AT_AF_GROUP_ID},                       //addr
   3105              (afAddrMode_t)afAddrGroup,              //addr mode
   3106              AT_AF_ENDPOINT,                         //end point
   3107              NULL                                    //PAN ID
   3108            };*/
   3109            //build broadcast address
   3110            afAddrType_t AT_AF_broad_addr={
   3111              {0xffff},                       //addr
   3112              (afAddrMode_t)AddrBroadcast,              //addr mode
   3113              AT_AF_ENDPOINT,                         //end point
   3114              NULL                                    //PAN ID
   3115            };
   \   000084   741D         MOV     A,#0x1d
   \   000086   12....       LCALL   ?XSTACK_DISP0_8
   \   000089   AC82         MOV     R4,DPL
   \   00008B   AD83         MOV     R5,DPH
   \   00008D   7583..       MOV     DPH,#(`?<Constant {{65535}, 15, 204, 0}>` >> 8) & 0xff
   \   000090   7582..       MOV     DPL,#`?<Constant {{65535}, 15, 204, 0}>` & 0xff
   \   000093   740C         MOV     A,#0xc
   \   000095   12....       LCALL   ?MOVE_LONG8_XDATA_XDATA
   3116            
   3117            //build self address
   3118            afAddrType_t AT_AF_self_addr={
   3119              {NLME_GetShortAddr()},                       //addr
   3120              (afAddrMode_t) Addr16Bit,              //addr mode
   3121              AT_AF_ENDPOINT,                         //end point
   3122              NULL                                    //PAN ID
   3123            };
   \   000098   7411         MOV     A,#0x11
   \   00009A   12....       LCALL   ?XSTACK_DISP0_8
   \   00009D   AC82         MOV     R4,DPL
   \   00009F   AD83         MOV     R5,DPH
   \   0000A1   7583..       MOV     DPH,#(`?<Constant {{0}, 2, 204, 0}>` >> 8) & 0xff
   \   0000A4   7582..       MOV     DPL,#`?<Constant {{0}, 2, 204, 0}>` & 0xff
   \   0000A7   740C         MOV     A,#0xc
   \   0000A9   12....       LCALL   ?MOVE_LONG8_XDATA_XDATA
   \   0000AC                ; Setup parameters for call to function NLME_GetShortAddr
   \   0000AC   12....       LCALL   ??NLME_GetShortAddr?relay
   \   0000AF   7411         MOV     A,#0x11
   \   0000B1   12....       LCALL   ?XSTACK_DISP0_8
   \   0000B4   12....       LCALL   ??Subroutine209_0 & 0xFFFF
   3124            
   3125            
   3126            //send data over air
   3127            state = AF_DataRequest( &AT_AF_broad_addr, &AT_AF_epDesc,
   3128                                 AT_AF_Cmd_HA_DISC_CLUSTERID,
   3129                                 sizeof(buff),
   3130                                 (uint8*)&buff,
   3131                                 &AT_AF_TransID,
   3132                                 AF_DISCV_ROUTE,
   3133                                 AF_DEFAULT_RADIUS );
   \                     ??CrossCallReturnLabel_528:
   \   0000B7                ; Setup parameters for call to function AF_DataRequest
   \   0000B7   75..1E       MOV     ?V0 + 0,#0x1e
   \   0000BA   78..         MOV     R0,#?V0 + 0
   \   0000BC   12....       LCALL   ?PUSH_XSTACK_I_ONE
   \   0000BF   75....       MOV     ?V0 + 0,#AT_AF_TransID & 0xff
   \   0000C2   75....       MOV     ?V0 + 1,#(AT_AF_TransID >> 8) & 0xff
   \   0000C5   78..         MOV     R0,#?V0 + 0
   \   0000C7   12....       LCALL   ?PUSH_XSTACK_I_TWO
   \   0000CA   7403         MOV     A,#0x3
   \   0000CC   12....       LCALL   ?XSTACK_DISP0_8
   \   0000CF   8582..       MOV     ?V0 + 0,DPL
   \   0000D2   8583..       MOV     ?V0 + 1,DPH
   \   0000D5   78..         MOV     R0,#?V0 + 0
   \   0000D7   12....       LCALL   ?PUSH_XSTACK_I_TWO
   \   0000DA   75..05       MOV     ?V0 + 0,#0x5
   \   0000DD   75..00       MOV     ?V0 + 1,#0x0
   \   0000E0   78..         MOV     R0,#?V0 + 0
   \   0000E2   12....       LCALL   ?PUSH_XSTACK_I_TWO
   \   0000E5   75..02       MOV     ?V0 + 0,#0x2
   \   0000E8   78..         MOV     R0,#?V0 + 0
   \   0000EA   12....       LCALL   ?PUSH_XSTACK_I_TWO
   \   0000ED   7920         MOV     R1,#0x20
   \   0000EF   7C..         MOV     R4,#AT_AF_epDesc & 0xff
   \   0000F1   7D..         MOV     R5,#(AT_AF_epDesc >> 8) & 0xff
   \   0000F3   7426         MOV     A,#0x26
   \   0000F5   12....       LCALL   ?XSTACK_DISP0_8
   \   0000F8   AA82         MOV     R2,DPL
   \   0000FA   AB83         MOV     R3,DPH
   \   0000FC   12....       LCALL   ??AF_DataRequest?relay
   \   0000FF   7409         MOV     A,#0x9
   \   000101   12....       LCALL   ?DEALLOC_XSTACK8
   \   000104   E9           MOV     A,R1
   3134            if(state!=afStatus_SUCCESS) {
   \   000105   6019         JZ      ??AT_Cmd_DISCOVER_7
   3135              AT_ERROR(state);
   \                     ??AT_Cmd_DISCOVER_8:
   \   000107                ; Setup parameters for call to function AT_UARTWriteErrMsg
   \   000107   02....       LJMP    ??AT_Cmd_DISCOVER_3 & 0xFFFF
   3136              return;
   3137            } 
   \                     ??AT_Cmd_DISCOVER_5:
   \   00010A   7404         MOV     A,#0x4
   \   00010C   12....       LCALL   ?XSTACK_DISP0_8
   \   00010F   E4           CLR     A
   \   000110   02....       LJMP    ??AT_Cmd_DISCOVER_6 & 0xFFFF
   \                     ??AT_Cmd_DISCOVER_1:
   \   000113                ; Setup parameters for call to function AT_pattern_check
   \   000113   7405         MOV     A,#0x5
   \   000115   12....       LCALL   ?XSTACK_DISP0_8
   \   000118   12....       LCALL   ??Subroutine198_0 & 0xFFFF
   \                     ??CrossCallReturnLabel_433:
   \   00011B   60ED         JZ      ??AT_Cmd_DISCOVER_5
   \   00011D                ; Setup parameters for call to function AT_UARTWriteErrMsg
   \   00011D   02....       LJMP    ??AT_Cmd_DISCOVER_3 & 0xFFFF
   3138            
   3139            //send data to self
   3140            state = AF_DataRequest( &AT_AF_self_addr, &AT_AF_epDesc,
   3141                                 AT_AF_Cmd_HA_DISC_CLUSTERID,
   3142                                 sizeof(buff),
   3143                                 (uint8*)&buff,
   3144                                 &AT_AF_TransID,
   3145                                 AF_DISCV_ROUTE,
   3146                                 AF_DEFAULT_RADIUS );
   \                     ??AT_Cmd_DISCOVER_7:
   \   000120                ; Setup parameters for call to function AF_DataRequest
   \   000120   75..1E       MOV     ?V0 + 0,#0x1e
   \   000123   78..         MOV     R0,#?V0 + 0
   \   000125   12....       LCALL   ?PUSH_XSTACK_I_ONE
   \   000128   75....       MOV     ?V0 + 0,#AT_AF_TransID & 0xff
   \   00012B   75....       MOV     ?V0 + 1,#(AT_AF_TransID >> 8) & 0xff
   \   00012E   78..         MOV     R0,#?V0 + 0
   \   000130   12....       LCALL   ?PUSH_XSTACK_I_TWO
   \   000133   7403         MOV     A,#0x3
   \   000135   12....       LCALL   ?XSTACK_DISP0_8
   \   000138   8582..       MOV     ?V0 + 0,DPL
   \   00013B   8583..       MOV     ?V0 + 1,DPH
   \   00013E   78..         MOV     R0,#?V0 + 0
   \   000140   12....       LCALL   ?PUSH_XSTACK_I_TWO
   \   000143   75..05       MOV     ?V0 + 0,#0x5
   \   000146   75..00       MOV     ?V0 + 1,#0x0
   \   000149   78..         MOV     R0,#?V0 + 0
   \   00014B   12....       LCALL   ?PUSH_XSTACK_I_TWO
   \   00014E   75..02       MOV     ?V0 + 0,#0x2
   \   000151   78..         MOV     R0,#?V0 + 0
   \   000153   12....       LCALL   ?PUSH_XSTACK_I_TWO
   \   000156   7920         MOV     R1,#0x20
   \   000158   7C..         MOV     R4,#AT_AF_epDesc & 0xff
   \   00015A   7D..         MOV     R5,#(AT_AF_epDesc >> 8) & 0xff
   \   00015C   741A         MOV     A,#0x1a
   \   00015E   12....       LCALL   ?XSTACK_DISP0_8
   \   000161   AA82         MOV     R2,DPL
   \   000163   AB83         MOV     R3,DPH
   \   000165   12....       LCALL   ??AF_DataRequest?relay
   \   000168   7409         MOV     A,#0x9
   \   00016A   12....       LCALL   ?DEALLOC_XSTACK8
   \   00016D   E9           MOV     A,R1
   3147            if(state!=afStatus_SUCCESS) AT_ERROR(state);
   \   00016E   7097         JNZ     ??AT_Cmd_DISCOVER_8
   3148            else AT_OK(); 
   \   000170                ; Setup parameters for call to function AT_HalUARTWrite
   \   000170   7C07         MOV     R4,#0x7
   \   000172   7D00         MOV     R5,#0x0
   \   000174   7A..         MOV     R2,#`?<Constant "\\r\\nOK\\r\\n">` & 0xff
   \   000176   7B..         MOV     R3,#(`?<Constant "\\r\\nOK\\r\\n">` >> 8) & 0xff
   \   000178   7900         MOV     R1,#0x0
   \   00017A   12....       LCALL   ??AT_HalUARTWrite?relay
   \                     ??AT_Cmd_DISCOVER_4:
   \   00017D   7429         MOV     A,#0x29
   \   00017F   02....       LJMP    ??Subroutine195_0 & 0xFFFF
   3149          }
   3150          
   3151          /**************************************************************************
   3152          +CLUSDISC C Find All Supported Clusters On A Remote Device End Point
   3153                AT+CLUSDISC:[<Node ID>],<EndPoint> 
   3154                      <Node ID> - 16 bit hexadecimal number. The network address of the target device. 
   3155                      <EndPoint> - 8 bit hexadecimal number. The end point of the target device.
   3156          
   3157          DISCCLUS:<Node ID>,<EndPoint>,<Status>        //different with telegesis
   3158          Prompt (will show, if <Status> is 00) 
   3159                      SERVER:<ClusterID>,<ClusterID>,<ClusterID> 
   3160                      CLIENT:<ClusterID>,<ClusterID>,< ClusterI
   3161          *****************************************************************************/

   \                                 In  segment BANKED_CODE, align 1, keep-with-next
   3162          void AT_Cmd_CLUSDISC(uint8 start_point, uint8* msg){
   \                     AT_Cmd_CLUSDISC:
   \   000000   74F4         MOV     A,#-0xc
   \   000002   12....       LCALL   ?BANKED_ENTER_XDATA
   \   000005                ; Saved register size: 12
   \   000005                ; Auto size: 14
   \   000005   74F2         MOV     A,#-0xe
   \   000007   12....       LCALL   ?ALLOC_XSTACK8
   \   00000A   89..         MOV     ?V0 + 2,R1
   \   00000C   EA           MOV     A,R2
   \   00000D   FE           MOV     R6,A
   \   00000E   EB           MOV     A,R3
   \   00000F   FF           MOV     R7,A
   3163            AT_CmdUnit cmdUnitArr[3];
   3164            uint8 i;
   3165            for(i=0;i<3;i++)start_point = AT_get_next_cmdUnit(&cmdUnitArr[i],start_point, msg); 
   \   000010   75..00       MOV     ?V0 + 3,#0x0
   \                     ??AT_Cmd_CLUSDISC_0:
   \   000013                ; Setup parameters for call to function AT_get_next_cmdUnit
   \   000013   EE           MOV     A,R6
   \   000014   FC           MOV     R4,A
   \   000015   EF           MOV     A,R7
   \   000016   FD           MOV     R5,A
   \   000017   A9..         MOV     R1,?V0 + 2
   \   000019   85....       MOV     ?V0 + 0,?V0 + 3
   \   00001C   75..00       MOV     ?V0 + 1,#0x0
   \   00001F   7402         MOV     A,#0x2
   \   000021   78..         MOV     R0,#?V0 + 0
   \   000023   12....       LCALL   ?S_SHL
   \   000026   7402         MOV     A,#0x2
   \   000028   12....       LCALL   ?XSTACK_DISP0_8
   \   00002B   12....       LCALL   ?Subroutine55 & 0xFFFF
   \                     ??CrossCallReturnLabel_81:
   \   00002E   40E3         JC      ??AT_Cmd_CLUSDISC_0
   3166            AT_PARSE_CMD_PATTERN_ERROR(":,\r",cmdUnitArr);
   \   000030                ; Setup parameters for call to function AT_pattern_check
   \   000030   7402         MOV     A,#0x2
   \   000032   12....       LCALL   ?XSTACK_DISP0_8
   \   000035   AC82         MOV     R4,DPL
   \   000037   AD83         MOV     R5,DPH
   \   000039   7A..         MOV     R2,#`?<Constant ":,\\r">` & 0xff
   \   00003B   7B..         MOV     R3,#(`?<Constant ":,\\r">` >> 8) & 0xff
   \   00003D   12....       LCALL   ??Subroutine200_0 & 0xFFFF
   \                     ??CrossCallReturnLabel_475:
   \   000040   6005         JZ      ??AT_Cmd_CLUSDISC_1
   \   000042                ; Setup parameters for call to function AT_UARTWriteErrMsg
   \                     ??AT_Cmd_CLUSDISC_2:
   \   000042   12....       LCALL   ??AT_UARTWriteErrMsg?relay
   \   000045   8057         SJMP    ??AT_Cmd_CLUSDISC_3
   3167            
   3168            uint8 endpoint=AT_ChartoInt8(&cmdUnitArr[1]);
   \                     ??AT_Cmd_CLUSDISC_1:
   \   000047                ; Setup parameters for call to function AT_ChartoInt8
   \   000047   7406         MOV     A,#0x6
   \   000049   12....       LCALL   ?XSTACK_DISP0_8
   \   00004C   12....       LCALL   ?Subroutine110 & 0xFFFF
   3169            uint16 addr;
   3170            
   3171            if(cmdUnitArr[0].unitLen==0){
   \                     ??CrossCallReturnLabel_189:
   \   00004F   7403         MOV     A,#0x3
   \   000051   12....       LCALL   ?XSTACK_DISP0_8
   \   000054   E0           MOVX    A,@DPTR
   \   000055   7005         JNZ     ??AT_Cmd_CLUSDISC_4
   3172              addr=NLME_GetShortAddr();              
   \   000057                ; Setup parameters for call to function NLME_GetShortAddr
   \   000057   12....       LCALL   ??NLME_GetShortAddr?relay
   \   00005A   800C         SJMP    ??AT_Cmd_CLUSDISC_5
   3173             // addr.addrMode = (afAddrMode_t)Addr16Bit; 
   3174            }else{                                                         
   3175              addr =AT_ChartoInt16(&cmdUnitArr[0]);            
   \                     ??AT_Cmd_CLUSDISC_4:
   \   00005C                ; Setup parameters for call to function AT_ChartoInt16
   \   00005C   7402         MOV     A,#0x2
   \   00005E   12....       LCALL   ?XSTACK_DISP0_8
   \   000061   AA82         MOV     R2,DPL
   \   000063   AB83         MOV     R3,DPH
   \   000065   12....       LCALL   ??AT_ChartoInt16?relay
   3176              //addr.addrMode = (afAddrMode_t)Addr16Bit;       
   3177            }
   3178            
   3179            AT_AF_hdr buff;
   3180            buff.cmd=AT_AF_Cmd_req;
   \                     ??AT_Cmd_CLUSDISC_5:
   \   000068   85..82       MOV     DPL,?XSP + 0
   \   00006B   85..83       MOV     DPH,?XSP + 1
   \   00006E   E4           CLR     A
   \   00006F   F0           MOVX    @DPTR,A
   3181            buff.ep = endpoint;
   \   000070   7401         MOV     A,#0x1
   \   000072   12....       LCALL   ?XSTACK_DISP0_8
   \   000075   EE           MOV     A,R6
   \   000076   12....       LCALL   ?Subroutine134 & 0xFFFF
   3182            uint8 state;
   3183            state =  AT_AF_Cmd_send_simple(addr,
   3184                                AT_AF_Cmd_HA_CIDDISC_CLUSTERID,sizeof(buff),&buff);
   \                     ??CrossCallReturnLabel_261:
   \   000079   8582..       MOV     ?V0 + 0,DPL
   \   00007C   8583..       MOV     ?V0 + 1,DPH
   \   00007F   78..         MOV     R0,#?V0 + 0
   \   000081   12....       LCALL   ?PUSH_XSTACK_I_TWO
   \   000084   7902         MOV     R1,#0x2
   \   000086   7C03         MOV     R4,#0x3
   \   000088   12....       LCALL   ?Subroutine129 & 0xFFFF
   \                     ??CrossCallReturnLabel_338:
   \   00008B   12....       LCALL   ?DEALLOC_XSTACK8
   \   00008E   E9           MOV     A,R1
   3185            if(state!=afStatus_SUCCESS) AT_ERROR(state);
   \   00008F   70B1         JNZ     ??AT_Cmd_CLUSDISC_2
   \   000091                ; Setup parameters for call to function AT_UARTWriteErrMsg
   3186            else AT_OK();
   \   000091                ; Setup parameters for call to function AT_HalUARTWrite
   \   000091   7C07         MOV     R4,#0x7
   \   000093   7D00         MOV     R5,#0x0
   \   000095   7A..         MOV     R2,#`?<Constant "\\r\\nOK\\r\\n">` & 0xff
   \   000097   7B..         MOV     R3,#(`?<Constant "\\r\\nOK\\r\\n">` >> 8) & 0xff
   \   000099   7900         MOV     R1,#0x0
   \   00009B   12....       LCALL   ??AT_HalUARTWrite?relay
   \                     ??AT_Cmd_CLUSDISC_3:
   \   00009E   740E         MOV     A,#0xe
   \   0000A0   02....       LJMP    ??Subroutine195_0 & 0xFFFF
   3187          }
   3188          
   3189          /**************************************************************************
   3190          +ATTRDISC - Find Supported Attributs On A Remote Device End Point Execute Command 
   3191                AT+ATTRDISC:<NodeID>,<EP>,<ClusterID>,<AttributeID>,<MaxNumofAttr> 
   3192                      <NodeID> - 16 bit hexadecimal number represents target devices network address 
   3193                      <EP> - 8 bit hexadecimal number represents target devices end point 
   3194                      <ClusterID> - 16 bit hexadecimal number 
   3195                      <AttributeID> -16 bit hexadecimal number the (discover will start from this attribute) 
   3196                      <MaxNumofAttr> - 2 decimal number represent the number of attributes that required to be discovered, e.g: 01, 10
   3197          
   3198                  DISCATTR:<Complete code> 
   3199                  CLUS:<ClusterID>,ATTR:<AttributeID>,TYPE:<DataType> 
   3200                  Note: <Complete code> represents if all attributes support by this cluster have been discovered. 
   3201                  00 C Completed discovery 01 C Uncompleted discovery
   3202          *****************************************************************************/

   \                                 In  segment BANKED_CODE, align 1, keep-with-next
   3203          void AT_Cmd_ATTRDISC(uint8 start_point, uint8* msg){
   \                     AT_Cmd_ATTRDISC:
   \   000000   74F4         MOV     A,#-0xc
   \   000002   12....       LCALL   ?BANKED_ENTER_XDATA
   \   000005                ; Saved register size: 12
   \   000005                ; Auto size: 39
   \   000005   74D9         MOV     A,#-0x27
   \   000007   12....       LCALL   ?ALLOC_XSTACK8
   \   00000A   89..         MOV     ?V0 + 2,R1
   \   00000C   EA           MOV     A,R2
   \   00000D   FE           MOV     R6,A
   \   00000E   EB           MOV     A,R3
   \   00000F   FF           MOV     R7,A
   3204            AT_CmdUnit cmdUnitArr[6];
   3205            uint8 i;
   3206            for(i=0;i<6;i++)start_point = AT_get_next_cmdUnit(&cmdUnitArr[i],start_point, msg); 
   \   000010   75..00       MOV     ?V0 + 3,#0x0
   \                     ??AT_Cmd_ATTRDISC_0:
   \   000013                ; Setup parameters for call to function AT_get_next_cmdUnit
   \   000013   EE           MOV     A,R6
   \   000014   FC           MOV     R4,A
   \   000015   EF           MOV     A,R7
   \   000016   FD           MOV     R5,A
   \   000017   A9..         MOV     R1,?V0 + 2
   \   000019   85....       MOV     ?V0 + 0,?V0 + 3
   \   00001C   75..00       MOV     ?V0 + 1,#0x0
   \   00001F   7402         MOV     A,#0x2
   \   000021   78..         MOV     R0,#?V0 + 0
   \   000023   12....       LCALL   ?S_SHL
   \   000026   740F         MOV     A,#0xf
   \   000028   12....       LCALL   ?XSTACK_DISP0_8
   \   00002B   12....       LCALL   ?Subroutine58 & 0xFFFF
   \                     ??CrossCallReturnLabel_85:
   \   00002E   40E3         JC      ??AT_Cmd_ATTRDISC_0
   3207            AT_PARSE_CMD_PATTERN_ERROR(":,,,,\r",cmdUnitArr);
   \   000030                ; Setup parameters for call to function AT_pattern_check
   \   000030   740F         MOV     A,#0xf
   \   000032   12....       LCALL   ?XSTACK_DISP0_8
   \   000035   AC82         MOV     R4,DPL
   \   000037   AD83         MOV     R5,DPH
   \   000039   7A..         MOV     R2,#`?<Constant ":,,,,\\r">` & 0xff
   \   00003B   7B..         MOV     R3,#(`?<Constant ":,,,,\\r">` >> 8) & 0xff
   \   00003D   12....       LCALL   ??Subroutine200_0 & 0xFFFF
   \                     ??CrossCallReturnLabel_476:
   \   000040   6006         JZ      ??AT_Cmd_ATTRDISC_1
   \   000042                ; Setup parameters for call to function AT_UARTWriteErrMsg
   \                     ??AT_Cmd_ATTRDISC_2:
   \   000042   12....       LCALL   ??AT_UARTWriteErrMsg?relay
   \   000045   02....       LJMP    ??AT_Cmd_ATTRDISC_3 & 0xFFFF
   3208            
   3209            uint8 endpoint=AT_ChartoInt8(&cmdUnitArr[1]);
   \                     ??AT_Cmd_ATTRDISC_1:
   \   000048                ; Setup parameters for call to function AT_ChartoInt8
   \   000048   7413         MOV     A,#0x13
   \   00004A   12....       LCALL   ?XSTACK_DISP0_8
   \   00004D   12....       LCALL   ?Subroutine111 & 0xFFFF
   3210            uint8 CID=AT_ChartoInt16(&cmdUnitArr[2]);
   \                     ??CrossCallReturnLabel_198:
   \   000050                ; Setup parameters for call to function AT_ChartoInt16
   \   000050   7417         MOV     A,#0x17
   \   000052   12....       LCALL   ?XSTACK_DISP0_8
   \   000055   12....       LCALL   ?Subroutine127 & 0xFFFF
   \                     ??CrossCallReturnLabel_240:
   \   000058   FE           MOV     R6,A
   3211            
   3212            //build destination address
   3213            afAddrType_t dstAddr;
   3214            dstAddr.endPoint = endpoint;
   \   000059   740C         MOV     A,#0xc
   \   00005B   12....       LCALL   ?XSTACK_DISP0_8
   \   00005E   EF           MOV     A,R7
   \   00005F   F0           MOVX    @DPTR,A
   3215            dstAddr.addrMode = (afAddrMode_t)Addr16Bit;
   \   000060   740B         MOV     A,#0xb
   \   000062   12....       LCALL   ?XSTACK_DISP0_8
   \   000065   7402         MOV     A,#0x2
   \   000067   F0           MOVX    @DPTR,A
   3216            if(cmdUnitArr[0].unitLen==0){
   \   000068   7410         MOV     A,#0x10
   \   00006A   12....       LCALL   ?XSTACK_DISP0_8
   \   00006D   E0           MOVX    A,@DPTR
   \   00006E   7005         JNZ     ??AT_Cmd_ATTRDISC_4
   3217              dstAddr.addr.shortAddr=NLME_GetShortAddr();     
   \   000070                ; Setup parameters for call to function NLME_GetShortAddr
   \   000070   12....       LCALL   ??NLME_GetShortAddr?relay
   \   000073   800C         SJMP    ??AT_Cmd_ATTRDISC_5
   3218            }else{    
   3219              dstAddr.addr.shortAddr =AT_ChartoInt16(&cmdUnitArr[0]);             
   \                     ??AT_Cmd_ATTRDISC_4:
   \   000075                ; Setup parameters for call to function AT_ChartoInt16
   \   000075   740F         MOV     A,#0xf
   \   000077   12....       LCALL   ?XSTACK_DISP0_8
   \   00007A   AA82         MOV     R2,DPL
   \   00007C   AB83         MOV     R3,DPH
   \   00007E   12....       LCALL   ??AT_ChartoInt16?relay
   \                     ??AT_Cmd_ATTRDISC_5:
   \   000081   7403         MOV     A,#0x3
   \   000083   12....       LCALL   ?XSTACK_DISP0_8
   3220            }
   \   000086   12....       LCALL   ??Subroutine209_0 & 0xFFFF
   3221            
   3222            zclDiscoverCmd_t discCmd;
   3223            discCmd.startAttr =AT_ChartoInt8(&cmdUnitArr[3]);
   \                     ??CrossCallReturnLabel_529:
   \   000089                ; Setup parameters for call to function AT_ChartoInt8
   \   000089   741B         MOV     A,#0x1b
   \   00008B   12....       LCALL   ?XSTACK_DISP0_8
   \   00008E   12....       LCALL   ??Subroutine201_0 & 0xFFFF
   \                     ??CrossCallReturnLabel_490:
   \   000091   85..82       MOV     DPL,?XSP + 0
   \   000094   85..83       MOV     DPH,?XSP + 1
   \   000097   12....       LCALL   ??Subroutine210_0 & 0xFFFF
   3224            discCmd.maxAttrIDs =AT_ChartoInt8(&cmdUnitArr[4]);
   \                     ??CrossCallReturnLabel_536:
   \   00009A                ; Setup parameters for call to function AT_ChartoInt8
   \   00009A   741F         MOV     A,#0x1f
   \   00009C   12....       LCALL   ?XSTACK_DISP0_8
   \   00009F   AA82         MOV     R2,DPL
   \   0000A1   AB83         MOV     R3,DPH
   \   0000A3   12....       LCALL   ??AT_ChartoInt8?relay
   \   0000A6   7402         MOV     A,#0x2
   \   0000A8   12....       LCALL   ?XSTACK_DISP0_8
   \   0000AB   E9           MOV     A,R1
   \   0000AC   12....       LCALL   ?Subroutine20 & 0xFFFF
   3225            
   3226            
   3227            uint8 state;
   3228            state = zcl_SendDiscoverCmd( AT_ZCL_ENDPOINT, &dstAddr,
   3229                                      CID, &discCmd,
   3230                                      ZCL_FRAME_CLIENT_SERVER_DIR,0, 0 );
   \                     ??CrossCallReturnLabel_6:
   \   0000AF   12....       LCALL   ?PUSH_XSTACK_I_ONE
   \   0000B2   78..         MOV     R0,#?V0 + 0
   \   0000B4   12....       LCALL   ?PUSH_XSTACK_I_ONE
   \   0000B7   78..         MOV     R0,#?V0 + 0
   \   0000B9   12....       LCALL   ?PUSH_XSTACK_I_ONE
   \   0000BC   7403         MOV     A,#0x3
   \   0000BE   12....       LCALL   ?XSTACK_DISP0_8
   \   0000C1   8582..       MOV     ?V0 + 0,DPL
   \   0000C4   8583..       MOV     ?V0 + 1,DPH
   \   0000C7   78..         MOV     R0,#?V0 + 0
   \   0000C9   12....       LCALL   ?PUSH_XSTACK_I_TWO
   \   0000CC   8E..         MOV     ?V0 + 0,R6
   \   0000CE   AC..         MOV     R4,?V0 + 0
   \   0000D0   7D00         MOV     R5,#0x0
   \   0000D2   7408         MOV     A,#0x8
   \   0000D4   12....       LCALL   ?XSTACK_DISP0_8
   \   0000D7   AA82         MOV     R2,DPL
   \   0000D9   AB83         MOV     R3,DPH
   \   0000DB   79CB         MOV     R1,#-0x35
   \   0000DD   12....       LCALL   ??zcl_SendDiscoverCmd?relay
   \   0000E0   7405         MOV     A,#0x5
   \   0000E2   12....       LCALL   ?DEALLOC_XSTACK8
   \   0000E5   E9           MOV     A,R1
   3231            
   3232            if(state!=afStatus_SUCCESS) AT_ERROR(state);
   \   0000E6   6003         JZ      $+5
   \   0000E8   02....       LJMP    ??AT_Cmd_ATTRDISC_2 & 0xFFFF
   \   0000EB                ; Setup parameters for call to function AT_UARTWriteErrMsg
   3233            else AT_OK();
   \   0000EB                ; Setup parameters for call to function AT_HalUARTWrite
   \   0000EB   7C07         MOV     R4,#0x7
   \   0000ED   7D00         MOV     R5,#0x0
   \   0000EF   7A..         MOV     R2,#`?<Constant "\\r\\nOK\\r\\n">` & 0xff
   \   0000F1   7B..         MOV     R3,#(`?<Constant "\\r\\nOK\\r\\n">` >> 8) & 0xff
   \   0000F3   7900         MOV     R1,#0x0
   \   0000F5   12....       LCALL   ??AT_HalUARTWrite?relay
   \                     ??AT_Cmd_ATTRDISC_3:
   \   0000F8   7427         MOV     A,#0x27
   \   0000FA   02....       LJMP    ??Subroutine195_0 & 0xFFFF
   3234          }
   3235          
   3236          
   3237          /**************************************************************************
   3238          AT+IDENTIFY:[<Address>],<EP>,<SendMode>,<Time>
   3239                      <Address> - 16 bit hexadecimal number. It shall be Node ID of a remote device 
   3240                                  if the command is sent directly to a node 
   3241                                   or it shall be a group ID if the command is sent to a group.
   3242          
   3243                      <EP> - 8 bit hexadecimal number represent the Endpoint of the target
   3244          
   3245                      <SendMode> - A Boolean type to choose transmission mode, 
   3246                                    0 C means sending command directly; 
   3247                                    1 C means sending command to a group 
   3248          
   3249                      <Time> - 16 bit hexadecimal number represents the identification time
   3250          *******************************************************************************/

   \                                 In  segment BANKED_CODE, align 1, keep-with-next
   3251          void AT_Cmd_IDENTIFY(uint8 start_point, uint8* msg){
   \                     AT_Cmd_IDENTIFY:
   \   000000   74F4         MOV     A,#-0xc
   \   000002   12....       LCALL   ?BANKED_ENTER_XDATA
   \   000005                ; Saved register size: 12
   \   000005                ; Auto size: 32
   \   000005   74E0         MOV     A,#-0x20
   \   000007   12....       LCALL   ?ALLOC_XSTACK8
   \   00000A   89..         MOV     ?V0 + 0,R1
   \   00000C   EA           MOV     A,R2
   \   00000D   FE           MOV     R6,A
   \   00000E   EB           MOV     A,R3
   \   00000F   FF           MOV     R7,A
   3252            AT_CmdUnit cmdUnitArr[5];
   3253            uint8 i;
   3254            for(i=0;i<5;i++)start_point = AT_get_next_cmdUnit(&cmdUnitArr[i],start_point, msg); 
   \   000010   75..00       MOV     ?V0 + 1,#0x0
   \                     ??AT_Cmd_IDENTIFY_0:
   \   000013                ; Setup parameters for call to function AT_get_next_cmdUnit
   \   000013   EE           MOV     A,R6
   \   000014   FC           MOV     R4,A
   \   000015   EF           MOV     A,R7
   \   000016   FD           MOV     R5,A
   \   000017   A9..         MOV     R1,?V0 + 0
   \   000019   85....       MOV     ?V0 + 2,?V0 + 1
   \   00001C   75..00       MOV     ?V0 + 3,#0x0
   \   00001F   7402         MOV     A,#0x2
   \   000021   78..         MOV     R0,#?V0 + 2
   \   000023   12....       LCALL   ?S_SHL
   \   000026   740C         MOV     A,#0xc
   \   000028   12....       LCALL   ?XSTACK_DISP0_8
   \   00002B   12....       LCALL   ?Subroutine101 & 0xFFFF
   \                     ??CrossCallReturnLabel_175:
   \   00002E   9405         SUBB    A,#0x5
   \   000030   40E1         JC      ??AT_Cmd_IDENTIFY_0
   3255            AT_PARSE_CMD_PATTERN_ERROR(":,,,\r",cmdUnitArr);
   \   000032                ; Setup parameters for call to function AT_pattern_check
   \   000032   740C         MOV     A,#0xc
   \   000034   12....       LCALL   ?XSTACK_DISP0_8
   \   000037   AC82         MOV     R4,DPL
   \   000039   AD83         MOV     R5,DPH
   \   00003B   7A..         MOV     R2,#`?<Constant ":,,,\\r">` & 0xff
   \   00003D   7B..         MOV     R3,#(`?<Constant ":,,,\\r">` >> 8) & 0xff
   \   00003F   12....       LCALL   ??Subroutine200_0 & 0xFFFF
   \                     ??CrossCallReturnLabel_477:
   \   000042   6005         JZ      ??AT_Cmd_IDENTIFY_1
   \   000044                ; Setup parameters for call to function AT_UARTWriteErrMsg
   \                     ??AT_Cmd_IDENTIFY_2:
   \   000044   12....       LCALL   ??AT_UARTWriteErrMsg?relay
   \   000047   807B         SJMP    ??AT_Cmd_IDENTIFY_3
   3256            
   3257            uint8 endpoint=AT_ChartoInt8(&cmdUnitArr[1]);
   \                     ??AT_Cmd_IDENTIFY_1:
   \   000049                ; Setup parameters for call to function AT_ChartoInt8
   \   000049   7410         MOV     A,#0x10
   \   00004B   12....       LCALL   ?XSTACK_DISP0_8
   \   00004E   12....       LCALL   ?Subroutine110 & 0xFFFF
   3258            uint8 sendmode=AT_ChartoInt8(&cmdUnitArr[2]);
   \                     ??CrossCallReturnLabel_190:
   \   000051                ; Setup parameters for call to function AT_ChartoInt8
   \   000051   7414         MOV     A,#0x14
   \   000053   12....       LCALL   ?XSTACK_DISP0_8
   \   000056   12....       LCALL   ?Subroutine113 & 0xFFFF
   3259            
   3260            //build destination address
   3261            afAddrType_t dstAddr;
   3262            dstAddr.endPoint = endpoint;
   \                     ??CrossCallReturnLabel_202:
   \   000059   12....       LCALL   ?XSTACK_DISP0_8
   \   00005C   EE           MOV     A,R6
   \   00005D   F0           MOVX    @DPTR,A
   3263            dstAddr.addrMode = sendmode==0 ? (afAddrMode_t)Addr16Bit : (afAddrMode_t) AddrGroup;
   \   00005E   E8           MOV     A,R0
   \   00005F   7009         JNZ     ??AT_Cmd_IDENTIFY_4
   \   000061   7408         MOV     A,#0x8
   \   000063   12....       LCALL   ?XSTACK_DISP0_8
   \   000066   7402         MOV     A,#0x2
   \   000068   8007         SJMP    ??AT_Cmd_IDENTIFY_5
   \                     ??AT_Cmd_IDENTIFY_4:
   \   00006A   7408         MOV     A,#0x8
   \   00006C   12....       LCALL   ?XSTACK_DISP0_8
   \   00006F   7401         MOV     A,#0x1
   \                     ??AT_Cmd_IDENTIFY_5:
   \   000071   F0           MOVX    @DPTR,A
   3264            if(cmdUnitArr[0].unitLen==0){
   \   000072   740D         MOV     A,#0xd
   \   000074   12....       LCALL   ?XSTACK_DISP0_8
   \   000077   E0           MOVX    A,@DPTR
   \   000078   7005         JNZ     ??AT_Cmd_IDENTIFY_6
   3265              dstAddr.addr.shortAddr=NLME_GetShortAddr();     
   \   00007A                ; Setup parameters for call to function NLME_GetShortAddr
   \   00007A   12....       LCALL   ??NLME_GetShortAddr?relay
   \   00007D   800C         SJMP    ??AT_Cmd_IDENTIFY_7
   3266            }else{    
   3267              dstAddr.addr.shortAddr =AT_ChartoInt16(&cmdUnitArr[0]);             
   \                     ??AT_Cmd_IDENTIFY_6:
   \   00007F                ; Setup parameters for call to function AT_ChartoInt16
   \   00007F   740C         MOV     A,#0xc
   \   000081   12....       LCALL   ?XSTACK_DISP0_8
   \   000084   AA82         MOV     R2,DPL
   \   000086   AB83         MOV     R3,DPH
   \   000088   12....       LCALL   ??AT_ChartoInt16?relay
   3268            }
   \                     ??AT_Cmd_IDENTIFY_7:
   \   00008B   12....       LCALL   ??Subroutine208_0 & 0xFFFF
   3269            
   3270            uint8 state;
   3271            state = zclGeneral_SendIdentify( AT_ZCL_ENDPOINT,&dstAddr,AT_ChartoInt16(&cmdUnitArr[3]),0, 0 );
   \                     ??CrossCallReturnLabel_532:
   \   00008E                ; Setup parameters for call to function zclGeneral_SendIdentify
   \   00008E   75..00       MOV     ?V0 + 1,#0x0
   \   000091   78..         MOV     R0,#?V0 + 1
   \   000093   12....       LCALL   ?PUSH_XSTACK_I_ONE
   \   000096   78..         MOV     R0,#?V0 + 1
   \   000098   12....       LCALL   ?PUSH_XSTACK_I_ONE
   \   00009B                ; Setup parameters for call to function AT_ChartoInt16
   \   00009B   741A         MOV     A,#0x1a
   \   00009D   12....       LCALL   ?XSTACK_DISP0_8
   \   0000A0   12....       LCALL   ?Subroutine121 & 0xFFFF
   \                     ??CrossCallReturnLabel_221:
   \   0000A3   12....       LCALL   ?XSTACK_DISP0_8
   \   0000A6   AA82         MOV     R2,DPL
   \   0000A8   AB83         MOV     R3,DPH
   \   0000AA   79CB         MOV     R1,#-0x35
   \   0000AC   12....       LCALL   ??zclGeneral_SendIdentify?relay
   \   0000AF   7402         MOV     A,#0x2
   \   0000B1   12....       LCALL   ?DEALLOC_XSTACK8
   \   0000B4   E9           MOV     A,R1
   3272            if(state!=afStatus_SUCCESS) AT_ERROR(state);
   \   0000B5   708D         JNZ     ??AT_Cmd_IDENTIFY_2
   \   0000B7                ; Setup parameters for call to function AT_UARTWriteErrMsg
   3273            else AT_OK();
   \   0000B7                ; Setup parameters for call to function AT_HalUARTWrite
   \   0000B7   7C07         MOV     R4,#0x7
   \   0000B9   7D00         MOV     R5,#0x0
   \   0000BB   7A..         MOV     R2,#`?<Constant "\\r\\nOK\\r\\n">` & 0xff
   \   0000BD   7B..         MOV     R3,#(`?<Constant "\\r\\nOK\\r\\n">` >> 8) & 0xff
   \   0000BF   7900         MOV     R1,#0x0
   \   0000C1   12....       LCALL   ??AT_HalUARTWrite?relay
   \                     ??AT_Cmd_IDENTIFY_3:
   \   0000C4   02....       LJMP    ?Subroutine4 & 0xFFFF
   3274            
   3275          }
   3276          
   3277          /**************************************************************************
   3278          +IDQUERY C Query If Target Device(s) In Identifying Mode 
   3279                AT+IDQUERY:<Address>,<EP>,<SendMode> 
   3280                      <Address> - 16 bit hexadecimal number.It shall be Node ID of 
   3281                                  a remote device if the command is sent directly to a 
   3282                                  node or it shall be a group ID if the command is sent to a group. 
   3283                      <EP> - 8 bit hexadecimal number represent the Endpoint of the target 
   3284                      <SendMode> - A Boolean type to choose transmission mode, 
   3285                                    0 C means sending command directly; 
   3286                                    1 C means sending command to a group
   3287          
   3288          
   3289          Response 
   3290                OK 
   3291                IDQUERYRSP:<NodeId>,<EP>,<TimeOut> 
   3292                or ERROR<errorcode> 
   3293                      <NodeID> - 16 bit hexadecimal number, source of the response. It should 
   3294                                 be the same with the targets node ID. 
   3295                      <EP> - 8 bit hexadecimal number represent the Endpoint of the target
   3296                      <TimeOut> - 16 bit hexadecimal number, represents the length of time, 
   3297                                  in seconds, that the device will continue to identify itself.
   3298          *****************************************************************************/

   \                                 In  segment BANKED_CODE, align 1, keep-with-next
   3299          void AT_Cmd_IDQUERY(uint8 start_point, uint8* msg){
   \                     AT_Cmd_IDQUERY:
   \   000000   74F4         MOV     A,#-0xc
   \   000002   12....       LCALL   ?BANKED_ENTER_XDATA
   \   000005                ; Saved register size: 12
   \   000005                ; Auto size: 28
   \   000005   74E4         MOV     A,#-0x1c
   \   000007   12....       LCALL   ?ALLOC_XSTACK8
   \   00000A   89..         MOV     ?V0 + 0,R1
   \   00000C   EA           MOV     A,R2
   \   00000D   FE           MOV     R6,A
   \   00000E   EB           MOV     A,R3
   \   00000F   FF           MOV     R7,A
   3300            AT_CmdUnit cmdUnitArr[4];
   3301            uint8 i;
   3302            for(i=0;i<4;i++)start_point = AT_get_next_cmdUnit(&cmdUnitArr[i],start_point, msg); 
   \   000010   75..00       MOV     ?V0 + 1,#0x0
   \                     ??AT_Cmd_IDQUERY_0:
   \   000013                ; Setup parameters for call to function AT_get_next_cmdUnit
   \   000013   EE           MOV     A,R6
   \   000014   FC           MOV     R4,A
   \   000015   EF           MOV     A,R7
   \   000016   FD           MOV     R5,A
   \   000017   A9..         MOV     R1,?V0 + 0
   \   000019   85....       MOV     ?V0 + 2,?V0 + 1
   \   00001C   75..00       MOV     ?V0 + 3,#0x0
   \   00001F   7402         MOV     A,#0x2
   \   000021   78..         MOV     R0,#?V0 + 2
   \   000023   12....       LCALL   ?S_SHL
   \   000026   740C         MOV     A,#0xc
   \   000028   12....       LCALL   ?XSTACK_DISP0_8
   \   00002B   12....       LCALL   ??Subroutine211_0 & 0xFFFF
   \                     ??CrossCallReturnLabel_544:
   \   00002E   40E3         JC      ??AT_Cmd_IDQUERY_0
   3303            AT_PARSE_CMD_PATTERN_ERROR(":,,\r",cmdUnitArr);
   \   000030                ; Setup parameters for call to function AT_pattern_check
   \   000030   740C         MOV     A,#0xc
   \   000032   12....       LCALL   ?XSTACK_DISP0_8
   \   000035   AC82         MOV     R4,DPL
   \   000037   AD83         MOV     R5,DPH
   \   000039   7A..         MOV     R2,#`?<Constant ":,,\\r">` & 0xff
   \   00003B   7B..         MOV     R3,#(`?<Constant ":,,\\r">` >> 8) & 0xff
   \   00003D   12....       LCALL   ??Subroutine200_0 & 0xFFFF
   \                     ??CrossCallReturnLabel_478:
   \   000040   6006         JZ      ??AT_Cmd_IDQUERY_1
   \   000042                ; Setup parameters for call to function AT_UARTWriteErrMsg
   \                     ??AT_Cmd_IDQUERY_2:
   \   000042   12....       LCALL   ??AT_UARTWriteErrMsg?relay
   \   000045   02....       LJMP    ??AT_Cmd_IDQUERY_3 & 0xFFFF
   3304            
   3305            uint8 endpoint=AT_ChartoInt8(&cmdUnitArr[1]);
   \                     ??AT_Cmd_IDQUERY_1:
   \   000048                ; Setup parameters for call to function AT_ChartoInt8
   \   000048   7410         MOV     A,#0x10
   \   00004A   12....       LCALL   ?XSTACK_DISP0_8
   \   00004D   12....       LCALL   ?Subroutine110 & 0xFFFF
   3306            uint8 sendmode=AT_ChartoInt8(&cmdUnitArr[2]);
   \                     ??CrossCallReturnLabel_191:
   \   000050                ; Setup parameters for call to function AT_ChartoInt8
   \   000050   7414         MOV     A,#0x14
   \   000052   12....       LCALL   ?XSTACK_DISP0_8
   \   000055   12....       LCALL   ?Subroutine113 & 0xFFFF
   3307            
   3308            //build destination address
   3309            afAddrType_t dstAddr;
   3310            dstAddr.endPoint = endpoint;
   \                     ??CrossCallReturnLabel_203:
   \   000058   12....       LCALL   ?XSTACK_DISP0_8
   \   00005B   EE           MOV     A,R6
   \   00005C   F0           MOVX    @DPTR,A
   3311            dstAddr.addrMode = sendmode==0 ? (afAddrMode_t)Addr16Bit : (afAddrMode_t) AddrGroup;
   \   00005D   E8           MOV     A,R0
   \   00005E   7009         JNZ     ??AT_Cmd_IDQUERY_4
   \   000060   7408         MOV     A,#0x8
   \   000062   12....       LCALL   ?XSTACK_DISP0_8
   \   000065   7402         MOV     A,#0x2
   \   000067   8007         SJMP    ??AT_Cmd_IDQUERY_5
   \                     ??AT_Cmd_IDQUERY_4:
   \   000069   7408         MOV     A,#0x8
   \   00006B   12....       LCALL   ?XSTACK_DISP0_8
   \   00006E   7401         MOV     A,#0x1
   \                     ??AT_Cmd_IDQUERY_5:
   \   000070   F0           MOVX    @DPTR,A
   3312            if(cmdUnitArr[0].unitLen==0){
   \   000071   740D         MOV     A,#0xd
   \   000073   12....       LCALL   ?XSTACK_DISP0_8
   \   000076   E0           MOVX    A,@DPTR
   \   000077   7005         JNZ     ??AT_Cmd_IDQUERY_6
   3313              dstAddr.addr.shortAddr=NLME_GetShortAddr();     
   \   000079                ; Setup parameters for call to function NLME_GetShortAddr
   \   000079   12....       LCALL   ??NLME_GetShortAddr?relay
   \   00007C   800C         SJMP    ??AT_Cmd_IDQUERY_7
   3314            }else{    
   3315              dstAddr.addr.shortAddr =AT_ChartoInt16(&cmdUnitArr[0]);             
   \                     ??AT_Cmd_IDQUERY_6:
   \   00007E                ; Setup parameters for call to function AT_ChartoInt16
   \   00007E   740C         MOV     A,#0xc
   \   000080   12....       LCALL   ?XSTACK_DISP0_8
   \   000083   AA82         MOV     R2,DPL
   \   000085   AB83         MOV     R3,DPH
   \   000087   12....       LCALL   ??AT_ChartoInt16?relay
   3316            }
   \                     ??AT_Cmd_IDQUERY_7:
   \   00008A   12....       LCALL   ??Subroutine208_0 & 0xFFFF
   3317            uint8 state;
   3318            state = zclGeneral_SendIdentifyQuery( AT_ZCL_ENDPOINT,&dstAddr,0, 0 );
   \                     ??CrossCallReturnLabel_533:
   \   00008D                ; Setup parameters for call to function zcl_SendCommand
   \   00008D   E4           CLR     A
   \   00008E   F5..         MOV     ?V0 + 2,A
   \   000090   F5..         MOV     ?V0 + 3,A
   \   000092   78..         MOV     R0,#?V0 + 2
   \   000094   12....       LCALL   ?PUSH_XSTACK_I_TWO
   \   000097   78..         MOV     R0,#?V0 + 2
   \   000099   12....       LCALL   ?PUSH_XSTACK_I_TWO
   \   00009C   75..00       MOV     ?V0 + 1,#0x0
   \   00009F   78..         MOV     R0,#?V0 + 1
   \   0000A1   12....       LCALL   ?PUSH_XSTACK_I_ONE
   \   0000A4   78..         MOV     R0,#?V0 + 2
   \   0000A6   12....       LCALL   ?PUSH_XSTACK_I_TWO
   \   0000A9   78..         MOV     R0,#?V0 + 1
   \   0000AB   12....       LCALL   ?PUSH_XSTACK_I_ONE
   \   0000AE   78..         MOV     R0,#?V0 + 1
   \   0000B0   12....       LCALL   ?PUSH_XSTACK_I_ONE
   \   0000B3   75..01       MOV     ?V0 + 1,#0x1
   \   0000B6   78..         MOV     R0,#?V0 + 1
   \   0000B8   12....       LCALL   ?PUSH_XSTACK_I_ONE
   \   0000BB   78..         MOV     R0,#?V0 + 1
   \   0000BD   12....       LCALL   ?PUSH_XSTACK_I_ONE
   \   0000C0   7C03         MOV     R4,#0x3
   \   0000C2   7D00         MOV     R5,#0x0
   \   0000C4   740B         MOV     A,#0xb
   \   0000C6   12....       LCALL   ?XSTACK_DISP0_8
   \   0000C9   AA82         MOV     R2,DPL
   \   0000CB   AB83         MOV     R3,DPH
   \   0000CD   79CB         MOV     R1,#-0x35
   \   0000CF   12....       LCALL   ??zcl_SendCommand?relay
   \   0000D2   740B         MOV     A,#0xb
   \   0000D4   12....       LCALL   ?DEALLOC_XSTACK8
   \   0000D7   E9           MOV     A,R1
   3319            if(state!=afStatus_SUCCESS) AT_ERROR(state);
   \   0000D8   6003         JZ      $+5
   \   0000DA   02....       LJMP    ??AT_Cmd_IDQUERY_2 & 0xFFFF
   \   0000DD                ; Setup parameters for call to function AT_UARTWriteErrMsg
   3320            else AT_OK();
   \   0000DD                ; Setup parameters for call to function AT_HalUARTWrite
   \   0000DD   7C07         MOV     R4,#0x7
   \   0000DF   7D00         MOV     R5,#0x0
   \   0000E1   7A..         MOV     R2,#`?<Constant "\\r\\nOK\\r\\n">` & 0xff
   \   0000E3   7B..         MOV     R3,#(`?<Constant "\\r\\nOK\\r\\n">` >> 8) & 0xff
   \   0000E5   7900         MOV     R1,#0x0
   \   0000E7   12....       LCALL   ??AT_HalUARTWrite?relay
   \                     ??AT_Cmd_IDQUERY_3:
   \   0000EA   741C         MOV     A,#0x1c
   \   0000EC   02....       LJMP    ??Subroutine195_0 & 0xFFFF
   3321          }
   3322          
   3323          /*******************************************************
   3324          Disable the AT commands
   3325                AT+DISABLE
   3326          
   3327          *********************************************************/
   3328          
   3329          #if AT_ENABLE_PASSWORDS_MODE
   3330          void AT_Cmd_DISABLE(uint8 start_point, uint8* msg){
   3331            AT_CmdUnit cmdUnitArr[1];
   3332            uint8 i;
   3333            for(i=0;i<1;i++)start_point = AT_get_next_cmdUnit(&cmdUnitArr[i],start_point, msg);  
   3334            AT_PARSE_CMD_PATTERN_ERROR("\r",cmdUnitArr); 
   3335            
   3336            AT_enable=0; 
   3337            AT_OK();
   3338          }
   3339          #endif
   3340          
   3341          
   3342          /*******************************************************
   3343          enable the AT commands
   3344                AT+ENABLE:<password>
   3345          *********************************************************/
   3346          #if AT_ENABLE_PASSWORDS_MODE
   3347          void AT_Cmd_ENABLE(uint8 start_point, uint8* msg){
   3348            AT_CmdUnit cmdUnitArr[2];
   3349            uint8 i;
   3350            for(i=0;i<2;i++)start_point = AT_get_next_cmdUnit(&cmdUnitArr[i],start_point, msg);  
   3351            AT_PARSE_CMD_PATTERN_ERROR(":\r",cmdUnitArr); 
   3352            
   3353            AT_DEBUG("\n\r", 2);
   3354            AT_DEBUG("AT command has already been enabled",sizeof("AT command has already been enabled")-1);
   3355            if(AT_CmpCmd(cmdUnitArr,(uint8 *)AT_passwords)==0){
   3356              //AT_enable=1; 
   3357              AT_OK();
   3358            }else{
   3359              AT_ERROR(AT_WRONG_PASSWORD);
   3360            }
   3361          }
   3362          #endif
   3363          
   3364          /**************************************************************************
   3365          AT+HELP
   3366                     display the available commands
   3367          *******************************************************************************/

   \                                 In  segment BANKED_CODE, align 1, keep-with-next
   3368          void AT_Cmd_HELP(uint8 start_point, uint8* msg){
   \                     AT_Cmd_HELP:
   \   000000   74F4         MOV     A,#-0xc
   \   000002   12....       LCALL   ?BANKED_ENTER_XDATA
   \   000005                ; Saved register size: 12
   \   000005                ; Auto size: 4
   \   000005   74FC         MOV     A,#-0x4
   \   000007   12....       LCALL   ?ALLOC_XSTACK8
   3369            AT_CmdUnit cmdUnitArr[1];
   3370            start_point = AT_get_next_cmdUnit(&cmdUnitArr[0],start_point, msg);
   \   00000A                ; Setup parameters for call to function AT_get_next_cmdUnit
   \   00000A   12....       LCALL   ?Subroutine97 & 0xFFFF
   3371            AT_PARSE_CMD_PATTERN_ERROR("\r",cmdUnitArr); 
   \                     ??CrossCallReturnLabel_163:
   \   00000D   6006         JZ      ??AT_Cmd_HELP_0
   \   00000F                ; Setup parameters for call to function AT_UARTWriteErrMsg
   \   00000F   12....       LCALL   ??AT_UARTWriteErrMsg?relay
   \   000012   02....       LJMP    ??CrossCallReturnLabel_397 & 0xFFFF
   3372            
   3373            uint8 i;
   3374            AT_RESP_START();
   \                     ??AT_Cmd_HELP_0:
   \   000015                ; Setup parameters for call to function AT_HalUARTWrite
   \   000015   7C02         MOV     R4,#0x2
   \   000017   7D00         MOV     R5,#0x0
   \   000019   7A..         MOV     R2,#`?<Constant "\\r\\n">` & 0xff
   \   00001B   7B..         MOV     R3,#(`?<Constant "\\r\\n">` >> 8) & 0xff
   \   00001D   12....       LCALL   ??Subroutine181_0 & 0xFFFF
   3375            AT_RESP("ATI",3);
   \                     ??CrossCallReturnLabel_334:
   \   000020   7A..         MOV     R2,#`?<Constant "ATI">` & 0xff
   \   000022   7B..         MOV     R3,#(`?<Constant "ATI">` >> 8) & 0xff
   \   000024   7900         MOV     R1,#0x0
   \   000026   12....       LCALL   ??AT_HalUARTWrite?relay
   3376            for(i=0;i<AT_CMD_HELP_DESC_OFFSET;i++) AT_RESP(".",1);
   \   000029   7E0E         MOV     R6,#0xe
   \                     ??AT_Cmd_HELP_1:
   \   00002B                ; Setup parameters for call to function AT_HalUARTWrite
   \   00002B   12....       LCALL   ?Subroutine76 & 0xFFFF
   \                     ??CrossCallReturnLabel_114:
   \   00002E   70FB         JNZ     ??AT_Cmd_HELP_1
   3377            AT_RESP("Display Product Identification Information",sizeof("Display Product Identification Information")-1);
   \   000030                ; Setup parameters for call to function AT_HalUARTWrite
   \   000030   7C2A         MOV     R4,#0x2a
   \   000032   7D00         MOV     R5,#0x0
   \   000034   7A..         MOV     R2,#`?<Constant "Display Product Ident...">` & 0xff
   \   000036   7B..         MOV     R3,#(`?<Constant "Display Product Ident...">` >> 8) & 0xff
   \   000038   12....       LCALL   ?Subroutine69 & 0xFFFF
   3378            AT_NEXT_LINE();
   3379            
   3380            AT_RESP("ATZ",3);
   \                     ??CrossCallReturnLabel_101:
   \   00003B   7A..         MOV     R2,#`?<Constant "ATZ">` & 0xff
   \   00003D   7B..         MOV     R3,#(`?<Constant "ATZ">` >> 8) & 0xff
   \   00003F   7900         MOV     R1,#0x0
   \   000041   12....       LCALL   ??AT_HalUARTWrite?relay
   3381            for(i=0;i<AT_CMD_HELP_DESC_OFFSET;i++) AT_RESP(".",1);
   \   000044   7E0E         MOV     R6,#0xe
   \                     ??AT_Cmd_HELP_2:
   \   000046                ; Setup parameters for call to function AT_HalUARTWrite
   \   000046   12....       LCALL   ?Subroutine76 & 0xFFFF
   \                     ??CrossCallReturnLabel_115:
   \   000049   70FB         JNZ     ??AT_Cmd_HELP_2
   3382            AT_RESP("Software Reset",sizeof("Software Reset")-1);
   \   00004B                ; Setup parameters for call to function AT_HalUARTWrite
   \   00004B   7C0E         MOV     R4,#0xe
   \   00004D   7D00         MOV     R5,#0x0
   \   00004F   7A..         MOV     R2,#`?<Constant "Software Reset">` & 0xff
   \   000051   7B..         MOV     R3,#(`?<Constant "Software Reset">` >> 8) & 0xff
   \   000053   12....       LCALL   ?Subroutine70 & 0xFFFF
   3383            AT_NEXT_LINE();
   3384            
   3385            AT_RESP("AT&F",4);
   \                     ??CrossCallReturnLabel_105:
   \   000056                ; Setup parameters for call to function AT_HalUARTWrite
   \   000056   7C04         MOV     R4,#0x4
   \   000058   7D00         MOV     R5,#0x0
   \   00005A   7A..         MOV     R2,#`?<Constant "AT&F">` & 0xff
   \   00005C   7B..         MOV     R3,#(`?<Constant "AT&F">` >> 8) & 0xff
   \   00005E   7900         MOV     R1,#0x0
   \   000060   12....       LCALL   ??AT_HalUARTWrite?relay
   3386            for(i=0;i<AT_CMD_HELP_DESC_OFFSET-1;i++) AT_RESP(".",1);
   \   000063   7E0D         MOV     R6,#0xd
   \                     ??AT_Cmd_HELP_3:
   \   000065                ; Setup parameters for call to function AT_HalUARTWrite
   \   000065   12....       LCALL   ?Subroutine76 & 0xFFFF
   \                     ??CrossCallReturnLabel_116:
   \   000068   70FB         JNZ     ??AT_Cmd_HELP_3
   3387            AT_RESP("Restore Local Device's Factory Defaults",sizeof("Restore Local Device's Factory Defaults")-1);
   \   00006A                ; Setup parameters for call to function AT_HalUARTWrite
   \   00006A   7C27         MOV     R4,#0x27
   \   00006C   7D00         MOV     R5,#0x0
   \   00006E   7A..         MOV     R2,#`?<Constant "Restore Local Device\\'...">` & 0xff
   \   000070   7B..         MOV     R3,#(`?<Constant "Restore Local Device\\'...">` >> 8) & 0xff
   \   000072   12....       LCALL   ?Subroutine69 & 0xFFFF
   3388            AT_NEXT_LINE();
   3389            
   3390            AT_RESP("ATS",3);
   \                     ??CrossCallReturnLabel_102:
   \   000075   7A..         MOV     R2,#`?<Constant "ATS">` & 0xff
   \   000077   7B..         MOV     R3,#(`?<Constant "ATS">` >> 8) & 0xff
   \   000079   7900         MOV     R1,#0x0
   \   00007B   12....       LCALL   ??AT_HalUARTWrite?relay
   3391            for(i=0;i<AT_CMD_HELP_DESC_OFFSET;i++) AT_RESP(".",1);
   \   00007E   7E0E         MOV     R6,#0xe
   \                     ??AT_Cmd_HELP_4:
   \   000080                ; Setup parameters for call to function AT_HalUARTWrite
   \   000080   12....       LCALL   ?Subroutine76 & 0xFFFF
   \                     ??CrossCallReturnLabel_117:
   \   000083   70FB         JNZ     ??AT_Cmd_HELP_4
   3392            AT_RESP("S-Register Access ATSXX? / ATSXX=<data>",sizeof("S-Register Access ATSXX? / ATSXX=<data>")-1);
   \   000085                ; Setup parameters for call to function AT_HalUARTWrite
   \   000085   7C27         MOV     R4,#0x27
   \   000087   7D00         MOV     R5,#0x0
   \   000089   7A..         MOV     R2,#`?<Constant "S-Register Access ATS...">` & 0xff
   \   00008B   7B..         MOV     R3,#(`?<Constant "S-Register Access ATS...">` >> 8) & 0xff
   \   00008D   7900         MOV     R1,#0x0
   \   00008F   12....       LCALL   ??AT_HalUARTWrite?relay
   3393            
   3394            for(i=0;i<sizeof(AT_Cmd_Arr)/sizeof(AT_Cmd_Arr[0]) - AT_CMD_HELP_DESC_OMIT;i++){
   \   000092   7E00         MOV     R6,#0x0
   3395              uint8 j;
   3396              AT_NEXT_LINE();
   \                     ??AT_Cmd_HELP_5:
   \   000094                ; Setup parameters for call to function AT_HalUARTWrite
   \   000094   12....       LCALL   ?Subroutine74 & 0xFFFF
   3397              AT_RESP("AT+",3);
   \                     ??CrossCallReturnLabel_333:
   \   000097   7A..         MOV     R2,#`?<Constant "AT+">` & 0xff
   \   000099   7B..         MOV     R3,#(`?<Constant "AT+">` >> 8) & 0xff
   \   00009B   7900         MOV     R1,#0x0
   \   00009D   12....       LCALL   ??AT_HalUARTWrite?relay
   \   0000A0   12....       LCALL   ?Subroutine77 & 0xFFFF
   \                     ??CrossCallReturnLabel_556:
   \   0000A3   F5..         MOV     ?V0 + 0,A
   \   0000A5   A3           INC     DPTR
   \   0000A6   E0           MOVX    A,@DPTR
   \   0000A7   F5..         MOV     ?V0 + 1,A
   \   0000A9                ; Setup parameters for call to function AT_strLen
   \   0000A9   AA..         MOV     R2,?V0 + 0
   \   0000AB   FB           MOV     R3,A
   3398              AT_RESP(AT_Cmd_Arr[i].AT_Cmd_str,AT_strLen(AT_Cmd_Arr[i].AT_Cmd_str));
   \   0000AC   12....       LCALL   ??AT_strLen?relay
   \   0000AF   E9           MOV     A,R1
   \   0000B0                ; Setup parameters for call to function AT_HalUARTWrite
   \   0000B0   FC           MOV     R4,A
   \   0000B1   7D00         MOV     R5,#0x0
   \   0000B3   AA..         MOV     R2,?V0 + 0
   \   0000B5   AB..         MOV     R3,?V0 + 1
   \   0000B7   7900         MOV     R1,#0x0
   \   0000B9   12....       LCALL   ??AT_HalUARTWrite?relay
   3399              for(j=0;j<AT_CMD_HELP_DESC_OFFSET-AT_strLen(AT_Cmd_Arr[i].AT_Cmd_str);j++) AT_RESP(".",1);
   \   0000BC   75..00       MOV     ?V0 + 2,#0x0
   \   0000BF   800F         SJMP    ??AT_Cmd_HELP_6
   \                     ??AT_Cmd_HELP_7:
   \   0000C1                ; Setup parameters for call to function AT_HalUARTWrite
   \   0000C1   7C01         MOV     R4,#0x1
   \   0000C3   7D00         MOV     R5,#0x0
   \   0000C5   7A..         MOV     R2,#`?<Constant ".">` & 0xff
   \   0000C7   7B..         MOV     R3,#(`?<Constant ".">` >> 8) & 0xff
   \   0000C9   7900         MOV     R1,#0x0
   \   0000CB   12....       LCALL   ??AT_HalUARTWrite?relay
   \   0000CE   05..         INC     ?V0 + 2
   \                     ??AT_Cmd_HELP_6:
   \   0000D0   85....       MOV     ?V0 + 0,?V0 + 2
   \   0000D3                ; Setup parameters for call to function AT_strLen
   \   0000D3   12....       LCALL   ?Subroutine77 & 0xFFFF
   \                     ??CrossCallReturnLabel_557:
   \   0000D6   FA           MOV     R2,A
   \   0000D7   A3           INC     DPTR
   \   0000D8   E0           MOVX    A,@DPTR
   \   0000D9   FB           MOV     R3,A
   \   0000DA   12....       LCALL   ??AT_strLen?relay
   \   0000DD   E9           MOV     A,R1
   \   0000DE   F8           MOV     R0,A
   \   0000DF   740E         MOV     A,#0xe
   \   0000E1   C3           CLR     C
   \   0000E2   98           SUBB    A,R0
   \   0000E3   F8           MOV     R0,A
   \   0000E4   95E0         SUBB    A,0xE0 /* A   */
   \   0000E6   12....       LCALL   ?Subroutine96 & 0xFFFF
   \                     ??CrossCallReturnLabel_154:
   \   0000E9   40D6         JC      ??AT_Cmd_HELP_7
   3400              printf(AT_Cmd_Arr[i].description_str);
   \   0000EB                ; Setup parameters for call to function printf
   \   0000EB   EE           MOV     A,R6
   \   0000EC   75F006       MOV     B,#0x6
   \   0000EF   A4           MUL     AB
   \   0000F0   F8           MOV     R0,A
   \   0000F1   A9F0         MOV     R1,B
   \   0000F3   74..         MOV     A,#(AT_Cmd_Arr + 4) & 0xff
   \   0000F5   28           ADD     A,R0
   \   0000F6   F582         MOV     DPL,A
   \   0000F8   74..         MOV     A,#((AT_Cmd_Arr + 4) >> 8) & 0xff
   \   0000FA   39           ADDC    A,R1
   \   0000FB   F583         MOV     DPH,A
   \   0000FD   12....       LCALL   ?Subroutine44 & 0xFFFF
   3401            }
   \                     ??CrossCallReturnLabel_51:
   \   000100   0E           INC     R6
   \   000101   EE           MOV     A,R6
   \   000102   C3           CLR     C
   \   000103   9433         SUBB    A,#0x33
   \   000105   408D         JC      ??AT_Cmd_HELP_5
   3402            AT_RESP_END();
   \   000107                ; Setup parameters for call to function AT_HalUARTWrite
   \   000107   12....       LCALL   ?Subroutine68 & 0xFFFF
   3403            AT_OK(); 
   3404            
   3405          }
   \                     ??CrossCallReturnLabel_397:
   \   00010A   02....       LJMP    ?Subroutine18 & 0xFFFF

   \                                 In  segment BANKED_CODE, align 1, keep-with-next
   \                     ?Subroutine77:
   \   000000   EE           MOV     A,R6
   \   000001   75F006       MOV     B,#0x6
   \   000004   A4           MUL     AB
   \   000005   F8           MOV     R0,A
   \   000006   A9F0         MOV     R1,B
   \   000008                REQUIRE ??Subroutine212_0
   \   000008                ; // Fall through to label ??Subroutine212_0

   \                                 In  segment BANKED_CODE, align 1, keep-with-next
   \                     ?Subroutine76:
   \   000000   7C01         MOV     R4,#0x1
   \   000002   7D00         MOV     R5,#0x0
   \   000004   7A..         MOV     R2,#`?<Constant ".">` & 0xff
   \   000006   7B..         MOV     R3,#(`?<Constant ".">` >> 8) & 0xff
   \   000008   7900         MOV     R1,#0x0
   \   00000A   12....       LCALL   ??AT_HalUARTWrite?relay
   \   00000D   1E           DEC     R6
   \   00000E   EE           MOV     A,R6
   \   00000F   22           RET

   \                                 In  segment BANKED_CODE, align 1, keep-with-next
   \                     ?Subroutine69:
   \   000000   12....       LCALL   ?Subroutine145 & 0xFFFF
   \                     ??CrossCallReturnLabel_280:
   \   000003                ; Setup parameters for call to function AT_HalUARTWrite
   \   000003                ; Setup parameters for call to function AT_HalUARTWrite
   \   000003   7C03         MOV     R4,#0x3
   \   000005   7D00         MOV     R5,#0x0
   \   000007   22           RET
   3406          

   \                                 In  segment BANKED_CODE, align 1, keep-with-next
   3407          void AT_Cmd_TEST(uint8 start_point, uint8* msg){
   \                     AT_Cmd_TEST:
   \   000000   74F4         MOV     A,#-0xc
   \   000002   12....       LCALL   ?BANKED_ENTER_XDATA
   \   000005                ; Saved register size: 12
   \   000005                ; Auto size: 16
   \   000005   74F0         MOV     A,#-0x10
   \   000007   12....       LCALL   ?ALLOC_XSTACK8
   3408            AT_CmdUnit cmdUnitArr[1];
   3409            start_point = AT_get_next_cmdUnit(&cmdUnitArr[0],start_point, msg);
   \   00000A                ; Setup parameters for call to function AT_get_next_cmdUnit
   \   00000A   12....       LCALL   ?Subroutine97 & 0xFFFF
   3410            AT_PARSE_CMD_PATTERN_ERROR("\r",cmdUnitArr); 
   \                     ??CrossCallReturnLabel_164:
   \   00000D   7078         JNZ     ??AT_Cmd_TEST_0
   \   00000F                ; Setup parameters for call to function AT_UARTWriteErrMsg
   3411            
   3412            
   3413            afAddrType_t dstAddr;
   3414            dstAddr.endPoint = 4;
   \   00000F   740D         MOV     A,#0xd
   \   000011   12....       LCALL   ?XSTACK_DISP0_8
   \   000014   7404         MOV     A,#0x4
   \   000016   F0           MOVX    @DPTR,A
   3415            dstAddr.addr.shortAddr =0;
   \   000017   12....       LCALL   ?XSTACK_DISP0_8
   \   00001A   E4           CLR     A
   \   00001B   F0           MOVX    @DPTR,A
   \   00001C   A3           INC     DPTR
   \   00001D   F0           MOVX    @DPTR,A
   3416            //dstAddr.panId =2016;//0;
   3417            dstAddr.addrMode = (afAddrMode_t)Addr16Bit;  
   \   00001E   740C         MOV     A,#0xc
   \   000020   12....       LCALL   ?XSTACK_DISP0_8
   \   000023   7402         MOV     A,#0x2
   \   000025   F0           MOVX    @DPTR,A
   3418            
   3419            zclReadCmd_t* readCmd = (zclReadCmd_t*) osal_mem_alloc(1+2*3 );
   \   000026                ; Setup parameters for call to function osal_mem_alloc
   \   000026   7A07         MOV     R2,#0x7
   \   000028   7B00         MOV     R3,#0x0
   \   00002A   12....       LCALL   ??osal_mem_alloc?relay
   \   00002D   8A..         MOV     ?V0 + 0,R2
   \   00002F   8B..         MOV     ?V0 + 1,R3
   3420            readCmd->numAttr=3;
   \   000031   8A82         MOV     DPL,R2
   \   000033   8B83         MOV     DPH,R3
   \   000035   7403         MOV     A,#0x3
   \   000037   F0           MOVX    @DPTR,A
   3421            readCmd->attrID[0] = ATTRID_BASIC_MANUFACTURER_NAME;
   \   000038   A3           INC     DPTR
   \   000039   04           INC     A
   \   00003A   12....       LCALL   ?Subroutine23 & 0xFFFF
   3422            readCmd->attrID[1] = ATTRID_BASIC_MODEL_ID;
   \                     ??CrossCallReturnLabel_11:
   \   00003D   7405         MOV     A,#0x5
   \   00003F   12....       LCALL   ?Subroutine23 & 0xFFFF
   3423            readCmd->attrID[2] = ATTRID_BASIC_DATE_CODE;
   \                     ??CrossCallReturnLabel_12:
   \   000042   A3           INC     DPTR
   \   000043   A3           INC     DPTR
   \   000044   7406         MOV     A,#0x6
   \   000046   12....       LCALL   ??Subroutine210_0 & 0xFFFF
   3424           
   3425            uint8 state;
   3426            state = zcl_SendRead( 4, &dstAddr,
   3427                                          ZCL_CLUSTER_ID_GEN_BASIC, readCmd,
   3428                                         ZCL_FRAME_CLIENT_SERVER_DIR, 0, 1);
   \                     ??CrossCallReturnLabel_537:
   \   000049                ; Setup parameters for call to function zcl_SendRead
   \   000049   75..01       MOV     ?V0 + 2,#0x1
   \   00004C   78..         MOV     R0,#?V0 + 2
   \   00004E   12....       LCALL   ?PUSH_XSTACK_I_ONE
   \   000051   75..00       MOV     ?V0 + 2,#0x0
   \   000054   78..         MOV     R0,#?V0 + 2
   \   000056   12....       LCALL   ?PUSH_XSTACK_I_ONE
   \   000059   78..         MOV     R0,#?V0 + 2
   \   00005B   12....       LCALL   ?PUSH_XSTACK_I_ONE
   \   00005E   78..         MOV     R0,#?V0 + 0
   \   000060   12....       LCALL   ?PUSH_XSTACK_I_TWO
   \   000063   7C00         MOV     R4,#0x0
   \   000065   7D00         MOV     R5,#0x0
   \   000067   7409         MOV     A,#0x9
   \   000069   12....       LCALL   ?XSTACK_DISP0_8
   \   00006C   AA82         MOV     R2,DPL
   \   00006E   AB83         MOV     R3,DPH
   \   000070   7904         MOV     R1,#0x4
   \   000072   12....       LCALL   ??zcl_SendRead?relay
   \   000075   7405         MOV     A,#0x5
   \   000077   12....       LCALL   ?DEALLOC_XSTACK8
   \   00007A   E9           MOV     A,R1
   \   00007B   FF           MOV     R7,A
   3429            osal_mem_free(readCmd);
   \   00007C                ; Setup parameters for call to function osal_mem_free
   \   00007C   AA..         MOV     R2,?V0 + 0
   \   00007E   AB..         MOV     R3,?V0 + 1
   \   000080   12....       LCALL   ??osal_mem_free?relay
   3430            if(state!=afStatus_SUCCESS) AT_ERROR(state);
   \   000083   EF           MOV     A,R7
   \   000084   6004         JZ      ??AT_Cmd_TEST_1
   \   000086                ; Setup parameters for call to function AT_UARTWriteErrMsg
   \   000086   F9           MOV     R1,A
   \                     ??AT_Cmd_TEST_0:
   \   000087   12....       LCALL   ??AT_UARTWriteErrMsg?relay
   \                     ??AT_Cmd_TEST_1:
   \   00008A   02....       LJMP    ?Subroutine15 & 0xFFFF
   3431            /*
   3432            uint16 buf[]={ATTRID_DEV_TEMP_CURRENT};
   3433            uint8 state;
   3434            state = zcl_SendCommand( 4, &dstAddr, ZCL_CLUSTER_ID_GEN_DEVICE_TEMP_CONFIG, ZCL_CMD_READ, FALSE,
   3435                                        ZCL_FRAME_CLIENT_SERVER_DIR,0, 0, 0, 2, (uint8*) buf );
   3436            if(state!=afStatus_SUCCESS) AT_ERROR(state);
   3437            else AT_OK();
   3438            */
   3439            
   3440          /* 
   3441            AT_RESP_START();
   3442            char str[20];
   3443            AT_Int8toChar(_NIB.nwkState,str);
   3444            AT_RESP(str,2);
   3445            AT_RESP_END(); 
   3446            AT_OK();
   3447            
   3448            typedef enum
   3449          {
   3450            NWK_INIT,
   3451            NWK_JOINING_ORPHAN,
   3452            NWK_DISC,
   3453            NWK_JOINING,
   3454            NWK_ENDDEVICE,
   3455            PAN_CHNL_SELECTION,
   3456            PAN_CHNL_VERIFY,
   3457            PAN_STARTING,
   3458            NWK_ROUTER,
   3459            NWK_REJOINING
   3460          } nwk_states_t;*/
   3461            
   3462           /* // Capability Information Field Bitmap values
   3463          #define CAPINFO_ALTPANCOORD           0x01
   3464          #define CAPINFO_DEVICETYPE_FFD        0x02
   3465          #define CAPINFO_DEVICETYPE_RFD        0x00
   3466          #define CAPINFO_POWER_AC              0x04
   3467          #define CAPINFO_RCVR_ON_IDLE          0x08
   3468          #define CAPINFO_SECURITY_CAPABLE      0x40
   3469          #define CAPINFO_ALLOC_ADDR            0x80
   3470            */
   3471            
   3472          
   3473            
   3474          }

   \                                 In  segment BANKED_CODE, align 1, keep-with-next
   \                     ?Subroutine23:
   \   000000   F0           MOVX    @DPTR,A
   \   000001   A3           INC     DPTR
   \   000002   E4           CLR     A
   \   000003   F0           MOVX    @DPTR,A
   \   000004   8A82         MOV     DPL,R2
   \   000006   8B83         MOV     DPH,R3
   \   000008   A3           INC     DPTR
   \   000009   A3           INC     DPTR
   \   00000A   A3           INC     DPTR
   \   00000B   22           RET

   \                                 In  segment XDATA_ID, align 1, keep-with-next
   \                     `?<Initializer for Revision>`:
   \   000000   ....         DW `?<Constant "Private Revision:3.1 ...">`

   \                                 In  segment BANK_RELAYS, align 1
   \                     ??AT_UartInit?relay:
   \   000000   12....       LCALL   ?BDISPATCH
   \   000003   ......       DC24    AT_UartInit

   \                                 In  segment BANK_RELAYS, align 1
   \                     ??AT_UartProcess?relay:
   \   000000   12....       LCALL   ?BDISPATCH
   \   000003   ......       DC24    AT_UartProcess

   \                                 In  segment BANK_RELAYS, align 1
   \                     ??AT_UartCalcFCS?relay:
   \   000000   12....       LCALL   ?BDISPATCH
   \   000003   ......       DC24    AT_UartCalcFCS

   \                                 In  segment BANK_RELAYS, align 1
   \                     ??AT_UARTWriteErrMsg?relay:
   \   000000   12....       LCALL   ?BDISPATCH
   \   000003   ......       DC24    AT_UARTWriteErrMsg

   \                                 In  segment BANK_RELAYS, align 1
   \                     ??AT_HalUARTWrite?relay:
   \   000000   12....       LCALL   ?BDISPATCH
   \   000003   ......       DC24    AT_HalUARTWrite

   \                                 In  segment BANK_RELAYS, align 1
   \                     ??AT_clear_AT_SYSTEM_NVs?relay:
   \   000000   12....       LCALL   ?BDISPATCH
   \   000003   ......       DC24    AT_clear_AT_SYSTEM_NVs

   \                                 In  segment BANK_RELAYS, align 1
   \                     ??AT_is_CMD_EPs?relay:
   \   000000   12....       LCALL   ?BDISPATCH
   \   000003   ......       DC24    AT_is_CMD_EPs

   \                                 In  segment BANK_RELAYS, align 1
   \                     ??AT_NV_ZCL_saveEPStatus?relay:
   \   000000   12....       LCALL   ?BDISPATCH
   \   000003   ......       DC24    AT_NV_ZCL_saveEPStatus

   \                                 In  segment BANK_RELAYS, align 1
   \                     ??AT_NV_ZCL_readEPStatus?relay:
   \   000000   12....       LCALL   ?BDISPATCH
   \   000003   ......       DC24    AT_NV_ZCL_readEPStatus

   \                                 In  segment BANK_RELAYS, align 1
   \                     ??AT_NV_ZCL_get_index_?relay:
   \   000000   12....       LCALL   ?BDISPATCH
   \   000003   ......       DC24    AT_NV_ZCL_get_index_

   \                                 In  segment BANK_RELAYS, align 1
   \                     ??AT_EUI64toChar?relay:
   \   000000   12....       LCALL   ?BDISPATCH
   \   000003   ......       DC24    AT_EUI64toChar

   \                                 In  segment BANK_RELAYS, align 1
   \                     ??AT_Int16toChar?relay:
   \   000000   12....       LCALL   ?BDISPATCH
   \   000003   ......       DC24    AT_Int16toChar

   \                                 In  segment BANK_RELAYS, align 1
   \                     ??AT_Int8toChar?relay:
   \   000000   12....       LCALL   ?BDISPATCH
   \   000003   ......       DC24    AT_Int8toChar

   \                                 In  segment BANK_RELAYS, align 1
   \                     ??_AT_ChartoInt?relay:
   \   000000   12....       LCALL   ?BDISPATCH
   \   000003   ......       DC24    _AT_ChartoInt

   \                                 In  segment BANK_RELAYS, align 1
   \                     ??AT_ChartoInt8?relay:
   \   000000   12....       LCALL   ?BDISPATCH
   \   000003   ......       DC24    AT_ChartoInt8

   \                                 In  segment BANK_RELAYS, align 1
   \                     ??AT_ChartoInt16?relay:
   \   000000   12....       LCALL   ?BDISPATCH
   \   000003   ......       DC24    AT_ChartoInt16

   \                                 In  segment BANK_RELAYS, align 1
   \                     ??AT_capitalizeCmd?relay:
   \   000000   12....       LCALL   ?BDISPATCH
   \   000003   ......       DC24    AT_capitalizeCmd

   \                                 In  segment BANK_RELAYS, align 1
   \                     ??AT_sort_arr?relay:
   \   000000   12....       LCALL   ?BDISPATCH
   \   000003   ......       DC24    AT_sort_arr

   \                                 In  segment BANK_RELAYS, align 1
   \                     ??AT_ChartoIntx?relay:
   \   000000   12....       LCALL   ?BDISPATCH
   \   000003   ......       DC24    AT_ChartoIntx

   \                                 In  segment BANK_RELAYS, align 1
   \                     ??AT_get_smap_index?relay:
   \   000000   12....       LCALL   ?BDISPATCH
   \   000003   ......       DC24    AT_get_smap_index

   \                                 In  segment BANK_RELAYS, align 1
   \                     ??AT_get_next_cmdUnit?relay:
   \   000000   12....       LCALL   ?BDISPATCH
   \   000003   ......       DC24    AT_get_next_cmdUnit

   \                                 In  segment BANK_RELAYS, align 1
   \                     ??AT_CmpCmd?relay:
   \   000000   12....       LCALL   ?BDISPATCH
   \   000003   ......       DC24    AT_CmpCmd

   \                                 In  segment BANK_RELAYS, align 1
   \                     ??AT_strLen?relay:
   \   000000   12....       LCALL   ?BDISPATCH
   \   000003   ......       DC24    AT_strLen

   \                                 In  segment BANK_RELAYS, align 1
   \                     ??AT_HandleCMD?relay:
   \   000000   12....       LCALL   ?BDISPATCH
   \   000003   ......       DC24    AT_HandleCMD

   \                                 In  segment BANK_RELAYS, align 1
   \                     ??AT_pattern_check?relay:
   \   000000   12....       LCALL   ?BDISPATCH
   \   000003   ......       DC24    AT_pattern_check

   \                                 In  segment BANK_RELAYS, align 1
   \                     ??AT_Cmd_RONOFF?relay:
   \   000000   12....       LCALL   ?BDISPATCH
   \   000003   ......       DC24    AT_Cmd_RONOFF

   \                                 In  segment BANK_RELAYS, align 1
   \                     ??AT_Cmd_RONOFF1?relay:
   \   000000   12....       LCALL   ?BDISPATCH
   \   000003   ......       DC24    AT_Cmd_RONOFF1

   \                                 In  segment BANK_RELAYS, align 1
   \                     ??AT_Cmd_ATI?relay:
   \   000000   12....       LCALL   ?BDISPATCH
   \   000003   ......       DC24    AT_Cmd_ATI

   \                                 In  segment BANK_RELAYS, align 1
   \                     ??AT_Cmd_ATZ?relay:
   \   000000   12....       LCALL   ?BDISPATCH
   \   000003   ......       DC24    AT_Cmd_ATZ

   \                                 In  segment BANK_RELAYS, align 1
   \                     ??AT_Cmd_AT_F?relay:
   \   000000   12....       LCALL   ?BDISPATCH
   \   000003   ......       DC24    AT_Cmd_AT_F

   \                                 In  segment BANK_RELAYS, align 1
   \                     ??AT_Cmd_EPENABLE?relay:
   \   000000   12....       LCALL   ?BDISPATCH
   \   000003   ......       DC24    AT_Cmd_EPENABLE

   \                                 In  segment BANK_RELAYS, align 1
   \                     ??AT_Cmd_REPENABLE?relay:
   \   000000   12....       LCALL   ?BDISPATCH
   \   000003   ......       DC24    AT_Cmd_REPENABLE

   \                                 In  segment BANK_RELAYS, align 1
   \                     ??AT_Cmd_EPPRINT?relay:
   \   000000   12....       LCALL   ?BDISPATCH
   \   000003   ......       DC24    AT_Cmd_EPPRINT

   \                                 In  segment BANK_RELAYS, align 1
   \                     ??AT_Cmd_REPPRINT?relay:
   \   000000   12....       LCALL   ?BDISPATCH
   \   000003   ......       DC24    AT_Cmd_REPPRINT

   \                                 In  segment BANK_RELAYS, align 1
   \                     ??AT_Cmd_ATS?relay:
   \   000000   12....       LCALL   ?BDISPATCH
   \   000003   ......       DC24    AT_Cmd_ATS

   \                                 In  segment BANK_RELAYS, align 1
   \                     ??AT_Cmd_LONOFF?relay:
   \   000000   12....       LCALL   ?BDISPATCH
   \   000003   ......       DC24    AT_Cmd_LONOFF

   \                                 In  segment BANK_RELAYS, align 1
   \                     ??AT_Cmd_ESCAN1?relay:
   \   000000   12....       LCALL   ?BDISPATCH
   \   000003   ......       DC24    AT_Cmd_ESCAN1

   \                                 In  segment BANK_RELAYS, align 1
   \                     ??AT_Cmd_ESCANCB?relay:
   \   000000   12....       LCALL   ?BDISPATCH
   \   000003   ......       DC24    AT_Cmd_ESCANCB

   \                                 In  segment BANK_RELAYS, align 1
   \                     ??AT_Cmd_ESCAN?relay:
   \   000000   12....       LCALL   ?BDISPATCH
   \   000003   ......       DC24    AT_Cmd_ESCAN

   \                                 In  segment BANK_RELAYS, align 1
   \                     ??AT_Cmd_PANSCAN?relay:
   \   000000   12....       LCALL   ?BDISPATCH
   \   000003   ......       DC24    AT_Cmd_PANSCAN

   \                                 In  segment BANK_RELAYS, align 1
   \                     ??AT_Cmd_N?relay:
   \   000000   12....       LCALL   ?BDISPATCH
   \   000003   ......       DC24    AT_Cmd_N

   \                                 In  segment BANK_RELAYS, align 1
   \                     ??AT_Cmd_INITNV?relay:
   \   000000   12....       LCALL   ?BDISPATCH
   \   000003   ......       DC24    AT_Cmd_INITNV

   \                                 In  segment BANK_RELAYS, align 1
   \                     ??AT_Cmd_STP?relay:
   \   000000   12....       LCALL   ?BDISPATCH
   \   000003   ......       DC24    AT_Cmd_STP

   \                                 In  segment BANK_RELAYS, align 1
   \                     ??AT_Cmd_GTP?relay:
   \   000000   12....       LCALL   ?BDISPATCH
   \   000003   ......       DC24    AT_Cmd_GTP

   \                                 In  segment BANK_RELAYS, align 1
   \                     ??AT_Cmd_RSSIREQ?relay:
   \   000000   12....       LCALL   ?BDISPATCH
   \   000003   ......       DC24    AT_Cmd_RSSIREQ

   \                                 In  segment BANK_RELAYS, align 1
   \                     ??AT_Cmd_PSEXP?relay:
   \   000000   12....       LCALL   ?BDISPATCH
   \   000003   ......       DC24    AT_Cmd_PSEXP

   \                                 In  segment BANK_RELAYS, align 1
   \                     ??AT_Cmd_SPSEXP?relay:
   \   000000   12....       LCALL   ?BDISPATCH
   \   000003   ......       DC24    AT_Cmd_SPSEXP

   \                                 In  segment BANK_RELAYS, align 1
   \                     ??AT_Cmd_R?relay:
   \   000000   12....       LCALL   ?BDISPATCH
   \   000003   ......       DC24    AT_Cmd_R

   \                                 In  segment BANK_RELAYS, align 1
   \                     ??AT_Cmd_READNV?relay:
   \   000000   12....       LCALL   ?BDISPATCH
   \   000003   ......       DC24    AT_Cmd_READNV

   \                                 In  segment BANK_RELAYS, align 1
   \                     ??AT_Cmd_WRITENV?relay:
   \   000000   12....       LCALL   ?BDISPATCH
   \   000003   ......       DC24    AT_Cmd_WRITENV

   \                                 In  segment BANK_RELAYS, align 1
   \                     ??AT_Cmd_IDREQ?relay:
   \   000000   12....       LCALL   ?BDISPATCH
   \   000003   ......       DC24    AT_Cmd_IDREQ

   \                                 In  segment BANK_RELAYS, align 1
   \                     ??AT_Cmd_EUIREQ?relay:
   \   000000   12....       LCALL   ?BDISPATCH
   \   000003   ......       DC24    AT_Cmd_EUIREQ

   \                                 In  segment BANK_RELAYS, align 1
   \                     ??AT_Cmd_EN?relay:
   \   000000   12....       LCALL   ?BDISPATCH
   \   000003   ......       DC24    AT_Cmd_EN

   \                                 In  segment BANK_RELAYS, align 1
   \                     ??AT_Cmd_DASSL?relay:
   \   000000   12....       LCALL   ?BDISPATCH
   \   000003   ......       DC24    AT_Cmd_DASSL

   \                                 In  segment BANK_RELAYS, align 1
   \                     ??AT_Cmd_DASSR?relay:
   \   000000   12....       LCALL   ?BDISPATCH
   \   000003   ......       DC24    AT_Cmd_DASSR

   \                                 In  segment BANK_RELAYS, align 1
   \                     ??AT_Cmd_PJOIN?relay:
   \   000000   12....       LCALL   ?BDISPATCH
   \   000003   ......       DC24    AT_Cmd_PJOIN

   \                                 In  segment BANK_RELAYS, align 1
   \                     ??AT_Cmd_JPAN?relay:
   \   000000   12....       LCALL   ?BDISPATCH
   \   000003   ......       DC24    AT_Cmd_JPAN

   \                                 In  segment BANK_RELAYS, align 1
   \                     ??AT_Cmd_JN?relay:
   \   000000   12....       LCALL   ?BDISPATCH
   \   000003   ......       DC24    AT_Cmd_JN

   \                                 In  segment BANK_RELAYS, align 1
   \                     ??AT_Cmd_NTABLE?relay:
   \   000000   12....       LCALL   ?BDISPATCH
   \   000003   ......       DC24    AT_Cmd_NTABLE

   \                                 In  segment BANK_RELAYS, align 1
   \                     ??AT_Cmd_RTABLE?relay:
   \   000000   12....       LCALL   ?BDISPATCH
   \   000003   ......       DC24    AT_Cmd_RTABLE

   \                                 In  segment BANK_RELAYS, align 1
   \                     ??AT_Cmd_NODEDESC?relay:
   \   000000   12....       LCALL   ?BDISPATCH
   \   000003   ......       DC24    AT_Cmd_NODEDESC

   \                                 In  segment BANK_RELAYS, align 1
   \                     ??AT_Cmd_POWERDESC?relay:
   \   000000   12....       LCALL   ?BDISPATCH
   \   000003   ......       DC24    AT_Cmd_POWERDESC

   \                                 In  segment BANK_RELAYS, align 1
   \                     ??AT_Cmd_ACTEPDESC?relay:
   \   000000   12....       LCALL   ?BDISPATCH
   \   000003   ......       DC24    AT_Cmd_ACTEPDESC

   \                                 In  segment BANK_RELAYS, align 1
   \                     ??AT_Cmd_SIMPLEDESC?relay:
   \   000000   12....       LCALL   ?BDISPATCH
   \   000003   ......       DC24    AT_Cmd_SIMPLEDESC

   \                                 In  segment BANK_RELAYS, align 1
   \                     ??AT_Cmd_MATCHREQ?relay:
   \   000000   12....       LCALL   ?BDISPATCH
   \   000003   ......       DC24    AT_Cmd_MATCHREQ

   \                                 In  segment BANK_RELAYS, align 1
   \                     ??AT_Cmd_ANNCE?relay:
   \   000000   12....       LCALL   ?BDISPATCH
   \   000003   ......       DC24    AT_Cmd_ANNCE

   \                                 In  segment BANK_RELAYS, align 1
   \                     ??AT_Cmd_ATABLE?relay:
   \   000000   12....       LCALL   ?BDISPATCH
   \   000003   ......       DC24    AT_Cmd_ATABLE

   \                                 In  segment BANK_RELAYS, align 1
   \                     ??AT_Cmd_LBTABLE?relay:
   \   000000   12....       LCALL   ?BDISPATCH
   \   000003   ......       DC24    AT_Cmd_LBTABLE

   \                                 In  segment BANK_RELAYS, align 1
   \                     ??AT_Cmd_BSET?relay:
   \   000000   12....       LCALL   ?BDISPATCH
   \   000003   ......       DC24    AT_Cmd_BSET

   \                                 In  segment BANK_RELAYS, align 1
   \                     ??AT_Cmd_BCLR?relay:
   \   000000   12....       LCALL   ?BDISPATCH
   \   000003   ......       DC24    AT_Cmd_BCLR

   \                                 In  segment BANK_RELAYS, align 1
   \                     ??AT_Cmd_BTABLE?relay:
   \   000000   12....       LCALL   ?BDISPATCH
   \   000003   ......       DC24    AT_Cmd_BTABLE

   \                                 In  segment BANK_RELAYS, align 1
   \                     ??AT_Cmd_BIND?relay:
   \   000000   12....       LCALL   ?BDISPATCH
   \   000003   ......       DC24    AT_Cmd_BIND

   \                                 In  segment BANK_RELAYS, align 1
   \                     ??AT_Cmd_UNBIND?relay:
   \   000000   12....       LCALL   ?BDISPATCH
   \   000003   ......       DC24    AT_Cmd_UNBIND

   \                                 In  segment BANK_RELAYS, align 1
   \                     ??AT_Cmd_EBIND?relay:
   \   000000   12....       LCALL   ?BDISPATCH
   \   000003   ......       DC24    AT_Cmd_EBIND

   \                                 In  segment BANK_RELAYS, align 1
   \                     ??AT_Cmd_CLEARBIND?relay:
   \   000000   12....       LCALL   ?BDISPATCH
   \   000003   ......       DC24    AT_Cmd_CLEARBIND

   \                                 In  segment BANK_RELAYS, align 1
   \                     ??AT_Cmd_READATR?relay:
   \   000000   12....       LCALL   ?BDISPATCH
   \   000003   ......       DC24    AT_Cmd_READATR

   \                                 In  segment BANK_RELAYS, align 1
   \                     ??AT_Cmd_WRITEATR?relay:
   \   000000   12....       LCALL   ?BDISPATCH
   \   000003   ......       DC24    AT_Cmd_WRITEATR

   \                                 In  segment BANK_RELAYS, align 1
   \                     ??AT_Cmd_DISCOVER?relay:
   \   000000   12....       LCALL   ?BDISPATCH
   \   000003   ......       DC24    AT_Cmd_DISCOVER

   \                                 In  segment BANK_RELAYS, align 1
   \                     ??AT_Cmd_CLUSDISC?relay:
   \   000000   12....       LCALL   ?BDISPATCH
   \   000003   ......       DC24    AT_Cmd_CLUSDISC

   \                                 In  segment BANK_RELAYS, align 1
   \                     ??AT_Cmd_ATTRDISC?relay:
   \   000000   12....       LCALL   ?BDISPATCH
   \   000003   ......       DC24    AT_Cmd_ATTRDISC

   \                                 In  segment BANK_RELAYS, align 1
   \                     ??AT_Cmd_IDENTIFY?relay:
   \   000000   12....       LCALL   ?BDISPATCH
   \   000003   ......       DC24    AT_Cmd_IDENTIFY

   \                                 In  segment BANK_RELAYS, align 1
   \                     ??AT_Cmd_IDQUERY?relay:
   \   000000   12....       LCALL   ?BDISPATCH
   \   000003   ......       DC24    AT_Cmd_IDQUERY

   \                                 In  segment BANK_RELAYS, align 1
   \                     ??AT_Cmd_HELP?relay:
   \   000000   12....       LCALL   ?BDISPATCH
   \   000003   ......       DC24    AT_Cmd_HELP

   \                                 In  segment BANK_RELAYS, align 1
   \                     ??AT_Cmd_TEST?relay:
   \   000000   12....       LCALL   ?BDISPATCH
   \   000003   ......       DC24    AT_Cmd_TEST

   \                                 In  segment XDATA_ROM_C, align 1
   \                     `?<Constant "Private Revision:3.1 ...">`:
   \   000000   50726976     DB "Private Revision:3.1 \012\015The New Stack"
   \            61746520
   \            52657669
   \            73696F6E
   \            3A332E31
   \            200A0D54
   \            6865204E
   \            65772053
   \            7461636B
   \            00      

   \                                 In  segment XDATA_ROM_C, align 1
   \                     `?<Constant "EPENABLE">`:
   \   000000   4550454E     DB "EPENABLE"
   \            41424C45
   \            00      

   \                                 In  segment XDATA_ROM_C, align 1
   \                     `?<Constant "Enable/Disable Local ...">`:
   \   000000   456E6162     DB 45H, 6EH, 61H, 62H, 6CH, 65H, 2FH, 44H
   \            6C652F44
   \   000008   69736162     DB 69H, 73H, 61H, 62H, 6CH, 65H, 20H, 4CH
   \            6C65204C
   \   000010   6F63616C     DB 6FH, 63H, 61H, 6CH, 20H, 45H, 6EH, 64H
   \            20456E64
   \   000018   706F696E     DB 70H, 6FH, 69H, 6EH, 74H, 20H, 45H, 50H
   \            74204550
   \   000020   454E4142     DB 45H, 4EH, 41H, 42H, 4CH, 45H, 3AH, 3CH
   \            4C453A3C
   \   000028   456E6162     DB 45H, 6EH, 61H, 62H, 6CH, 65H, 2FH, 44H
   \            6C652F44
   \   000030   69736162     DB 69H, 73H, 61H, 62H, 6CH, 65H, 3EH, 2CH
   \            6C653E2C
   \   000038   3C45503E     DB 3CH, 45H, 50H, 3EH, 0
   \            00      

   \                                 In  segment XDATA_ROM_C, align 1
   \                     `?<Constant "REPENABLE">`:
   \   000000   52455045     DB "REPENABLE"
   \            4E41424C
   \            4500    

   \                                 In  segment XDATA_ROM_C, align 1
   \                     `?<Constant "Enable/Disable Remote...">`:
   \   000000   456E6162     DB 45H, 6EH, 61H, 62H, 6CH, 65H, 2FH, 44H
   \            6C652F44
   \   000008   69736162     DB 69H, 73H, 61H, 62H, 6CH, 65H, 20H, 52H
   \            6C652052
   \   000010   656D6F74     DB 65H, 6DH, 6FH, 74H, 65H, 20H, 45H, 6EH
   \            6520456E
   \   000018   64706F69     DB 64H, 70H, 6FH, 69H, 6EH, 74H, 20H, 45H
   \            6E742045
   \   000020   50454E41     DB 50H, 45H, 4EH, 41H, 42H, 4CH, 45H, 3AH
   \            424C453A
   \   000028   5B3C6E6F     DB 5BH, 3CH, 6EH, 6FH, 64H, 65H, 49H, 44H
   \            64654944
   \   000030   3E5D2C3C     DB 3EH, 5DH, 2CH, 3CH, 45H, 6EH, 61H, 62H
   \            456E6162
   \   000038   6C652F44     DB 6CH, 65H, 2FH, 44H, 69H, 73H, 61H, 62H
   \            69736162
   \   000040   6C653E2C     DB 6CH, 65H, 3EH, 2CH, 3CH, 45H, 50H, 3EH
   \            3C45503E
   \   000048   00           DB 0

   \                                 In  segment XDATA_ROM_C, align 1
   \                     `?<Constant "EPPRINT">`:
   \   000000   45505052     DB "EPPRINT"
   \            494E5400

   \                                 In  segment XDATA_ROM_C, align 1
   \                     `?<Constant "Print Local Endpoints...">`:
   \   000000   5072696E     DB "Print Local Endpoints Status"
   \            74204C6F
   \            63616C20
   \            456E6470
   \            6F696E74
   \            73205374
   \            61747573
   \            00      

   \                                 In  segment XDATA_ROM_C, align 1
   \                     `?<Constant "REPPRINT">`:
   \   000000   52455050     DB "REPPRINT"
   \            52494E54
   \            00      

   \                                 In  segment XDATA_ROM_C, align 1
   \                     `?<Constant "Print Remote Endpoint...">`:
   \   000000   5072696E     DB "Print Remote Endpoints Status REPPRIN:<noteID>"
   \            74205265
   \            6D6F7465
   \            20456E64
   \            706F696E
   \            74732053
   \            74617475
   \            73205245
   \            50505249
   \            4E3A3C6E
   \            6F746549
   \            443E00  

   \                                 In  segment XDATA_ROM_C, align 1
   \                     `?<Constant "LONOFF">`:
   \   000000   4C4F4E4F     DB "LONOFF"
   \            464600  

   \                                 In  segment XDATA_ROM_C, align 1
   \                     `?<Constant "Switch Local Device O...">`:
   \   000000   53776974     DB "Switch Local Device On/Off LONOFF:[ON/OFF]"
   \            6368204C
   \            6F63616C
   \            20446576
   \            69636520
   \            4F6E2F4F
   \            6666204C
   \            4F4E4F46
   \            463A5B4F
   \            4E2F4F46
   \            465D00  

   \                                 In  segment XDATA_ROM_C, align 1
   \                     `?<Constant "EN">`:
   \   000000   454E00       DB "EN"

   \                                 In  segment XDATA_ROM_C, align 1
   \                     `?<Constant "Establish Network EN:...">`:
   \   000000   45737461     DB 45H, 73H, 74H, 61H, 62H, 6CH, 69H, 73H
   \            626C6973
   \   000008   68204E65     DB 68H, 20H, 4EH, 65H, 74H, 77H, 6FH, 72H
   \            74776F72
   \   000010   6B20454E     DB 6BH, 20H, 45H, 4EH, 3AH, 5BH, 3CH, 63H
   \            3A5B3C63
   \   000018   68616E6E     DB 68H, 61H, 6EH, 6EH, 65H, 6CH, 3EH, 5DH
   \            656C3E5D
   \   000020   2C5B3C50     DB 2CH, 5BH, 3CH, 50H, 4FH, 57H, 45H, 52H
   \            4F574552
   \   000028   3E5D2C5B     DB 3EH, 5DH, 2CH, 5BH, 3CH, 50H, 41H, 4EH
   \            3C50414E
   \   000030   49443E5D     DB 49H, 44H, 3EH, 5DH, 0
   \            00      

   \                                 In  segment XDATA_ROM_C, align 1
   \                     `?<Constant "N">`:
   \   000000   4E00         DB "N"

   \                                 In  segment XDATA_ROM_C, align 1
   \                     `?<Constant "Display Network Infor...">`:
   \   000000   44697370     DB "Display Network Information"
   \            6C617920
   \            4E657477
   \            6F726B20
   \            496E666F
   \            726D6174
   \            696F6E00

   \                                 In  segment XDATA_ROM_C, align 1
   \                     `?<Constant "DASSL">`:
   \   000000   44415353     DB "DASSL"
   \            4C00    

   \                                 In  segment XDATA_ROM_C, align 1
   \                     `?<Constant "Disassociate Local De...">`:
   \   000000   44697361     DB "Disassociate Local Device From PAN cmmmand"
   \            73736F63
   \            69617465
   \            204C6F63
   \            616C2044
   \            65766963
   \            65204672
   \            6F6D2050
   \            414E2063
   \            6D6D6D61
   \            6E6400  

   \                                 In  segment XDATA_ROM_C, align 1
   \                     `?<Constant "DASSR">`:
   \   000000   44415353     DB "DASSR"
   \            5200    

   \                                 In  segment XDATA_ROM_C, align 1
   \                     `?<Constant "Disassociate Remote N...">`:
   \   000000   44697361     DB 44H, 69H, 73H, 61H, 73H, 73H, 6FH, 63H
   \            73736F63
   \   000008   69617465     DB 69H, 61H, 74H, 65H, 20H, 52H, 65H, 6DH
   \            2052656D
   \   000010   6F746520     DB 6FH, 74H, 65H, 20H, 4EH, 6FH, 64H, 65H
   \            4E6F6465
   \   000018   2066726F     DB 20H, 66H, 72H, 6FH, 6DH, 20H, 50H, 41H
   \            6D205041
   \   000020   4E204154     DB 4EH, 20H, 41H, 54H, 2BH, 44H, 41H, 53H
   \            2B444153
   \   000028   53523A3C     DB 53H, 52H, 3AH, 3CH, 61H, 64H, 64H, 72H
   \            61646472
   \   000030   6573733E     DB 65H, 73H, 73H, 3EH, 0
   \            00      

   \                                 In  segment XDATA_ROM_C, align 1
   \                     `?<Constant "ESCAN">`:
   \   000000   45534341     DB "ESCAN"
   \            4E00    

   \                                 In  segment XDATA_ROM_C, align 1
   \                     `?<Constant "Scan The Energy Of Al...">`:
   \   000000   5363616E     DB "Scan The Energy Of All Channels"
   \            20546865
   \            20456E65
   \            72677920
   \            4F662041
   \            6C6C2043
   \            68616E6E
   \            656C7300

   \                                 In  segment XDATA_ROM_C, align 1
   \                     `?<Constant "PANSCAN">`:
   \   000000   50414E53     DB "PANSCAN"
   \            43414E00

   \                                 In  segment XDATA_ROM_C, align 1
   \                     `?<Constant "Scan For Active PANs">`:
   \   000000   5363616E     DB "Scan For Active PANs"
   \            20466F72
   \            20416374
   \            69766520
   \            50414E73
   \            00      

   \                                 In  segment XDATA_ROM_C, align 1
   \                     `?<Constant "PJOIN">`:
   \   000000   504A4F49     DB "PJOIN"
   \            4E00    

   \                                 In  segment XDATA_ROM_C, align 1
   \                     `?<Constant "Permit joining cmmman...">`:
   \   000000   5065726D     DB "Permit joining cmmmand PJOIN:<sec>"
   \            6974206A
   \            6F696E69
   \            6E672063
   \            6D6D6D61
   \            6E642050
   \            4A4F494E
   \            3A3C7365
   \            633E00  

   \                                 In  segment XDATA_ROM_C, align 1
   \                     `?<Constant "JPAN">`:
   \   000000   4A50414E     DB "JPAN"
   \            00      

   \                                 In  segment XDATA_ROM_C, align 1
   \                     `?<Constant "Join Specific JPAN:[<...">`:
   \   000000   4A6F696E     DB 4AH, 6FH, 69H, 6EH, 20H, 53H, 70H, 65H
   \            20537065
   \   000008   63696669     DB 63H, 69H, 66H, 69H, 63H, 20H, 4AH, 50H
   \            63204A50
   \   000010   414E3A5B     DB 41H, 4EH, 3AH, 5BH, 3CH, 63H, 68H, 61H
   \            3C636861
   \   000018   6E6E656C     DB 6EH, 6EH, 65H, 6CH, 3EH, 5DH, 2CH, 5BH
   \            3E5D2C5B
   \   000020   3C50414E     DB 3CH, 50H, 41H, 4EH, 49H, 44H, 3EH, 5DH
   \            49443E5D
   \   000028   2C5B3C45     DB 2CH, 5BH, 3CH, 45H, 50H, 41H, 4EH, 49H
   \            50414E49
   \   000030   443E5D00     DB 44H, 3EH, 5DH, 0

   \                                 In  segment XDATA_ROM_C, align 1
   \                     `?<Constant "JN">`:
   \   000000   4A4E00       DB "JN"

   \                                 In  segment XDATA_ROM_C, align 1
   \                     `?<Constant "Join Network">`:
   \   000000   4A6F696E     DB "Join Network"
   \            204E6574
   \            776F726B
   \            00      

   \                                 In  segment XDATA_ROM_C, align 1
   \                     `?<Constant "NTABLE">`:
   \   000000   4E544142     DB "NTABLE"
   \            4C4500  

   \                                 In  segment XDATA_ROM_C, align 1
   \                     `?<Constant "Display Neighbour Tab...">`:
   \   000000   44697370     DB "Display Neighbour Table NTABLE:XX,<address>"
   \            6C617920
   \            4E656967
   \            68626F75
   \            72205461
   \            626C6520
   \            4E544142
   \            4C453A58
   \            582C3C61
   \            64647265
   \            73733E00

   \                                 In  segment XDATA_ROM_C, align 1
   \                     `?<Constant "RTABLE">`:
   \   000000   52544142     DB "RTABLE"
   \            4C4500  

   \                                 In  segment XDATA_ROM_C, align 1
   \                     `?<Constant "Display Routing Table...">`:
   \   000000   44697370     DB "Display Routing Table   RTABLE:XX,<address>"
   \            6C617920
   \            526F7574
   \            696E6720
   \            5461626C
   \            65202020
   \            52544142
   \            4C453A58
   \            582C3C61
   \            64647265
   \            73733E00

   \                                 In  segment XDATA_ROM_C, align 1
   \                     `?<Constant "IDREQ">`:
   \   000000   49445245     DB "IDREQ"
   \            5100    

   \                                 In  segment XDATA_ROM_C, align 1
   \                     `?<Constant "Request network addre...">`:
   \   000000   52657175     DB 52H, 65H, 71H, 75H, 65H, 73H, 74H, 20H
   \            65737420
   \   000008   6E657477     DB 6EH, 65H, 74H, 77H, 6FH, 72H, 6BH, 20H
   \            6F726B20
   \   000010   61646472     DB 61H, 64H, 64H, 72H, 65H, 73H, 73H, 20H
   \            65737320
   \   000018   286E6F64     DB 28H, 6EH, 6FH, 64H, 65H, 49H, 44H, 29H
   \            65494429
   \   000020   20494452     DB 20H, 49H, 44H, 52H, 45H, 51H, 3AH, 5BH
   \            45513A5B
   \   000028   3C416464     DB 3CH, 41H, 64H, 64H, 72H, 65H, 73H, 73H
   \            72657373
   \   000030   3E5D5B2C     DB 3EH, 5DH, 5BH, 2CH, 58H, 58H, 5DH, 0
   \            58585D00

   \                                 In  segment XDATA_ROM_C, align 1
   \                     `?<Constant "EUIREQ">`:
   \   000000   45554952     DB "EUIREQ"
   \            455100  

   \                                 In  segment XDATA_ROM_C, align 1
   \                     `?<Constant "Request Node\\'s EUI64 ...">`:
   \   000000   52657175     DB 52H, 65H, 71H, 75H, 65H, 73H, 74H, 20H
   \            65737420
   \   000008   4E6F6465     DB 4EH, 6FH, 64H, 65H, 27H, 73H, 20H, 45H
   \            27732045
   \   000010   55493634     DB 55H, 49H, 36H, 34H, 20H, 45H, 55H, 49H
   \            20455549
   \   000018   5245513A     DB 52H, 45H, 51H, 3AH, 5BH, 3CH, 20H, 41H
   \            5B3C2041
   \   000020   64647265     DB 64H, 64H, 72H, 65H, 73H, 73H, 3EH, 2CH
   \            73733E2C
   \   000028   3C4E6F64     DB 3CH, 4EH, 6FH, 64H, 65H, 49H, 44H, 3EH
   \            6549443E
   \   000030   5D5B2C58     DB 5DH, 5BH, 2CH, 58H, 58H, 5DH, 0
   \            585D00  

   \                                 In  segment XDATA_ROM_C, align 1
   \                     `?<Constant "NODEDESC">`:
   \   000000   4E4F4445     DB "NODEDESC"
   \            44455343
   \            00      

   \                                 In  segment XDATA_ROM_C, align 1
   \                     `?<Constant "Request Node\\'s Descri...">`:
   \   000000   52657175     DB 52H, 65H, 71H, 75H, 65H, 73H, 74H, 20H
   \            65737420
   \   000008   4E6F6465     DB 4EH, 6FH, 64H, 65H, 27H, 73H, 20H, 44H
   \            27732044
   \   000010   65736372     DB 65H, 73H, 63H, 72H, 69H, 70H, 74H, 6FH
   \            6970746F
   \   000018   72204E4F     DB 72H, 20H, 4EH, 4FH, 44H, 45H, 44H, 45H
   \            44454445
   \   000020   53433A3C     DB 53H, 43H, 3AH, 3CH, 41H, 64H, 64H, 72H
   \            41646472
   \   000028   6573733E     DB 65H, 73H, 73H, 3EH, 2CH, 3CH, 4EH, 6FH
   \            2C3C4E6F
   \   000030   64654944     DB 64H, 65H, 49H, 44H, 3EH, 0
   \            3E00    

   \                                 In  segment XDATA_ROM_C, align 1
   \                     `?<Constant "POWERDESC">`:
   \   000000   504F5745     DB "POWERDESC"
   \            52444553
   \            4300    

   \                                 In  segment XDATA_ROM_C, align 1
   \                     `?<Constant "Request Node\\'s Power ...">`:
   \   000000   52657175     DB 52H, 65H, 71H, 75H, 65H, 73H, 74H, 20H
   \            65737420
   \   000008   4E6F6465     DB 4EH, 6FH, 64H, 65H, 27H, 73H, 20H, 50H
   \            27732050
   \   000010   6F776572     DB 6FH, 77H, 65H, 72H, 20H, 44H, 65H, 73H
   \            20446573
   \   000018   63726970     DB 63H, 72H, 69H, 70H, 74H, 6FH, 72H, 20H
   \            746F7220
   \   000020   504F5745     DB 50H, 4FH, 57H, 45H, 52H, 44H, 45H, 53H
   \            52444553
   \   000028   433A3C41     DB 43H, 3AH, 3CH, 41H, 64H, 64H, 72H, 65H
   \            64647265
   \   000030   73733E2C     DB 73H, 73H, 3EH, 2CH, 3CH, 4EH, 6FH, 64H
   \            3C4E6F64
   \   000038   6549443E     DB 65H, 49H, 44H, 3EH, 0
   \            00      

   \                                 In  segment XDATA_ROM_C, align 1
   \                     `?<Constant "ACTEPDESC">`:
   \   000000   41435445     DB "ACTEPDESC"
   \            50444553
   \            4300    

   \                                 In  segment XDATA_ROM_C, align 1
   \                     `?<Constant "Request Node\\'s Active...">`:
   \   000000   52657175     DB 52H, 65H, 71H, 75H, 65H, 73H, 74H, 20H
   \            65737420
   \   000008   4E6F6465     DB 4EH, 6FH, 64H, 65H, 27H, 73H, 20H, 41H
   \            27732041
   \   000010   63746976     DB 63H, 74H, 69H, 76H, 65H, 20H, 45H, 6EH
   \            6520456E
   \   000018   64706F69     DB 64H, 70H, 6FH, 69H, 6EH, 74H, 20H, 4CH
   \            6E74204C
   \   000020   69737420     DB 69H, 73H, 74H, 20H, 41H, 43H, 54H, 45H
   \            41435445
   \   000028   50444553     DB 50H, 44H, 45H, 53H, 43H, 3AH, 3CH, 41H
   \            433A3C41
   \   000030   64647265     DB 64H, 64H, 72H, 65H, 73H, 73H, 3EH, 2CH
   \            73733E2C
   \   000038   3C4E6F64     DB 3CH, 4EH, 6FH, 64H, 65H, 49H, 44H, 3EH
   \            6549443E
   \   000040   00           DB 0

   \                                 In  segment XDATA_ROM_C, align 1
   \                     `?<Constant "SIMPLEDESC">`:
   \   000000   53494D50     DB "SIMPLEDESC"
   \            4C454445
   \            534300  

   \                                 In  segment XDATA_ROM_C, align 1
   \                     `?<Constant "Request Endpoint\\'s Si...">`:
   \   000000   52657175     DB 52H, 65H, 71H, 75H, 65H, 73H, 74H, 20H
   \            65737420
   \   000008   456E6470     DB 45H, 6EH, 64H, 70H, 6FH, 69H, 6EH, 74H
   \            6F696E74
   \   000010   27732053     DB 27H, 73H, 20H, 53H, 69H, 6DH, 70H, 6CH
   \            696D706C
   \   000018   65204465     DB 65H, 20H, 44H, 65H, 73H, 63H, 72H, 69H
   \            73637269
   \   000020   70746F72     DB 70H, 74H, 6FH, 72H, 20H, 53H, 49H, 4DH
   \            2053494D
   \   000028   504C4544     DB 50H, 4CH, 45H, 44H, 45H, 53H, 43H, 3AH
   \            4553433A
   \   000030   3C416464     DB 3CH, 41H, 64H, 64H, 72H, 65H, 73H, 73H
   \            72657373
   \   000038   3E2C3C4E     DB 3EH, 2CH, 3CH, 4EH, 6FH, 64H, 65H, 49H
   \            6F646549
   \   000040   443E2C3C     DB 44H, 3EH, 2CH, 3CH, 58H, 58H, 3EH, 0
   \            58583E00

   \                                 In  segment XDATA_ROM_C, align 1
   \                     `?<Constant "MATCHREQ">`:
   \   000000   4D415443     DB "MATCHREQ"
   \            48524551
   \            00      

   \                                 In  segment XDATA_ROM_C, align 1
   \                     `?<Constant "Find Nodes which Matc...">`:
   \   000000   46696E64     DB 46H, 69H, 6EH, 64H, 20H, 4EH, 6FH, 64H
   \            204E6F64
   \   000008   65732077     DB 65H, 73H, 20H, 77H, 68H, 69H, 63H, 68H
   \            68696368
   \   000010   204D6174     DB 20H, 4DH, 61H, 74H, 63H, 68H, 20H, 61H
   \            63682061
   \   000018   20537065     DB 20H, 53H, 70H, 65H, 63H, 69H, 66H, 69H
   \            63696669
   \   000020   63204465     DB 63H, 20H, 44H, 65H, 73H, 63H, 72H, 69H
   \            73637269
   \   000028   70746F72     DB 70H, 74H, 6FH, 72H, 20H, 4DH, 41H, 54H
   \            204D4154
   \   000030   43485245     DB 43H, 48H, 52H, 45H, 51H, 3AH, 3CH, 50H
   \            513A3C50
   \   000038   726F6669     DB 72H, 6FH, 66H, 69H, 6CH, 65H, 49H, 44H
   \            6C654944
   \   000040   3E2C3C4E     DB 3EH, 2CH, 3CH, 4EH, 75H, 6DH, 49H, 6EH
   \            756D496E
   \   000048   436C7573     DB 43H, 6CH, 75H, 73H, 74H, 65H, 72H, 73H
   \            74657273
   \   000050   3E5B2C3C     DB 3EH, 5BH, 2CH, 3CH, 49H, 6EH, 43H, 6CH
   \            496E436C
   \   000058   75737465     DB 75H, 73H, 74H, 65H, 72H, 4CH, 69H, 73H
   \            724C6973
   \   000060   743E5D2C     DB 74H, 3EH, 5DH, 2CH, 3CH, 4EH, 75H, 6DH
   \            3C4E756D
   \   000068   4F757443     DB 4FH, 75H, 74H, 43H, 6CH, 75H, 73H, 74H
   \            6C757374
   \   000070   6572733E     DB 65H, 72H, 73H, 3EH, 5BH, 2CH, 3CH, 4FH
   \            5B2C3C4F
   \   000078   7574436C     DB 75H, 74H, 43H, 6CH, 75H, 73H, 74H, 65H
   \            75737465
   \   000080   724C6973     DB 72H, 4CH, 69H, 73H, 74H, 3EH, 5DH, 0
   \            743E5D00

   \                                 In  segment XDATA_ROM_C, align 1
   \                     `?<Constant "ANNCE">`:
   \   000000   414E4E43     DB "ANNCE"
   \            4500    

   \                                 In  segment XDATA_ROM_C, align 1
   \                     `?<Constant "Announce Local Device...">`:
   \   000000   416E6E6F     DB "Announce Local Device In The Network"
   \            756E6365
   \            204C6F63
   \            616C2044
   \            65766963
   \            6520496E
   \            20546865
   \            204E6574
   \            776F726B
   \            00      

   \                                 In  segment XDATA_ROM_C, align 1
   \                     `?<Constant "ATABLE">`:
   \   000000   41544142     DB "ATABLE"
   \            4C4500  

   \                                 In  segment XDATA_ROM_C, align 1
   \                     `?<Constant "Display Address Table">`:
   \   000000   44697370     DB "Display Address Table"
   \            6C617920
   \            41646472
   \            65737320
   \            5461626C
   \            6500    

   \                                 In  segment XDATA_ROM_C, align 1
   \                     `?<Constant "LBTABLE">`:
   \   000000   4C425441     DB "LBTABLE"
   \            424C4500

   \                                 In  segment XDATA_ROM_C, align 1
   \                     `?<Constant "Display Local Binding...">`:
   \   000000   44697370     DB "Display Local Binding Table"
   \            6C617920
   \            4C6F6361
   \            6C204269
   \            6E64696E
   \            67205461
   \            626C6500

   \                                 In  segment XDATA_ROM_C, align 1
   \                     `?<Constant "BSET">`:
   \   000000   42534554     DB "BSET"
   \            00      

   \                                 In  segment XDATA_ROM_C, align 1
   \                     `?<Constant "Set local Binding Tab...">`:
   \   000000   53657420     DB 53H, 65H, 74H, 20H, 6CH, 6FH, 63H, 61H
   \            6C6F6361
   \   000008   6C204269     DB 6CH, 20H, 42H, 69H, 6EH, 64H, 69H, 6EH
   \            6E64696E
   \   000010   67205461     DB 67H, 20H, 54H, 61H, 62H, 6CH, 65H, 20H
   \            626C6520
   \   000018   456E7472     DB 45H, 6EH, 74H, 72H, 79H, 20H, 42H, 53H
   \            79204253
   \   000020   45543A3C     DB 45H, 54H, 3AH, 3CH, 74H, 79H, 70H, 65H
   \            74797065
   \   000028   3E2C3C4C     DB 3EH, 2CH, 3CH, 4CH, 6FH, 63H, 61H, 6CH
   \            6F63616C
   \   000030   45503E2C     DB 45H, 50H, 3EH, 2CH, 3CH, 43H, 6CH, 75H
   \            3C436C75
   \   000038   73746572     DB 73H, 74H, 65H, 72H, 49H, 44H, 3EH, 2CH
   \            49443E2C
   \   000040   3C447374     DB 3CH, 44H, 73H, 74H, 41H, 64H, 64H, 72H
   \            41646472
   \   000048   6573733E     DB 65H, 73H, 73H, 3EH, 5BH, 2CH, 3CH, 44H
   \            5B2C3C44
   \   000050   73744550     DB 73H, 74H, 45H, 50H, 3EH, 5DH, 0
   \            3E5D00  

   \                                 In  segment XDATA_ROM_C, align 1
   \                     `?<Constant "BCLR">`:
   \   000000   42434C52     DB "BCLR"
   \            00      

   \                                 In  segment XDATA_ROM_C, align 1
   \                     `?<Constant "Clear local Binding T...">`:
   \   000000   436C6561     DB 43H, 6CH, 65H, 61H, 72H, 20H, 6CH, 6FH
   \            72206C6F
   \   000008   63616C20     DB 63H, 61H, 6CH, 20H, 42H, 69H, 6EH, 64H
   \            42696E64
   \   000010   696E6720     DB 69H, 6EH, 67H, 20H, 54H, 61H, 62H, 6CH
   \            5461626C
   \   000018   6520456E     DB 65H, 20H, 45H, 6EH, 74H, 72H, 79H, 20H
   \            74727920
   \   000020   42434C52     DB 42H, 43H, 4CH, 52H, 3AH, 58H, 58H, 5BH
   \            3A58585B
   \   000028   2C3C436C     DB 2CH, 3CH, 43H, 6CH, 75H, 73H, 74H, 65H
   \            75737465
   \   000030   7249443E     DB 72H, 49H, 44H, 3EH, 5DH, 0
   \            5D00    

   \                                 In  segment XDATA_ROM_C, align 1
   \                     `?<Constant "BTABLE">`:
   \   000000   42544142     DB "BTABLE"
   \            4C4500  

   \                                 In  segment XDATA_ROM_C, align 1
   \                     `?<Constant "Display Binding Table...">`:
   \   000000   44697370     DB "Display Binding Table BTABLE:XX,<address>"
   \            6C617920
   \            42696E64
   \            696E6720
   \            5461626C
   \            65204254
   \            41424C45
   \            3A58582C
   \            3C616464
   \            72657373
   \            3E00    

   \                                 In  segment XDATA_ROM_C, align 1
   \                     `?<Constant "BIND">`:
   \   000000   42494E44     DB "BIND"
   \            00      

   \                                 In  segment XDATA_ROM_C, align 1
   \                     `?<Constant "Create Binding on Rem...">`:
   \   000000   43726561     DB 43H, 72H, 65H, 61H, 74H, 65H, 20H, 42H
   \            74652042
   \   000008   696E6469     DB 69H, 6EH, 64H, 69H, 6EH, 67H, 20H, 6FH
   \            6E67206F
   \   000010   6E205265     DB 6EH, 20H, 52H, 65H, 6DH, 6FH, 74H, 65H
   \            6D6F7465
   \   000018   20446576     DB 20H, 44H, 65H, 76H, 69H, 63H, 65H, 20H
   \            69636520
   \   000020   42494E44     DB 42H, 49H, 4EH, 44H, 3AH, 5BH, 3CH, 61H
   \            3A5B3C61
   \   000028   64647265     DB 64H, 64H, 72H, 65H, 73H, 73H, 3EH, 5DH
   \            73733E5D
   \   000030   2C5B3C53     DB 2CH, 5BH, 3CH, 53H, 72H, 63H, 41H, 64H
   \            72634164
   \   000038   64726573     DB 64H, 72H, 65H, 73H, 73H, 3EH, 5DH, 2CH
   \            733E5D2C
   \   000040   3C537263     DB 3CH, 53H, 72H, 63H, 45H, 50H, 3EH, 2CH
   \            45503E2C
   \   000048   3C436C75     DB 3CH, 43H, 6CH, 75H, 73H, 74H, 65H, 72H
   \            73746572
   \   000050   49443E2C     DB 49H, 44H, 3EH, 2CH, 5BH, 3CH, 44H, 73H
   \            5B3C4473
   \   000058   74416464     DB 74H, 41H, 64H, 64H, 72H, 65H, 73H, 73H
   \            72657373
   \   000060   3E5D5B2C     DB 3EH, 5DH, 5BH, 2CH, 3CH, 44H, 73H, 74H
   \            3C447374
   \   000068   45503E5D     DB 45H, 50H, 3EH, 5DH, 0
   \            00      

   \                                 In  segment XDATA_ROM_C, align 1
   \                     `?<Constant "UNBIND">`:
   \   000000   554E4249     DB "UNBIND"
   \            4E4400  

   \                                 In  segment XDATA_ROM_C, align 1
   \                     `?<Constant "Delete Binding on Rem...">`:
   \   000000   44656C65     DB 44H, 65H, 6CH, 65H, 74H, 65H, 20H, 42H
   \            74652042
   \   000008   696E6469     DB 69H, 6EH, 64H, 69H, 6EH, 67H, 20H, 6FH
   \            6E67206F
   \   000010   6E205265     DB 6EH, 20H, 52H, 65H, 6DH, 6FH, 74H, 65H
   \            6D6F7465
   \   000018   20446576     DB 20H, 44H, 65H, 76H, 69H, 63H, 65H, 20H
   \            69636520
   \   000020   554E4249     DB 55H, 4EH, 42H, 49H, 4EH, 44H, 3AH, 5BH
   \            4E443A5B
   \   000028   3C616464     DB 3CH, 61H, 64H, 64H, 72H, 65H, 73H, 73H
   \            72657373
   \   000030   3E5D2C5B     DB 3EH, 5DH, 2CH, 5BH, 3CH, 53H, 72H, 63H
   \            3C537263
   \   000038   41646472     DB 41H, 64H, 64H, 72H, 65H, 73H, 73H, 3EH
   \            6573733E
   \   000040   5D2C3C53     DB 5DH, 2CH, 3CH, 53H, 72H, 63H, 45H, 50H
   \            72634550
   \   000048   3E2C3C43     DB 3EH, 2CH, 3CH, 43H, 6CH, 75H, 73H, 74H
   \            6C757374
   \   000050   65724944     DB 65H, 72H, 49H, 44H, 3EH, 2CH, 5BH, 3CH
   \            3E2C5B3C
   \   000058   44737441     DB 44H, 73H, 74H, 41H, 64H, 64H, 72H, 65H
   \            64647265
   \   000060   73733E5D     DB 73H, 73H, 3EH, 5DH, 5BH, 2CH, 3CH, 44H
   \            5B2C3C44
   \   000068   73744550     DB 73H, 74H, 45H, 50H, 3EH, 5DH, 0
   \            3E5D00  

   \                                 In  segment XDATA_ROM_C, align 1
   \                     `?<Constant "EBIND">`:
   \   000000   4542494E     DB "EBIND"
   \            4400    

   \                                 In  segment XDATA_ROM_C, align 1
   \                     `?<Constant "End Device Bind EBIND...">`:
   \   000000   456E6420     DB "End Device Bind EBIND:<EP>"
   \            44657669
   \            63652042
   \            696E6420
   \            4542494E
   \            443A3C45
   \            503E00  

   \                                 In  segment XDATA_ROM_C, align 1
   \                     `?<Constant "CLEARBIND">`:
   \   000000   434C4541     DB "CLEARBIND"
   \            5242494E
   \            4400    

   \                                 In  segment XDATA_ROM_C, align 1
   \                     `?<Constant "Clear Local Binding T...">`:
   \   000000   436C6561     DB "Clear Local Binding Table"
   \            72204C6F
   \            63616C20
   \            42696E64
   \            696E6720
   \            5461626C
   \            6500    

   \                                 In  segment XDATA_ROM_C, align 1
   \                     `?<Constant "READATR">`:
   \   000000   52454144     DB "READATR"
   \            41545200

   \                                 In  segment XDATA_ROM_C, align 1
   \                     `?<Constant "READATR:<Address>,<EP...">`:
   \   000000   52454144     DB 52H, 45H, 41H, 44H, 41H, 54H, 52H, 3AH
   \            4154523A
   \   000008   3C416464     DB 3CH, 41H, 64H, 64H, 72H, 65H, 73H, 73H
   \            72657373
   \   000010   3E2C3C45     DB 3EH, 2CH, 3CH, 45H, 50H, 3EH, 2CH, 5BH
   \            503E2C5B
   \   000018   3C53656E     DB 3CH, 53H, 65H, 6EH, 64H, 4DH, 6FH, 64H
   \            644D6F64
   \   000020   653E5D2C     DB 65H, 3EH, 5DH, 2CH, 3CH, 43H, 6CH, 75H
   \            3C436C75
   \   000028   73746572     DB 73H, 74H, 65H, 72H, 49H, 44H, 3EH, 2CH
   \            49443E2C
   \   000030   3C417474     DB 3CH, 41H, 74H, 74H, 72H, 49H, 44H, 3EH
   \            7249443E
   \   000038   2C2E2E2E     DB 2CH, 2EH, 2EH, 2EH, 2CH, 3CH, 20H, 41H
   \            2C3C2041
   \   000040   74747249     DB 74H, 74H, 72H, 49H, 44H, 20H, 3EH, 0
   \            44203E00

   \                                 In  segment XDATA_ROM_C, align 1
   \                     `?<Constant "WRITEATR">`:
   \   000000   57524954     DB "WRITEATR"
   \            45415452
   \            00      

   \                                 In  segment XDATA_ROM_C, align 1
   \                     `?<Constant "WRITEATR:<Address>,<E...">`:
   \   000000   57524954     DB 57H, 52H, 49H, 54H, 45H, 41H, 54H, 52H
   \            45415452
   \   000008   3A3C4164     DB 3AH, 3CH, 41H, 64H, 64H, 72H, 65H, 73H
   \            64726573
   \   000010   733E2C3C     DB 73H, 3EH, 2CH, 3CH, 45H, 50H, 3EH, 2CH
   \            45503E2C
   \   000018   5B3C5365     DB 5BH, 3CH, 53H, 65H, 6EH, 64H, 4DH, 6FH
   \            6E644D6F
   \   000020   64653E5D     DB 64H, 65H, 3EH, 5DH, 2CH, 3CH, 43H, 6CH
   \            2C3C436C
   \   000028   75737465     DB 75H, 73H, 74H, 65H, 72H, 49H, 44H, 3EH
   \            7249443E
   \   000030   2C3C4174     DB 2CH, 3CH, 41H, 74H, 74H, 72H, 49H, 44H
   \            74724944
   \   000038   3E2C3C44     DB 3EH, 2CH, 3CH, 44H, 61H, 74H, 61H, 54H
   \            61746154
   \   000040   7970653E     DB 79H, 70H, 65H, 3EH, 2CH, 3CH, 44H, 61H
   \            2C3C4461
   \   000048   74613E00     DB 74H, 61H, 3EH, 0

   \                                 In  segment XDATA_ROM_C, align 1
   \                     `?<Constant "DISCOVER">`:
   \   000000   44495343     DB "DISCOVER"
   \            4F564552
   \            00      

   \                                 In  segment XDATA_ROM_C, align 1
   \                     `?<Constant "Discover HA Devices O...">`:
   \   000000   44697363     DB 44H, 69H, 73H, 63H, 6FH, 76H, 65H, 72H
   \            6F766572
   \   000008   20484120     DB 20H, 48H, 41H, 20H, 44H, 65H, 76H, 69H
   \            44657669
   \   000010   63657320     DB 63H, 65H, 73H, 20H, 4FH, 6EH, 20H, 54H
   \            4F6E2054
   \   000018   68652048     DB 68H, 65H, 20H, 48H, 41H, 4EH, 20H, 44H
   \            414E2044
   \   000020   4953434F     DB 49H, 53H, 43H, 4FH, 56H, 45H, 52H, 3AH
   \            5645523A
   \   000028   3C436C75     DB 3CH, 43H, 6CH, 75H, 73H, 74H, 65H, 72H
   \            73746572
   \   000030   2049443E     DB 20H, 49H, 44H, 3EH, 5BH, 2CH, 3CH, 6FH
   \            5B2C3C6F
   \   000038   7074696F     DB 70H, 74H, 69H, 6FH, 6EH, 3EH, 5DH, 0
   \            6E3E5D00

   \                                 In  segment XDATA_ROM_C, align 1
   \                     `?<Constant "CLUSDISC">`:
   \   000000   434C5553     DB "CLUSDISC"
   \            44495343
   \            00      

   \                                 In  segment XDATA_ROM_C, align 1
   \                     `?<Constant "Discover All Supporte...">`:
   \   000000   44697363     DB 44H, 69H, 73H, 63H, 6FH, 76H, 65H, 72H
   \            6F766572
   \   000008   20416C6C     DB 20H, 41H, 6CH, 6CH, 20H, 53H, 75H, 70H
   \            20537570
   \   000010   706F7274     DB 70H, 6FH, 72H, 74H, 65H, 64H, 20H, 43H
   \            65642043
   \   000018   6C757374     DB 6CH, 75H, 73H, 74H, 65H, 72H, 73H, 20H
   \            65727320
   \   000020   6F6E2041     DB 6FH, 6EH, 20H, 41H, 20H, 52H, 65H, 6DH
   \            2052656D
   \   000028   6F746520     DB 6FH, 74H, 65H, 20H, 44H, 65H, 76H, 69H
   \            44657669
   \   000030   63652043     DB 63H, 65H, 20H, 43H, 4CH, 55H, 53H, 44H
   \            4C555344
   \   000038   4953433A     DB 49H, 53H, 43H, 3AH, 5BH, 3CH, 4EH, 6FH
   \            5B3C4E6F
   \   000040   64652049     DB 64H, 65H, 20H, 49H, 44H, 3EH, 5DH, 2CH
   \            443E5D2C
   \   000048   3C456E64     DB 3CH, 45H, 6EH, 64H, 50H, 6FH, 69H, 6EH
   \            506F696E
   \   000050   743E00       DB 74H, 3EH, 0

   \                                 In  segment XDATA_ROM_C, align 1
   \                     `?<Constant "ATTRDISC">`:
   \   000000   41545452     DB "ATTRDISC"
   \            44495343
   \            00      

   \                                 In  segment XDATA_ROM_C, align 1
   \                     `?<Constant "Find Supported Attrib...">`:
   \   000000   46696E64     DB 46H, 69H, 6EH, 64H, 20H, 53H, 75H, 70H
   \            20537570
   \   000008   706F7274     DB 70H, 6FH, 72H, 74H, 65H, 64H, 20H, 41H
   \            65642041
   \   000010   74747269     DB 74H, 74H, 72H, 69H, 62H, 75H, 74H, 73H
   \            62757473
   \   000018   204F6E20     DB 20H, 4FH, 6EH, 20H, 41H, 20H, 52H, 65H
   \            41205265
   \   000020   6D6F7465     DB 6DH, 6FH, 74H, 65H, 20H, 44H, 65H, 76H
   \            20446576
   \   000028   69636520     DB 69H, 63H, 65H, 20H, 45H, 6EH, 64H, 20H
   \            456E6420
   \   000030   506F696E     DB 50H, 6FH, 69H, 6EH, 20H, 41H, 54H, 54H
   \            20415454
   \   000038   52444953     DB 52H, 44H, 49H, 53H, 43H, 3AH, 5BH, 3CH
   \            433A5B3C
   \   000040   4E6F6465     DB 4EH, 6FH, 64H, 65H, 49H, 44H, 3EH, 5DH
   \            49443E5D
   \   000048   2C3C4550     DB 2CH, 3CH, 45H, 50H, 3EH, 2CH, 3CH, 43H
   \            3E2C3C43
   \   000050   6C757374     DB 6CH, 75H, 73H, 74H, 65H, 72H, 49H, 44H
   \            65724944
   \   000058   3E2C3C41     DB 3EH, 2CH, 3CH, 41H, 74H, 74H, 72H, 69H
   \            74747269
   \   000060   62757465     DB 62H, 75H, 74H, 65H, 49H, 44H, 3EH, 2CH
   \            49443E2C
   \   000068   3C4D6178     DB 3CH, 4DH, 61H, 78H, 4EH, 75H, 6DH, 6FH
   \            4E756D6F
   \   000070   66417474     DB 66H, 41H, 74H, 74H, 72H, 3EH, 0
   \            723E00  

   \                                 In  segment XDATA_ROM_C, align 1
   \                     `?<Constant "IDENTIFY">`:
   \   000000   4944454E     DB "IDENTIFY"
   \            54494659
   \            00      

   \                                 In  segment XDATA_ROM_C, align 1
   \                     `?<Constant "Identify Claster IDEN...">`:
   \   000000   4964656E     DB 49H, 64H, 65H, 6EH, 74H, 69H, 66H, 79H
   \            74696679
   \   000008   20436C61     DB 20H, 43H, 6CH, 61H, 73H, 74H, 65H, 72H
   \            73746572
   \   000010   20494445     DB 20H, 49H, 44H, 45H, 4EH, 54H, 49H, 46H
   \            4E544946
   \   000018   593A5B3C     DB 59H, 3AH, 5BH, 3CH, 41H, 64H, 64H, 72H
   \            41646472
   \   000020   6573733E     DB 65H, 73H, 73H, 3EH, 5DH, 2CH, 3CH, 45H
   \            5D2C3C45
   \   000028   503E2C5B     DB 50H, 3EH, 2CH, 5BH, 3CH, 53H, 65H, 6EH
   \            3C53656E
   \   000030   644D6F64     DB 64H, 4DH, 6FH, 64H, 65H, 3EH, 5DH, 2CH
   \            653E5D2C
   \   000038   3C54696D     DB 3CH, 54H, 69H, 6DH, 65H, 3EH, 0
   \            653E00  

   \                                 In  segment XDATA_ROM_C, align 1
   \                     `?<Constant "IDQUERY">`:
   \   000000   49445155     DB "IDQUERY"
   \            45525900

   \                                 In  segment XDATA_ROM_C, align 1
   \                     `?<Constant "Query If Target Devic...">`:
   \   000000   51756572     DB 51H, 75H, 65H, 72H, 79H, 20H, 49H, 66H
   \            79204966
   \   000008   20546172     DB 20H, 54H, 61H, 72H, 67H, 65H, 74H, 20H
   \            67657420
   \   000010   44657669     DB 44H, 65H, 76H, 69H, 63H, 65H, 28H, 73H
   \            63652873
   \   000018   2920496E     DB 29H, 20H, 49H, 6EH, 20H, 49H, 64H, 65H
   \            20496465
   \   000020   6E746966     DB 6EH, 74H, 69H, 66H, 79H, 69H, 6EH, 67H
   \            79696E67
   \   000028   204D6F64     DB 20H, 4DH, 6FH, 64H, 65H, 20H, 49H, 44H
   \            65204944
   \   000030   51554552     DB 51H, 55H, 45H, 52H, 59H, 3AH, 5BH, 3CH
   \            593A5B3C
   \   000038   41646472     DB 41H, 64H, 64H, 72H, 65H, 73H, 73H, 3EH
   \            6573733E
   \   000040   5D2C3C45     DB 5DH, 2CH, 3CH, 45H, 50H, 3EH, 2CH, 5BH
   \            503E2C5B
   \   000048   3C53656E     DB 3CH, 53H, 65H, 6EH, 64H, 4DH, 6FH, 64H
   \            644D6F64
   \   000050   653E5D00     DB 65H, 3EH, 5DH, 0

   \                                 In  segment XDATA_ROM_C, align 1
   \                     `?<Constant "RONOFF">`:
   \   000000   524F4E4F     DB "RONOFF"
   \            464600  

   \                                 In  segment XDATA_ROM_C, align 1
   \                     `?<Constant "RONOFF:[<Address>],<E...">`:
   \   000000   524F4E4F     DB "RONOFF:[<Address>],<EP>,[<SendMode>][,<ON/OFF>]"
   \            46463A5B
   \            3C416464
   \            72657373
   \            3E5D2C3C
   \            45503E2C
   \            5B3C5365
   \            6E644D6F
   \            64653E5D
   \            5B2C3C4F
   \            4E2F4F46
   \            463E5D00

   \                                 In  segment XDATA_ROM_C, align 1
   \                     `?<Constant "READNV">`:
   \   000000   52454144     DB "READNV"
   \            4E5600  

   \                                 In  segment XDATA_ROM_C, align 1
   \                     `?<Constant "Read NV READNV:<ID>,<...">`:
   \   000000   52656164     DB "Read NV READNV:<ID>,<offset>,<lenth>"
   \            204E5620
   \            52454144
   \            4E563A3C
   \            49443E2C
   \            3C6F6666
   \            7365743E
   \            2C3C6C65
   \            6E74683E
   \            00      

   \                                 In  segment XDATA_ROM_C, align 1
   \                     `?<Constant "WRITENV">`:
   \   000000   57524954     DB "WRITENV"
   \            454E5600

   \                                 In  segment XDATA_ROM_C, align 1
   \                     `?<Constant "WRITE NV WRITENV:<ID>...">`:
   \   000000   57524954     DB "WRITE NV WRITENV:<ID>,<offset>,<hex>"
   \            45204E56
   \            20575249
   \            54454E56
   \            3A3C4944
   \            3E2C3C6F
   \            66667365
   \            743E2C3C
   \            6865783E
   \            00      

   \                                 In  segment XDATA_ROM_C, align 1
   \                     `?<Constant "INITNV">`:
   \   000000   494E4954     DB "INITNV"
   \            4E5600  

   \                                 In  segment XDATA_ROM_C, align 1
   \                     `?<Constant "Initialize NV INITNV:...">`:
   \   000000   496E6974     DB "Initialize NV INITNV:<ID>,<lenth>"
   \            69616C69
   \            7A65204E
   \            5620494E
   \            49544E56
   \            3A3C4944
   \            3E2C3C6C
   \            656E7468
   \            3E00    

   \                                 In  segment XDATA_ROM_C, align 1
   \                     `?<Constant "STP">`:
   \   000000   53545000     DB "STP"

   \                                 In  segment XDATA_ROM_C, align 1
   \                     `?<Constant "Set Transmit Power ST...">`:
   \   000000   53657420     DB "Set Transmit Power STP:<power level> "
   \            5472616E
   \            736D6974
   \            20506F77
   \            65722053
   \            54503A3C
   \            706F7765
   \            72206C65
   \            76656C3E
   \            2000    

   \                                 In  segment XDATA_ROM_C, align 1
   \                     `?<Constant "GTP">`:
   \   000000   47545000     DB "GTP"

   \                                 In  segment XDATA_ROM_C, align 1
   \                     `?<Constant "Get Transmit Power">`:
   \   000000   47657420     DB "Get Transmit Power"
   \            5472616E
   \            736D6974
   \            20506F77
   \            657200  

   \                                 In  segment XDATA_ROM_C, align 1
   \                     `?<Constant "RSSIREQ">`:
   \   000000   52535349     DB "RSSIREQ"
   \            52455100

   \                                 In  segment XDATA_ROM_C, align 1
   \                     `?<Constant "RSSI request RSSIREQ:...">`:
   \   000000   52535349     DB "RSSI request RSSIREQ:<address>"
   \            20726571
   \            75657374
   \            20525353
   \            49524551
   \            3A3C6164
   \            64726573
   \            733E00  

   \                                 In  segment XDATA_ROM_C, align 1
   \                     `?<Constant "PSEXP">`:
   \   000000   50534558     DB "PSEXP"
   \            5000    

   \                                 In  segment XDATA_ROM_C, align 1
   \                     `?<Constant "Power Saving Experime...">`:
   \   000000   506F7765     DB 50H, 6FH, 77H, 65H, 72H, 20H, 53H, 61H
   \            72205361
   \   000008   76696E67     DB 76H, 69H, 6EH, 67H, 20H, 45H, 78H, 70H
   \            20457870
   \   000010   6572696D     DB 65H, 72H, 69H, 6DH, 65H, 6EH, 74H, 20H
   \            656E7420
   \   000018   50534558     DB 50H, 53H, 45H, 58H, 50H, 3AH, 3CH, 61H
   \            503A3C61
   \   000020   64647265     DB 64H, 64H, 72H, 65H, 73H, 73H, 3EH, 2CH
   \            73733E2C
   \   000028   3C636F75     DB 3CH, 63H, 6FH, 75H, 6EH, 74H, 3EH, 2CH
   \            6E743E2C
   \   000030   3C696E74     DB 3CH, 69H, 6EH, 74H, 65H, 72H, 76H, 61H
   \            65727661
   \   000038   6C3E00       DB 6CH, 3EH, 0

   \                                 In  segment XDATA_ROM_C, align 1
   \                     `?<Constant "SPSEXP">`:
   \   000000   53505345     DB "SPSEXP"
   \            585000  

   \                                 In  segment XDATA_ROM_C, align 1
   \                     `?<Constant "Stop Power Saving Exp...">`:
   \   000000   53746F70     DB "Stop Power Saving Experiment"
   \            20506F77
   \            65722053
   \            6176696E
   \            67204578
   \            70657269
   \            6D656E74
   \            00      

   \                                 In  segment XDATA_ROM_C, align 1
   \                     `?<Constant "R">`:
   \   000000   5200         DB "R"

   \                                 In  segment XDATA_ROM_C, align 1
   \                     `?<Constant "execute command on re...">`:
   \   000000   65786563     DB 65H, 78H, 65H, 63H, 75H, 74H, 65H, 20H
   \            75746520
   \   000008   636F6D6D     DB 63H, 6FH, 6DH, 6DH, 61H, 6EH, 64H, 20H
   \            616E6420
   \   000010   6F6E2072     DB 6FH, 6EH, 20H, 72H, 65H, 6DH, 6FH, 74H
   \            656D6F74
   \   000018   65206465     DB 65H, 20H, 64H, 65H, 76H, 69H, 63H, 65H
   \            76696365
   \   000020   20523A3C     DB 20H, 52H, 3AH, 3CH, 6EH, 6FH, 64H, 65H
   \            6E6F6465
   \   000028   49443E5B     DB 49H, 44H, 3EH, 5BH, 2CH, 53H, 65H, 6EH
   \            2C53656E
   \   000030   644D6F64     DB 64H, 4DH, 6FH, 64H, 65H, 5DH, 7CH, 3CH
   \            655D7C3C
   \   000038   41542063     DB 41H, 54H, 20H, 63H, 6FH, 6DH, 6DH, 61H
   \            6F6D6D61
   \   000040   6E643E00     DB 6EH, 64H, 3EH, 0

   \                                 In  segment XDATA_ROM_C, align 1
   \                     `?<Constant "HELP">`:
   \   000000   48454C50     DB "HELP"
   \            00      

   \                                 In  segment XDATA_ROM_C, align 1
   \                     `?<Constant "all the AT commands:">`:
   \   000000   616C6C20     DB "all the AT commands:"
   \            74686520
   \            41542063
   \            6F6D6D61
   \            6E64733A
   \            00      

   \                                 In  segment XDATA_ROM_C, align 1
   \                     `?<Constant "RONOFF1">`:
   \   000000   524F4E4F     DB "RONOFF1"
   \            46463100

   \                                 In  segment XDATA_ROM_C, align 1
   \                     `?<Constant "RONOFF1:<Address>,<EP...">`:
   \   000000   524F4E4F     DB "RONOFF1:<Address>,<EP>,[<SendMode>][,<ON/OFF>]"
   \            4646313A
   \            3C416464
   \            72657373
   \            3E2C3C45
   \            503E2C5B
   \            3C53656E
   \            644D6F64
   \            653E5D5B
   \            2C3C4F4E
   \            2F4F4646
   \            3E5D00  

   \                                 In  segment XDATA_ROM_C, align 1
   \                     `?<Constant "ESCAN1">`:
   \   000000   45534341     DB "ESCAN1"
   \            4E3100  

   \                                 In  segment XDATA_ROM_C, align 1
   \                     `?<Constant "TEST">`:
   \   000000   54455354     DB "TEST"
   \            00      

   \                                 In  segment XDATA_ROM_C, align 1
   \                     `?<Constant "JUST for test and dev...">`:
   \   000000   4A555354     DB "JUST for test and development"
   \            20666F72
   \            20746573
   \            7420616E
   \            64206465
   \            76656C6F
   \            706D656E
   \            7400    

   \                                 In  segment XDATA_ROM_C, align 1
   \                     `?<Constant "\\r\\nERROR:xx\\r\\n">`:
   \   000000   0D0A4552     DB "\015\012ERROR:xx\015\012"
   \            524F523A
   \            78780D0A
   \            00      

   \                                 In  segment XDATA_ROM_C, align 1
   \                     `?<Constant "AT">`:
   \   000000   415400       DB "AT"

   \                                 In  segment XDATA_ROM_C, align 1
   \                     `?<Constant "\\n">`:
   \   000000   0A00         DB "\012"

   \                                 In  segment XDATA_ROM_C, align 1
   \                     `?<Constant "\\r\\nOK\\r\\n">`:
   \   000000   0D0A4F4B     DB "\015\012OK\015\012"
   \            0D0A00  

   \                                 In  segment XDATA_ROM_C, align 1
   \                     `?<Constant "I">`:
   \   000000   4900         DB "I"

   \                                 In  segment XDATA_ROM_C, align 1
   \                     `?<Constant "Z">`:
   \   000000   5A00         DB "Z"

   \                                 In  segment XDATA_ROM_C, align 1
   \                     `?<Constant "\\r\\nSoftware Reset\\r\\n">`:
   \   000000   0D0A536F     DB "\015\012Software Reset\015\012"
   \            66747761
   \            72652052
   \            65736574
   \            0D0A00  

   \                                 In  segment XDATA_ROM_C, align 1
   \                     `?<Constant "\\r\\nS-Register Access\\r\\n">`:
   \   000000   0D0A532D     DB "\015\012S-Register Access\015\012"
   \            52656769
   \            73746572
   \            20416363
   \            6573730D
   \            0A00    

   \                                 In  segment XDATA_ROM_C, align 1
   \                     `?<Constant "\\n\\r">`:
   \   000000   0A0D00       DB "\012\015"

   \                                 In  segment XDATA_ROM_C, align 1
   \                     `?<Constant "">`:
   \   000000   00           DB ""

   \                                 In  segment XDATA_ROM_C, align 1
   \                     `?<Constant "F">`:
   \   000000   4600         DB "F"

   \                                 In  segment XDATA_ROM_C, align 1
   \                     `?<Constant "\\r\\nRestore Local Devic...">`:
   \   000000   0D0A5265     DB "\015\012Restore Local Device's Factory Defaults\015\012"
   \            73746F72
   \            65204C6F
   \            63616C20
   \            44657669
   \            63652773
   \            20466163
   \            746F7279
   \            20446566
   \            61756C74
   \            730D0A00

   \                                 In  segment XDATA_ROM_C, align 1
   \                     `?<Constant ":,,,\\r">`:
   \   000000   3A2C2C2C     DB ":,,,\015"
   \            0D00    

   \                                 In  segment XDATA_ROM_C, align 1
   \                     `?<Constant "\\r">`:
   \   000000   0D00         DB "\015"

   \                                 In  segment XDATA_ROM_C, align 1
   \                     `?<Constant "\\r\\n">`:
   \   000000   0D0A00       DB "\015\012"

   \                                 In  segment XDATA_ROM_C, align 1
   \                     `?<Constant "University of Essex">`:
   \   000000   556E6976     DB "University of Essex"
   \            65727369
   \            7479206F
   \            66204573
   \            73657800

   \                                 In  segment XDATA_ROM_C, align 1
   \                     `?<Constant "COORDINATOR">`:
   \   000000   434F4F52     DB "COORDINATOR"
   \            44494E41
   \            544F5200

   \                                 In  segment XDATA_ROM_C, align 1
   \                     `?<Constant "EUI64:">`:
   \   000000   45554936     DB "EUI64:"
   \            343A00  

   \                                 In  segment XDATA_ROM_C, align 1
   \                     `?<Constant ":,\\r">`:
   \   000000   3A2C0D00     DB ":,\015"

   \                                 In  segment XDATA_ROM_C, align 1
   \                     `?<Constant "ENABLED:">`:
   \   000000   454E4142     DB "ENABLED:"
   \            4C45443A
   \            00      

   \                                 In  segment XDATA_ROM_C, align 1
   \                     `?<Constant "UNKNOWNEP">`:
   \   000000   554E4B4E     DB "UNKNOWNEP"
   \            4F574E45
   \            5000    

   \                                 In  segment XDATA_ROM_C, align 1
   \                     `?<Constant "DISABLED:">`:
   \   000000   44495341     DB "DISABLED:"
   \            424C4544
   \            3A00    

   \                                 In  segment XDATA_ROM_C, align 1
   \                     `?<Constant ":,,\\r">`:
   \   000000   3A2C2C0D     DB ":,,\015"
   \            00      

   \                                 In  segment XDATA_ROM_C, align 1
   \                     `?<Constant "EP ">`:
   \   000000   45502000     DB "EP "

   \                                 In  segment XDATA_ROM_C, align 1
   \                     `?<Constant ":ENABLED">`:
   \   000000   3A454E41     DB ":ENABLED"
   \            424C4544
   \            00      

   \                                 In  segment XDATA_ROM_C, align 1
   \                     `?<Constant ":DISABLED">`:
   \   000000   3A444953     DB ":DISABLED"
   \            41424C45
   \            4400    

   \                                 In  segment XDATA_ROM_C, align 1
   \                     `?<Constant ":\\r">`:
   \   000000   3A0D00       DB ":\015"

   \                                 In  segment XDATA_ROM_C, align 1
   \                     `?<Constant "?:\\r">`:
   \   000000   3F3A0D00     DB "?:\015"

   \                                 In  segment XDATA_ROM_C, align 1
   \                     `?<Constant "=:\\r">`:
   \   000000   3D3A0D00     DB "=:\015"

   \                                 In  segment XDATA_ROM_C, align 1
   \                     `?<Constant "?\\r">`:
   \   000000   3F0D00       DB "?\015"

   \                                 In  segment XDATA_ROM_C, align 1
   \                     `?<Constant "=\\r">`:
   \   000000   3D0D00       DB "=\015"

   \                                 In  segment XDATA_ROM_C, align 1
   \                     `?<Constant "%d:%02X">`:
   \   000000   25643A25     DB "%d:%02X"
   \            30325800

   \                                 In  segment XDATA_ROM_C, align 1
   \                     `?<Constant "\\n\\rPlease waitting...\\n\\r">`:
   \   000000   0A0D506C     DB "\012\015Please waitting...\012\015"
   \            65617365
   \            20776169
   \            7474696E
   \            672E2E2E
   \            0A0D00  

   \                                 In  segment XDATA_ROM_C, align 1
   \                     `?<Constant "=">`:
   \   000000   3D00         DB "="

   \                                 In  segment XDATA_ROM_C, align 1
   \                     `?<Constant "COO">`:
   \   000000   434F4F00     DB "COO"

   \                                 In  segment XDATA_ROM_C, align 1
   \                     `?<Constant "ROUTER">`:
   \   000000   524F5554     DB "ROUTER"
   \            455200  

   \                                 In  segment XDATA_ROM_C, align 1
   \                     `?<Constant "ZED">`:
   \   000000   5A454400     DB "ZED"

   \                                 In  segment XDATA_ROM_C, align 1
   \                     `?<Constant ",">`:
   \   000000   2C00         DB ","

   \                                 In  segment XDATA_ROM_C, align 1
   \                     `?<Constant "Critical">`:
   \   000000   43726974     DB "Critical"
   \            6963616C
   \            00      

   \                                 In  segment XDATA_ROM_C, align 1
   \                     `?<Constant "33%">`:
   \   000000   33332500     DB "33%"

   \                                 In  segment XDATA_ROM_C, align 1
   \                     `?<Constant "66%">`:
   \   000000   36362500     DB "66%"

   \                                 In  segment XDATA_ROM_C, align 1
   \                     `?<Constant "100%">`:
   \   000000   31303025     DB "100%"
   \            00      

   \                                 In  segment XDATA_ROM_C, align 1
   \                     `?<Constant "GTP:%02d">`:
   \   000000   4754503A     DB "GTP:%02d"
   \            25303264
   \            00      

   \                                 In  segment XDATA_ROM_C, align 1
   \                     `?<Constant " ">`:
   \   000000   2000         DB " "

   \                                 In  segment XDATA_ROM_C, align 1
   \                     `?<Constant {(unsigned char *)0, 0, 0, 1}>`:
   \   000000   0000         DW 0H
   \   000002   00           DB 0
   \   000003   00           DB 0
   \   000004   01           DB 1

   \                                 In  segment XDATA_ROM_C, align 1
   \                     `?<Constant {0, 0, 0, 0, 0, 0, 0, 0}>`:
   \   000000   00           DB 0
   \   000001   00           DB 0
   \   000002   00           DB 0
   \   000003   00           DB 0
   \   000004   00           DB 0
   \   000005   00           DB 0
   \   000006   00           DB 0
   \   000007   00           DB 0

   \                                 In  segment XDATA_ROM_C, align 1
   \                     `?<Constant {{65535}, 15}>`:
   \   000000   FFFF         DW 65535
   \   000002   00000000     DB 0, 0, 0, 0, 0, 0
   \            0000    
   \   000008   0F           DB 15

   \                                 In  segment XDATA_ROM_C, align 1
   \                     `?<Constant "No. | user |  ID  | EUI ">`:
   \   000000   4E6F2E20     DB "No. | user |  ID  | EUI "
   \            7C207573
   \            6572207C
   \            20204944
   \            20207C20
   \            45554920
   \            00      

   \                                 In  segment XDATA_ROM_C, align 1
   \                     `?<Constant "%02X. |  %02X  | %04X...">`:
   \   000000   25303258     DB "%02X. |  %02X  | %04X | %04X%04X%04X%04X"
   \            2E207C20
   \            20253032
   \            5820207C
   \            20253034
   \            58207C20
   \            25303458
   \            25303458
   \            25303458
   \            25303458
   \            00      

   \                                 In  segment XDATA_ROM_C, align 1
   \                     `?<Constant "maxEntries %d, maxCID %d">`:
   \   000000   6D617845     DB "maxEntries %d, maxCID %d"
   \            6E747269
   \            65732025
   \            642C206D
   \            61784349
   \            44202564
   \            00      

   \                                 In  segment XDATA_ROM_C, align 1
   \                     `?<Constant "No. |  Type  | Active...">`:
   \   000000   4E6F2E20     DB 4EH, 6FH, 2EH, 20H, 7CH, 20H, 20H, 54H
   \            7C202054
   \   000008   79706520     DB 79H, 70H, 65H, 20H, 20H, 7CH, 20H, 41H
   \            207C2041
   \   000010   63746976     DB 63H, 74H, 69H, 76H, 65H, 20H, 7CH, 20H
   \            65207C20
   \   000018   4C6F6361     DB 4CH, 6FH, 63H, 61H, 6CH, 45H, 50H, 20H
   \            6C455020
   \   000020   7C20436C     DB 7CH, 20H, 43H, 6CH, 75H, 73H, 74H, 65H
   \            75737465
   \   000028   72494473     DB 72H, 49H, 44H, 73H, 20H, 7CH, 20H, 20H
   \            207C2020
   \   000030   20202020     DB 20H, 20H, 20H, 20H, 41H, 64H, 64H, 72H
   \            41646472
   \   000038   65737320     DB 65H, 73H, 73H, 20H, 20H, 20H, 20H, 20H
   \            20202020
   \   000040   7C205265     DB 7CH, 20H, 52H, 65H, 6DH, 45H, 50H, 0
   \            6D455000

   \                                 In  segment XDATA_ROM_C, align 1
   \                     `?<Constant "Mcast">`:
   \   000000   4D636173     DB "Mcast"
   \            7400    

   \                                 In  segment XDATA_ROM_C, align 1
   \                     `?<Constant "%04X">`:
   \   000000   25303458     DB "%04X"
   \            00      

   \                                 In  segment XDATA_ROM_C, align 1
   \                     `?<Constant "Ucast">`:
   \   000000   55636173     DB "Ucast"
   \            7400    

   \                                 In  segment XDATA_ROM_C, align 1
   \                     `?<Constant "| %02X">`:
   \   000000   7C202530     DB "| %02X"
   \            325800  

   \                                 In  segment XDATA_ROM_C, align 1
   \                     `?<Constant "??">`:
   \   000000   3F3F00       DB "??"

   \                                 In  segment XDATA_ROM_C, align 1
   \                     `?<Constant "???????">`:
   \   000000   3F3F3F3F     DB "???????"
   \            3F3F3F00

   \                                 In  segment XDATA_ROM_C, align 1
   \                     `?<Constant "%02X. | %-6s |  ???? ...">`:
   \   000000   25303258     DB 25H, 30H, 32H, 58H, 2EH, 20H, 7CH, 20H
   \            2E207C20
   \   000008   252D3673     DB 25H, 2DH, 36H, 73H, 20H, 7CH, 20H, 20H
   \            207C2020
   \   000010   3F3F3F3F     DB 3FH, 3FH, 3FH, 3FH, 20H, 20H, 7CH, 20H
   \            20207C20
   \   000018   20202530     DB 20H, 20H, 25H, 30H, 32H, 58H, 20H, 20H
   \            32582020
   \   000020   20207C20     DB 20H, 20H, 7CH, 20H, 20H, 20H, 75H, 6EH
   \            2020756E
   \   000028   75736564     DB 75H, 73H, 65H, 64H, 20H, 20H, 20H, 7CH
   \            2020207C
   \   000030   20252D31     DB 20H, 25H, 2DH, 31H, 36H, 73H, 20H, 25H
   \            36732025
   \   000038   7300         DB 73H, 0

   \                                 In  segment XDATA_ROM_C, align 1
   \                     `?<Constant "%02X. | %-6s |  ???? ...">_1`:
   \   000000   25303258     DB 25H, 30H, 32H, 58H, 2EH, 20H, 7CH, 20H
   \            2E207C20
   \   000008   252D3673     DB 25H, 2DH, 36H, 73H, 20H, 7CH, 20H, 20H
   \            207C2020
   \   000010   3F3F3F3F     DB 3FH, 3FH, 3FH, 3FH, 20H, 20H, 7CH, 20H
   \            20207C20
   \   000018   20202530     DB 20H, 20H, 25H, 30H, 32H, 58H, 20H, 20H
   \            32582020
   \   000020   20207C20     DB 20H, 20H, 7CH, 20H, 20H, 20H, 20H, 25H
   \            20202025
   \   000028   30345820     DB 30H, 34H, 58H, 20H, 20H, 20H, 20H, 7CH
   \            2020207C
   \   000030   20252D31     DB 20H, 25H, 2DH, 31H, 36H, 73H, 20H, 25H
   \            36732025
   \   000038   7300         DB 73H, 0

   \                                 In  segment XDATA_ROM_C, align 1
   \                     `?<Constant "%d. | Unused">`:
   \   000000   25642E20     DB "%d. | Unused"
   \            7C20556E
   \            75736564
   \            00      

   \                                 In  segment XDATA_ROM_C, align 1
   \                     `?<Constant ":,,,,\\r">`:
   \   000000   3A2C2C2C     DB ":,,,,\015"
   \            2C0D00  

   \                                 In  segment XDATA_ROM_C, align 1
   \                     `?<Constant ":,,,,,\\r">`:
   \   000000   3A2C2C2C     DB ":,,,,,\015"
   \            2C2C0D00

   \                                 In  segment XDATA_ROM_C, align 1
   \                     `?<Constant {{0}, 2}>`:
   \   000000   0000         DW 0
   \   000002   00000000     DB 0, 0, 0, 0, 0, 0
   \            0000    
   \   000008   02           DB 2

   \                                 In  segment XDATA_ROM_C, align 1
   \                     `?<Constant ":,,,,,,\\r">`:
   \   000000   3A2C2C2C     DB ":,,,,,,\015"
   \            2C2C2C0D
   \            00      

   \                                 In  segment XDATA_ROM_C, align 1
   \                     `?<Constant {{65535}, 15, 204, 0}>`:
   \   000000   FFFF         DW 65535
   \   000002   00000000     DB 0, 0, 0, 0, 0, 0
   \            0000    
   \   000008   0F           DB 15
   \   000009   CC           DB 204
   \   00000A   0000         DW 0

   \                                 In  segment XDATA_ROM_C, align 1
   \                     `?<Constant {{0}, 2, 204, 0}>`:
   \   000000   0000         DW 0
   \   000002   00000000     DB 0, 0, 0, 0, 0, 0
   \            0000    
   \   000008   02           DB 2
   \   000009   CC           DB 204
   \   00000A   0000         DW 0

   \                                 In  segment XDATA_ROM_C, align 1
   \                     `?<Constant "ATI">`:
   \   000000   41544900     DB "ATI"

   \                                 In  segment XDATA_ROM_C, align 1
   \                     `?<Constant ".">`:
   \   000000   2E00         DB "."

   \                                 In  segment XDATA_ROM_C, align 1
   \                     `?<Constant "Display Product Ident...">`:
   \   000000   44697370     DB "Display Product Identification Information"
   \            6C617920
   \            50726F64
   \            75637420
   \            4964656E
   \            74696669
   \            63617469
   \            6F6E2049
   \            6E666F72
   \            6D617469
   \            6F6E00  

   \                                 In  segment XDATA_ROM_C, align 1
   \                     `?<Constant "ATZ">`:
   \   000000   41545A00     DB "ATZ"

   \                                 In  segment XDATA_ROM_C, align 1
   \                     `?<Constant "Software Reset">`:
   \   000000   536F6674     DB "Software Reset"
   \            77617265
   \            20526573
   \            657400  

   \                                 In  segment XDATA_ROM_C, align 1
   \                     `?<Constant "AT&F">`:
   \   000000   41542646     DB "AT&F"
   \            00      

   \                                 In  segment XDATA_ROM_C, align 1
   \                     `?<Constant "Restore Local Device\\'...">`:
   \   000000   52657374     DB "Restore Local Device's Factory Defaults"
   \            6F726520
   \            4C6F6361
   \            6C204465
   \            76696365
   \            27732046
   \            6163746F
   \            72792044
   \            65666175
   \            6C747300

   \                                 In  segment XDATA_ROM_C, align 1
   \                     `?<Constant "ATS">`:
   \   000000   41545300     DB "ATS"

   \                                 In  segment XDATA_ROM_C, align 1
   \                     `?<Constant "S-Register Access ATS...">`:
   \   000000   532D5265     DB "S-Register Access ATSXX? / ATSXX=<data>"
   \            67697374
   \            65722041
   \            63636573
   \            73204154
   \            5358583F
   \            202F2041
   \            54535858
   \            3D3C6461
   \            74613E00

   \                                 In  segment XDATA_ROM_C, align 1
   \                     `?<Constant "AT+">`:
   \   000000   41542B00     DB "AT+"

   \                                 In  segment XDATA_ROM_C, align 1
   \                     __Constant_7fff800:
   \   000000   00F8FF07     DD 134215680

   Maximum stack usage in bytes:

     Function                       ISTACK PSTACK XSTACK
     --------                       ------ ------ ------
     AT_ChartoInt16                     0      0     98
       -> _AT_ChartoInt                 0      0     24
       -> _AT_ChartoInt                 0      0     24
       -> _AT_ChartoInt                 0      0     24
       -> _AT_ChartoInt                 0      0     24
     AT_ChartoInt8                      0      0     92
       -> _AT_ChartoInt                 0      0     22
       -> _AT_ChartoInt                 0      0     22
     AT_ChartoIntx                      0      0     88
       -> _AT_ChartoInt                 0      0     38
       -> _AT_ChartoInt                 0      0     38
     AT_Cmd_ACTEPDESC                   0      0     34
       -> AT_get_next_cmdUnit           0      0     66
       -> AT_pattern_check              0      0     66
       -> AT_UARTWriteErrMsg            0      0     66
       -> AT_ChartoIntx                 0      0     66
       -> AT_ChartoInt16                0      0     66
       -> AT_ChartoInt16                0      0     68
       -> ZDP_NWKAddrOfInterestReq      0      0     68
       -> AT_UARTWriteErrMsg            0      0     66
       -> AT_HalUARTWrite               0      0     66
     AT_Cmd_ANNCE                       0      0     17
       -> AT_get_next_cmdUnit           0      0     32
       -> AT_pattern_check              0      0     32
       -> AT_UARTWriteErrMsg            0      0     32
       -> NLME_GetExtAddr               0      0     32
       -> NLME_GetShortAddr             0      0     32
       -> ZDP_DeviceAnnce               0      0     34
       -> AT_UARTWriteErrMsg            0      0     32
       -> AT_HalUARTWrite               0      0     32
     AT_Cmd_ATABLE                      0      0     41
       -> AT_get_next_cmdUnit           0      0     54
       -> AT_pattern_check              0      0     54
       -> AT_UARTWriteErrMsg            0      0     54
       -> AT_HalUARTWrite               0      0     54
       -> printf                        0      0     54
       -> AddrMgrEntryGet               0      0     54
       -> AT_HalUARTWrite               0      0     54
       -> printf                        0      0     82
       -> AT_HalUARTWrite               0      0     54
       -> AT_HalUARTWrite               0      0     54
     AT_Cmd_ATI                         0      0     53
       -> AT_get_next_cmdUnit           0      0     70
       -> AT_pattern_check              0      0     70
       -> AT_UARTWriteErrMsg            0      0     70
       -> NLME_GetExtAddr               0      0     70
       -> AT_EUI64toChar                0      0     70
       -> AT_Int8toChar                 0      0     70
       -> AT_HalUARTWrite               0      0     70
       -> AT_HalUARTWrite               0      0     70
       -> AT_HalUARTWrite               0      0     70
       -> AT_HalUARTWrite               0      0     70
       -> AT_HalUARTWrite               0      0     70
       -> printf                        0      0     70
       -> AT_HalUARTWrite               0      0     70
       -> AT_HalUARTWrite               0      0     70
       -> AT_HalUARTWrite               0      0     70
       -> AT_HalUARTWrite               0      0     70
       -> AT_HalUARTWrite               0      0     70
     AT_Cmd_ATS                         1      0     70
       -> AT_get_next_cmdUnit           0      0     96
       -> AT_ChartoInt8                 0      0     96
       -> AT_get_smap_index             0      0     96
       -> AT_get_next_cmdUnit           0      0     96
       -> AT_get_smap_index             0      0     96
       -> osal_nv_item_init             0      0    100
       -> AT_pattern_check              0      0     96
       -> AT_UARTWriteErrMsg            0      0     96
       -> AT_pattern_check              0      0     96
       -> AT_UARTWriteErrMsg            0      0     96
       -> osal_mem_alloc                0      0     96
       -> osal_nv_read                  0      0    104
       -> AT_CmpCmd                     0      0     96
       -> osal_mem_free                 0      0     96
       -> osal_nv_item_init             0      0    100
       -> AT_UARTWriteErrMsg            0      0     96
       -> osal_mem_alloc                0      0     96
       -> osal_nv_read                  0      0    104
       -> AT_HalUARTWrite               0      0     96
       -> AT_Int8toChar                 0      0     96
       -> AT_HalUARTWrite               0      0     96
       -> AT_HalUARTWrite               0      0     96
       -> AT_HalUARTWrite               0      0     96
       -> AT_UARTWriteErrMsg            0      0     96
       -> osal_nv_write                 0      0    104
       -> AT_HalUARTWrite               0      0     96
       -> AT_UARTWriteErrMsg            0      0     96
       -> osal_mem_alloc                0      0     96
       -> osal_mem_alloc                0      0     96
       -> AT_ChartoInt8                 0      0     96
       -> osal_mem_free                 0      0     96
       -> osal_nv_write                 0      0    104
       -> AT_HalUARTWrite               0      0     96
       -> AT_UARTWriteErrMsg            0      0     96
       -> osal_mem_free                 0      0     96
       -> AT_UARTWriteErrMsg            0      0     96
       -> osal_mem_free                 0      0     96
       -> AT_UARTWriteErrMsg            0      0     96
       -> AT_UARTWriteErrMsg            0      0     96
       -> AT_get_next_cmdUnit           0      0     96
       -> osal_nv_item_init             0      0    100
       -> AT_pattern_check              0      0     96
       -> AT_UARTWriteErrMsg            0      0     96
       -> osal_mem_alloc                0      0     96
       -> osal_nv_read                  0      0    104
       -> AT_HalUARTWrite               0      0     96
       -> AT_Int8toChar                 0      0     96
       -> AT_HalUARTWrite               0      0     96
       -> AT_HalUARTWrite               0      0     96
       -> AT_HalUARTWrite               0      0     96
       -> AT_UARTWriteErrMsg            0      0     96
       -> osal_mem_free                 0      0     96
       -> AT_pattern_check              0      0     96
       -> AT_UARTWriteErrMsg            0      0     96
       -> osal_mem_alloc                0      0     96
       -> osal_mem_alloc                0      0     96
       -> AT_ChartoInt8                 0      0     96
       -> osal_mem_free                 0      0     96
       -> osal_nv_write                 0      0    104
       -> AT_HalUARTWrite               0      0     96
       -> AT_UARTWriteErrMsg            0      0     96
       -> AT_UARTWriteErrMsg            0      0     96
     AT_Cmd_ATTRDISC                    1      0     56
       -> AT_get_next_cmdUnit           0      0    102
       -> AT_pattern_check              0      0    102
       -> AT_UARTWriteErrMsg            0      0    102
       -> AT_ChartoInt8                 0      0    102
       -> AT_ChartoInt16                0      0    102
       -> NLME_GetShortAddr             0      0    102
       -> AT_ChartoInt16                0      0    102
       -> AT_ChartoInt8                 0      0    102
       -> AT_ChartoInt8                 0      0    102
       -> zcl_SendDiscoverCmd           0      0    112
       -> AT_UARTWriteErrMsg            0      0    102
       -> AT_HalUARTWrite               0      0    102
     AT_Cmd_ATZ                         0      0     31
       -> AT_get_next_cmdUnit           0      0     26
       -> AT_pattern_check              0      0     26
       -> AT_UARTWriteErrMsg            0      0     26
       -> AT_HalUARTWrite               0      0     26
       -> osal_start_timerEx            0      0     26
     AT_Cmd_AT_F                        0      0     31
       -> AT_get_next_cmdUnit           0      0     26
       -> AT_pattern_check              0      0     26
       -> AT_UARTWriteErrMsg            0      0     26
       -> AT_clear_AT_SYSTEM_NVs        0      0     26
       -> zgWriteStartupOptions         0      0     26
       -> AT_HalUARTWrite               0      0     26
       -> osal_start_timerEx            0      0     26
       -> AT_UARTWriteErrMsg            0      0     26
     AT_Cmd_BCLR                        0      0     24
       -> AT_get_next_cmdUnit           0      0     48
       -> AT_ChartoInt8                 0      0     48
       -> AT_ChartoInt16                0      0     48
       -> AT_pattern_check              0      0     48
       -> AT_UARTWriteErrMsg            0      0     48
       -> bindRemoveClusterIdFromList
                                        0      0     48
       -> AT_HalUARTWrite               0      0     48
       -> bindRemoveEntry               0      0     48
       -> AT_HalUARTWrite               0      0     48
       -> BindWriteNV                   0      0     48
       -> AT_pattern_check              0      0     48
       -> AT_UARTWriteErrMsg            0      0     48
       -> bindRemoveEntry               0      0     48
       -> AT_UARTWriteErrMsg            0      0     48
     AT_Cmd_BIND                        0      0     77
       -> AT_get_next_cmdUnit           0      0    138
       -> AT_ChartoInt8                 0      0    138
       -> AT_ChartoInt16                0      0    138
       -> AT_pattern_check              0      0    138
       -> AT_UARTWriteErrMsg            0      0    138
       -> AT_ChartoInt8                 0      0    138
       -> AT_pattern_check              0      0    138
       -> AT_UARTWriteErrMsg            0      0    138
       -> NLME_GetExtAddr               0      0    138
       -> osal_memcpy                   0      0    144
       -> AT_ChartoIntx                 0      0    138
       -> NLME_GetShortAddr             0      0    138
       -> AT_ChartoIntx                 0      0    138
       -> AT_ChartoInt16                0      0    138
       -> NLME_GetExtAddr               0      0    138
       -> osal_memcpy                   0      0    144
       -> AT_ChartoIntx                 0      0    138
       -> AT_ChartoInt16                0      0    138
       -> ZDP_BindUnbindReq             0      0    154
       -> AT_UARTWriteErrMsg            0      0    138
       -> AT_HalUARTWrite               0      0    138
     AT_Cmd_BSET                        0      0     51
       -> AT_get_next_cmdUnit           0      0     98
       -> AT_pattern_check              0      0     98
       -> AT_UARTWriteErrMsg            0      0     98
       -> AT_ChartoInt8                 0      0     98
       -> AT_ChartoInt8                 0      0     98
       -> AT_ChartoInt8                 0      0     98
       -> AT_ChartoInt16                0      0     98
       -> AT_ChartoIntx                 0      0     98
       -> bindAddEntry                  0      0    102
       -> AT_UARTWriteErrMsg            0      0     98
       -> AT_ChartoInt16                0      0     98
       -> AT_UARTWriteErrMsg            0      0     98
       -> AT_HalUARTWrite               0      0     98
       -> APSME_LookupNwkAddr           0      0     98
       -> ZDP_NwkAddrReq                0      0     98
       -> BindWriteNV                   0      0     98
     AT_Cmd_BTABLE                      1      0     39
       -> AT_get_next_cmdUnit           0      0     68
       -> AT_pattern_check              0      0     68
       -> AT_UARTWriteErrMsg            0      0     68
       -> AT_ChartoInt16                0      0     68
       -> AT_ChartoIntx                 0      0     68
       -> AT_ChartoInt16                0      0     68
       -> ZDP_SendData                  0      0     78
       -> AT_UARTWriteErrMsg            0      0     68
       -> AT_HalUARTWrite               0      0     68
     AT_Cmd_CLEARBIND                   0      0     13
       -> AT_get_next_cmdUnit           0      0     26
       -> AT_pattern_check              0      0     26
       -> AT_UARTWriteErrMsg            0      0     26
       -> InitBindingTable              0      0     26
       -> BindWriteNV                   0      0     26
       -> AT_HalUARTWrite               0      0     26
     AT_Cmd_CLUSDISC                    1      0     28
       -> AT_get_next_cmdUnit           0      0     52
       -> AT_pattern_check              0      0     52
       -> AT_UARTWriteErrMsg            0      0     52
       -> AT_ChartoInt8                 0      0     52
       -> NLME_GetShortAddr             0      0     52
       -> AT_ChartoInt16                0      0     52
       -> AT_AF_Cmd_send_simple_        0      0     56
       -> AT_UARTWriteErrMsg            0      0     52
       -> AT_HalUARTWrite               0      0     52
     AT_Cmd_DASSL                       2      0     18
       -> AT_get_next_cmdUnit           0      0     36
       -> AT_pattern_check              0      0     36
       -> AT_UARTWriteErrMsg            0      0     36
       -> NLME_LeaveReq                 0      0     36
       -> AT_HalUARTWrite               0      0     36
       -> AT_UARTWriteErrMsg            0      0     36
     AT_Cmd_DASSR                       2      0     39
       -> AT_get_next_cmdUnit           0      0     74
       -> AT_pattern_check              0      0     74
       -> AT_UARTWriteErrMsg            0      0     74
       -> AT_UARTWriteErrMsg            0      0     74
       -> AT_ChartoIntx                 0      0     74
       -> AT_ChartoInt16                0      0     74
       -> ZDP_MgmtLeaveReq              0      0     78
       -> AT_HalUARTWrite               0      0     74
       -> AT_UARTWriteErrMsg            0      0     74
     AT_Cmd_DISCOVER                    2      0     62
       -> AT_get_next_cmdUnit           0      0    106
       -> AT_ChartoInt16                0      0    106
       -> AT_pattern_check              0      0    106
       -> AT_UARTWriteErrMsg            0      0    106
       -> AT_ChartoInt8                 0      0    106
       -> NLME_GetShortAddr             0      0    106
       -> AF_DataRequest                0      0    124
       -> AT_UARTWriteErrMsg            0      0    106
       -> AT_pattern_check              0      0    106
       -> AT_UARTWriteErrMsg            0      0    106
       -> AF_DataRequest                0      0    124
       -> AT_HalUARTWrite               0      0    106
     AT_Cmd_EBIND                       2      0     38
       -> AT_get_next_cmdUnit           0      0     58
       -> AT_pattern_check              0      0     58
       -> AT_UARTWriteErrMsg            0      0     58
       -> AT_ChartoInt8                 0      0     58
       -> afFindEndPointDesc            0      0     58
       -> NLME_GetShortAddr             0      0     58
       -> ZDP_EndDeviceBindReq          0      0     76
       -> AT_HalUARTWrite               0      0     58
       -> AT_UARTWriteErrMsg            0      0     58
       -> AT_UARTWriteErrMsg            0      0     58
     AT_Cmd_EN                          0      0     39
       -> AT_get_next_cmdUnit           0      0     64
       -> AT_UARTWriteErrMsg            0      0     64
       -> AT_pattern_check              0      0     64
       -> AT_UARTWriteErrMsg            0      0     64
       -> AT_ChartoIntx                 0      0     64
       -> AT_ChartoInt16                0      0     64
       -> AT_ChartoInt8                 0      0     64
       -> ZDO_RegisterForZdoCB          0      0     64
       -> AT_ChartoInt16                0      0     64
       -> NLME_NetworkFormationRequest
                                        0      0     78
       -> AT_UARTWriteErrMsg            0      0     64
       -> AT_HalUARTWrite               0      0     64
     AT_Cmd_EPENABLE                    1      0     27
       -> AT_get_next_cmdUnit           0      0     54
       -> AT_pattern_check              0      0     54
       -> AT_UARTWriteErrMsg            0      0     54
       -> AT_ChartoInt8                 0      0     54
       -> AT_ChartoInt8                 0      0     54
       -> AT_af_get_ep                  0      0     54
       -> AT_af_register_ep             0      0     54
       -> AT_ZCL_EP_ENABLE              0      0     54
       -> AT_NV_ZCL_get_index_          0      0     54
       -> AT_NV_ZCL_saveEPStatus        0      0     54
       -> AT_HalUARTWrite               0      0     54
       -> AT_HalUARTWrite               0      0     54
       -> AT_Int8toChar                 0      0     54
       -> AT_HalUARTWrite               0      0     54
       -> AT_HalUARTWrite               0      0     54
       -> AT_HalUARTWrite               0      0     54
       -> AT_HalUARTWrite               0      0     54
       -> AT_HalUARTWrite               0      0     54
       -> AT_af_get_ep                  0      0     54
       -> AT_af_remove_ep               0      0     54
       -> AT_ZCL_EP_ENABLE              0      0     54
       -> AT_NV_ZCL_get_index_          0      0     54
       -> AT_NV_ZCL_saveEPStatus        0      0     54
       -> AT_HalUARTWrite               0      0     54
       -> AT_HalUARTWrite               0      0     54
       -> AT_Int8toChar                 0      0     54
       -> AT_HalUARTWrite               0      0     54
       -> AT_HalUARTWrite               0      0     54
       -> AT_HalUARTWrite               0      0     54
     AT_Cmd_EPPRINT                     0      0     21
       -> AT_get_next_cmdUnit           0      0     42
       -> AT_pattern_check              0      0     42
       -> AT_UARTWriteErrMsg            0      0     42
       -> afNumEndPoints                0      0     42
       -> osal_mem_alloc                0      0     42
       -> AT_UARTWriteErrMsg            0      0     42
       -> afEndPoints                   0      0     42
       -> AT_sort_arr                   0      0     42
       -> AT_HalUARTWrite               0      0     42
       -> AT_HalUARTWrite               0      0     42
       -> AT_HalUARTWrite               0      0     42
       -> AT_Int8toChar                 0      0     42
       -> AT_HalUARTWrite               0      0     42
       -> AT_HalUARTWrite               0      0     42
       -> AT_HalUARTWrite               0      0     42
       -> AT_HalUARTWrite               0      0     42
       -> AT_HalUARTWrite               0      0     42
       -> osal_mem_free                 0      0     42
     AT_Cmd_ESCAN                       0      0     20
       -> AT_get_next_cmdUnit           0      0     40
       -> AT_pattern_check              0      0     40
       -> AT_UARTWriteErrMsg            0      0     40
       -> NLME_NwkDiscReq2              0      0     40
       -> AT_HalUARTWrite               0      0     40
       -> AT_HalUARTWrite               0      0     40
       -> NLME_NwkDiscTerm              0      0     40
       -> AT_UARTWriteErrMsg            0      0     40
     AT_Cmd_ESCAN1                      0      0     37
       -> AT_get_next_cmdUnit           0      0     66
       -> AT_pattern_check              0      0     66
       -> AT_UARTWriteErrMsg            0      0     66
       -> NLME_GetShortAddr             0      0     66
       -> ZDP_MgmtNwkDiscReq            0      0     74
       -> AT_UARTWriteErrMsg            0      0     66
       -> AT_HalUARTWrite               0      0     66
     AT_Cmd_ESCANCB                     0      0     17
       -> AT_HalUARTWrite               0      0     26
       -> printf                        0      0     34
       -> AT_HalUARTWrite               0      0     26
       -> AT_HalUARTWrite               0      0     26
       -> AT_HalUARTWrite               0      0     26
       -> NLME_NwkDiscTerm              0      0     26
     AT_Cmd_EUIREQ                      1      0     28
       -> AT_get_next_cmdUnit           0      0     56
       -> AT_pattern_check              0      0     56
       -> AT_UARTWriteErrMsg            0      0     56
       -> NLME_GetShortAddr             2      0     56
       -> ZDP_IEEEAddrReq               0      0     56
       -> AT_UARTWriteErrMsg            0      0     56
       -> AT_pattern_check              0      0     56
       -> AT_UARTWriteErrMsg            0      0     56
       -> AT_ChartoInt8                 0      0     56
       -> AT_ChartoInt16                2      0     56
       -> ZDP_IEEEAddrReq               0      0     56
       -> AT_UARTWriteErrMsg            0      0     56
       -> AT_pattern_check              0      0     56
       -> AT_UARTWriteErrMsg            0      0     56
       -> AT_ChartoInt16                2      0     56
       -> ZDP_IEEEAddrReq               0      0     56
       -> AT_UARTWriteErrMsg            0      0     56
       -> AT_HalUARTWrite               0      0     56
     AT_Cmd_GTP                         0      0     19
       -> AT_get_next_cmdUnit           0      0     34
       -> MAC_MlmeGetReq                0      0     34
       -> AT_HalUARTWrite               0      0     34
       -> printf                        0      0     38
       -> AT_HalUARTWrite               0      0     34
       -> AT_HalUARTWrite               0      0     34
       -> AT_UARTWriteErrMsg            0      0     34
     AT_Cmd_HELP                        0      0     16
       -> AT_get_next_cmdUnit           0      0     32
       -> AT_pattern_check              0      0     32
       -> AT_UARTWriteErrMsg            0      0     32
       -> AT_HalUARTWrite               0      0     32
       -> AT_HalUARTWrite               0      0     32
       -> AT_HalUARTWrite               0      0     32
       -> AT_HalUARTWrite               0      0     32
       -> AT_HalUARTWrite               0      0     32
       -> AT_HalUARTWrite               0      0     32
       -> AT_HalUARTWrite               0      0     32
       -> AT_HalUARTWrite               0      0     32
       -> AT_HalUARTWrite               0      0     32
       -> AT_HalUARTWrite               0      0     32
       -> AT_HalUARTWrite               0      0     32
       -> AT_HalUARTWrite               0      0     32
       -> AT_HalUARTWrite               0      0     32
       -> AT_HalUARTWrite               0      0     32
       -> AT_HalUARTWrite               0      0     32
       -> AT_HalUARTWrite               0      0     32
       -> AT_HalUARTWrite               0      0     32
       -> AT_HalUARTWrite               0      0     32
       -> AT_strLen                     0      0     32
       -> AT_HalUARTWrite               0      0     32
       -> AT_HalUARTWrite               0      0     32
       -> AT_strLen                     0      0     32
       -> printf                        0      0     32
       -> AT_HalUARTWrite               0      0     32
       -> AT_HalUARTWrite               0      0     32
     AT_Cmd_IDENTIFY                    1      0     46
       -> AT_get_next_cmdUnit           0      0     88
       -> AT_pattern_check              0      0     88
       -> AT_UARTWriteErrMsg            0      0     88
       -> AT_ChartoInt8                 0      0     88
       -> AT_ChartoInt8                 0      0     88
       -> NLME_GetShortAddr             0      0     88
       -> AT_ChartoInt16                0      0     88
       -> AT_ChartoInt16                0      0     92
       -> zclGeneral_SendIdentify       0      0     92
       -> AT_UARTWriteErrMsg            0      0     88
       -> AT_HalUARTWrite               0      0     88
     AT_Cmd_IDQUERY                     1      0     51
       -> AT_get_next_cmdUnit           0      0     80
       -> AT_pattern_check              0      0     80
       -> AT_UARTWriteErrMsg            0      0     80
       -> AT_ChartoInt8                 0      0     80
       -> AT_ChartoInt8                 0      0     80
       -> NLME_GetShortAddr             0      0     80
       -> AT_ChartoInt16                0      0     80
       -> zcl_SendCommand               0      0    102
       -> AT_UARTWriteErrMsg            0      0     80
       -> AT_HalUARTWrite               0      0     80
     AT_Cmd_IDREQ                       1      0     32
       -> AT_get_next_cmdUnit           0      0     64
       -> AT_ChartoIntx                 0      0     64
       -> AT_pattern_check              0      0     64
       -> AT_UARTWriteErrMsg            0      0     64
       -> NLME_GetShortAddr             2      0     64
       -> ZDP_IEEEAddrReq               0      0     64
       -> AT_UARTWriteErrMsg            0      0     64
       -> AT_pattern_check              0      0     64
       -> AT_UARTWriteErrMsg            0      0     64
       -> AT_ChartoInt8                 0      0     64
       -> ZDP_NwkAddrReq                0      0     64
       -> AT_UARTWriteErrMsg            0      0     64
       -> AT_pattern_check              0      0     64
       -> AT_UARTWriteErrMsg            0      0     64
       -> ZDP_NwkAddrReq                0      0     64
       -> AT_UARTWriteErrMsg            0      0     64
       -> AT_HalUARTWrite               0      0     64
     AT_Cmd_INITNV                      0      0     26
       -> AT_get_next_cmdUnit           0      0     48
       -> AT_pattern_check              0      0     48
       -> AT_UARTWriteErrMsg            0      0     48
       -> AT_ChartoInt16                0      0     48
       -> AT_ChartoInt16                0      0     52
       -> osal_nv_item_init             0      0     52
       -> AT_HalUARTWrite               0      0     48
       -> AT_UARTWriteErrMsg            0      0     48
     AT_Cmd_JN                          0      0     13
       -> AT_get_next_cmdUnit           0      0     26
       -> AT_pattern_check              0      0     26
       -> AT_UARTWriteErrMsg            0      0     26
       -> AT_UARTWriteErrMsg            0      0     26
     AT_Cmd_JPAN                        0      0     28
       -> AT_get_next_cmdUnit           0      0     56
       -> AT_pattern_check              0      0     56
       -> AT_UARTWriteErrMsg            0      0     56
       -> AT_UARTWriteErrMsg            0      0     56
     AT_Cmd_LBTABLE                     0      0     67
       -> AT_get_next_cmdUnit           0      0    110
       -> AT_pattern_check              0      0    110
       -> AT_UARTWriteErrMsg            0      0    110
       -> AT_HalUARTWrite               0      0    110
       -> bindCapacity                  0      0    110
       -> printf                        0      0    118
       -> AT_HalUARTWrite               0      0    110
       -> printf                        0      0    110
       -> AT_HalUARTWrite               0      0    110
       -> printf                        0      0    114
       -> sprintf                       0      0    114
       -> bindingAddrMgsHelperConvert
                                        0      0    110
       -> AT_EUI64toChar                0      0    110
       -> sprintf                       0      0    114
       -> sprintf                       0      0    110
       -> sprintf                       0      0    114
       -> AT_HalUARTWrite               0      0    110
       -> printf                        0      0    130
       -> printf                        0      0    130
       -> AT_HalUARTWrite               0      0    110
       -> printf                        0      0    134
       -> AT_HalUARTWrite               0      0    110
       -> AT_HalUARTWrite               0      0    110
     AT_Cmd_LONOFF                      0      0     20
       -> AT_get_next_cmdUnit           0      0     40
       -> AT_pattern_check              0      0     40
       -> AT_UARTWriteErrMsg            0      0     40
       -> HalLedSet                     0      0     40
       -> AT_ChartoInt8                 0      0     40
       -> HalLedSet                     0      0     40
       -> HalLedSet                     0      0     40
       -> AT_HalUARTWrite               0      0     40
     AT_Cmd_MATCHREQ                    2      0     41
       -> AT_get_next_cmdUnit           0      0     66
       -> AT_UARTWriteErrMsg            0      0     66
       -> AT_ChartoInt16                0      0     66
       -> AT_get_next_cmdUnit           0      0     66
       -> AT_ChartoInt8                 0      0     66
       -> osal_mem_alloc                0      0     66
       -> AT_UARTWriteErrMsg            0      0     66
       -> AT_get_next_cmdUnit           0      0     66
       -> AT_ChartoInt16                0      0     66
       -> AT_get_next_cmdUnit           0      0     66
       -> AT_ChartoInt8                 0      0     66
       -> osal_mem_alloc                0      0     66
       -> AT_get_next_cmdUnit           0      0     66
       -> AT_ChartoInt16                0      0     66
       -> AT_get_next_cmdUnit           0      0     66
       -> ZDP_MatchDescReq              0      0     82
       -> AT_UARTWriteErrMsg            0      0     66
       -> AT_HalUARTWrite               0      0     66
       -> osal_mem_free                 0      0     66
       -> osal_mem_free                 0      0     66
     AT_Cmd_N                           0      0     36
       -> AT_get_next_cmdUnit           0      0     72
       -> AT_pattern_check              0      0     72
       -> AT_UARTWriteErrMsg            0      0     72
       -> AT_HalUARTWrite               0      0     72
       -> AT_HalUARTWrite               0      0     72
       -> AT_HalUARTWrite               0      0     72
       -> AT_HalUARTWrite               0      0     72
       -> AT_HalUARTWrite               0      0     72
       -> AT_HalUARTWrite               0      0     72
       -> AT_Int8toChar                 0      0     72
       -> AT_HalUARTWrite               0      0     72
       -> AT_HalUARTWrite               0      0     72
       -> AT_HalUARTWrite               0      0     72
       -> AT_HalUARTWrite               0      0     72
       -> AT_HalUARTWrite               0      0     72
       -> AT_HalUARTWrite               0      0     72
       -> AT_HalUARTWrite               0      0     72
       -> AT_Int16toChar                0      0     72
       -> AT_HalUARTWrite               0      0     72
       -> AT_HalUARTWrite               0      0     72
       -> AT_EUI64toChar                0      0     72
       -> AT_HalUARTWrite               0      0     72
       -> AT_HalUARTWrite               0      0     72
       -> AT_HalUARTWrite               0      0     72
     AT_Cmd_NODEDESC                    0      0     34
       -> AT_get_next_cmdUnit           0      0     66
       -> AT_pattern_check              0      0     66
       -> AT_UARTWriteErrMsg            0      0     66
       -> AT_ChartoIntx                 0      0     66
       -> AT_ChartoInt16                0      0     66
       -> AT_ChartoInt16                0      0     68
       -> ZDP_NWKAddrOfInterestReq      0      0     68
       -> AT_UARTWriteErrMsg            0      0     66
       -> AT_HalUARTWrite               0      0     66
     AT_Cmd_NTABLE                      1      0     39
       -> AT_get_next_cmdUnit           0      0     68
       -> AT_pattern_check              0      0     68
       -> AT_UARTWriteErrMsg            0      0     68
       -> AT_ChartoInt16                0      0     68
       -> AT_ChartoIntx                 0      0     68
       -> AT_ChartoInt16                0      0     68
       -> ZDP_SendData                  0      0     78
       -> AT_UARTWriteErrMsg            0      0     68
       -> AT_HalUARTWrite               0      0     68
     AT_Cmd_PANSCAN                     0      0     20
       -> AT_get_next_cmdUnit           0      0     40
       -> AT_pattern_check              0      0     40
       -> AT_UARTWriteErrMsg            0      0     40
       -> ZDO_RegisterForZdoCB          0      0     40
       -> NLME_NwkDiscReq2              0      0     40
       -> AT_HalUARTWrite               0      0     40
       -> AT_HalUARTWrite               0      0     40
       -> AT_UARTWriteErrMsg            0      0     40
       -> NLME_NwkDiscTerm              0      0     40
     AT_Cmd_PJOIN                       0      0     20
       -> AT_get_next_cmdUnit           0      0     40
       -> AT_pattern_check              0      0     40
       -> AT_UARTWriteErrMsg            0      0     40
       -> NLME_PermitJoiningRequest     0      0     40
       -> AT_HalUARTWrite               0      0     40
       -> AT_UARTWriteErrMsg            0      0     40
       -> AT_ChartoInt16                0      0     40
       -> NLME_PermitJoiningRequest     0      0     40
       -> AT_UARTWriteErrMsg            0      0     40
     AT_Cmd_POWERDESC                   0      0     34
       -> AT_get_next_cmdUnit           0      0     66
       -> AT_pattern_check              0      0     66
       -> AT_UARTWriteErrMsg            0      0     66
       -> AT_ChartoIntx                 0      0     66
       -> AT_ChartoInt16                0      0     66
       -> AT_ChartoInt16                0      0     68
       -> ZDP_NWKAddrOfInterestReq      0      0     68
       -> AT_UARTWriteErrMsg            0      0     66
       -> AT_HalUARTWrite               0      0     66
     AT_Cmd_PSEXP                       0      0     46
       -> AT_get_next_cmdUnit           0      0     88
       -> AT_pattern_check              0      0     88
       -> AT_UARTWriteErrMsg            0      0     88
       -> AT_ChartoInt16                0      0     88
       -> AT_ChartoInt16                0      0     88
       -> AT_ChartoInt16                0      0     88
       -> AT_AF_Cmd_send_simple_        0      0     92
       -> AT_App_Power_saving_exp       0      0     88
       -> AT_HalUARTWrite               0      0     88
       -> AT_UARTWriteErrMsg            0      0     88
       -> AT_UARTWriteErrMsg            0      0     88
     AT_Cmd_R                           0      0     24
       -> AT_get_next_cmdUnit           0      0     48
       -> AT_UARTWriteErrMsg            0      0     48
       -> AT_ChartoInt8                 0      0     48
       -> AT_capitalizeCmd              0      0     48
       -> AT_UARTWriteErrMsg            0      0     48
       -> AT_capitalizeCmd              0      0     48
       -> AT_UARTWriteErrMsg            0      0     48
     AT_Cmd_READATR                     1      0     86
       -> AT_get_next_cmdUnit           0      0    162
       -> AT_pattern_check              0      0    162
       -> AT_UARTWriteErrMsg            0      0    162
       -> AT_ChartoInt8                 0      0    162
       -> AT_ChartoInt8                 0      0    162
       -> NLME_GetShortAddr             0      0    162
       -> AT_ChartoInt16                0      0    162
       -> osal_mem_alloc                0      0    162
       -> AT_ChartoInt16                0      0    162
       -> AT_ChartoInt16                0      0    172
       -> zcl_SendRead                  0      0    172
       -> osal_mem_free                 0      0    162
       -> AT_UARTWriteErrMsg            0      0    162
       -> AT_HalUARTWrite               0      0    162
     AT_Cmd_READNV                      0      0     40
       -> AT_get_next_cmdUnit           0      0     72
       -> AT_pattern_check              0      0     72
       -> AT_UARTWriteErrMsg            0      0     72
       -> AT_ChartoInt16                0      0     72
       -> AT_ChartoInt16                0      0     72
       -> AT_ChartoInt16                0      0     72
       -> osal_msg_allocate             0      0     72
       -> osal_nv_read                  0      0     80
       -> AT_HalUARTWrite               0      0     72
       -> AT_Int8toChar                 0      0     72
       -> AT_HalUARTWrite               0      0     72
       -> AT_HalUARTWrite               0      0     72
       -> AT_HalUARTWrite               0      0     72
       -> AT_HalUARTWrite               0      0     72
       -> AT_UARTWriteErrMsg            0      0     72
       -> osal_msg_deallocate           0      0     72
     AT_Cmd_REPENABLE                   1      0     34
       -> AT_get_next_cmdUnit           0      0     64
       -> AT_pattern_check              0      0     64
       -> AT_UARTWriteErrMsg            0      0     64
       -> AT_ChartoInt8                 0      0     64
       -> AT_ChartoInt8                 0      0     64
       -> AT_ChartoInt16                0      0     64
       -> NLME_GetShortAddr             0      0     64
       -> AT_AF_Cmd_send_simple_        0      0     68
       -> AT_UARTWriteErrMsg            0      0     64
       -> AT_HalUARTWrite               0      0     64
     AT_Cmd_REPPRINT                    1      0     24
       -> AT_get_next_cmdUnit           0      0     44
       -> AT_pattern_check              0      0     44
       -> AT_UARTWriteErrMsg            0      0     44
       -> AT_ChartoInt16                2      0     48
       -> AT_AF_Cmd_send_simple_        0      0     48
       -> AT_UARTWriteErrMsg            0      0     44
       -> AT_HalUARTWrite               0      0     44
     AT_Cmd_RONOFF                      1      0     55
       -> AT_get_next_cmdUnit           0      0     88
       -> AT_pattern_check              0      0     88
       -> AT_UARTWriteErrMsg            0      0     88
       -> AT_ChartoInt8                 0      0     88
       -> AT_ChartoInt8                 0      0     88
       -> AT_ChartoInt8                 0      0     88
       -> NLME_GetShortAddr             0      0     88
       -> AT_ChartoInt16                0      0     88
       -> zcl_SendCommand               0      0    110
       -> zcl_SendCommand               0      0    110
       -> zcl_SendCommand               0      0    110
       -> AT_HalUARTWrite               0      0     88
       -> AT_UARTWriteErrMsg            0      0     88
     AT_Cmd_RONOFF1                     1      0     44
       -> AT_get_next_cmdUnit           0      0     88
       -> AT_pattern_check              0      0     88
       -> AT_UARTWriteErrMsg            0      0     88
       -> AT_ChartoInt8                 0      0     88
       -> AT_ChartoInt8                 0      0     88
       -> AT_ChartoInt8                 0      0     88
       -> AT_ChartoInt16                0      0     88
       -> AT_ONOFF_OUTPUT_Cmd_RONOFF
                                        0      0     88
     AT_Cmd_RSSIREQ                     0      0     24
       -> AT_get_next_cmdUnit           0      0     44
       -> AT_pattern_check              0      0     44
       -> AT_UARTWriteErrMsg            0      0     44
       -> AT_ChartoInt16                0      0     44
       -> AT_AF_Cmd_send_simple_        0      0     48
       -> AT_HalUARTWrite               0      0     44
       -> AT_UARTWriteErrMsg            0      0     44
     AT_Cmd_RTABLE                      1      0     39
       -> AT_get_next_cmdUnit           0      0     68
       -> AT_pattern_check              0      0     68
       -> AT_UARTWriteErrMsg            0      0     68
       -> AT_ChartoInt16                0      0     68
       -> AT_ChartoIntx                 0      0     68
       -> AT_ChartoInt16                0      0     68
       -> ZDP_SendData                  0      0     78
       -> AT_UARTWriteErrMsg            0      0     68
       -> AT_HalUARTWrite               0      0     68
     AT_Cmd_SIMPLEDESC                  0      0     38
       -> AT_get_next_cmdUnit           0      0     74
       -> AT_pattern_check              0      0     74
       -> AT_UARTWriteErrMsg            0      0     74
       -> AT_ChartoInt16                0      0     74
       -> AT_ChartoIntx                 0      0     74
       -> AT_ChartoInt16                0      0     74
       -> AT_ChartoInt16                0      0     76
       -> ZDP_SimpleDescReq             0      0     76
       -> AT_UARTWriteErrMsg            0      0     74
       -> AT_HalUARTWrite               0      0     74
     AT_Cmd_SPSEXP                      0      0     13
       -> AT_get_next_cmdUnit           0      0     26
       -> AT_pattern_check              0      0     26
       -> AT_UARTWriteErrMsg            0      0     26
       -> AT_App_Power_saving_exp_stop
                                        0      0     26
       -> AT_HalUARTWrite               0      0     26
     AT_Cmd_STP                         0      0     20
       -> AT_get_next_cmdUnit           0      0     40
       -> AT_pattern_check              0      0     40
       -> AT_UARTWriteErrMsg            0      0     40
       -> AT_ChartoInt8                 0      0     40
       -> ZMacSetTransmitPower          0      0     40
       -> AT_HalUARTWrite               0      0     40
       -> AT_UARTWriteErrMsg            0      0     40
     AT_Cmd_TEST                        0      0     33
       -> AT_get_next_cmdUnit           0      0     56
       -> AT_pattern_check              0      0     56
       -> AT_UARTWriteErrMsg            0      0     56
       -> osal_mem_alloc                0      0     56
       -> zcl_SendRead                  0      0     66
       -> osal_mem_free                 0      0     56
       -> AT_UARTWriteErrMsg            0      0     56
     AT_Cmd_UNBIND                      0      0     77
       -> AT_get_next_cmdUnit           0      0    138
       -> AT_ChartoInt8                 0      0    138
       -> AT_ChartoInt16                0      0    138
       -> AT_pattern_check              0      0    138
       -> AT_UARTWriteErrMsg            0      0    138
       -> AT_ChartoInt8                 0      0    138
       -> AT_pattern_check              0      0    138
       -> AT_UARTWriteErrMsg            0      0    138
       -> NLME_GetExtAddr               0      0    138
       -> osal_memcpy                   0      0    144
       -> AT_ChartoIntx                 0      0    138
       -> NLME_GetShortAddr             0      0    138
       -> AT_ChartoIntx                 0      0    138
       -> AT_ChartoInt16                0      0    138
       -> NLME_GetExtAddr               0      0    138
       -> osal_memcpy                   0      0    144
       -> AT_ChartoIntx                 0      0    138
       -> AT_ChartoInt16                0      0    138
       -> ZDP_BindUnbindReq             0      0    154
       -> AT_UARTWriteErrMsg            0      0    138
       -> AT_HalUARTWrite               0      0    138
     AT_Cmd_WRITEATR                    1      0     69
       -> AT_get_next_cmdUnit           0      0    126
       -> AT_pattern_check              0      0    126
       -> AT_UARTWriteErrMsg            0      0    126
       -> AT_ChartoInt8                 0      0    126
       -> AT_ChartoInt8                 0      0    126
       -> AT_ChartoInt8                 0      0    126
       -> NLME_GetShortAddr             0      0    126
       -> AT_ChartoInt16                0      0    126
       -> AT_ChartoInt16                0      0    126
       -> AT_ChartoInt16                0      0    126
       -> AT_ChartoInt8                 0      0    126
       -> AT_ChartoInt16                0      0    138
       -> zcl_SendWriteRequest          0      0    138
       -> AT_UARTWriteErrMsg            0      0    126
       -> AT_HalUARTWrite               0      0    126
     AT_Cmd_WRITENV                     1      0     34
       -> AT_get_next_cmdUnit           0      0     60
       -> AT_pattern_check              0      0     60
       -> AT_UARTWriteErrMsg            0      0     60
       -> AT_ChartoInt16                0      0     60
       -> AT_ChartoInt16                0      0     60
       -> AT_ChartoInt8                 0      0     60
       -> osal_nv_write                 0      0     68
       -> AT_HalUARTWrite               0      0     60
       -> AT_UARTWriteErrMsg            0      0     60
     AT_CmpCmd                          0      0     57
     AT_EUI64toChar                     1      0     64
     AT_HalUARTWrite                    0      0     95
       -> HalUARTPoll                   0      0     28
       -> HalUARTWrite                  0      0     28
     AT_HandleCMD                       0      0     29
       -> AT_HalUARTWrite               0      0     36
       -> AT_HalUARTWrite               0      0     36
       -> AT_get_next_cmdUnit           0      0     36
       -> AT_capitalizeCmd              0      0     36
       -> AT_HalUARTWrite               0      0     36
       -> AT_CmpCmd                     0      0     36
       -> AT_Cmd_ATI                    0      0     36
       -> AT_CmpCmd                     0      0     36
       -> AT_HalUARTWrite               0      0     36
       -> AT_Cmd_ATZ                    0      0     36
       -> AT_HalUARTWrite               0      0     36
       -> AT_Cmd_ATS                    0      0     36
       -> AT_UARTWriteErrMsg            0      0     36
       -> AT_CmpCmd                     0      0     36
       -> AT_HalUARTWrite               0      0     36
       -> printf                        0      0     36
       -> AT_CmpCmd                     0      0     36
       -> AT_UARTWriteErrMsg            0      0     36
       -> AT_UARTWriteErrMsg            0      0     36
       -> AT_CmpCmd                     0      0     36
       -> AT_HalUARTWrite               0      0     36
       -> AT_Cmd_AT_F                   0      0     36
       -> AT_UARTWriteErrMsg            0      0     36
     AT_Int16toChar                     1      0     45
     AT_Int8toChar                      3      0     48
     AT_NV_ZCL_get_index_               0      0     37
     AT_NV_ZCL_readEPStatus             0      0     16
       -> osal_nv_item_init             0      0     28
       -> osal_nv_read                  0      0     32
     AT_NV_ZCL_saveEPStatus             0      0     43
       -> osal_nv_item_init             0      0     28
       -> osal_nv_write                 0      0     32
     AT_UARTWriteErrMsg                 1      0    103
       -> AT_HalUARTWrite               0      0     44
     AT_UartCalcFCS                     2      0      0
     AT_UartInit                        0      0     38
       -> HalUARTOpen                   0      0     76
     AT_UartProcess                     1      0     11
       -> AT_HalUARTWrite               0      0     22
       -> AT_HalUARTWrite               0      0     22
       -> AT_HandleCMD                  0      0     22
       -> Hal_UART_RxBufLen             0      0     22
       -> HalUARTRead                   0      0     22
       -> Hal_UART_RxBufLen             0      0     22
       -> HalUARTRead                   0      0     22
     AT_capitalizeCmd                   2      0     24
     AT_clear_AT_SYSTEM_NVs             0      0     25
       -> osal_nv_item_len              0      0     24
       -> osal_nv_delete                0      0     24
       -> osal_nv_item_len              0      0     24
       -> osal_nv_delete                0      0     24
     AT_get_next_cmdUnit                1      0     91
     AT_get_smap_index                  2      0     48
     AT_is_CMD_EPs                      0      0     10
     AT_pattern_check                   0      0     93
     AT_sort_arr                        1      0     31
     AT_strLen                          0      0     26
     _AT_ChartoInt                      0      0     19


   Segment part sizes:

     Function/Label                            Bytes
     --------------                            -----
     Revision                                     2
     AT_Uart_TaskID                               1
     AT_CMD_EP_ARRAY                              5
     AT_CMD_EPs_Num                               1
     AT_state                                     1
     AT_tempLen                                   1
     pAT_Msg                                      2
     AT_RxBuffer                                128
     AT_Cmd_Arr                                 324
     AT_smap                                     57
     AT_UartInit                                111
     ??Subroutine172_0                            3
     ??Subroutine173_0                            5
     ?Subroutine25                                8
     ?Subroutine134                               8
     ?Subroutine28                                2
     ??Subroutine210_0                            5
     AT_UartProcess                             308
     ?Subroutine88                               11
     ?Subroutine45                               13
     ?Subroutine1                                 3
     ??Subroutine175_0                            5
     ?Subroutine153                               5
     AT_UartCalcFCS                              34
     ?Subroutine2                                 7
     AT_UARTWriteErrMsg                         128
     ?Subroutine87                                1
     ??Subroutine176_0                            6
     ??Subroutine178_0                            5
     ?Subroutine67                                4
     ??Subroutine193_0                            4
     AT_HalUARTWrite                             77
     ??Subroutine179_0                            5
     AT_clear_AT_SYSTEM_NVs                      86
     ??Subroutine196_0                            5
     ?Subroutine157                               5
     AT_is_CMD_EPs                               33
     ?Subroutine63                               12
     ??Subroutine180_0                            5
     AT_NV_ZCL_saveEPStatus                      70
     ?Subroutine95                                8
     ??Subroutine174_0                            6
     ?Subroutine156                               6
     AT_NV_ZCL_readEPStatus                      70
     ?Subroutine159                               6
     AT_NV_ZCL_get_index_                        28
     AT_EUI64toChar                              91
     ?Subroutine89                               25
     ?Subroutine83                                6
     ?Subroutine90                                9
     ?Subroutine94                                9
     ??Subroutine189_0                            8
     AT_Int16toChar                              98
     AT_Int8toChar                               53
     _AT_ChartoInt                               47
     AT_ChartoInt8                               82
     ?Subroutine48                                2
     ??Subroutine177_0                            4
     ?Subroutine36                                9
     ?Subroutine158                              14
     ?Subroutine136                              12
     AT_ChartoInt16                             143
     ?Subroutine30                               19
     AT_capitalizeCmd                            56
     ?Subroutine52                               10
     AT_sort_arr                                 76
     ?Subroutine61                                4
     ?Subroutine142                              12
     ?Subroutine65                                9
     AT_ChartoIntx                              194
     ?Subroutine41                               16
     ?Subroutine66                                8
     ?Subroutine137                              14
     ?Subroutine138                              11
     ?Subroutine24                               12
     AT_get_smap_index                           42
     AT_get_next_cmdUnit                        153
     ?Subroutine62                               11
     ?Subroutine143                               3
     AT_CmpCmd                                   87
     AT_strLen                                   23
     AT_HandleCMD                               400
     ?Subroutine3                                 3
     ?Subroutine75                               12
     ?Subroutine44                                9
     ?Subroutine91                                7
     ?Subroutine106                               6
     ??Subroutine183_0                            9
     ?Subroutine155                              13
     ??Subroutine204_0                            5
     ?Subroutine104                               6
     ??Subroutine205_0                            4
     ??Subroutine206_0                            4
     ?Subroutine46                                9
     ??Subroutine212_0                           11
     AT_pattern_check                           102
     ?Subroutine64                                5
     ?Subroutine141                              12
     ?Subroutine60                               12
     AT_Cmd_RONOFF                              375
     ?Subroutine114                               8
     ?Subroutine107                               4
     ?Subroutine165                              11
     ?Subroutine4                                 2
     ??Subroutine195_0                            3
     ??Subroutine200_0                            5
     ?Subroutine163                               9
     ?Subroutine111                               5
     ??Subroutine207_0                            6
     ??Subroutine208_0                            6
     ??Subroutine209_0                            6
     AT_Cmd_RONOFF1                             181
     ?Subroutine144                               4
     ?Subroutine168                              11
     ?Subroutine110                               5
     ?Subroutine22                                7
     AT_Cmd_ATI                                 188
     ?Subroutine166                              10
     ??Subroutine192_0                            9
     ?Subroutine146                              14
     ?Subroutine70                                4
     ?Subroutine145                              13
     ?Subroutine0                                 2
     AT_Cmd_ATZ                                  52
     ?Subroutine97                               30
     ?Subroutine164                              10
     AT_Cmd_AT_F                                 67
     AT_Cmd_EPENABLE                            260
     ?Subroutine128                               9
     ?Subroutine73                                8
     ?Subroutine34                               36
     ??Subroutine194_0                            8
     ?Subroutine112                              11
     ??Subroutine201_0                            4
     AT_Cmd_REPENABLE                           183
     ?Subroutine10                                5
     ?Subroutine129                               2
     ??Subroutine182_0                            6
     ?Subroutine57                                6
     ?Subroutine140                              14
     AT_Cmd_EPPRINT                             258
     ?Subroutine74                                8
     ??Subroutine181_0                           10
     ?Subroutine68                                8
     ?Subroutine169                               1
     AT_Cmd_REPPRINT                            119
     ?Subroutine11                                5
     ??Subroutine191_0                            6
     ?Subroutine26                               10
     ??Subroutine198_0                            4
     ??Subroutine199_0                            4
     AT_Cmd_ATS                                 995
     ?Subroutine5                                 8
     ?Subroutine102                              20
     ?Subroutine93                               14
     ?Subroutine154                               2
     ??Subroutine184_0                            8
     ?Subroutine92                               11
     ?Subroutine86                               25
     ?Subroutine80                                6
     ?Subroutine150                               1
     ??Subroutine185_0                           19
     ?Subroutine79                                6
     ?Subroutine78                                4
     ?Subroutine148                               7
     ??Subroutine186_0                            4
     ?Subroutine167                               5
     ?Subroutine49                               12
     ?Subroutine43                               18
     ?Subroutine42                               17
     ?Subroutine40                               32
     ?Subroutine39                                8
     ??Subroutine187_0                            3
     ??Subroutine188_0                            7
     ?Subroutine151                               4
     ?Subroutine171                              11
     ?Subroutine37                               24
     ?Subroutine35                               22
     ?Subroutine152                              16
     ?Subroutine33                               34
     ?Subroutine32                               16
     ?Subroutine149                               7
     ?Subroutine31                               19
     ?Subroutine135                              20
     ?Subroutine29                               57
     ?Subroutine139                               5
     ?Subroutine130                              10
     ?Subroutine53                                9
     ?Subroutine38                               15
     ??Subroutine202_0                            1
     ??Subroutine203_0                           11
     ?Subroutine170                               1
     AT_Cmd_LONOFF                               94
     ?Subroutine12                                5
     ?Subroutine56                                6
     ?Subroutine108                               6
     ?Subroutine116                               6
     AT_Cmd_ESCAN1                              131
     ??Subroutine197_0                           14
     ?Subroutine13                                5
     ?Subroutine55                                6
     AT_Cmd_ESCANCB                             160
     ?Subroutine6                                 5
     AT_Cmd_ESCAN                               112
     ?Subroutine9                                 5
     ?Subroutine71                               27
     AT_Cmd_PANSCAN                             125
     AT_Cmd_N                                   290
     ?Subroutine72                               13
     ?Subroutine147                               4
     ??Subroutine190_0                           10
     ?Subroutine51                                4
     AT_Cmd_INITNV                              124
     ?Subroutine14                                5
     ?Subroutine161                              12
     ?Subroutine119                               8
     ?Subroutine100                              12
     ?Subroutine126                               5
     ?Subroutine162                              12
     ?Subroutine160                              20
     AT_Cmd_STP                                  88
     AT_Cmd_GTP                                  95
     ?Subroutine105                               4
     AT_Cmd_RSSIREQ                             118
     AT_Cmd_PSEXP                               251
     ?Subroutine7                                 8
     ?Subroutine124                               4
     ?Subroutine59                               16
     AT_Cmd_SPSEXP                               39
     AT_Cmd_R                                   175
     ?Subroutine50                                6
     AT_Cmd_READNV                              242
     ??Subroutine211_0                            6
     AT_Cmd_WRITENV                             162
     AT_Cmd_IDREQ                               184
     ?Subroutine47                               14
     AT_Cmd_EUIREQ                              184
     ?Subroutine15                                5
     ?Subroutine98                                6
     AT_Cmd_EN                                  234
     ?Subroutine132                              10
     ?Subroutine127                               9
     AT_Cmd_DASSL                                73
     AT_Cmd_DASSR                               212
     ?Subroutine16                                5
     AT_Cmd_PJOIN                               101
     AT_Cmd_JPAN                                 76
     AT_Cmd_JN                                   23
     AT_Cmd_NTABLE                              205
     ?Subroutine17                                5
     ?Subroutine118                              18
     ?Subroutine20                                7
     ?Subroutine125                              10
     ?Subroutine21                                8
     AT_Cmd_RTABLE                              208
     AT_Cmd_NODEDESC                            172
     ?Subroutine19                                7
     ?Subroutine131                              10
     ?Subroutine121                               6
     AT_Cmd_POWERDESC                           175
     AT_Cmd_ACTEPDESC                           173
     ?Subroutine122                               6
     AT_Cmd_SIMPLEDESC                          182
     ?Subroutine27                                7
     AT_Cmd_MATCHREQ                            356
     ?Subroutine120                              16
     ?Subroutine99                               15
     AT_Cmd_ANNCE                                71
     ?Subroutine18                                5
     AT_Cmd_ATABLE                              219
     AT_Cmd_LBTABLE                             726
     ?Subroutine85                               11
     ?Subroutine84                               11
     ?Subroutine82                               19
     ?Subroutine54                                9
     AT_Cmd_BSET                                325
     ?Subroutine58                                6
     AT_Cmd_BCLR                                163
     ?Subroutine81                               22
     ?Subroutine109                               6
     AT_Cmd_BTABLE                              208
     AT_Cmd_BIND                                430
     ?Subroutine8                                10
     ?Subroutine133                              10
     ?Subroutine123                               6
     ?Subroutine117                              13
     ?Subroutine115                               8
     ?Subroutine103                              13
     AT_Cmd_UNBIND                              433
     AT_Cmd_EBIND                               258
     ?Subroutine101                               4
     AT_Cmd_CLEARBIND                            42
     AT_Cmd_READATR                             469
     ?Subroutine113                               7
     ?Subroutine96                               13
     AT_Cmd_WRITEATR                            421
     AT_Cmd_DISCOVER                            386
     AT_Cmd_CLUSDISC                            163
     AT_Cmd_ATTRDISC                            253
     AT_Cmd_IDENTIFY                            199
     AT_Cmd_IDQUERY                             239
     AT_Cmd_HELP                                269
     ?Subroutine77                                8
     ?Subroutine76                               16
     ?Subroutine69                                8
     AT_Cmd_TEST                                141
     ?Subroutine23                               12
     ?<Initializer for Revision>                  2
     ??AT_UartInit?relay                          6
     ??AT_UartProcess?relay                       6
     ??AT_UartCalcFCS?relay                       6
     ??AT_UARTWriteErrMsg?relay                   6
     ??AT_HalUARTWrite?relay                      6
     ??AT_clear_AT_SYSTEM_NVs?relay               6
     ??AT_is_CMD_EPs?relay                        6
     ??AT_NV_ZCL_saveEPStatus?relay               6
     ??AT_NV_ZCL_readEPStatus?relay               6
     ??AT_NV_ZCL_get_index_?relay                 6
     ??AT_EUI64toChar?relay                       6
     ??AT_Int16toChar?relay                       6
     ??AT_Int8toChar?relay                        6
     ??_AT_ChartoInt?relay                        6
     ??AT_ChartoInt8?relay                        6
     ??AT_ChartoInt16?relay                       6
     ??AT_capitalizeCmd?relay                     6
     ??AT_sort_arr?relay                          6
     ??AT_ChartoIntx?relay                        6
     ??AT_get_smap_index?relay                    6
     ??AT_get_next_cmdUnit?relay                  6
     ??AT_CmpCmd?relay                            6
     ??AT_strLen?relay                            6
     ??AT_HandleCMD?relay                         6
     ??AT_pattern_check?relay                     6
     ??AT_Cmd_RONOFF?relay                        6
     ??AT_Cmd_RONOFF1?relay                       6
     ??AT_Cmd_ATI?relay                           6
     ??AT_Cmd_ATZ?relay                           6
     ??AT_Cmd_AT_F?relay                          6
     ??AT_Cmd_EPENABLE?relay                      6
     ??AT_Cmd_REPENABLE?relay                     6
     ??AT_Cmd_EPPRINT?relay                       6
     ??AT_Cmd_REPPRINT?relay                      6
     ??AT_Cmd_ATS?relay                           6
     ??AT_Cmd_LONOFF?relay                        6
     ??AT_Cmd_ESCAN1?relay                        6
     ??AT_Cmd_ESCANCB?relay                       6
     ??AT_Cmd_ESCAN?relay                         6
     ??AT_Cmd_PANSCAN?relay                       6
     ??AT_Cmd_N?relay                             6
     ??AT_Cmd_INITNV?relay                        6
     ??AT_Cmd_STP?relay                           6
     ??AT_Cmd_GTP?relay                           6
     ??AT_Cmd_RSSIREQ?relay                       6
     ??AT_Cmd_PSEXP?relay                         6
     ??AT_Cmd_SPSEXP?relay                        6
     ??AT_Cmd_R?relay                             6
     ??AT_Cmd_READNV?relay                        6
     ??AT_Cmd_WRITENV?relay                       6
     ??AT_Cmd_IDREQ?relay                         6
     ??AT_Cmd_EUIREQ?relay                        6
     ??AT_Cmd_EN?relay                            6
     ??AT_Cmd_DASSL?relay                         6
     ??AT_Cmd_DASSR?relay                         6
     ??AT_Cmd_PJOIN?relay                         6
     ??AT_Cmd_JPAN?relay                          6
     ??AT_Cmd_JN?relay                            6
     ??AT_Cmd_NTABLE?relay                        6
     ??AT_Cmd_RTABLE?relay                        6
     ??AT_Cmd_NODEDESC?relay                      6
     ??AT_Cmd_POWERDESC?relay                     6
     ??AT_Cmd_ACTEPDESC?relay                     6
     ??AT_Cmd_SIMPLEDESC?relay                    6
     ??AT_Cmd_MATCHREQ?relay                      6
     ??AT_Cmd_ANNCE?relay                         6
     ??AT_Cmd_ATABLE?relay                        6
     ??AT_Cmd_LBTABLE?relay                       6
     ??AT_Cmd_BSET?relay                          6
     ??AT_Cmd_BCLR?relay                          6
     ??AT_Cmd_BTABLE?relay                        6
     ??AT_Cmd_BIND?relay                          6
     ??AT_Cmd_UNBIND?relay                        6
     ??AT_Cmd_EBIND?relay                         6
     ??AT_Cmd_CLEARBIND?relay                     6
     ??AT_Cmd_READATR?relay                       6
     ??AT_Cmd_WRITEATR?relay                      6
     ??AT_Cmd_DISCOVER?relay                      6
     ??AT_Cmd_CLUSDISC?relay                      6
     ??AT_Cmd_ATTRDISC?relay                      6
     ??AT_Cmd_IDENTIFY?relay                      6
     ??AT_Cmd_IDQUERY?relay                       6
     ??AT_Cmd_HELP?relay                          6
     ??AT_Cmd_TEST?relay                          6
     ?<Constant "Private Revision:3.1 ...">      37
     ?<Constant "EPENABLE">                       9
     ?<Constant "Enable/Disable Local ...">      61
     ?<Constant "REPENABLE">                     10
     ?<Constant "Enable/Disable Remote...">      73
     ?<Constant "EPPRINT">                        8
     ?<Constant "Print Local Endpoints...">      29
     ?<Constant "REPPRINT">                       9
     ?<Constant "Print Remote Endpoint...">      47
     ?<Constant "LONOFF">                         7
     ?<Constant "Switch Local Device O...">      43
     ?<Constant "EN">                             3
     ?<Constant "Establish Network EN:...">      53
     ?<Constant "N">                              2
     ?<Constant "Display Network Infor...">      28
     ?<Constant "DASSL">                          6
     ?<Constant "Disassociate Local De...">      43
     ?<Constant "DASSR">                          6
     ?<Constant "Disassociate Remote N...">      53
     ?<Constant "ESCAN">                          6
     ?<Constant "Scan The Energy Of Al...">      32
     ?<Constant "PANSCAN">                        8
     ?<Constant "Scan For Active PANs">          21
     ?<Constant "PJOIN">                          6
     ?<Constant "Permit joining cmmman...">      35
     ?<Constant "JPAN">                           5
     ?<Constant "Join Specific JPAN:[<...">      52
     ?<Constant "JN">                             3
     ?<Constant "Join Network">                  13
     ?<Constant "NTABLE">                         7
     ?<Constant "Display Neighbour Tab...">      44
     ?<Constant "RTABLE">                         7
     ?<Constant "Display Routing Table...">      44
     ?<Constant "IDREQ">                          6
     ?<Constant "Request network addre...">      56
     ?<Constant "EUIREQ">                         7
     ?<Constant "Request Node\'s EUI64 ...">     55
     ?<Constant "NODEDESC">                       9
     ?<Constant "Request Node\'s Descri...">     54
     ?<Constant "POWERDESC">                     10
     ?<Constant "Request Node\'s Power ...">     61
     ?<Constant "ACTEPDESC">                     10
     ?<Constant "Request Node\'s Active...">     65
     ?<Constant "SIMPLEDESC">                    11
     ?<Constant "Request Endpoint\'s Si...">     72
     ?<Constant "MATCHREQ">                       9
     ?<Constant "Find Nodes which Matc...">     136
     ?<Constant "ANNCE">                          6
     ?<Constant "Announce Local Device...">      37
     ?<Constant "ATABLE">                         7
     ?<Constant "Display Address Table">         22
     ?<Constant "LBTABLE">                        8
     ?<Constant "Display Local Binding...">      28
     ?<Constant "BSET">                           5
     ?<Constant "Set local Binding Tab...">      87
     ?<Constant "BCLR">                           5
     ?<Constant "Clear local Binding T...">      54
     ?<Constant "BTABLE">                         7
     ?<Constant "Display Binding Table...">      42
     ?<Constant "BIND">                           5
     ?<Constant "Create Binding on Rem...">     109
     ?<Constant "UNBIND">                         7
     ?<Constant "Delete Binding on Rem...">     111
     ?<Constant "EBIND">                          6
     ?<Constant "End Device Bind EBIND...">      27
     ?<Constant "CLEARBIND">                     10
     ?<Constant "Clear Local Binding T...">      26
     ?<Constant "READATR">                        8
     ?<Constant "READATR:<Address>,<EP...">      72
     ?<Constant "WRITEATR">                       9
     ?<Constant "WRITEATR:<Address>,<E...">      76
     ?<Constant "DISCOVER">                       9
     ?<Constant "Discover HA Devices O...">      64
     ?<Constant "CLUSDISC">                       9
     ?<Constant "Discover All Supporte...">      83
     ?<Constant "ATTRDISC">                       9
     ?<Constant "Find Supported Attrib...">     119
     ?<Constant "IDENTIFY">                       9
     ?<Constant "Identify Claster IDEN...">      63
     ?<Constant "IDQUERY">                        8
     ?<Constant "Query If Target Devic...">      84
     ?<Constant "RONOFF">                         7
     ?<Constant "RONOFF:[<Address>],<E...">      48
     ?<Constant "READNV">                         7
     ?<Constant "Read NV READNV:<ID>,<...">      37
     ?<Constant "WRITENV">                        8
     ?<Constant "WRITE NV WRITENV:<ID>...">      37
     ?<Constant "INITNV">                         7
     ?<Constant "Initialize NV INITNV:...">      34
     ?<Constant "STP">                            4
     ?<Constant "Set Transmit Power ST...">      38
     ?<Constant "GTP">                            4
     ?<Constant "Get Transmit Power">            19
     ?<Constant "RSSIREQ">                        8
     ?<Constant "RSSI request RSSIREQ:...">      31
     ?<Constant "PSEXP">                          6
     ?<Constant "Power Saving Experime...">      59
     ?<Constant "SPSEXP">                         7
     ?<Constant "Stop Power Saving Exp...">      29
     ?<Constant "R">                              2
     ?<Constant "execute command on re...">      68
     ?<Constant "HELP">                           5
     ?<Constant "all the AT commands:">          21
     ?<Constant "RONOFF1">                        8
     ?<Constant "RONOFF1:<Address>,<EP...">      47
     ?<Constant "ESCAN1">                         7
     ?<Constant "TEST">                           5
     ?<Constant "JUST for test and dev...">      30
     ?<Constant "\r\nERROR:xx\r\n">              13
     ?<Constant "AT">                             3
     ?<Constant "\n">                             2
     ?<Constant "\r\nOK\r\n">                     7
     ?<Constant "I">                              2
     ?<Constant "Z">                              2
     ?<Constant "\r\nSoftware Reset\r\n">        19
     ?<Constant "\r\nS-Register Access\r\n">     22
     ?<Constant "\n\r">                           3
     ?<Constant "">                               1
     ?<Constant "F">                              2
     ?<Constant "\r\nRestore Local Devic...">    44
     ?<Constant ":,,,\r">                         6
     ?<Constant "\r">                             2
     ?<Constant "\r\n">                           3
     ?<Constant "University of Essex">           20
     ?<Constant "COORDINATOR">                   12
     ?<Constant "EUI64:">                         7
     ?<Constant ":,\r">                           4
     ?<Constant "ENABLED:">                       9
     ?<Constant "UNKNOWNEP">                     10
     ?<Constant "DISABLED:">                     10
     ?<Constant ":,,\r">                          5
     ?<Constant "EP ">                            4
     ?<Constant ":ENABLED">                       9
     ?<Constant ":DISABLED">                     10
     ?<Constant ":\r">                            3
     ?<Constant "?:\r">                           4
     ?<Constant "=:\r">                           4
     ?<Constant "?\r">                            3
     ?<Constant "=\r">                            3
     ?<Constant "%d:%02X">                        8
     ?<Constant "\n\rPlease waitting...\n\r">    23
     ?<Constant "=">                              2
     ?<Constant "COO">                            4
     ?<Constant "ROUTER">                         7
     ?<Constant "ZED">                            4
     ?<Constant ",">                              2
     ?<Constant "Critical">                       9
     ?<Constant "33%">                            4
     ?<Constant "66%">                            4
     ?<Constant "100%">                           5
     ?<Constant "GTP:%02d">                       9
     ?<Constant " ">                              2
     ?<Constant {(unsigned char *)0, 0, 0, 1}>    5
     ?<Constant {0, 0, 0, 0, 0, 0, 0, 0}>         8
     ?<Constant {{65535}, 15}>                    9
     ?<Constant "No. | user |  ID  | EUI ">      25
     ?<Constant "%02X. |  %02X  | %04X...">      41
     ?<Constant "maxEntries %d, maxCID %d">      25
     ?<Constant "No. |  Type  | Active...">      72
     ?<Constant "Mcast">                          6
     ?<Constant "%04X">                           5
     ?<Constant "Ucast">                          6
     ?<Constant "| %02X">                         7
     ?<Constant "??">                             3
     ?<Constant "???????">                        8
     ?<Constant "%02X. | %-6s |  ???? ...">      58
     ?<Constant "%02X. | %-6s |  ???? ...">_1    58
     ?<Constant "%d. | Unused">                  13
     ?<Constant ":,,,,\r">                        7
     ?<Constant ":,,,,,\r">                       8
     ?<Constant {{0}, 2}>                         9
     ?<Constant ":,,,,,,\r">                      9
     ?<Constant {{65535}, 15, 204, 0}>           12
     ?<Constant {{0}, 2, 204, 0}>                12
     ?<Constant "ATI">                            4
     ?<Constant ".">                              2
     ?<Constant "Display Product Ident...">      43
     ?<Constant "ATZ">                            4
     ?<Constant "Software Reset">                15
     ?<Constant "AT&F">                           5
     ?<Constant "Restore Local Device\'...">     40
     ?<Constant "ATS">                            4
     ?<Constant "S-Register Access ATS...">      40
     ?<Constant "AT+">                            4
     __Constant_7fff800                           4

 
 17 439 bytes in segment BANKED_CODE
    504 bytes in segment BANK_RELAYS
      2 bytes in segment XDATA_I
      2 bytes in segment XDATA_ID
  4 474 bytes in segment XDATA_ROM_C
    133 bytes in segment XDATA_Z
 
 17 945 bytes of CODE  memory
  4 470 bytes of CONST memory (+ 4 bytes shared)
    135 bytes of XDATA memory

Errors: none
Warnings: none
