###############################################################################
#                                                                             #
# IAR C/C++ Compiler V8.10.3.10338/W32 for 8051         15/Jun/2015  20:13:08 #
# Copyright 2004-2011 IAR Systems AB.                                         #
#                                                                             #
#    Core               =  plain                                              #
#    Code model         =  banked                                             #
#    Data model         =  large                                              #
#    Calling convention =  xdata reentrant                                    #
#    Constant location  =  data_rom                                           #
#    Dptr setup         =  1,16                                               #
#    Source file        =  S:\zigbee\Myzigbe\version 3.0 for new              #
#                          ZStack-CC2530-2.5.1a\Projects\zstack\AT            #
#                          commands\AT command 3.2\Source\AT_ZDO.c            #
#    Command line       =  -f "S:\zigbee\Myzigbe\version 3.0 for new          #
#                          ZStack-CC2530-2.5.1a\Projects\zstack\AT            #
#                          commands\AT command 3.2\CC2530DB\..\..\..\Tools\CC #
#                          2530DB\f8wCoord.cfg" (-DCPU32MHZ                   #
#                          -DROOT=__near_func -DMAC_CFG_APP_PENDING_QUEUE=TRU #
#                          E -DMAC_CFG_TX_DATA_MAX=5 -DMAC_CFG_TX_MAX=8       #
#                          -DMAC_CFG_RX_MAX=5 -DZDO_COORDINATOR -DRTR_NWK)    #
#                          -f "S:\zigbee\Myzigbe\version 3.0 for new          #
#                          ZStack-CC2530-2.5.1a\Projects\zstack\AT            #
#                          commands\AT command 3.2\CC2530DB\..\..\..\Tools\CC #
#                          2530DB\f8wConfig.cfg" (-DZIGBEEPRO -DSECURE=0      #
#                          -DZG_SECURE_DYNAMIC=0 -DREFLECTOR                  #
#                          -DDEFAULT_CHANLIST=0x00000800                      #
#                          -DZDAPP_CONFIG_PAN_ID=0x2015                       #
#                          -DNWK_START_DELAY=100 -DEXTENDED_JOINING_RANDOM_MA #
#                          SK=0x007F -DBEACON_REQUEST_DELAY=100               #
#                          -DBEACON_REQ_DELAY_MASK=0x00FF                     #
#                          -DLINK_STATUS_JITTER_MASK=0x007F                   #
#                          -DROUTE_EXPIRY_TIME=30 -DAPSC_ACK_WAIT_DURATION_PO #
#                          LLED=3000 -DNWK_INDIRECT_MSG_TIMEOUT=7             #
#                          -DMAX_RREQ_ENTRIES=8 -DAPSC_MAX_FRAME_RETRIES=3    #
#                          -DNWK_MAX_DATA_RETRIES=2                           #
#                          -DMAX_POLL_FAILURE_RETRIES=2 -DMAX_BCAST=9         #
#                          -DAPS_MAX_GROUPS=16 -DMAX_RTG_ENTRIES=40           #
#                          -DNWK_MAX_BINDING_ENTRIES=4                        #
#                          -DMAX_BINDING_CLUSTER_IDS=4 "-DDEFAULT_KEY={0x01,  #
#                          0x03, 0x05, 0x07, 0x09, 0x0B, 0x0D, 0x0F, 0x00,    #
#                          0x02, 0x04, 0x06, 0x08, 0x0A, 0x0C, 0x0D}"         #
#                          -DMAC_MAX_FRAME_SIZE=116                           #
#                          -DZDNWKMGR_MIN_TRANSMISSIONS=20 "-DCONST=const     #
#                          __code" -DGENERIC=__generic                        #
#                          -DRFD_RCVC_ALWAYS_ON=FALSE -DPOLL_RATE=1000        #
#                          -DQUEUED_POLL_RATE=100 -DRESPONSE_POLL_RATE=100)   #
#                          -DREJOIN_POLL_RATE=440 "S:\zigbee\Myzigbe\version  #
#                          3.0 for new ZStack-CC2530-2.5.1a\Projects\zstack\A #
#                          T commands\AT command 3.2\Source\AT_ZDO.c" -D      #
#                          ZIGBEEPRO -D NWK_AUTO_POLL -D HAL_UART=TRUE -D     #
#                          HOLD_AUTO_START -D NV_RESTORE -D REFLECTOR -D      #
#                          HAL_UART_ISR=1 -D HAL_UART_DMA=0 -D                #
#                          xHAL_UART_ISR_TX_MAX=200 -D xPOWER_SAVING -D       #
#                          ZCL_READ -D ZCL_WRITE -D ZCL_IDENTIFY -D           #
#                          ZCL_ON_OFF -D ZCL_DISCOVER -D xZTOOL_P1 -D         #
#                          xMT_TASK -D xMT_SYS_FUNC -D xMT_ZDO_FUNC -D        #
#                          xLCD_SUPPORTED=DEBUG -D xMT_UART_DEFAULT_OVERFLOW= #
#                          FALSE -lC "S:\zigbee\Myzigbe\version 3.0 for new   #
#                          ZStack-CC2530-2.5.1a\Projects\zstack\AT            #
#                          commands\AT command 3.2\CC2530DB\CoordinatorEB\Lis #
#                          t\" -lA "S:\zigbee\Myzigbe\version 3.0 for new     #
#                          ZStack-CC2530-2.5.1a\Projects\zstack\AT            #
#                          commands\AT command 3.2\CC2530DB\CoordinatorEB\Lis #
#                          t\" --diag_suppress Pe001,Pa010 -o                 #
#                          "S:\zigbee\Myzigbe\version 3.0 for new             #
#                          ZStack-CC2530-2.5.1a\Projects\zstack\AT            #
#                          commands\AT command 3.2\CC2530DB\CoordinatorEB\Obj #
#                          \" -e --no_code_motion --debug --core=plain        #
#                          --dptr=16,1 --data_model=large                     #
#                          --code_model=banked --calling_convention=xdata_ree #
#                          ntrant --place_constants=data_rom                  #
#                          --nr_virtual_regs 16 -I "S:\zigbee\Myzigbe\version #
#                           3.0 for new ZStack-CC2530-2.5.1a\Projects\zstack\ #
#                          AT commands\AT command 3.2\CC2530DB\" -I           #
#                          "S:\zigbee\Myzigbe\version 3.0 for new             #
#                          ZStack-CC2530-2.5.1a\Projects\zstack\AT            #
#                          commands\AT command 3.2\CC2530DB\..\Source\" -I    #
#                          "S:\zigbee\Myzigbe\version 3.0 for new             #
#                          ZStack-CC2530-2.5.1a\Projects\zstack\AT            #
#                          commands\AT command 3.2\CC2530DB\..\..\..\ZMain\TI #
#                          2530DB\" -I "S:\zigbee\Myzigbe\version 3.0 for     #
#                          new ZStack-CC2530-2.5.1a\Projects\zstack\AT        #
#                          commands\AT command 3.2\CC2530DB\..\..\..\..\..\Co #
#                          mponents\hal\include\" -I                          #
#                          "S:\zigbee\Myzigbe\version 3.0 for new             #
#                          ZStack-CC2530-2.5.1a\Projects\zstack\AT            #
#                          commands\AT command 3.2\CC2530DB\..\..\..\..\..\Co #
#                          mponents\hal\target\CC2530EB\" -I                  #
#                          "S:\zigbee\Myzigbe\version 3.0 for new             #
#                          ZStack-CC2530-2.5.1a\Projects\zstack\AT            #
#                          commands\AT command 3.2\CC2530DB\..\..\..\..\..\Co #
#                          mponents\mac\include\" -I                          #
#                          "S:\zigbee\Myzigbe\version 3.0 for new             #
#                          ZStack-CC2530-2.5.1a\Projects\zstack\AT            #
#                          commands\AT command 3.2\CC2530DB\..\..\..\..\..\Co #
#                          mponents\mac\high_level\" -I                       #
#                          "S:\zigbee\Myzigbe\version 3.0 for new             #
#                          ZStack-CC2530-2.5.1a\Projects\zstack\AT            #
#                          commands\AT command 3.2\CC2530DB\..\..\..\..\..\Co #
#                          mponents\mac\low_level\srf04\" -I                  #
#                          "S:\zigbee\Myzigbe\version 3.0 for new             #
#                          ZStack-CC2530-2.5.1a\Projects\zstack\AT            #
#                          commands\AT command 3.2\CC2530DB\..\..\..\..\..\Co #
#                          mponents\mac\low_level\srf04\single_chip\" -I      #
#                          "S:\zigbee\Myzigbe\version 3.0 for new             #
#                          ZStack-CC2530-2.5.1a\Projects\zstack\AT            #
#                          commands\AT command 3.2\CC2530DB\..\..\..\..\..\Co #
#                          mponents\mt\" -I "S:\zigbee\Myzigbe\version 3.0    #
#                          for new ZStack-CC2530-2.5.1a\Projects\zstack\AT    #
#                          commands\AT command 3.2\CC2530DB\..\..\..\..\..\Co #
#                          mponents\osal\include\" -I                         #
#                          "S:\zigbee\Myzigbe\version 3.0 for new             #
#                          ZStack-CC2530-2.5.1a\Projects\zstack\AT            #
#                          commands\AT command 3.2\CC2530DB\..\..\..\..\..\Co #
#                          mponents\services\saddr\" -I                       #
#                          "S:\zigbee\Myzigbe\version 3.0 for new             #
#                          ZStack-CC2530-2.5.1a\Projects\zstack\AT            #
#                          commands\AT command 3.2\CC2530DB\..\..\..\..\..\Co #
#                          mponents\services\sdata\" -I                       #
#                          "S:\zigbee\Myzigbe\version 3.0 for new             #
#                          ZStack-CC2530-2.5.1a\Projects\zstack\AT            #
#                          commands\AT command 3.2\CC2530DB\..\..\..\..\..\Co #
#                          mponents\stack\af\" -I "S:\zigbee\Myzigbe\version  #
#                          3.0 for new ZStack-CC2530-2.5.1a\Projects\zstack\A #
#                          T commands\AT command 3.2\CC2530DB\..\..\..\..\..\ #
#                          Components\stack\nwk\" -I                          #
#                          "S:\zigbee\Myzigbe\version 3.0 for new             #
#                          ZStack-CC2530-2.5.1a\Projects\zstack\AT            #
#                          commands\AT command 3.2\CC2530DB\..\..\..\..\..\Co #
#                          mponents\stack\sapi\" -I                           #
#                          "S:\zigbee\Myzigbe\version 3.0 for new             #
#                          ZStack-CC2530-2.5.1a\Projects\zstack\AT            #
#                          commands\AT command 3.2\CC2530DB\..\..\..\..\..\Co #
#                          mponents\stack\sec\" -I "S:\zigbee\Myzigbe\version #
#                           3.0 for new ZStack-CC2530-2.5.1a\Projects\zstack\ #
#                          AT commands\AT command 3.2\CC2530DB\..\..\..\..\.. #
#                          \Components\stack\sys\" -I                         #
#                          "S:\zigbee\Myzigbe\version 3.0 for new             #
#                          ZStack-CC2530-2.5.1a\Projects\zstack\AT            #
#                          commands\AT command 3.2\CC2530DB\..\..\..\..\..\Co #
#                          mponents\stack\zdo\" -I "S:\zigbee\Myzigbe\version #
#                           3.0 for new ZStack-CC2530-2.5.1a\Projects\zstack\ #
#                          AT commands\AT command 3.2\CC2530DB\..\..\..\..\.. #
#                          \Components\stack\zcl\" -I                         #
#                          "S:\zigbee\Myzigbe\version 3.0 for new             #
#                          ZStack-CC2530-2.5.1a\Projects\zstack\AT            #
#                          commands\AT command 3.2\CC2530DB\..\..\..\..\..\Co #
#                          mponents\zmac\" -I "S:\zigbee\Myzigbe\version 3.0  #
#                          for new ZStack-CC2530-2.5.1a\Projects\zstack\AT    #
#                          commands\AT command 3.2\CC2530DB\..\..\..\..\..\Co #
#                          mponents\zmac\f8w\" -Ohz --require_prototypes      #
#    List file          =  S:\zigbee\Myzigbe\version 3.0 for new              #
#                          ZStack-CC2530-2.5.1a\Projects\zstack\AT            #
#                          commands\AT command 3.2\CC2530DB\CoordinatorEB\Lis #
#                          t\AT_ZDO.lst                                       #
#    Object file        =  S:\zigbee\Myzigbe\version 3.0 for new              #
#                          ZStack-CC2530-2.5.1a\Projects\zstack\AT            #
#                          commands\AT command 3.2\CC2530DB\CoordinatorEB\Obj #
#                          \AT_ZDO.r51                                        #
#                                                                             #
#                                                                             #
###############################################################################

S:\zigbee\Myzigbe\version 3.0 for new ZStack-CC2530-2.5.1a\Projects\zstack\AT commands\AT command 3.2\Source\AT_ZDO.c
      1          /**************************************************************************************************
      2            Filename:       AT_ZDO.c
      3          
      4            Description:    AT command module
      5            Author:         Xiao Wang
      6          **************************************************************************************************/
      7          
      8          
      9          #include "OSAL.h"
     10          #include "ZGlobals.h"
     11          #include "AF.h"
     12          #include "aps_groups.h"
     13          #include "ZDApp.h"
     14          #include "ZDObject.h"
     15          
     16          
     17          #include "At_include.h"
     18          #include "hal_led.h"
     19          
     20          /*******************************local functions************************/
     21          
     22          void AT_ZDO_ProcessLqiRsp(zdoIncomingMsg_t *inMsg );
     23          void AT_ZDO_ProcessRtgRsp(zdoIncomingMsg_t *inMsg );
     24          void AT_ZDO_ProcessNwkDiscRsp(zdoIncomingMsg_t *inMsg );
     25          void AT_ZDO_ProcessMgmtBindRsp(zdoIncomingMsg_t *inMsg );
     26          void AT_ZDO_ProcessBindRsp(zdoIncomingMsg_t *inMsg );
     27          void AT_ZDO_ProcessUnbindRsp(zdoIncomingMsg_t *inMsg );
     28          void AT_ZDO_ProcessEDbindRsp(zdoIncomingMsg_t *inMsg );
     29          void AT_ZDO_ProcessMgmtLeaveRsp(zdoIncomingMsg_t *inMsg );
     30          void AT_ZDO_ProcessNodeDescRsp(zdoIncomingMsg_t *inMsg );
     31          void AT_ZDO_ProcessPowerDescRsp(zdoIncomingMsg_t *inMsg );
     32          void AT_ZDO_ProcessSimpleDescRsp(zdoIncomingMsg_t *inMsg );
     33          void AT_ZDO_ProcessActEPRsp(zdoIncomingMsg_t *inMsg );
     34          void AT_ZDO_ProcessMatchDescRsp(zdoIncomingMsg_t *inMsg );
     35          void AT_ZDO_ProcessAnnceRsp(zdoIncomingMsg_t *inMsg );
     36          void* AT_ZDO_ProcessNWKDISC_CB(void *param);
     37          

   \                                 In  segment BANKED_CODE, align 1, keep-with-next
     38          void AT_ZDO_Register(uint8 *pTask_id){
   \                     AT_ZDO_Register:
   \   000000   74F7         MOV     A,#-0x9
   \   000002   12....       LCALL   ?BANKED_ENTER_XDATA
   \   000005                ; Saved register size: 9
   \   000005                ; Auto size: 0
     39            uint8 task_id = *pTask_id;
   \   000005   8A82         MOV     DPL,R2
   \   000007   8B83         MOV     DPH,R3
   \   000009   E0           MOVX    A,@DPTR
   \   00000A   FE           MOV     R6,A
     40            ZDO_RegisterForZDOMsg( task_id, IEEE_addr_rsp );
   \   00000B                ; Setup parameters for call to function ZDO_RegisterForZDOMsg
   \   00000B   7A01         MOV     R2,#0x1
   \   00000D   7B80         MOV     R3,#-0x80
   \   00000F   F9           MOV     R1,A
   \   000010   12....       LCALL   ??ZDO_RegisterForZDOMsg?relay
     41            ZDO_RegisterForZDOMsg( task_id, NWK_addr_rsp );
   \   000013                ; Setup parameters for call to function ZDO_RegisterForZDOMsg
   \   000013   7A00         MOV     R2,#0x0
   \   000015   7B80         MOV     R3,#-0x80
   \   000017   EE           MOV     A,R6
   \   000018   F9           MOV     R1,A
   \   000019   12....       LCALL   ??ZDO_RegisterForZDOMsg?relay
     42            //ZDO_RegisterForZDOMsg( task_id,  Node_Desc_rsp ); 
     43            ZDO_RegisterForZDOMsg( task_id,  Mgmt_Lqi_rsp ); 
   \   00001C                ; Setup parameters for call to function ZDO_RegisterForZDOMsg
   \   00001C   7A31         MOV     R2,#0x31
   \   00001E   7B80         MOV     R3,#-0x80
   \   000020   EE           MOV     A,R6
   \   000021   F9           MOV     R1,A
   \   000022   12....       LCALL   ??ZDO_RegisterForZDOMsg?relay
     44            ZDO_RegisterForZDOMsg( task_id,  Mgmt_Rtg_rsp ); 
   \   000025                ; Setup parameters for call to function ZDO_RegisterForZDOMsg
   \   000025   7A32         MOV     R2,#0x32
   \   000027   7B80         MOV     R3,#-0x80
   \   000029   EE           MOV     A,R6
   \   00002A   F9           MOV     R1,A
   \   00002B   12....       LCALL   ??ZDO_RegisterForZDOMsg?relay
     45            ZDO_RegisterForZDOMsg( task_id,  Mgmt_NWK_Disc_rsp );
   \   00002E                ; Setup parameters for call to function ZDO_RegisterForZDOMsg
   \   00002E   7A30         MOV     R2,#0x30
   \   000030   7B80         MOV     R3,#-0x80
   \   000032   EE           MOV     A,R6
   \   000033   F9           MOV     R1,A
   \   000034   12....       LCALL   ??ZDO_RegisterForZDOMsg?relay
     46            ZDO_RegisterForZDOMsg( task_id,  Mgmt_Bind_rsp ); 
   \   000037                ; Setup parameters for call to function ZDO_RegisterForZDOMsg
   \   000037   7A33         MOV     R2,#0x33
   \   000039   7B80         MOV     R3,#-0x80
   \   00003B   EE           MOV     A,R6
   \   00003C   F9           MOV     R1,A
   \   00003D   12....       LCALL   ??ZDO_RegisterForZDOMsg?relay
     47            ZDO_RegisterForZDOMsg( task_id,  Bind_rsp );
   \   000040                ; Setup parameters for call to function ZDO_RegisterForZDOMsg
   \   000040   7A21         MOV     R2,#0x21
   \   000042   7B80         MOV     R3,#-0x80
   \   000044   EE           MOV     A,R6
   \   000045   F9           MOV     R1,A
   \   000046   12....       LCALL   ??ZDO_RegisterForZDOMsg?relay
     48            ZDO_RegisterForZDOMsg( task_id,  Unbind_rsp );
   \   000049                ; Setup parameters for call to function ZDO_RegisterForZDOMsg
   \   000049   7A22         MOV     R2,#0x22
   \   00004B   7B80         MOV     R3,#-0x80
   \   00004D   EE           MOV     A,R6
   \   00004E   F9           MOV     R1,A
   \   00004F   12....       LCALL   ??ZDO_RegisterForZDOMsg?relay
     49            ZDO_RegisterForZDOMsg( task_id,  End_Device_Bind_rsp );
   \   000052                ; Setup parameters for call to function ZDO_RegisterForZDOMsg
   \   000052   7A20         MOV     R2,#0x20
   \   000054   7B80         MOV     R3,#-0x80
   \   000056   EE           MOV     A,R6
   \   000057   F9           MOV     R1,A
   \   000058   12....       LCALL   ??ZDO_RegisterForZDOMsg?relay
     50            ZDO_RegisterForZDOMsg( task_id,  Mgmt_Leave_rsp );
   \   00005B                ; Setup parameters for call to function ZDO_RegisterForZDOMsg
   \   00005B   7A34         MOV     R2,#0x34
   \   00005D   7B80         MOV     R3,#-0x80
   \   00005F   EE           MOV     A,R6
   \   000060   F9           MOV     R1,A
   \   000061   12....       LCALL   ??ZDO_RegisterForZDOMsg?relay
     51            ZDO_RegisterForZDOMsg( task_id,  Node_Desc_rsp );
   \   000064                ; Setup parameters for call to function ZDO_RegisterForZDOMsg
   \   000064   7A02         MOV     R2,#0x2
   \   000066   7B80         MOV     R3,#-0x80
   \   000068   EE           MOV     A,R6
   \   000069   F9           MOV     R1,A
   \   00006A   12....       LCALL   ??ZDO_RegisterForZDOMsg?relay
     52            ZDO_RegisterForZDOMsg( task_id,  Power_Desc_rsp );
   \   00006D                ; Setup parameters for call to function ZDO_RegisterForZDOMsg
   \   00006D   7A03         MOV     R2,#0x3
   \   00006F   7B80         MOV     R3,#-0x80
   \   000071   EE           MOV     A,R6
   \   000072   F9           MOV     R1,A
   \   000073   12....       LCALL   ??ZDO_RegisterForZDOMsg?relay
     53            ZDO_RegisterForZDOMsg( task_id,  Simple_Desc_rsp );
   \   000076                ; Setup parameters for call to function ZDO_RegisterForZDOMsg
   \   000076   7A04         MOV     R2,#0x4
   \   000078   7B80         MOV     R3,#-0x80
   \   00007A   EE           MOV     A,R6
   \   00007B   F9           MOV     R1,A
   \   00007C   12....       LCALL   ??ZDO_RegisterForZDOMsg?relay
     54            ZDO_RegisterForZDOMsg( task_id,  Active_EP_rsp );
   \   00007F                ; Setup parameters for call to function ZDO_RegisterForZDOMsg
   \   00007F   7A05         MOV     R2,#0x5
   \   000081   7B80         MOV     R3,#-0x80
   \   000083   EE           MOV     A,R6
   \   000084   F9           MOV     R1,A
   \   000085   12....       LCALL   ??ZDO_RegisterForZDOMsg?relay
     55            ZDO_RegisterForZDOMsg( task_id,  Match_Desc_rsp );
   \   000088                ; Setup parameters for call to function ZDO_RegisterForZDOMsg
   \   000088   7A06         MOV     R2,#0x6
   \   00008A   7B80         MOV     R3,#-0x80
   \   00008C   EE           MOV     A,R6
   \   00008D   F9           MOV     R1,A
   \   00008E   12....       LCALL   ??ZDO_RegisterForZDOMsg?relay
     56            ZDO_RegisterForZDOMsg( task_id,  Device_annce );
   \   000091                ; Setup parameters for call to function ZDO_RegisterForZDOMsg
   \   000091   7A13         MOV     R2,#0x13
   \   000093   7B00         MOV     R3,#0x0
   \   000095   EE           MOV     A,R6
   \   000096   F9           MOV     R1,A
   \   000097   12....       LCALL   ??ZDO_RegisterForZDOMsg?relay
     57            ZDO_RegisterForZdoCB(ZDO_LEAVE_CNF_CBID, AT_ZDO_ProcessLEAVE_CNF_CB);
   \   00009A                ; Setup parameters for call to function ZDO_RegisterForZdoCB
   \   00009A   7A..         MOV     R2,#??AT_ZDO_ProcessLEAVE_CNF_CB?relay & 0xff
   \   00009C   7B..         MOV     R3,#(??AT_ZDO_ProcessLEAVE_CNF_CB?relay >> 8) & 0xff
   \   00009E   7905         MOV     R1,#0x5
   \   0000A0   12....       LCALL   ??ZDO_RegisterForZdoCB?relay
     58            
     59            //if req.silent = TRUE,get ZDO_LeaveCnf message
     60            //if req.silent = FALSE,get ZDO_LeaveInd
     61          }
   \   0000A3                REQUIRE ?Subroutine0
   \   0000A3                ; // Fall through to label ?Subroutine0

   \                                 In  segment BANKED_CODE, align 1, keep-with-next
   \                     ?Subroutine0:
   \   000000   7F01         MOV     R7,#0x1
   \   000002   02....       LJMP    ?BANKED_LEAVE_XDATA
     62          
     63          

   \                                 In  segment BANKED_CODE, align 1, keep-with-next
     64          void AT_ZDO_ProcessMsgCBs( zdoIncomingMsg_t *inMsg ){
   \                     AT_ZDO_ProcessMsgCBs:
   \   000000   74F6         MOV     A,#-0xa
   \   000002   12....       LCALL   ?BANKED_ENTER_XDATA
   \   000005                ; Saved register size: 10
   \   000005                ; Auto size: 16
   \   000005   74F0         MOV     A,#-0x10
   \   000007   12....       LCALL   ?ALLOC_XSTACK8
     65            switch ( inMsg->clusterID )
   \   00000A   12....       LCALL   ?Subroutine15 & 0xFFFF
   \                     ??CrossCallReturnLabel_49:
   \   00000D   F5..         MOV     ?V0 + 0,A
   \   00000F   A3           INC     DPTR
   \   000010   E0           MOVX    A,@DPTR
   \   000011   F5..         MOV     ?V0 + 1,A
   \   000013   78..         MOV     R0,#?V0 + 0
   \   000015   12....       LCALL   ?US_SWITCH_SPARSE
   \                     `?<Jumptable for AT_ZDO_ProcessMsgCBs>_0`:
   \   000018   0100         DW        1
   \   00001A   0080         DW        32768
   \   00001C   0180         DW        32769
   \   00001E   ....         DW        ??AT_ZDO_ProcessMsgCBs_0
   \   000020   0E00         DW        14
   \   000022   1300         DW        19
   \   000024   ....         DW        ??AT_ZDO_ProcessMsgCBs_1
   \   000026   0280         DW        32770
   \   000028   ....         DW        ??AT_ZDO_ProcessMsgCBs_2
   \   00002A   0380         DW        32771
   \   00002C   ....         DW        ??AT_ZDO_ProcessMsgCBs_3
   \   00002E   0480         DW        32772
   \   000030   ....         DW        ??AT_ZDO_ProcessMsgCBs_4
   \   000032   0580         DW        32773
   \   000034   ....         DW        ??AT_ZDO_ProcessMsgCBs_5
   \   000036   0680         DW        32774
   \   000038   ....         DW        ??AT_ZDO_ProcessMsgCBs_6
   \   00003A   2080         DW        32800
   \   00003C   ....         DW        ??AT_ZDO_ProcessMsgCBs_7
   \   00003E   2180         DW        32801
   \   000040   ....         DW        ??AT_ZDO_ProcessMsgCBs_8
   \   000042   2280         DW        32802
   \   000044   ....         DW        ??AT_ZDO_ProcessMsgCBs_9
   \   000046   3080         DW        32816
   \   000048   ....         DW        ??AT_ZDO_ProcessMsgCBs_10
   \   00004A   3180         DW        32817
   \   00004C   ....         DW        ??AT_ZDO_ProcessMsgCBs_11
   \   00004E   3280         DW        32818
   \   000050   ....         DW        ??AT_ZDO_ProcessMsgCBs_12
   \   000052   3380         DW        32819
   \   000054   ....         DW        ??AT_ZDO_ProcessMsgCBs_13
   \   000056   3480         DW        32820
   \   000058   ....         DW        ??AT_ZDO_ProcessMsgCBs_14
   \   00005A   ....         DW        ??AT_ZDO_ProcessMsgCBs_15
     66            {
     67              case NWK_addr_rsp:
     68              case IEEE_addr_rsp:
     69                {
     70                  ZDO_NwkIEEEAddrResp_t *pAddrRsp;
     71                  pAddrRsp = ZDO_ParseAddrRsp( inMsg );
   \                     ??AT_ZDO_ProcessMsgCBs_0:
   \   00005C                ; Setup parameters for call to function ZDO_ParseAddrRsp
   \   00005C   12....       LCALL   ??ZDO_ParseAddrRsp?relay
   \   00005F   8A..         MOV     ?V0 + 0,R2
   \   000061   8B..         MOV     ?V0 + 1,R3
   \   000063   AE..         MOV     R6,?V0 + 0
   \   000065   AF..         MOV     R7,?V0 + 1
     72                  if ( pAddrRsp )
   \   000067   EE           MOV     A,R6
   \   000068   4F           ORL     A,R7
   \   000069   7003         JNZ     $+5
   \   00006B   02....       LJMP    ??AT_ZDO_ProcessMsgCBs_15 & 0xFFFF
     73                  {
     74                    if ( pAddrRsp->status == ZSuccess )
   \   00006E   8E82         MOV     DPL,R6
   \   000070   8F83         MOV     DPH,R7
   \   000072   E0           MOVX    A,@DPTR
   \   000073   707D         JNZ     ??AT_ZDO_ProcessMsgCBs_16
     75                    {
     76                      uint8 i;
     77                      char str[16];
     78                      AT_RESP_START();
   \   000075                ; Setup parameters for call to function AT_HalUARTWrite
   \   000075   7C02         MOV     R4,#0x2
   \   000077   7D00         MOV     R5,#0x0
   \   000079   7A..         MOV     R2,#`?<Constant "\\r\\n">` & 0xff
   \   00007B   7B..         MOV     R3,#(`?<Constant "\\r\\n">` >> 8) & 0xff
   \   00007D   12....       LCALL   ?Subroutine17 & 0xFFFF
     79                      
     80                      AT_Int16toChar(pAddrRsp->nwkAddr,str);
   \                     ??CrossCallReturnLabel_18:
   \   000080   8E82         MOV     DPL,R6
   \   000082   8F83         MOV     DPH,R7
   \   000084   A3           INC     DPTR
   \   000085   12....       LCALL   ?Subroutine7 & 0xFFFF
     81                      AT_RESP(str,4);
     82                      AT_RESP(",",1);
   \                     ??CrossCallReturnLabel_3:
   \   000088                ; Setup parameters for call to function AT_HalUARTWrite
   \   000088   7C01         MOV     R4,#0x1
   \   00008A   7D00         MOV     R5,#0x0
   \   00008C   7A..         MOV     R2,#`?<Constant ",">` & 0xff
   \   00008E   7B..         MOV     R3,#(`?<Constant ",">` >> 8) & 0xff
   \   000090   12....       LCALL   ?Subroutine17 & 0xFFFF
     83                      AT_EUI64toChar(pAddrRsp->extAddr,str);
   \                     ??CrossCallReturnLabel_19:
   \   000093   EE           MOV     A,R6
   \   000094   2403         ADD     A,#0x3
   \   000096   FA           MOV     R2,A
   \   000097   EF           MOV     A,R7
   \   000098   3400         ADDC    A,#0x0
   \   00009A   FB           MOV     R3,A
   \   00009B   12....       LCALL   ??AT_EUI64toChar?relay
     84                      AT_RESP(str,16);
   \   00009E                ; Setup parameters for call to function AT_HalUARTWrite
   \   00009E   7C10         MOV     R4,#0x10
   \   0000A0   7D00         MOV     R5,#0x0
   \   0000A2   85..82       MOV     DPL,?XSP + 0
   \   0000A5   85..83       MOV     DPH,?XSP + 1
   \   0000A8   AA82         MOV     R2,DPL
   \   0000AA   AB83         MOV     R3,DPH
   \   0000AC   7900         MOV     R1,#0x0
   \   0000AE   12....       LCALL   ??AT_HalUARTWrite?relay
     85                      for( i=0;i<pAddrRsp->numAssocDevs;i++){
   \   0000B1   75..00       MOV     ?V0 + 0,#0x0
   \   0000B4   801F         SJMP    ??AT_ZDO_ProcessMsgCBs_17
     86                        AT_NEXT_LINE();
   \                     ??AT_ZDO_ProcessMsgCBs_18:
   \   0000B6                ; Setup parameters for call to function AT_HalUARTWrite
   \   0000B6   7A..         MOV     R2,#`?<Constant "\\n\\r">` & 0xff
   \   0000B8   7B..         MOV     R3,#(`?<Constant "\\n\\r">` >> 8) & 0xff
   \   0000BA   12....       LCALL   ?Subroutine17 & 0xFFFF
     87                        AT_Int16toChar(pAddrRsp->devList[i],str);
     88                        AT_RESP(str,4);
     89                      }
   \                     ??CrossCallReturnLabel_20:
   \   0000BD   E5..         MOV     A,?V0 + 0
   \   0000BF   C3           CLR     C
   \   0000C0   33           RLC     A
   \   0000C1   F8           MOV     R0,A
   \   0000C2   E4           CLR     A
   \   0000C3   33           RLC     A
   \   0000C4   F9           MOV     R1,A
   \   0000C5   12....       LCALL   ??Subroutine33_0 & 0xFFFF
   \                     ??CrossCallReturnLabel_51:
   \   0000C8   240D         ADD     A,#0xd
   \   0000CA   F582         MOV     DPL,A
   \   0000CC   E9           MOV     A,R1
   \   0000CD   12....       LCALL   ??Subroutine36_0 & 0xFFFF
   \                     ??CrossCallReturnLabel_61:
   \   0000D0   12....       LCALL   ?Subroutine7 & 0xFFFF
   \                     ??CrossCallReturnLabel_4:
   \   0000D3   05..         INC     ?V0 + 0
   \                     ??AT_ZDO_ProcessMsgCBs_17:
   \   0000D5   EE           MOV     A,R6
   \   0000D6   240B         ADD     A,#0xb
   \   0000D8   F582         MOV     DPL,A
   \   0000DA   EF           MOV     A,R7
   \   0000DB   12....       LCALL   ??Subroutine31_0 & 0xFFFF
   \                     ??CrossCallReturnLabel_45:
   \   0000DE   F8           MOV     R0,A
   \   0000DF   E5..         MOV     A,?V0 + 0
   \   0000E1   C3           CLR     C
   \   0000E2   98           SUBB    A,R0
   \   0000E3   7C02         MOV     R4,#0x2
   \   0000E5   7D00         MOV     R5,#0x0
   \   0000E7   40CD         JC      ??AT_ZDO_ProcessMsgCBs_18
     90                      AT_RESP_END();
   \   0000E9                ; Setup parameters for call to function AT_HalUARTWrite
   \   0000E9   7A..         MOV     R2,#`?<Constant "\\r\\n">` & 0xff
   \   0000EB   7B..         MOV     R3,#(`?<Constant "\\r\\n">` >> 8) & 0xff
   \   0000ED   7900         MOV     R1,#0x0
   \   0000EF   12....       LCALL   ??AT_HalUARTWrite?relay
     91                    }
     92                    osal_mem_free( pAddrRsp );
   \                     ??AT_ZDO_ProcessMsgCBs_16:
   \   0000F2                ; Setup parameters for call to function osal_mem_free
   \   0000F2   EE           MOV     A,R6
   \   0000F3   FA           MOV     R2,A
   \   0000F4   EF           MOV     A,R7
   \   0000F5   FB           MOV     R3,A
   \   0000F6   12....       LCALL   ??osal_mem_free?relay
   \   0000F9   8044         SJMP    ??AT_ZDO_ProcessMsgCBs_15
     93                  }
     94                }
     95                break;
     96              case Mgmt_Lqi_rsp:
     97                AT_ZDO_ProcessLqiRsp(inMsg );
   \                     ??AT_ZDO_ProcessMsgCBs_11:
   \   0000FB                ; Setup parameters for call to function AT_ZDO_ProcessLqiRsp
   \   0000FB   12....       LCALL   ??AT_ZDO_ProcessLqiRsp?relay
     98                break;
   \   0000FE   803F         SJMP    ??AT_ZDO_ProcessMsgCBs_15
     99              case Mgmt_Rtg_rsp:
    100                AT_ZDO_ProcessRtgRsp(inMsg );
   \                     ??AT_ZDO_ProcessMsgCBs_12:
   \   000100                ; Setup parameters for call to function AT_ZDO_ProcessRtgRsp
   \   000100   12....       LCALL   ??AT_ZDO_ProcessRtgRsp?relay
    101                break;
   \   000103   803A         SJMP    ??AT_ZDO_ProcessMsgCBs_15
    102              case Mgmt_NWK_Disc_rsp:
    103                AT_ZDO_ProcessNwkDiscRsp(inMsg );
   \                     ??AT_ZDO_ProcessMsgCBs_10:
   \   000105                ; Setup parameters for call to function AT_ZDO_ProcessNwkDiscRsp
   \   000105   12....       LCALL   ??AT_ZDO_ProcessNwkDiscRsp?relay
    104                break;
   \   000108   8035         SJMP    ??AT_ZDO_ProcessMsgCBs_15
    105              case Mgmt_Bind_rsp:
    106                AT_ZDO_ProcessMgmtBindRsp(inMsg );
   \                     ??AT_ZDO_ProcessMsgCBs_13:
   \   00010A                ; Setup parameters for call to function AT_ZDO_ProcessMgmtBindRsp
   \   00010A   12....       LCALL   ??AT_ZDO_ProcessMgmtBindRsp?relay
    107                break;
   \   00010D   8030         SJMP    ??AT_ZDO_ProcessMsgCBs_15
    108              case Bind_rsp:
    109                AT_ZDO_ProcessBindRsp(inMsg );
   \                     ??AT_ZDO_ProcessMsgCBs_8:
   \   00010F                ; Setup parameters for call to function AT_ZDO_ProcessBindRsp
   \   00010F   12....       LCALL   ??AT_ZDO_ProcessBindRsp?relay
    110                break;
   \   000112   802B         SJMP    ??AT_ZDO_ProcessMsgCBs_15
    111              case Unbind_rsp:
    112                AT_ZDO_ProcessUnbindRsp(inMsg );
   \                     ??AT_ZDO_ProcessMsgCBs_9:
   \   000114                ; Setup parameters for call to function AT_ZDO_ProcessUnbindRsp
   \   000114   12....       LCALL   ??AT_ZDO_ProcessUnbindRsp?relay
    113                break;
   \   000117   8026         SJMP    ??AT_ZDO_ProcessMsgCBs_15
    114              case End_Device_Bind_rsp:
    115                AT_ZDO_ProcessEDbindRsp(inMsg );
   \                     ??AT_ZDO_ProcessMsgCBs_7:
   \   000119                ; Setup parameters for call to function AT_ZDO_ProcessEDbindRsp
   \   000119   12....       LCALL   ??AT_ZDO_ProcessEDbindRsp?relay
    116                break;
   \   00011C   8021         SJMP    ??AT_ZDO_ProcessMsgCBs_15
    117              case Mgmt_Leave_rsp:
    118                AT_ZDO_ProcessMgmtLeaveRsp(inMsg );
   \                     ??AT_ZDO_ProcessMsgCBs_14:
   \   00011E                ; Setup parameters for call to function AT_ZDO_ProcessMgmtLeaveRsp
   \   00011E   12....       LCALL   ??AT_ZDO_ProcessMgmtLeaveRsp?relay
    119                break;
   \   000121   801C         SJMP    ??AT_ZDO_ProcessMsgCBs_15
    120              case Node_Desc_rsp:
    121                AT_ZDO_ProcessNodeDescRsp(inMsg );
   \                     ??AT_ZDO_ProcessMsgCBs_2:
   \   000123                ; Setup parameters for call to function AT_ZDO_ProcessNodeDescRsp
   \   000123   12....       LCALL   ??AT_ZDO_ProcessNodeDescRsp?relay
    122                break;
   \   000126   8017         SJMP    ??AT_ZDO_ProcessMsgCBs_15
    123              case Power_Desc_rsp:
    124                AT_ZDO_ProcessPowerDescRsp(inMsg );
   \                     ??AT_ZDO_ProcessMsgCBs_3:
   \   000128                ; Setup parameters for call to function AT_ZDO_ProcessPowerDescRsp
   \   000128   12....       LCALL   ??AT_ZDO_ProcessPowerDescRsp?relay
    125                break;
   \   00012B   8012         SJMP    ??AT_ZDO_ProcessMsgCBs_15
    126              case Simple_Desc_rsp:
    127                AT_ZDO_ProcessSimpleDescRsp(inMsg );
   \                     ??AT_ZDO_ProcessMsgCBs_4:
   \   00012D                ; Setup parameters for call to function AT_ZDO_ProcessSimpleDescRsp
   \   00012D   12....       LCALL   ??AT_ZDO_ProcessSimpleDescRsp?relay
    128                break;
   \   000130   800D         SJMP    ??AT_ZDO_ProcessMsgCBs_15
    129              case Active_EP_rsp:
    130                AT_ZDO_ProcessActEPRsp(inMsg );
   \                     ??AT_ZDO_ProcessMsgCBs_5:
   \   000132                ; Setup parameters for call to function AT_ZDO_ProcessActEPRsp
   \   000132   12....       LCALL   ??AT_ZDO_ProcessActEPRsp?relay
    131                break;
   \   000135   8008         SJMP    ??AT_ZDO_ProcessMsgCBs_15
    132              case Match_Desc_rsp:
    133                AT_ZDO_ProcessMatchDescRsp(inMsg );
   \                     ??AT_ZDO_ProcessMsgCBs_6:
   \   000137                ; Setup parameters for call to function AT_ZDO_ProcessMatchDescRsp
   \   000137   12....       LCALL   ??AT_ZDO_ProcessMatchDescRsp?relay
    134                break;
   \   00013A   8003         SJMP    ??AT_ZDO_ProcessMsgCBs_15
    135              case Device_annce:
    136                AT_ZDO_ProcessAnnceRsp(inMsg );
   \                     ??AT_ZDO_ProcessMsgCBs_1:
   \   00013C                ; Setup parameters for call to function AT_ZDO_ProcessAnnceRsp
   \   00013C   12....       LCALL   ??AT_ZDO_ProcessAnnceRsp?relay
    137                break;
    138              default:
    139                break;
    140            }
    141          }
   \                     ??AT_ZDO_ProcessMsgCBs_15:
   \   00013F   02....       LJMP    ?Subroutine4 & 0xFFFF

   \                                 In  segment BANKED_CODE, align 1, keep-with-next
   \                     ?Subroutine17:
   \   000000   12....       LCALL   ?Subroutine29 & 0xFFFF
   \                     ??CrossCallReturnLabel_41:
   \   000003   AC82         MOV     R4,DPL
   \   000005   AD83         MOV     R5,DPH
   \   000007   22           RET

   \                                 In  segment BANKED_CODE, align 1, keep-with-next
   \                     ?Subroutine7:
   \   000000   E0           MOVX    A,@DPTR
   \   000001   FA           MOV     R2,A
   \   000002   A3           INC     DPTR
   \   000003   E0           MOVX    A,@DPTR
   \   000004   FB           MOV     R3,A
   \   000005   12....       LCALL   ??AT_Int16toChar?relay
   \   000008                ; Setup parameters for call to function AT_HalUARTWrite
   \   000008                ; Setup parameters for call to function AT_HalUARTWrite
   \   000008   7C04         MOV     R4,#0x4
   \   00000A   7D00         MOV     R5,#0x0
   \   00000C   85..82       MOV     DPL,?XSP + 0
   \   00000F   85..83       MOV     DPH,?XSP + 1
   \   000012   AA82         MOV     R2,DPL
   \   000014   AB83         MOV     R3,DPH
   \   000016   7900         MOV     R1,#0x0
   \   000018   12....       LCALL   ??AT_HalUARTWrite?relay
   \   00001B   22           RET

   \                                 In  segment BANKED_CODE, align 1, keep-with-next
   \                     ?Subroutine15:
   \   000000   EA           MOV     A,R2
   \   000001   240C         ADD     A,#0xc
   \   000003   F582         MOV     DPL,A
   \   000005   EB           MOV     A,R3
   \   000006                REQUIRE ??Subroutine31_0
   \   000006                ; // Fall through to label ??Subroutine31_0

   \                                 In  segment BANKED_CODE, align 1, keep-with-next
   \                     ??Subroutine31_0:
   \   000000   3400         ADDC    A,#0x0
   \   000002   F583         MOV     DPH,A
   \   000004   E0           MOVX    A,@DPTR
   \   000005   22           RET

   \                                 In  segment BANKED_CODE, align 1, keep-with-next
   \                     ??Subroutine33_0:
   \   000000   EE           MOV     A,R6
   \   000001   28           ADD     A,R0
   \   000002   F8           MOV     R0,A
   \   000003   EF           MOV     A,R7
   \   000004   39           ADDC    A,R1
   \   000005   F9           MOV     R1,A
   \   000006   E8           MOV     A,R0
   \   000007   22           RET

   \                                 In  segment BANKED_CODE, align 1, keep-with-next
   \                     ??Subroutine36_0:
   \   000000   3400         ADDC    A,#0x0
   \   000002   F583         MOV     DPH,A
   \   000004   22           RET

   \                                 In  segment BANKED_CODE, align 1, keep-with-next
   \                     ??Subroutine39_0:
   \   000000   7F02         MOV     R7,#0x2
   \   000002   02....       LJMP    ?BANKED_LEAVE_XDATA

   \                                 In  segment BANKED_CODE, align 1, keep-with-next
   \                     ?Subroutine4:
   \   000000   7410         MOV     A,#0x10
   \   000002                REQUIRE ??Subroutine41_0
   \   000002                ; // Fall through to label ??Subroutine41_0

   \                                 In  segment BANKED_CODE, align 1, keep-with-next
   \                     ??Subroutine41_0:
   \   000000   12....       LCALL   ?DEALLOC_XSTACK8
   \   000003   02....       LJMP    ??Subroutine39_0 & 0xFFFF

   \                                 In  segment BANKED_CODE, align 1, keep-with-next
   \                     ?Subroutine29:
   \   000000   7900         MOV     R1,#0x0
   \   000002   12....       LCALL   ??AT_HalUARTWrite?relay
   \   000005                ; Setup parameters for call to function AT_Int16toChar
   \   000005                ; Setup parameters for call to function AT_EUI64toChar
   \   000005                ; Setup parameters for call to function AT_Int16toChar
   \   000005                ; Setup parameters for call to function printf
   \   000005                ; Setup parameters for call to function printf
   \   000005                ; Setup parameters for call to function printf
   \   000005   85..82       MOV     DPL,?XSP + 0
   \   000008   85..83       MOV     DPH,?XSP + 1
   \   00000B   22           RET
    142          
    143          
    144          /**********************************************************
    145          
    146           Display Neighbour Table for AT+NTABLE
    147          
    148          for example:
    149          NTable:<NodeID>,<errorcode> 
    150          Length:03 
    151          No.| Type | EUI | ID | LQI 
    152          0. | FFD | 000D6F000015896B | BC04 | FF 
    153          1. | FFD | 000D6F00000B3E77 | 739D | FF 
    154          2. | FFD | 000D6F00000AAD11 | 75E3 | FF
    155          
    156          ********************************************************/

   \                                 In  segment BANKED_CODE, align 1, keep-with-next
    157          void AT_ZDO_ProcessLqiRsp(zdoIncomingMsg_t *inMsg ){
   \                     AT_ZDO_ProcessLqiRsp:
   \   000000   74F0         MOV     A,#-0x10
   \   000002   12....       LCALL   ?BANKED_ENTER_XDATA
   \   000005                ; Saved register size: 16
   \   000005                ; Auto size: 0
   \   000005   8A..         MOV     ?V0 + 0,R2
   \   000007   8B..         MOV     ?V0 + 1,R3
    158            
    159            AT_ZDO_MgmtLqiRsp_t *pRsp = (AT_ZDO_MgmtLqiRsp_t *)inMsg->asdu;
   \   000009   EA           MOV     A,R2
   \   00000A   2413         ADD     A,#0x13
   \   00000C   F582         MOV     DPL,A
   \   00000E   EB           MOV     A,R3
   \   00000F   12....       LCALL   ??Subroutine38_0 & 0xFFFF
    160            //pRsp = ZDO_ParseMgmtLqiRsp( inMsg );
    161            
    162            AT_RESP_START();
   \                     ??CrossCallReturnLabel_101:
   \   000012                ; Setup parameters for call to function AT_HalUARTWrite
   \   000012   12....       LCALL   ?Subroutine18 & 0xFFFF
    163            //NTable:<NodeID>,<errorcode> 
    164            if(inMsg->srcAddr.addrMode==(afAddrMode_t)Addr16Bit){
   \                     ??CrossCallReturnLabel_21:
   \   000015   701B         JNZ     ??AT_ZDO_ProcessLqiRsp_0
    165              printf("NTABLE:%04X,%02X\n\r",(uint16)inMsg->srcAddr.addr.shortAddr,
    166                     pRsp->status);
   \   000017                ; Setup parameters for call to function printf
   \   000017   8E82         MOV     DPL,R6
   \   000019   8F83         MOV     DPH,R7
   \   00001B   12....       LCALL   ??Subroutine34_0 & 0xFFFF
    167            }
   \                     ??CrossCallReturnLabel_56:
   \   00001E   12....       LCALL   ?PUSH_XSTACK_I_TWO
   \   000021   85..82       MOV     DPL,?V0 + 0
   \   000024   85..83       MOV     DPH,?V0 + 1
   \   000027   A3           INC     DPTR
   \   000028   A3           INC     DPTR
   \   000029   12....       LCALL   ?PUSH_XSTACK8_X_TWO
   \   00002C   12....       LCALL   ?Subroutine26 & 0xFFFF
   \                     ??CrossCallReturnLabel_104:
   \   00002F   12....       LCALL   ?DEALLOC_XSTACK8
    168            //Length:XX
    169            printf("Length:%02X\n\r",pRsp->neighborLqiCount);   
   \                     ??AT_ZDO_ProcessLqiRsp_0:
   \   000032   12....       LCALL   ?Subroutine8 & 0xFFFF
   \                     ??CrossCallReturnLabel_59:
   \   000035   12....       LCALL   ?PUSH_XSTACK_I_TWO
   \   000038   12....       LCALL   ?Subroutine25 & 0xFFFF
   \                     ??CrossCallReturnLabel_68:
   \   00003B   12....       LCALL   ?DEALLOC_XSTACK8
    170            //No.| Type | Relation | EUI | ID | LQI
    171           if(pRsp->neighborLqiCount!=0) printf("No.|  Type  |Relation|       EUI        |  ID  | LQI\n\r");
   \   00003E   85..82       MOV     DPL,?V0 + 0
   \   000041   85..83       MOV     DPH,?V0 + 1
   \   000044   E0           MOVX    A,@DPTR
   \   000045   6007         JZ      ??AT_ZDO_ProcessLqiRsp_1
   \   000047                ; Setup parameters for call to function printf
   \   000047   7A..         MOV     R2,#`?<Constant "No.|  Type  |Relation...">` & 0xff
   \   000049   7B..         MOV     R3,#(`?<Constant "No.|  Type  |Relation...">` >> 8) & 0xff
   \   00004B   12....       LCALL   ??printf?relay
    172            
    173            uint8 i;
    174            for(i=0;i<pRsp->neighborLqiCount;i++){
   \                     ??AT_ZDO_ProcessLqiRsp_1:
   \   00004E   75..00       MOV     ?V0 + 4,#0x0
   \   000051   02....       LJMP    ??AT_ZDO_ProcessLqiRsp_2 & 0xFFFF
    175              uint16 *ext = (uint16*) pRsp->list[i].extAddr;
    176              //print No.
    177              printf("\n\r%X. | ",i+pRsp->startIndex);
    178              //print type
    179              if(pRsp->list[i].devType==ZDP_MGMT_DT_COORD) printf("%-7s| ","COORD");
    180              else if(pRsp->list[i].devType==ZDP_MGMT_DT_ROUTER)printf("%-7s| ","ROUTER");
    181              else if(pRsp->list[i].devType==ZDP_MGMT_DT_ENDDEV)printf("%-7s| ","ENDDEV");
    182              else printf("%-s| ","UNKNOWN");
    183              //print relation
    184              if(pRsp->list[i].relation == ZDP_MGMT_REL_PARENT) printf("%-7s| ","PARENT");
    185              else if(pRsp->list[i].relation == ZDP_MGMT_REL_CHILD) printf("%-7s| ","CHILD");
    186              else if(pRsp->list[i].relation == ZDP_MGMT_REL_SIBLING) printf("%-7s| ","SIBLING");
    187              else printf("%-7s| ","UNKNOWN");
   \                     ??AT_ZDO_ProcessLqiRsp_3:
   \   000054                ; Setup parameters for call to function printf
   \   000054   75....       MOV     ?V0 + 0,#`?<Constant "UNKNOWN">` & 0xff
   \   000057   75....       MOV     ?V0 + 1,#(`?<Constant "UNKNOWN">` >> 8) & 0xff
   \                     ??AT_ZDO_ProcessLqiRsp_4:
   \   00005A   78..         MOV     R0,#?V0 + 0
   \   00005C   12....       LCALL   ?PUSH_XSTACK_I_TWO
   \   00005F   7A..         MOV     R2,#`?<Constant "%-7s| ">` & 0xff
   \   000061   7B..         MOV     R3,#(`?<Constant "%-7s| ">` >> 8) & 0xff
   \   000063   12....       LCALL   ??Subroutine37_0 & 0xFFFF
   \                     ??CrossCallReturnLabel_70:
   \   000066   12....       LCALL   ?DEALLOC_XSTACK8
    188              //print EUI ID LQI    
    189              printf("%04X%04X%04X%04X | %04X | %02X",
    190                     ext[3],ext[2],ext[1],ext[0],pRsp->list[i].nwkAddr,
    191                     pRsp->list[i].lqi);
   \   000069   85..82       MOV     DPL,?V0 + 4
   \   00006C   E582         MOV     A,DPL
   \   00006E   75F016       MOV     B,#0x16
   \   000071   A4           MUL     AB
   \   000072   F8           MOV     R0,A
   \   000073   A9F0         MOV     R1,B
   \   000075   EE           MOV     A,R6
   \   000076   28           ADD     A,R0
   \   000077   F5..         MOV     ?V0 + 0,A
   \   000079   EF           MOV     A,R7
   \   00007A   39           ADDC    A,R1
   \   00007B   F5..         MOV     ?V0 + 1,A
   \   00007D                ; Setup parameters for call to function printf
   \   00007D   E5..         MOV     A,?V0 + 0
   \   00007F   2419         ADD     A,#0x19
   \   000081   F582         MOV     DPL,A
   \   000083   E5..         MOV     A,?V0 + 1
   \   000085   12....       LCALL   ??Subroutine31_0 & 0xFFFF
   \                     ??CrossCallReturnLabel_46:
   \   000088   F5..         MOV     ?V0 + 6,A
   \   00008A   75..00       MOV     ?V0 + 7,#0x0
   \   00008D   78..         MOV     R0,#?V0 + 6
   \   00008F   12....       LCALL   ?PUSH_XSTACK_I_TWO
   \   000092   E5..         MOV     A,?V0 + 0
   \   000094   2414         ADD     A,#0x14
   \   000096   F582         MOV     DPL,A
   \   000098   E5..         MOV     A,?V0 + 1
   \   00009A   12....       LCALL   ??Subroutine36_0 & 0xFFFF
   \                     ??CrossCallReturnLabel_62:
   \   00009D   12....       LCALL   ?PUSH_XSTACK8_X_TWO
   \   0000A0   85..82       MOV     DPL,?V0 + 2
   \   0000A3   85..83       MOV     DPH,?V0 + 3
   \   0000A6   12....       LCALL   ?PUSH_XSTACK8_X_TWO
   \   0000A9   85..82       MOV     DPL,?V0 + 2
   \   0000AC   85..83       MOV     DPH,?V0 + 3
   \   0000AF   A3           INC     DPTR
   \   0000B0   A3           INC     DPTR
   \   0000B1   12....       LCALL   ?PUSH_XSTACK8_X_TWO
   \   0000B4   85..82       MOV     DPL,?V0 + 2
   \   0000B7   85..83       MOV     DPH,?V0 + 3
   \   0000BA   A3           INC     DPTR
   \   0000BB   A3           INC     DPTR
   \   0000BC   A3           INC     DPTR
   \   0000BD   A3           INC     DPTR
   \   0000BE   12....       LCALL   ?PUSH_XSTACK8_X_TWO
   \   0000C1   85..82       MOV     DPL,?V0 + 2
   \   0000C4   85..83       MOV     DPH,?V0 + 3
   \   0000C7   A3           INC     DPTR
   \   0000C8   A3           INC     DPTR
   \   0000C9   A3           INC     DPTR
   \   0000CA   A3           INC     DPTR
   \   0000CB   A3           INC     DPTR
   \   0000CC   A3           INC     DPTR
   \   0000CD   12....       LCALL   ?PUSH_XSTACK8_X_TWO
   \   0000D0   7A..         MOV     R2,#`?<Constant "%04X%04X%04X%04X | %0...">` & 0xff
   \   0000D2   7B..         MOV     R3,#(`?<Constant "%04X%04X%04X%04X | %0...">` >> 8) & 0xff
   \   0000D4   12....       LCALL   ??printf?relay
   \   0000D7   740C         MOV     A,#0xc
   \   0000D9   12....       LCALL   ?DEALLOC_XSTACK8
   \   0000DC   05..         INC     ?V0 + 4
   \                     ??AT_ZDO_ProcessLqiRsp_2:
   \   0000DE   8E82         MOV     DPL,R6
   \   0000E0   8F83         MOV     DPH,R7
   \   0000E2   A3           INC     DPTR
   \   0000E3   A3           INC     DPTR
   \   0000E4   A3           INC     DPTR
   \   0000E5   E0           MOVX    A,@DPTR
   \   0000E6   F8           MOV     R0,A
   \   0000E7   E5..         MOV     A,?V0 + 4
   \   0000E9   C3           CLR     C
   \   0000EA   98           SUBB    A,R0
   \   0000EB   4003         JC      $+5
   \   0000ED   02....       LJMP    ??AT_ZDO_ProcessLqiRsp_5 & 0xFFFF
   \   0000F0   85..82       MOV     DPL,?V0 + 4
   \   0000F3   A882         MOV     R0,DPL
   \   0000F5   E8           MOV     A,R0
   \   0000F6   75F016       MOV     B,#0x16
   \   0000F9   A4           MUL     AB
   \   0000FA   FA           MOV     R2,A
   \   0000FB   ABF0         MOV     R3,B
   \   0000FD   EE           MOV     A,R6
   \   0000FE   2A           ADD     A,R2
   \   0000FF   F5..         MOV     ?V0 + 0,A
   \   000101   EF           MOV     A,R7
   \   000102   3B           ADDC    A,R3
   \   000103   F5..         MOV     ?V0 + 1,A
   \   000105   E5..         MOV     A,?V0 + 0
   \   000107   240C         ADD     A,#0xc
   \   000109   FA           MOV     R2,A
   \   00010A   E5..         MOV     A,?V0 + 1
   \   00010C   3400         ADDC    A,#0x0
   \   00010E   FB           MOV     R3,A
   \   00010F   8A..         MOV     ?V0 + 2,R2
   \   000111   8B..         MOV     ?V0 + 3,R3
   \   000113                ; Setup parameters for call to function printf
   \   000113   8E82         MOV     DPL,R6
   \   000115   8F83         MOV     DPH,R7
   \   000117   A3           INC     DPTR
   \   000118   A3           INC     DPTR
   \   000119   E0           MOVX    A,@DPTR
   \   00011A   FA           MOV     R2,A
   \   00011B   E8           MOV     A,R0
   \   00011C   2A           ADD     A,R2
   \   00011D   F5..         MOV     ?V0 + 6,A
   \   00011F   E4           CLR     A
   \   000120   3400         ADDC    A,#0x0
   \   000122   F5..         MOV     ?V0 + 7,A
   \   000124   78..         MOV     R0,#?V0 + 6
   \   000126   12....       LCALL   ?PUSH_XSTACK_I_TWO
   \   000129   7A..         MOV     R2,#`?<Constant "\\n\\r%X. | ">` & 0xff
   \   00012B   7B..         MOV     R3,#(`?<Constant "\\n\\r%X. | ">` >> 8) & 0xff
   \   00012D   12....       LCALL   ??Subroutine37_0 & 0xFFFF
   \                     ??CrossCallReturnLabel_71:
   \   000130   12....       LCALL   ?DEALLOC_XSTACK8
   \   000133   E5..         MOV     A,?V0 + 0
   \   000135   2416         ADD     A,#0x16
   \   000137   F582         MOV     DPL,A
   \   000139   E5..         MOV     A,?V0 + 1
   \   00013B   12....       LCALL   ??Subroutine31_0 & 0xFFFF
   \                     ??CrossCallReturnLabel_47:
   \   00013E   5403         ANL     A,#0x3
   \   000140   7011         JNZ     ??AT_ZDO_ProcessLqiRsp_6
   \   000142                ; Setup parameters for call to function printf
   \   000142   75....       MOV     ?V0 + 0,#`?<Constant "COORD">` & 0xff
   \   000145   75....       MOV     ?V0 + 1,#(`?<Constant "COORD">` >> 8) & 0xff
   \                     ??AT_ZDO_ProcessLqiRsp_7:
   \   000148   78..         MOV     R0,#?V0 + 0
   \   00014A   12....       LCALL   ?PUSH_XSTACK_I_TWO
   \   00014D   7A..         MOV     R2,#`?<Constant "%-7s| ">` & 0xff
   \   00014F   7B..         MOV     R3,#(`?<Constant "%-7s| ">` >> 8) & 0xff
   \   000151   8036         SJMP    ??AT_ZDO_ProcessLqiRsp_8
   \                     ??AT_ZDO_ProcessLqiRsp_6:
   \   000153   E0           MOVX    A,@DPTR
   \   000154   5403         ANL     A,#0x3
   \   000156   6401         XRL     A,#0x1
   \   000158   7008         JNZ     ??AT_ZDO_ProcessLqiRsp_9
   \   00015A                ; Setup parameters for call to function printf
   \   00015A   75....       MOV     ?V0 + 0,#`?<Constant "ROUTER">` & 0xff
   \   00015D   75....       MOV     ?V0 + 1,#(`?<Constant "ROUTER">` >> 8) & 0xff
   \   000160   80E6         SJMP    ??AT_ZDO_ProcessLqiRsp_7
   \                     ??AT_ZDO_ProcessLqiRsp_9:
   \   000162   E0           MOVX    A,@DPTR
   \   000163   5403         ANL     A,#0x3
   \   000165   6402         XRL     A,#0x2
   \   000167   7011         JNZ     ??AT_ZDO_ProcessLqiRsp_10
   \   000169                ; Setup parameters for call to function printf
   \   000169   75....       MOV     ?V0 + 0,#`?<Constant "ENDDEV">` & 0xff
   \   00016C   75....       MOV     ?V0 + 1,#(`?<Constant "ENDDEV">` >> 8) & 0xff
   \   00016F   78..         MOV     R0,#?V0 + 0
   \   000171   12....       LCALL   ?PUSH_XSTACK_I_TWO
   \   000174   7A..         MOV     R2,#`?<Constant "%-7s| ">` & 0xff
   \   000176   7B..         MOV     R3,#(`?<Constant "%-7s| ">` >> 8) & 0xff
   \   000178   800F         SJMP    ??AT_ZDO_ProcessLqiRsp_8
   \                     ??AT_ZDO_ProcessLqiRsp_10:
   \   00017A                ; Setup parameters for call to function printf
   \   00017A   75....       MOV     ?V0 + 0,#`?<Constant "UNKNOWN">` & 0xff
   \   00017D   75....       MOV     ?V0 + 1,#(`?<Constant "UNKNOWN">` >> 8) & 0xff
   \   000180   78..         MOV     R0,#?V0 + 0
   \   000182   12....       LCALL   ?PUSH_XSTACK_I_TWO
   \   000185   7A..         MOV     R2,#`?<Constant "%-s| ">` & 0xff
   \   000187   7B..         MOV     R3,#(`?<Constant "%-s| ">` >> 8) & 0xff
   \                     ??AT_ZDO_ProcessLqiRsp_8:
   \   000189   12....       LCALL   ??Subroutine37_0 & 0xFFFF
   \                     ??CrossCallReturnLabel_72:
   \   00018C   12....       LCALL   ?DEALLOC_XSTACK8
   \   00018F   E5..         MOV     A,?V0 + 4
   \   000191   75F016       MOV     B,#0x16
   \   000194   12....       LCALL   ??Subroutine32_0 & 0xFFFF
   \                     ??CrossCallReturnLabel_52:
   \   000197   2416         ADD     A,#0x16
   \   000199   F582         MOV     DPL,A
   \   00019B   E9           MOV     A,R1
   \   00019C   12....       LCALL   ??Subroutine31_0 & 0xFFFF
   \                     ??CrossCallReturnLabel_48:
   \   00019F   54F0         ANL     A,#0xf0
   \   0001A1   7009         JNZ     ??AT_ZDO_ProcessLqiRsp_11
   \   0001A3                ; Setup parameters for call to function printf
   \   0001A3   75....       MOV     ?V0 + 0,#`?<Constant "PARENT">` & 0xff
   \   0001A6   75....       MOV     ?V0 + 1,#(`?<Constant "PARENT">` >> 8) & 0xff
   \   0001A9   02....       LJMP    ??AT_ZDO_ProcessLqiRsp_4 & 0xFFFF
   \                     ??AT_ZDO_ProcessLqiRsp_11:
   \   0001AC   E0           MOVX    A,@DPTR
   \   0001AD   54F0         ANL     A,#0xf0
   \   0001AF   6410         XRL     A,#0x10
   \   0001B1   7009         JNZ     ??AT_ZDO_ProcessLqiRsp_12
   \   0001B3                ; Setup parameters for call to function printf
   \   0001B3   75....       MOV     ?V0 + 0,#`?<Constant "CHILD">` & 0xff
   \   0001B6   75....       MOV     ?V0 + 1,#(`?<Constant "CHILD">` >> 8) & 0xff
   \   0001B9   02....       LJMP    ??AT_ZDO_ProcessLqiRsp_4 & 0xFFFF
   \                     ??AT_ZDO_ProcessLqiRsp_12:
   \   0001BC   E0           MOVX    A,@DPTR
   \   0001BD   54F0         ANL     A,#0xf0
   \   0001BF   6420         XRL     A,#0x20
   \   0001C1   6003         JZ      $+5
   \   0001C3   02....       LJMP    ??AT_ZDO_ProcessLqiRsp_3 & 0xFFFF
   \   0001C6                ; Setup parameters for call to function printf
   \   0001C6   75....       MOV     ?V0 + 0,#`?<Constant "SIBLING">` & 0xff
   \   0001C9   75....       MOV     ?V0 + 1,#(`?<Constant "SIBLING">` >> 8) & 0xff
   \   0001CC   02....       LJMP    ??AT_ZDO_ProcessLqiRsp_4 & 0xFFFF
    192              //print permit join
    193              
    194            }
    195            AT_RESP_END();    
   \                     ??AT_ZDO_ProcessLqiRsp_5:
   \   0001CF                ; Setup parameters for call to function AT_HalUARTWrite
   \   0001CF   7C02         MOV     R4,#0x2
   \   0001D1   7D00         MOV     R5,#0x0
   \   0001D3   7A..         MOV     R2,#`?<Constant "\\r\\n">` & 0xff
   \   0001D5   7B..         MOV     R3,#(`?<Constant "\\r\\n">` >> 8) & 0xff
   \   0001D7   7900         MOV     R1,#0x0
   \   0001D9   12....       LCALL   ??AT_HalUARTWrite?relay
    196            
    197            /* in ZDP_MgmtLqiRsp() function in ZDProfile.c
    198            therefor, we know that:
    199            devType, rxOnIdle, relation, are all packed into 1 byte
    200            reason 1:
    201            
    202              // DEVICETYPE
    203              *pBuf = list->devType;
    204          
    205              // RXONIDLE
    206              *pBuf |= (uint8)(list->rxOnIdle << 2);
    207          
    208              // RELATIONSHIP
    209              *pBuf++ |= (uint8)(list->relation << 4);
    210            
    211            reason 2:
    212            // This structure is used to build the Mgmt_Lqi_rsp
    213          typedef struct
    214            {
    215              uint16 panID;                  // PAN Id
    216              uint8  extPanID[Z_EXTADDR_LEN];// Extended Pan ID
    217              uint8  extAddr[Z_EXTADDR_LEN]; // Extended address
    218              uint16 nwkAddr;                // Network address
    219              uint8  devType;                // Device type
    220              uint8  rxOnIdle;               // RxOnWhenIdle
    221              uint8  relation;               // Relationship
    222              uint8  permit;                 // Permit joining
    223              uint8  depth;                  // Depth
    224              uint8  lqi;                    // LQI
    225            } ZDP_MgmtLqiItem_t;
    226            // devType, rxOnIdle, relation, are all packed into 1 byte: 18-2=16.
    227            */
    228          }
   \   0001DC   7F08         MOV     R7,#0x8
   \   0001DE   02....       LJMP    ?BANKED_LEAVE_XDATA

   \                                 In  segment BANKED_CODE, align 1, keep-with-next
   \                     ??Subroutine32_0:
   \   000000   A4           MUL     AB
   \   000001   F8           MOV     R0,A
   \   000002   A9F0         MOV     R1,B
   \   000004                REQUIRE ??Subroutine33_0
   \   000004                ; // Fall through to label ??Subroutine33_0

   \                                 In  segment BANKED_CODE, align 1, keep-with-next
   \                     ?Subroutine18:
   \   000000   7C02         MOV     R4,#0x2
   \   000002   7D00         MOV     R5,#0x0
   \   000004   7A..         MOV     R2,#`?<Constant "\\r\\n">` & 0xff
   \   000006   7B..         MOV     R3,#(`?<Constant "\\r\\n">` >> 8) & 0xff
   \   000008   12....       LCALL   ?Subroutine30 & 0xFFFF
   \                     ??CrossCallReturnLabel_43:
   \   00000B   A3           INC     DPTR
   \   00000C   A3           INC     DPTR
   \   00000D   A3           INC     DPTR
   \   00000E   A3           INC     DPTR
   \   00000F   A3           INC     DPTR
   \   000010   A3           INC     DPTR
   \   000011   A3           INC     DPTR
   \   000012   A3           INC     DPTR
   \   000013   A3           INC     DPTR
   \   000014   A3           INC     DPTR
   \   000015   E0           MOVX    A,@DPTR
   \   000016   6402         XRL     A,#0x2
   \   000018   22           RET

   \                                 In  segment BANKED_CODE, align 1, keep-with-next
   \                     ?Subroutine8:
   \   000000   EE           MOV     A,R6
   \   000001   2403         ADD     A,#0x3
   \   000003   F5..         MOV     ?V0 + 0,A
   \   000005   EF           MOV     A,R7
   \   000006   3400         ADDC    A,#0x0
   \   000008   F5..         MOV     ?V0 + 1,A
   \   00000A                ; Setup parameters for call to function printf
   \   00000A                ; Setup parameters for call to function printf
   \   00000A   85..82       MOV     DPL,?V0 + 0
   \   00000D   F583         MOV     DPH,A
   \   00000F                REQUIRE ??Subroutine34_0
   \   00000F                ; // Fall through to label ??Subroutine34_0

   \                                 In  segment BANKED_CODE, align 1, keep-with-next
   \                     ??Subroutine34_0:
   \   000000   E0           MOVX    A,@DPTR
   \   000001   F5..         MOV     ?V0 + 2,A
   \   000003   75..00       MOV     ?V0 + 3,#0x0
   \   000006   78..         MOV     R0,#?V0 + 2
   \   000008   22           RET

   \                                 In  segment BANKED_CODE, align 1, keep-with-next
   \                     ?Subroutine30:
   \   000000   7900         MOV     R1,#0x0
   \   000002   12....       LCALL   ??AT_HalUARTWrite?relay
   \   000005   85..82       MOV     DPL,?V0 + 0
   \   000008   85..83       MOV     DPH,?V0 + 1
   \   00000B   22           RET

   \                                 In  segment BANKED_CODE, align 1, keep-with-next
   \                     ?Subroutine25:
   \   000000   7A..         MOV     R2,#`?<Constant "Length:%02X\\n\\r">` & 0xff
   \   000002   7B..         MOV     R3,#(`?<Constant "Length:%02X\\n\\r">` >> 8) & 0xff
   \   000004                REQUIRE ??Subroutine37_0
   \   000004                ; // Fall through to label ??Subroutine37_0

   \                                 In  segment BANKED_CODE, align 1, keep-with-next
   \                     ??Subroutine37_0:
   \   000000   12....       LCALL   ??printf?relay
   \   000003   7402         MOV     A,#0x2
   \   000005   22           RET

   \                                 In  segment BANKED_CODE, align 1, keep-with-next
   \                     ??Subroutine38_0:
   \   000000   3400         ADDC    A,#0x0
   \   000002   F583         MOV     DPH,A
   \   000004   E0           MOVX    A,@DPTR
   \   000005   FE           MOV     R6,A
   \   000006   A3           INC     DPTR
   \   000007   E0           MOVX    A,@DPTR
   \   000008   FF           MOV     R7,A
   \   000009   22           RET

   \                                 In  segment BANKED_CODE, align 1, keep-with-next
   \                     ?Subroutine26:
   \   000000   7A..         MOV     R2,#`?<Constant "NTABLE:%04X,%02X\\n\\r">` & 0xff
   \   000002   7B..         MOV     R3,#(`?<Constant "NTABLE:%04X,%02X\\n\\r">` >> 8) & 0xff
   \   000004                REQUIRE ??Subroutine40_0
   \   000004                ; // Fall through to label ??Subroutine40_0

   \                                 In  segment BANKED_CODE, align 1, keep-with-next
   \                     ??Subroutine40_0:
   \   000000   12....       LCALL   ??printf?relay
   \   000003   7404         MOV     A,#0x4
   \   000005   22           RET
    229          
    230          /**********************************************************
    231          
    232           Display Neighbour Table for AT+RABLE
    233              Prompt (example) 
    234                  RTable:<NodeID>,<errorcode> 
    235                  Length:03 
    236                  No.| Dest | Next | Status 
    237                  0. | 1234 | ABCD | 00 
    238                  1. | 4321 | 739D | 00 
    239                  2. | 0000 | 0000 | 03
    240          
    241          ********************************************************/

   \                                 In  segment BANKED_CODE, align 1, keep-with-next
    242          void AT_ZDO_ProcessRtgRsp(zdoIncomingMsg_t *inMsg ){
   \                     AT_ZDO_ProcessRtgRsp:
   \   000000   74F4         MOV     A,#-0xc
   \   000002   12....       LCALL   ?BANKED_ENTER_XDATA
   \   000005                ; Saved register size: 12
   \   000005                ; Auto size: 0
   \   000005   8A..         MOV     ?V0 + 0,R2
   \   000007   8B..         MOV     ?V0 + 1,R3
    243            ZDO_MgmtRtgRsp_t* pRsp = (ZDO_MgmtRtgRsp_t*)ZDO_ParseMgmtRtgRsp(inMsg );
   \   000009                ; Setup parameters for call to function ZDO_ParseMgmtRtgRsp
   \   000009   12....       LCALL   ??ZDO_ParseMgmtRtgRsp?relay
   \   00000C   8A..         MOV     ?V0 + 2,R2
   \   00000E   8B..         MOV     ?V0 + 3,R3
   \   000010   AE..         MOV     R6,?V0 + 2
   \   000012   AF..         MOV     R7,?V0 + 3
    244            
    245            AT_RESP_START();
   \   000014                ; Setup parameters for call to function AT_HalUARTWrite
   \   000014   12....       LCALL   ?Subroutine18 & 0xFFFF
    246            
    247            //NTable:<NodeID>,<errorcode> 
    248            if(inMsg->srcAddr.addrMode==(afAddrMode_t)Addr16Bit){
   \                     ??CrossCallReturnLabel_22:
   \   000017   701B         JNZ     ??AT_ZDO_ProcessRtgRsp_0
    249              printf("NTABLE:%04X,%02X\n\r",(uint16)inMsg->srcAddr.addr.shortAddr,
    250                     pRsp->status);
   \   000019                ; Setup parameters for call to function printf
   \   000019   8E82         MOV     DPL,R6
   \   00001B   8F83         MOV     DPH,R7
   \   00001D   12....       LCALL   ??Subroutine34_0 & 0xFFFF
    251            }
   \                     ??CrossCallReturnLabel_57:
   \   000020   12....       LCALL   ?PUSH_XSTACK_I_TWO
   \   000023   85..82       MOV     DPL,?V0 + 0
   \   000026   85..83       MOV     DPH,?V0 + 1
   \   000029   A3           INC     DPTR
   \   00002A   A3           INC     DPTR
   \   00002B   12....       LCALL   ?PUSH_XSTACK8_X_TWO
   \   00002E   12....       LCALL   ?Subroutine26 & 0xFFFF
   \                     ??CrossCallReturnLabel_105:
   \   000031   12....       LCALL   ?DEALLOC_XSTACK8
    252            //Length:XX
    253            printf("Length:%02X\n\r",pRsp->rtgCount); 
   \                     ??AT_ZDO_ProcessRtgRsp_0:
   \   000034   8E82         MOV     DPL,R6
   \   000036   8F83         MOV     DPH,R7
   \   000038   A3           INC     DPTR
   \   000039   8582..       MOV     ?V0 + 0,DPL
   \   00003C   8583..       MOV     ?V0 + 1,DPH
   \   00003F                ; Setup parameters for call to function printf
   \   00003F   12....       LCALL   ??Subroutine34_0 & 0xFFFF
   \                     ??CrossCallReturnLabel_58:
   \   000042   12....       LCALL   ?PUSH_XSTACK_I_TWO
   \   000045   12....       LCALL   ?Subroutine25 & 0xFFFF
   \                     ??CrossCallReturnLabel_69:
   \   000048   12....       LCALL   ?DEALLOC_XSTACK8
    254            
    255            //No.| Dest | Next | Status 
    256           if(pRsp->rtgCount!=0) printf("No.| Dest | Next | Status\n\r");
   \   00004B   85..82       MOV     DPL,?V0 + 0
   \   00004E   85..83       MOV     DPH,?V0 + 1
   \   000051   E0           MOVX    A,@DPTR
   \   000052   6007         JZ      ??AT_ZDO_ProcessRtgRsp_1
   \   000054                ; Setup parameters for call to function printf
   \   000054   7A..         MOV     R2,#`?<Constant "No.| Dest | Next | St...">` & 0xff
   \   000056   7B..         MOV     R3,#(`?<Constant "No.| Dest | Next | St...">` >> 8) & 0xff
   \   000058   12....       LCALL   ??printf?relay
    257            
    258            uint8 i;
    259            for(i=0;i<pRsp->rtgListCount;i++){
   \                     ??AT_ZDO_ProcessRtgRsp_1:
   \   00005B   75..00       MOV     ?V0 + 2,#0x0
   \   00005E   8057         SJMP    ??AT_ZDO_ProcessRtgRsp_2
    260              //print No.| Dest | Next | Status
    261              printf("\n\r%X. | %04X | %04X | %02X",
    262                     i+pRsp->startIndex,
    263                     pRsp->list[i].dstAddress,
    264                     pRsp->list[i].nextHopAddress,
    265                     pRsp->list[i].status);
   \                     ??AT_ZDO_ProcessRtgRsp_3:
   \   000060   85..82       MOV     DPL,?V0 + 2
   \   000063   AA82         MOV     R2,DPL
   \   000065   EA           MOV     A,R2
   \   000066   75F007       MOV     B,#0x7
   \   000069   12....       LCALL   ??Subroutine32_0 & 0xFFFF
    266            }
   \                     ??CrossCallReturnLabel_53:
   \   00006C   FC           MOV     R4,A
   \   00006D   E9           MOV     A,R1
   \   00006E   FD           MOV     R5,A
   \   00006F                ; Setup parameters for call to function printf
   \   00006F   8C82         MOV     DPL,R4
   \   000071   8D83         MOV     DPH,R5
   \   000073   A3           INC     DPTR
   \   000074   A3           INC     DPTR
   \   000075   A3           INC     DPTR
   \   000076   A3           INC     DPTR
   \   000077   A3           INC     DPTR
   \   000078   A3           INC     DPTR
   \   000079   A3           INC     DPTR
   \   00007A   A3           INC     DPTR
   \   00007B   A3           INC     DPTR
   \   00007C   12....       LCALL   ??Subroutine44_0 & 0xFFFF
   \                     ??CrossCallReturnLabel_129:
   \   00007F   12....       LCALL   ?PUSH_XSTACK_I_TWO
   \   000082   8C82         MOV     DPL,R4
   \   000084   8D83         MOV     DPH,R5
   \   000086   A3           INC     DPTR
   \   000087   A3           INC     DPTR
   \   000088   A3           INC     DPTR
   \   000089   A3           INC     DPTR
   \   00008A   A3           INC     DPTR
   \   00008B   A3           INC     DPTR
   \   00008C   12....       LCALL   ?PUSH_XSTACK8_X_TWO
   \   00008F   8C82         MOV     DPL,R4
   \   000091   8D83         MOV     DPH,R5
   \   000093   A3           INC     DPTR
   \   000094   A3           INC     DPTR
   \   000095   A3           INC     DPTR
   \   000096   A3           INC     DPTR
   \   000097   12....       LCALL   ?PUSH_XSTACK8_X_TWO
   \   00009A   8E82         MOV     DPL,R6
   \   00009C   8F83         MOV     DPH,R7
   \   00009E   A3           INC     DPTR
   \   00009F   A3           INC     DPTR
   \   0000A0   E0           MOVX    A,@DPTR
   \   0000A1   F8           MOV     R0,A
   \   0000A2   EA           MOV     A,R2
   \   0000A3   12....       LCALL   ?Subroutine23 & 0xFFFF
   \                     ??CrossCallReturnLabel_33:
   \   0000A6   12....       LCALL   ?PUSH_XSTACK_I_TWO
   \   0000A9   7A..         MOV     R2,#`?<Constant "\\n\\r%X. | %04X | %04X |...">` & 0xff
   \   0000AB   7B..         MOV     R3,#(`?<Constant "\\n\\r%X. | %04X | %04X |...">` >> 8) & 0xff
   \   0000AD   12....       LCALL   ??printf?relay
   \   0000B0   7408         MOV     A,#0x8
   \   0000B2   12....       LCALL   ?DEALLOC_XSTACK8
   \   0000B5   05..         INC     ?V0 + 2
   \                     ??AT_ZDO_ProcessRtgRsp_2:
   \   0000B7   12....       LCALL   ?Subroutine10 & 0xFFFF
   \                     ??CrossCallReturnLabel_5:
   \   0000BA   40A4         JC      ??AT_ZDO_ProcessRtgRsp_3
    267            AT_RESP_END();
   \   0000BC                ; Setup parameters for call to function AT_HalUARTWrite
   \   0000BC   12....       LCALL   ?Subroutine21 & 0xFFFF
    268            osal_mem_free( pRsp );
    269          }
   \                     ??CrossCallReturnLabel_31:
   \   0000BF   7F04         MOV     R7,#0x4
   \   0000C1   02....       LJMP    ?BANKED_LEAVE_XDATA

   \                                 In  segment BANKED_CODE, align 1, keep-with-next
   \                     ?Subroutine21:
   \   000000   7C02         MOV     R4,#0x2
   \   000002   7D00         MOV     R5,#0x0
   \   000004   7A..         MOV     R2,#`?<Constant "\\r\\n">` & 0xff
   \   000006   7B..         MOV     R3,#(`?<Constant "\\r\\n">` >> 8) & 0xff
   \   000008   7900         MOV     R1,#0x0
   \   00000A   12....       LCALL   ??AT_HalUARTWrite?relay
   \   00000D                ; Setup parameters for call to function osal_mem_free
   \   00000D                ; Setup parameters for call to function osal_mem_free
   \   00000D                ; Setup parameters for call to function osal_mem_free
   \   00000D                ; Setup parameters for call to function osal_mem_free
   \   00000D   EE           MOV     A,R6
   \   00000E   FA           MOV     R2,A
   \   00000F   EF           MOV     A,R7
   \   000010   FB           MOV     R3,A
   \   000011   12....       LCALL   ??osal_mem_free?relay
   \   000014   22           RET

   \                                 In  segment BANKED_CODE, align 1, keep-with-next
   \                     ?Subroutine23:
   \   000000   28           ADD     A,R0
   \   000001   F5..         MOV     ?V0 + 0,A
   \   000003   E4           CLR     A
   \   000004   3400         ADDC    A,#0x0
   \   000006   F5..         MOV     ?V0 + 1,A
   \   000008   78..         MOV     R0,#?V0 + 0
   \   00000A   22           RET

   \                                 In  segment BANKED_CODE, align 1, keep-with-next
   \                     ?Subroutine10:
   \   000000   8E82         MOV     DPL,R6
   \   000002   8F83         MOV     DPH,R7
   \   000004   A3           INC     DPTR
   \   000005   A3           INC     DPTR
   \   000006   A3           INC     DPTR
   \   000007   E0           MOVX    A,@DPTR
   \   000008   F8           MOV     R0,A
   \   000009   E5..         MOV     A,?V0 + 2
   \   00000B   C3           CLR     C
   \   00000C   98           SUBB    A,R0
   \   00000D   22           RET

   \                                 In  segment BANKED_CODE, align 1, keep-with-next
   \                     ??Subroutine44_0:
   \   000000   E0           MOVX    A,@DPTR
   \   000001   F5..         MOV     ?V0 + 0,A
   \   000003   75..00       MOV     ?V0 + 1,#0x0
   \   000006   78..         MOV     R0,#?V0 + 0
   \   000008   22           RET
    270          
    271          

   \                                 In  segment BANKED_CODE, align 1, keep-with-next
    272          void AT_ZDO_ProcessNwkDiscRsp(zdoIncomingMsg_t *inMsg ){
   \                     AT_ZDO_ProcessNwkDiscRsp:
   \   000000   74F5         MOV     A,#-0xb
   \   000002   12....       LCALL   ?BANKED_ENTER_XDATA
   \   000005                ; Saved register size: 11
   \   000005                ; Auto size: 0
    273            ZDO_MgmNwkDiscRsp_t * pRsp=ZDO_ParseMgmNwkDiscRsp( inMsg );
   \   000005                ; Setup parameters for call to function ZDO_ParseMgmNwkDiscRsp
   \   000005   12....       LCALL   ??ZDO_ParseMgmNwkDiscRsp?relay
   \   000008   8A..         MOV     ?V0 + 0,R2
   \   00000A   8B..         MOV     ?V0 + 1,R3
   \   00000C   AE..         MOV     R6,?V0 + 0
   \   00000E   AF..         MOV     R7,?V0 + 1
    274            AT_RESP_START();
   \   000010                ; Setup parameters for call to function AT_HalUARTWrite
   \   000010   7C02         MOV     R4,#0x2
   \   000012   7D00         MOV     R5,#0x0
   \   000014   7A..         MOV     R2,#`?<Constant "\\r\\n">` & 0xff
   \   000016   7B..         MOV     R3,#(`?<Constant "\\r\\n">` >> 8) & 0xff
   \   000018   7900         MOV     R1,#0x0
   \   00001A   12....       LCALL   ??AT_HalUARTWrite?relay
    275          /*
    276            uint8  status;
    277            uint8  networkCount;
    278            uint8  startIndex;
    279            uint8  networkListCount;
    280            
    281            
    282            uint8 extendedPANID[Z_EXTADDR_LEN];   // The extended PAN ID
    283            uint16 PANId;            // The network PAN ID
    284            uint8   logicalChannel;  // Network's channel
    285            uint8   stackProfile;    // Network's profile
    286            uint8   version;         // Network's Zigbee version
    287            uint8   beaconOrder;     // Beacon Order
    288            uint8   superFrameOrder; 
    289            uint8   permitJoining;   // PermitJoining. 1 or 0
    290            */
    291            uint8 i;
    292            for(i=0;i<pRsp->networkListCount;i++){
   \   00001D   75..00       MOV     ?V0 + 2,#0x0
   \   000020   8036         SJMP    ??AT_ZDO_ProcessNwkDiscRsp_0
    293              printf("%d:%d",pRsp->list[i].logicalChannel,pRsp->list[i].permitJoining);
   \                     ??AT_ZDO_ProcessNwkDiscRsp_1:
   \   000022   85....       MOV     ?V0 + 0,?V0 + 2
   \   000025   75..00       MOV     ?V0 + 1,#0x0
   \   000028   7404         MOV     A,#0x4
   \   00002A   78..         MOV     R0,#?V0 + 0
   \   00002C   12....       LCALL   ?S_SHL
   \   00002F   EE           MOV     A,R6
   \   000030   25..         ADD     A,?V0 + 0
   \   000032   FA           MOV     R2,A
   \   000033   EF           MOV     A,R7
   \   000034   35..         ADDC    A,?V0 + 1
   \   000036   FB           MOV     R3,A
   \   000037                ; Setup parameters for call to function printf
   \   000037   12....       LCALL   ?Subroutine16 & 0xFFFF
    294            }
   \                     ??CrossCallReturnLabel_66:
   \   00003A   12....       LCALL   ??Subroutine44_0 & 0xFFFF
   \                     ??CrossCallReturnLabel_130:
   \   00003D   12....       LCALL   ?PUSH_XSTACK_I_TWO
   \   000040   EA           MOV     A,R2
   \   000041   240E         ADD     A,#0xe
   \   000043   12....       LCALL   ??Subroutine35_0 & 0xFFFF
   \                     ??CrossCallReturnLabel_64:
   \   000046   12....       LCALL   ??Subroutine42_0 & 0xFFFF
   \                     ??CrossCallReturnLabel_116:
   \   000049   12....       LCALL   ?PUSH_XSTACK_I_TWO
   \   00004C   7A..         MOV     R2,#`?<Constant "%d:%d">` & 0xff
   \   00004E   7B..         MOV     R3,#(`?<Constant "%d:%d">` >> 8) & 0xff
   \   000050   12....       LCALL   ??Subroutine40_0 & 0xFFFF
   \                     ??CrossCallReturnLabel_106:
   \   000053   12....       LCALL   ?DEALLOC_XSTACK8
   \   000056   05..         INC     ?V0 + 2
   \                     ??AT_ZDO_ProcessNwkDiscRsp_0:
   \   000058   12....       LCALL   ?Subroutine10 & 0xFFFF
   \                     ??CrossCallReturnLabel_6:
   \   00005B   40C5         JC      ??AT_ZDO_ProcessNwkDiscRsp_1
    295            
    296            AT_RESP_END();
   \   00005D                ; Setup parameters for call to function AT_HalUARTWrite
   \   00005D                REQUIRE ?Subroutine2
   \   00005D                ; // Fall through to label ?Subroutine2
    297            
    298            osal_mem_free( pRsp );
    299          }

   \                                 In  segment BANKED_CODE, align 1, keep-with-next
   \                     ?Subroutine2:
   \   000000   12....       LCALL   ?Subroutine21 & 0xFFFF
   \                     ??CrossCallReturnLabel_32:
   \   000003   7F03         MOV     R7,#0x3
   \   000005   02....       LJMP    ?BANKED_LEAVE_XDATA

   \                                 In  segment BANKED_CODE, align 1, keep-with-next
   \                     ?Subroutine16:
   \   000000   EA           MOV     A,R2
   \   000001   2413         ADD     A,#0x13
   \   000003                REQUIRE ??Subroutine35_0
   \   000003                ; // Fall through to label ??Subroutine35_0

   \                                 In  segment BANKED_CODE, align 1, keep-with-next
   \                     ??Subroutine35_0:
   \   000000   F582         MOV     DPL,A
   \   000002   EB           MOV     A,R3
   \   000003                REQUIRE ??Subroutine36_0
   \   000003                ; // Fall through to label ??Subroutine36_0

   \                                 In  segment BANKED_CODE, align 1, keep-with-next
   \                     ??Subroutine42_0:
   \   000000   E0           MOVX    A,@DPTR
   \   000001   F5..         MOV     ?V0 + 0,A
   \   000003   78..         MOV     R0,#?V0 + 0
   \   000005   22           RET
    300          
    301          /**********************************************************
    302          +BTABLE C Display Binding Table (ZDO)
    303                BTable:0000,00 
    304                Length:03 
    305                No. | SrcAddr | SrcEP | ClusterID | DstAddr | DstEP 
    306                00. | 000D6F000059474E | 01 | DEAD |1234567887654321 | 12 
    307                01. | 000D6F000059474E | 01 | DEAD |E012345678876543 | E0 
    308                02. | 000D6F000059474E | 01 | DEAD | ABCD 
    309                ACK:01
    310          ****************************************************************/
    311          

   \                                 In  segment BANKED_CODE, align 1, keep-with-next
   \                     ?Subroutine20:
   \   000000   E5..         MOV     A,?V0 + 2
   \   000002   75F015       MOV     B,#0x15
   \   000005                REQUIRE ??Subroutine32_0
   \   000005                ; // Fall through to label ??Subroutine32_0

   \                                 In  segment BANKED_CODE, align 1, keep-with-next
    312          void AT_ZDO_ProcessMgmtBindRsp(zdoIncomingMsg_t *inMsg ){
   \                     AT_ZDO_ProcessMgmtBindRsp:
   \   000000   74F2         MOV     A,#-0xe
   \   000002   12....       LCALL   ?BANKED_ENTER_XDATA
   \   000005                ; Saved register size: 14
   \   000005                ; Auto size: 22
   \   000005   74EA         MOV     A,#-0x16
   \   000007   12....       LCALL   ?ALLOC_XSTACK8
    313            ZDO_MgmtBindRsp_t * pRsp = ZDO_ParseMgmtBindRsp(inMsg );
   \   00000A                ; Setup parameters for call to function ZDO_ParseMgmtBindRsp
   \   00000A   12....       LCALL   ??ZDO_ParseMgmtBindRsp?relay
   \   00000D   8A..         MOV     ?V0 + 0,R2
   \   00000F   8B..         MOV     ?V0 + 1,R3
   \   000011   AE..         MOV     R6,?V0 + 0
   \   000013   AF..         MOV     R7,?V0 + 1
    314          
    315            uint8 i;
    316            char dstAddr[17];
    317            char dstEP[5];
    318            zAddrType_t* addr;
    319            AT_RESP_START();
   \   000015                ; Setup parameters for call to function AT_HalUARTWrite
   \   000015   7C02         MOV     R4,#0x2
   \   000017   7D00         MOV     R5,#0x0
   \   000019   7A..         MOV     R2,#`?<Constant "\\r\\n">` & 0xff
   \   00001B   7B..         MOV     R3,#(`?<Constant "\\r\\n">` >> 8) & 0xff
   \   00001D   7900         MOV     R1,#0x0
   \   00001F   12....       LCALL   ??AT_HalUARTWrite?relay
    320            printf("Length:%02X",pRsp->bindingListCount);
   \   000022   12....       LCALL   ?Subroutine8 & 0xFFFF
   \                     ??CrossCallReturnLabel_60:
   \   000025   12....       LCALL   ?PUSH_XSTACK_I_TWO
   \   000028   7A..         MOV     R2,#`?<Constant "Length:%02X">` & 0xff
   \   00002A   7B..         MOV     R3,#(`?<Constant "Length:%02X">` >> 8) & 0xff
   \   00002C   12....       LCALL   ??Subroutine37_0 & 0xFFFF
   \                     ??CrossCallReturnLabel_73:
   \   00002F   12....       LCALL   ?DEALLOC_XSTACK8
    321            AT_NEXT_LINE();
   \   000032                ; Setup parameters for call to function AT_HalUARTWrite
   \   000032   12....       LCALL   ?Subroutine24 & 0xFFFF
    322            if(pRsp->bindingListCount)
   \                     ??CrossCallReturnLabel_35:
   \   000035   E0           MOVX    A,@DPTR
   \   000036   6007         JZ      ??AT_ZDO_ProcessMgmtBindRsp_0
    323              printf("No. |     SrcAddr      | SrcEP | ClusterID |     DstAddr      | DstEP");
   \   000038                ; Setup parameters for call to function printf
   \   000038   7A..         MOV     R2,#`?<Constant "No. |     SrcAddr    ...">` & 0xff
   \   00003A   7B..         MOV     R3,#(`?<Constant "No. |     SrcAddr    ...">` >> 8) & 0xff
   \   00003C   12....       LCALL   ??printf?relay
    324            for(i=0;i<pRsp->bindingListCount;i++){
   \                     ??AT_ZDO_ProcessMgmtBindRsp_0:
   \   00003F   75..00       MOV     ?V0 + 2,#0x0
   \   000042   02....       LJMP    ??AT_ZDO_ProcessMgmtBindRsp_1 & 0xFFFF
    325              addr = &pRsp->list[i].dstAddr;
    326              AT_NEXT_LINE();
    327              if(addr->addrMode== (afAddrMode_t)Addr64Bit){
    328                AT_EUI64toChar(addr->addr.extAddr,dstAddr);
    329                sprintf(dstEP,"| %02X",pRsp->list[i].dstEP);
    330                dstAddr[16]='\0';
    331              }else{
    332                sprintf(dstAddr,"%04X",addr->addr.shortAddr);
   \                     ??AT_ZDO_ProcessMgmtBindRsp_2:
   \   000045                ; Setup parameters for call to function sprintf
   \   000045   85..82       MOV     DPL,?V0 + 0
   \   000048   85..83       MOV     DPH,?V0 + 1
   \   00004B   12....       LCALL   ?PUSH_XSTACK8_X_TWO
   \   00004E   7C..         MOV     R4,#`?<Constant "%04X">` & 0xff
   \   000050   7D..         MOV     R5,#(`?<Constant "%04X">` >> 8) & 0xff
   \   000052   7407         MOV     A,#0x7
   \   000054   12....       LCALL   ?XSTACK_DISP0_8
   \   000057   AA82         MOV     R2,DPL
   \   000059   AB83         MOV     R3,DPH
   \   00005B   12....       LCALL   ??sprintf?relay
   \   00005E   7402         MOV     A,#0x2
   \   000060   12....       LCALL   ?DEALLOC_XSTACK8
    333                dstEP[0]='\0';
   \   000063   85..82       MOV     DPL,?XSP + 0
   \   000066   85..83       MOV     DPH,?XSP + 1
   \                     ??AT_ZDO_ProcessMgmtBindRsp_3:
   \   000069   E4           CLR     A
   \   00006A   F0           MOVX    @DPTR,A
    334              }
    335              uint16 *srcAddr= (uint16*) pRsp->list[i].srcAddr;    
   \   00006B   85..82       MOV     DPL,?V0 + 2
   \   00006E   AC82         MOV     R4,DPL
   \   000070   EC           MOV     A,R4
   \   000071   75F015       MOV     B,#0x15
   \   000074   A4           MUL     AB
   \   000075   F8           MOV     R0,A
   \   000076   A9F0         MOV     R1,B
   \   000078   EE           MOV     A,R6
   \   000079   28           ADD     A,R0
   \   00007A   FA           MOV     R2,A
   \   00007B   EF           MOV     A,R7
   \   00007C   39           ADDC    A,R1
   \   00007D   FB           MOV     R3,A
   \   00007E   EA           MOV     A,R2
   \   00007F   2404         ADD     A,#0x4
   \   000081   F8           MOV     R0,A
   \   000082   EB           MOV     A,R3
   \   000083   3400         ADDC    A,#0x0
   \   000085   F9           MOV     R1,A
   \   000086   88..         MOV     ?V0 + 0,R0
    336              printf("%02X. | %04X%04X%04X%04X |  %02X   |   %04X    | %s %s ",
    337                     i+pRsp->startIndex,srcAddr[3],srcAddr[2],srcAddr[1],srcAddr[0],
    338                     pRsp->list[i].srcEP, pRsp->list[i].clusterID, dstAddr,dstEP);
   \   000088                ; Setup parameters for call to function printf
   \   000088   85..82       MOV     DPL,?XSP + 0
   \   00008B   85..83       MOV     DPH,?XSP + 1
   \   00008E   8582..       MOV     ?V0 + 4,DPL
   \   000091   8583..       MOV     ?V0 + 5,DPH
   \   000094   78..         MOV     R0,#?V0 + 4
   \   000096   12....       LCALL   ?PUSH_XSTACK_I_TWO
   \   000099   7407         MOV     A,#0x7
   \   00009B   12....       LCALL   ?XSTACK_DISP0_8
   \   00009E   8582..       MOV     ?V0 + 4,DPL
   \   0000A1   8583..       MOV     ?V0 + 5,DPH
   \   0000A4   78..         MOV     R0,#?V0 + 4
   \   0000A6   12....       LCALL   ?PUSH_XSTACK_I_TWO
   \   0000A9   EA           MOV     A,R2
   \   0000AA   240D         ADD     A,#0xd
   \   0000AC   12....       LCALL   ??Subroutine35_0 & 0xFFFF
   \                     ??CrossCallReturnLabel_65:
   \   0000AF   12....       LCALL   ?PUSH_XSTACK8_X_TWO
   \   0000B2   12....       LCALL   ?Subroutine15 & 0xFFFF
   \                     ??CrossCallReturnLabel_50:
   \   0000B5   F5..         MOV     ?V0 + 4,A
   \   0000B7   75..00       MOV     ?V0 + 5,#0x0
   \   0000BA   78..         MOV     R0,#?V0 + 4
   \   0000BC   12....       LCALL   ?PUSH_XSTACK_I_TWO
   \   0000BF   85..82       MOV     DPL,?V0 + 0
   \   0000C2   8983         MOV     DPH,R1
   \   0000C4   12....       LCALL   ?PUSH_XSTACK8_X_TWO
   \   0000C7   85..82       MOV     DPL,?V0 + 0
   \   0000CA   8983         MOV     DPH,R1
   \   0000CC   A3           INC     DPTR
   \   0000CD   A3           INC     DPTR
   \   0000CE   12....       LCALL   ?PUSH_XSTACK8_X_TWO
   \   0000D1   85..82       MOV     DPL,?V0 + 0
   \   0000D4   8983         MOV     DPH,R1
   \   0000D6   A3           INC     DPTR
   \   0000D7   A3           INC     DPTR
   \   0000D8   A3           INC     DPTR
   \   0000D9   A3           INC     DPTR
   \   0000DA   12....       LCALL   ?PUSH_XSTACK8_X_TWO
   \   0000DD   85..82       MOV     DPL,?V0 + 0
   \   0000E0   8983         MOV     DPH,R1
   \   0000E2   A3           INC     DPTR
   \   0000E3   A3           INC     DPTR
   \   0000E4   A3           INC     DPTR
   \   0000E5   A3           INC     DPTR
   \   0000E6   A3           INC     DPTR
   \   0000E7   A3           INC     DPTR
   \   0000E8   12....       LCALL   ?PUSH_XSTACK8_X_TWO
   \   0000EB   8E82         MOV     DPL,R6
   \   0000ED   8F83         MOV     DPH,R7
   \   0000EF   A3           INC     DPTR
   \   0000F0   A3           INC     DPTR
   \   0000F1   E0           MOVX    A,@DPTR
   \   0000F2   F8           MOV     R0,A
   \   0000F3   EC           MOV     A,R4
   \   0000F4   12....       LCALL   ?Subroutine23 & 0xFFFF
   \                     ??CrossCallReturnLabel_34:
   \   0000F7   12....       LCALL   ?PUSH_XSTACK_I_TWO
   \   0000FA   7A..         MOV     R2,#`?<Constant "%02X. | %04X%04X%04X%...">` & 0xff
   \   0000FC   7B..         MOV     R3,#(`?<Constant "%02X. | %04X%04X%04X%...">` >> 8) & 0xff
   \   0000FE   12....       LCALL   ??printf?relay
   \   000101   7412         MOV     A,#0x12
   \   000103   12....       LCALL   ?DEALLOC_XSTACK8
   \   000106   05..         INC     ?V0 + 2
   \                     ??AT_ZDO_ProcessMgmtBindRsp_1:
   \   000108   12....       LCALL   ?Subroutine10 & 0xFFFF
   \                     ??CrossCallReturnLabel_7:
   \   00010B   505D         JNC     ??AT_ZDO_ProcessMgmtBindRsp_4
   \   00010D   12....       LCALL   ?Subroutine20 & 0xFFFF
   \                     ??CrossCallReturnLabel_54:
   \   000110   240F         ADD     A,#0xf
   \   000112   F5..         MOV     ?V0 + 0,A
   \   000114   E9           MOV     A,R1
   \   000115   3400         ADDC    A,#0x0
   \   000117   F5..         MOV     ?V0 + 1,A
   \   000119                ; Setup parameters for call to function AT_HalUARTWrite
   \   000119   12....       LCALL   ?Subroutine24 & 0xFFFF
   \                     ??CrossCallReturnLabel_36:
   \   00011C   A3           INC     DPTR
   \   00011D   A3           INC     DPTR
   \   00011E   A3           INC     DPTR
   \   00011F   A3           INC     DPTR
   \   000120   A3           INC     DPTR
   \   000121   A3           INC     DPTR
   \   000122   A3           INC     DPTR
   \   000123   A3           INC     DPTR
   \   000124   E0           MOVX    A,@DPTR
   \   000125   6403         XRL     A,#0x3
   \   000127   6003         JZ      $+5
   \   000129   02....       LJMP    ??AT_ZDO_ProcessMgmtBindRsp_2 & 0xFFFF
   \   00012C                ; Setup parameters for call to function AT_EUI64toChar
   \   00012C   7405         MOV     A,#0x5
   \   00012E   12....       LCALL   ?XSTACK_DISP0_8
   \   000131   AC82         MOV     R4,DPL
   \   000133   AD83         MOV     R5,DPH
   \   000135   AA..         MOV     R2,?V0 + 0
   \   000137   AB..         MOV     R3,?V0 + 1
   \   000139   12....       LCALL   ??AT_EUI64toChar?relay
   \   00013C                ; Setup parameters for call to function sprintf
   \   00013C   12....       LCALL   ?Subroutine20 & 0xFFFF
   \                     ??CrossCallReturnLabel_55:
   \   00013F   2418         ADD     A,#0x18
   \   000141   F582         MOV     DPL,A
   \   000143   E9           MOV     A,R1
   \   000144   12....       LCALL   ??Subroutine36_0 & 0xFFFF
   \                     ??CrossCallReturnLabel_63:
   \   000147   12....       LCALL   ??Subroutine44_0 & 0xFFFF
   \                     ??CrossCallReturnLabel_131:
   \   00014A   12....       LCALL   ?PUSH_XSTACK_I_TWO
   \   00014D   7C..         MOV     R4,#`?<Constant "| %02X">` & 0xff
   \   00014F   7D..         MOV     R5,#(`?<Constant "| %02X">` >> 8) & 0xff
   \   000151   7402         MOV     A,#0x2
   \   000153   12....       LCALL   ?XSTACK_DISP0_8
   \   000156   AA82         MOV     R2,DPL
   \   000158   AB83         MOV     R3,DPH
   \   00015A   12....       LCALL   ??sprintf?relay
   \   00015D   7402         MOV     A,#0x2
   \   00015F   12....       LCALL   ?DEALLOC_XSTACK8
   \   000162   7415         MOV     A,#0x15
   \   000164   12....       LCALL   ?XSTACK_DISP0_8
   \   000167   02....       LJMP    ??AT_ZDO_ProcessMgmtBindRsp_3 & 0xFFFF
    339              
    340            }
    341            AT_RESP_END();
   \                     ??AT_ZDO_ProcessMgmtBindRsp_4:
   \   00016A                ; Setup parameters for call to function AT_HalUARTWrite
   \   00016A   7C02         MOV     R4,#0x2
   \   00016C   7D00         MOV     R5,#0x0
   \   00016E   7A..         MOV     R2,#`?<Constant "\\r\\n">` & 0xff
   \   000170   7B..         MOV     R3,#(`?<Constant "\\r\\n">` >> 8) & 0xff
   \   000172   7900         MOV     R1,#0x0
   \   000174   12....       LCALL   ??AT_HalUARTWrite?relay
    342          }
   \   000177   7416         MOV     A,#0x16
   \   000179   12....       LCALL   ?DEALLOC_XSTACK8
   \   00017C                REQUIRE ?Subroutine3
   \   00017C                ; // Fall through to label ?Subroutine3

   \                                 In  segment BANKED_CODE, align 1, keep-with-next
   \                     ?Subroutine3:
   \   000000   7F06         MOV     R7,#0x6
   \   000002   02....       LJMP    ?BANKED_LEAVE_XDATA

   \                                 In  segment BANKED_CODE, align 1, keep-with-next
   \                     ?Subroutine24:
   \   000000   7C02         MOV     R4,#0x2
   \   000002   7D00         MOV     R5,#0x0
   \   000004   7A..         MOV     R2,#`?<Constant "\\n\\r">` & 0xff
   \   000006   7B..         MOV     R3,#(`?<Constant "\\n\\r">` >> 8) & 0xff
   \   000008   12....       LCALL   ?Subroutine30 & 0xFFFF
   \                     ??CrossCallReturnLabel_44:
   \   00000B   22           RET
    343          
    344          /**********************************************************
    345          +BIND C Create Binding on Remote Device (ZDO) 
    346          Prompt 
    347                    Bind:<NodeID>,<status>
    348          
    349                    In case of an error an status other than 00 will be displayed 
    350                    <NodeID> is the Remote nodes Node ID.
    351          
    352          ****************************************************************/

   \                                 In  segment BANKED_CODE, align 1, keep-with-next
    353          void AT_ZDO_ProcessBindRsp(zdoIncomingMsg_t *inMsg ){
   \                     AT_ZDO_ProcessBindRsp:
   \   000000   74F6         MOV     A,#-0xa
   \   000002   12....       LCALL   ?BANKED_ENTER_XDATA
   \   000005                ; Saved register size: 10
   \   000005                ; Auto size: 0
   \   000005   12....       LCALL   ?Subroutine5 & 0xFFFF
    354            uint8 status = ZDO_ParseBindRsp(inMsg);
    355            AT_RESP_START();
    356            if(inMsg->srcAddr.addrMode== (afAddrMode_t)Addr16Bit){
   \                     ??CrossCallReturnLabel_0:
   \   000008   7018         JNZ     ??AT_ZDO_ProcessBindRsp_0
    357              printf("Bind:%04X,%02X",inMsg->srcAddr.addr.shortAddr, status);
   \   00000A                ; Setup parameters for call to function printf
   \   00000A   12....       LCALL   ?PUSH_XSTACK_I_TWO
   \   00000D   8E82         MOV     DPL,R6
   \   00000F   8F83         MOV     DPH,R7
   \   000011   A3           INC     DPTR
   \   000012   A3           INC     DPTR
   \   000013   12....       LCALL   ?PUSH_XSTACK8_X_TWO
   \   000016   7A..         MOV     R2,#`?<Constant "Bind:%04X,%02X">` & 0xff
   \   000018   7B..         MOV     R3,#(`?<Constant "Bind:%04X,%02X">` >> 8) & 0xff
   \   00001A   12....       LCALL   ??Subroutine40_0 & 0xFFFF
    358            }else{
   \                     ??CrossCallReturnLabel_107:
   \   00001D   12....       LCALL   ?DEALLOC_XSTACK8
   \   000020   800D         SJMP    ??AT_ZDO_ProcessBindRsp_1
    359              printf("Bind:UNKNOWN,%02X", status);
   \                     ??AT_ZDO_ProcessBindRsp_0:
   \   000022                ; Setup parameters for call to function printf
   \   000022   12....       LCALL   ?PUSH_XSTACK_I_TWO
   \   000025   7A..         MOV     R2,#`?<Constant "Bind:UNKNOWN,%02X">` & 0xff
   \   000027   7B..         MOV     R3,#(`?<Constant "Bind:UNKNOWN,%02X">` >> 8) & 0xff
   \   000029   12....       LCALL   ??Subroutine37_0 & 0xFFFF
    360            }
   \                     ??CrossCallReturnLabel_74:
   \   00002C   12....       LCALL   ?DEALLOC_XSTACK8
    361            AT_RESP_END();
   \                     ??AT_ZDO_ProcessBindRsp_1:
   \   00002F                ; Setup parameters for call to function AT_HalUARTWrite
   \   00002F   02....       LJMP    ?Subroutine1 & 0xFFFF
    362              
    363          }

   \                                 In  segment BANKED_CODE, align 1, keep-with-next
   \                     ?Subroutine5:
   \   000000   EA           MOV     A,R2
   \   000001   FE           MOV     R6,A
   \   000002   EB           MOV     A,R3
   \   000003   FF           MOV     R7,A
   \   000004   EE           MOV     A,R6
   \   000005   2413         ADD     A,#0x13
   \   000007   F582         MOV     DPL,A
   \   000009   EF           MOV     A,R7
   \   00000A   3400         ADDC    A,#0x0
   \   00000C   F583         MOV     DPH,A
   \   00000E   12....       LCALL   ?Subroutine28 & 0xFFFF
   \                     ??CrossCallReturnLabel_39:
   \   000011   12....       LCALL   ?Subroutine27 & 0xFFFF
   \                     ??CrossCallReturnLabel_37:
   \   000014   8E82         MOV     DPL,R6
   \   000016   8F83         MOV     DPH,R7
   \   000018   A3           INC     DPTR
   \   000019   A3           INC     DPTR
   \   00001A   A3           INC     DPTR
   \   00001B   A3           INC     DPTR
   \   00001C   A3           INC     DPTR
   \   00001D   A3           INC     DPTR
   \   00001E   A3           INC     DPTR
   \   00001F   A3           INC     DPTR
   \   000020   A3           INC     DPTR
   \   000021   A3           INC     DPTR
   \   000022   E0           MOVX    A,@DPTR
   \   000023   6402         XRL     A,#0x2
   \   000025   75..00       MOV     ?V0 + 1,#0x0
   \   000028   78..         MOV     R0,#?V0 + 0
   \   00002A   22           RET

   \                                 In  segment BANKED_CODE, align 1, keep-with-next
   \                     ?Subroutine27:
   \   000000   E0           MOVX    A,@DPTR
   \   000001   F5..         MOV     ?V0 + 0,A
   \   000003                ; Setup parameters for call to function AT_HalUARTWrite
   \   000003                ; Setup parameters for call to function AT_HalUARTWrite
   \   000003                ; Setup parameters for call to function AT_HalUARTWrite
   \   000003                ; Setup parameters for call to function AT_HalUARTWrite
   \   000003   7C02         MOV     R4,#0x2
   \   000005   7D00         MOV     R5,#0x0
   \   000007   7A..         MOV     R2,#`?<Constant "\\r\\n">` & 0xff
   \   000009   7B..         MOV     R3,#(`?<Constant "\\r\\n">` >> 8) & 0xff
   \   00000B   7900         MOV     R1,#0x0
   \   00000D   12....       LCALL   ??AT_HalUARTWrite?relay
   \   000010   22           RET

   \                                 In  segment BANKED_CODE, align 1, keep-with-next
   \                     ?Subroutine1:
   \   000000   7C02         MOV     R4,#0x2
   \   000002   7D00         MOV     R5,#0x0
   \   000004   7A..         MOV     R2,#`?<Constant "\\r\\n">` & 0xff
   \   000006   7B..         MOV     R3,#(`?<Constant "\\r\\n">` >> 8) & 0xff
   \   000008   7900         MOV     R1,#0x0
   \   00000A   12....       LCALL   ??AT_HalUARTWrite?relay
   \   00000D                REQUIRE ??Subroutine39_0
   \   00000D                ; // Fall through to label ??Subroutine39_0

   \                                 In  segment BANKED_CODE, align 1, keep-with-next
   \                     ?Subroutine28:
   \   000000   E0           MOVX    A,@DPTR
   \   000001   F8           MOV     R0,A
   \   000002   A3           INC     DPTR
   \   000003   E0           MOVX    A,@DPTR
   \   000004   F583         MOV     DPH,A
   \   000006   8882         MOV     DPL,R0
   \   000008   22           RET
    364          /**********************************************************
    365          +UNBIND C Create Binding on Remote Device (ZDO) 
    366          Prompt 
    367                    Unbind:<NodeID>,<status>
    368          
    369                    In case of an error an status other than 00 will be displayed 
    370                    <NodeID> is the Remote nodes Node ID.
    371          
    372          ****************************************************************/

   \                                 In  segment BANKED_CODE, align 1, keep-with-next
    373          void AT_ZDO_ProcessUnbindRsp(zdoIncomingMsg_t *inMsg ){
   \                     AT_ZDO_ProcessUnbindRsp:
   \   000000   74F6         MOV     A,#-0xa
   \   000002   12....       LCALL   ?BANKED_ENTER_XDATA
   \   000005                ; Saved register size: 10
   \   000005                ; Auto size: 0
   \   000005   12....       LCALL   ?Subroutine5 & 0xFFFF
    374            uint8 status = ZDO_ParseBindRsp(inMsg);
    375            AT_RESP_START();
    376            if(inMsg->srcAddr.addrMode== (afAddrMode_t)Addr16Bit){
   \                     ??CrossCallReturnLabel_1:
   \   000008   7018         JNZ     ??AT_ZDO_ProcessUnbindRsp_0
    377              printf("Unbind:%04X,%02X",inMsg->srcAddr.addr.shortAddr, status);
   \   00000A                ; Setup parameters for call to function printf
   \   00000A   12....       LCALL   ?PUSH_XSTACK_I_TWO
   \   00000D   8E82         MOV     DPL,R6
   \   00000F   8F83         MOV     DPH,R7
   \   000011   A3           INC     DPTR
   \   000012   A3           INC     DPTR
   \   000013   12....       LCALL   ?PUSH_XSTACK8_X_TWO
   \   000016   7A..         MOV     R2,#`?<Constant "Unbind:%04X,%02X">` & 0xff
   \   000018   7B..         MOV     R3,#(`?<Constant "Unbind:%04X,%02X">` >> 8) & 0xff
   \   00001A   12....       LCALL   ??Subroutine40_0 & 0xFFFF
    378            }else{
   \                     ??CrossCallReturnLabel_108:
   \   00001D   12....       LCALL   ?DEALLOC_XSTACK8
   \   000020   800D         SJMP    ??AT_ZDO_ProcessUnbindRsp_1
    379              printf("Unbind:UNKNOWN,%02X", status);
   \                     ??AT_ZDO_ProcessUnbindRsp_0:
   \   000022                ; Setup parameters for call to function printf
   \   000022   12....       LCALL   ?PUSH_XSTACK_I_TWO
   \   000025   7A..         MOV     R2,#`?<Constant "Unbind:UNKNOWN,%02X">` & 0xff
   \   000027   7B..         MOV     R3,#(`?<Constant "Unbind:UNKNOWN,%02X">` >> 8) & 0xff
   \   000029   12....       LCALL   ??Subroutine37_0 & 0xFFFF
    380            }
   \                     ??CrossCallReturnLabel_75:
   \   00002C   12....       LCALL   ?DEALLOC_XSTACK8
    381            AT_RESP_END();
   \                     ??AT_ZDO_ProcessUnbindRsp_1:
   \   00002F                ; Setup parameters for call to function AT_HalUARTWrite
   \   00002F   02....       LJMP    ?Subroutine1 & 0xFFFF
    382              
    383          }
    384          
    385          /**********************************************************
    386          +EBIND C End Device Bind 
    387          
    388          Response
    389                    EBIND:<NodeID>,<Status> 
    390                    OK
    391          
    392          ****************************************************************/

   \                                 In  segment BANKED_CODE, align 1, keep-with-next
    393          void AT_ZDO_ProcessEDbindRsp(zdoIncomingMsg_t *inMsg ){
   \                     AT_ZDO_ProcessEDbindRsp:
   \   000000   74F6         MOV     A,#-0xa
   \   000002   12....       LCALL   ?BANKED_ENTER_XDATA
   \   000005                ; Saved register size: 10
   \   000005                ; Auto size: 0
   \   000005   12....       LCALL   ?Subroutine5 & 0xFFFF
    394            uint8 status = ZDO_ParseBindRsp(inMsg);
    395            AT_RESP_START();
    396            if(inMsg->srcAddr.addrMode== (afAddrMode_t)Addr16Bit){
   \                     ??CrossCallReturnLabel_2:
   \   000008   7018         JNZ     ??AT_ZDO_ProcessEDbindRsp_0
    397              printf("Ebind:%04X,%02X",inMsg->srcAddr.addr.shortAddr, status);
   \   00000A                ; Setup parameters for call to function printf
   \   00000A   12....       LCALL   ?PUSH_XSTACK_I_TWO
   \   00000D   8E82         MOV     DPL,R6
   \   00000F   8F83         MOV     DPH,R7
   \   000011   A3           INC     DPTR
   \   000012   A3           INC     DPTR
   \   000013   12....       LCALL   ?PUSH_XSTACK8_X_TWO
   \   000016   7A..         MOV     R2,#`?<Constant "Ebind:%04X,%02X">` & 0xff
   \   000018   7B..         MOV     R3,#(`?<Constant "Ebind:%04X,%02X">` >> 8) & 0xff
   \   00001A   12....       LCALL   ??Subroutine40_0 & 0xFFFF
    398            }else{
   \                     ??CrossCallReturnLabel_109:
   \   00001D   12....       LCALL   ?DEALLOC_XSTACK8
   \   000020   800D         SJMP    ??AT_ZDO_ProcessEDbindRsp_1
    399              printf("Ebind:UNKNOWN,%02X", status);
   \                     ??AT_ZDO_ProcessEDbindRsp_0:
   \   000022                ; Setup parameters for call to function printf
   \   000022   12....       LCALL   ?PUSH_XSTACK_I_TWO
   \   000025   7A..         MOV     R2,#`?<Constant "Ebind:UNKNOWN,%02X">` & 0xff
   \   000027   7B..         MOV     R3,#(`?<Constant "Ebind:UNKNOWN,%02X">` >> 8) & 0xff
   \   000029   12....       LCALL   ??Subroutine37_0 & 0xFFFF
    400            }
   \                     ??CrossCallReturnLabel_76:
   \   00002C   12....       LCALL   ?DEALLOC_XSTACK8
    401            AT_RESP_END();
   \                     ??AT_ZDO_ProcessEDbindRsp_1:
   \   00002F                ; Setup parameters for call to function AT_HalUARTWrite
   \   00002F   02....       LJMP    ?Subroutine1 & 0xFFFF
    402              
    403          }
    404          
    405          
    406          /**********************************************************
    407          +DASSR C Disassociate Remote Node from PAN
    408          
    409              Prompt 
    410                    LeftPAN
    411          
    412          ****************************************************************/

   \                                 In  segment BANKED_CODE, align 1, keep-with-next
    413          void AT_ZDO_ProcessMgmtLeaveRsp(zdoIncomingMsg_t *inMsg ){
   \                     AT_ZDO_ProcessMgmtLeaveRsp:
   \   000000   74F6         MOV     A,#-0xa
   \   000002   12....       LCALL   ?BANKED_ENTER_XDATA
   \   000005                ; Saved register size: 10
   \   000005                ; Auto size: 0
    414            uint8 status = ZDO_ParseMgmtLeaveRsp(inMsg);
   \   000005   12....       LCALL   ?Subroutine16 & 0xFFFF
   \                     ??CrossCallReturnLabel_67:
   \   000008   12....       LCALL   ?Subroutine11 & 0xFFFF
   \                     ??CrossCallReturnLabel_10:
   \   00000B   12....       LCALL   ?Subroutine27 & 0xFFFF
    415            AT_RESP_START();
    416            if(status==ZSUCCESS){
   \                     ??CrossCallReturnLabel_38:
   \   00000E   E5..         MOV     A,?V0 + 0
   \   000010   7009         JNZ     ??AT_ZDO_ProcessMgmtLeaveRsp_0
    417              printf("LeftPAN");
   \   000012                ; Setup parameters for call to function printf
   \   000012   7A..         MOV     R2,#`?<Constant "LeftPAN">` & 0xff
   \   000014   7B..         MOV     R3,#(`?<Constant "LeftPAN">` >> 8) & 0xff
   \   000016   12....       LCALL   ??printf?relay
   \   000019   8012         SJMP    ??AT_ZDO_ProcessMgmtLeaveRsp_1
    418            }else{
    419              printf("failed:%02X",status);
   \                     ??AT_ZDO_ProcessMgmtLeaveRsp_0:
   \   00001B                ; Setup parameters for call to function printf
   \   00001B   75..00       MOV     ?V0 + 1,#0x0
   \   00001E   78..         MOV     R0,#?V0 + 0
   \   000020   12....       LCALL   ?PUSH_XSTACK_I_TWO
   \   000023   7A..         MOV     R2,#`?<Constant "failed:%02X">` & 0xff
   \   000025   7B..         MOV     R3,#(`?<Constant "failed:%02X">` >> 8) & 0xff
   \   000027   12....       LCALL   ??Subroutine37_0 & 0xFFFF
    420            }
   \                     ??CrossCallReturnLabel_77:
   \   00002A   12....       LCALL   ?DEALLOC_XSTACK8
    421            AT_RESP_END();
   \                     ??AT_ZDO_ProcessMgmtLeaveRsp_1:
   \   00002D                ; Setup parameters for call to function AT_HalUARTWrite
   \   00002D   02....       LJMP    ?Subroutine1 & 0xFFFF
    422          }

   \                                 In  segment BANKED_CODE, align 1, keep-with-next
   \                     ?Subroutine11:
   \   000000   12....       LCALL   ?Subroutine28 & 0xFFFF
   \                     ??CrossCallReturnLabel_40:
   \   000003   22           RET
    423          
    424          
    425          /**************************************************************
    426          +PANSCAN C Scan For Active PANs
    427              +PANSCAN:<channel>,<PANID>,<EPANID>,XX,b
    428          
    429                <channel> represents the channel, 
    430                <PANID> the PAN ID, 
    431                <EPANID> the extended PAN ID, The node gives a list of all PANs found. 
    432                XX the ZigBee stack profile (00 = Custom, 01 = ZigBee, 02 = ZigBee PRO)
    433          
    434          ****************************************************************/
    435          

   \                                 In  segment BANKED_CODE, align 1, keep-with-next
    436          void* AT_ZDO_ProcessNWKDISC_CB(void *param){
   \                     AT_ZDO_ProcessNWKDISC_CB:
   \   000000   74F2         MOV     A,#-0xe
   \   000002   12....       LCALL   ?BANKED_ENTER_XDATA
   \   000005                ; Saved register size: 14
   \   000005                ; Auto size: 0
    437            uint8 i;
    438            networkDesc_t  * NetworkList, *pNwkDesc;
    439            uint8 ResultCount=0;
   \   000005   75..00       MOV     ?V0 + 2,#0x0
    440            uint8 count=0; //record the lik quality >0 networks
   \   000008   75..00       MOV     ?V0 + 0,#0x0
    441            
    442            pNwkDesc = NetworkList= nwk_getNwkDescList();
   \   00000B                ; Setup parameters for call to function nwk_getNwkDescList
   \   00000B   12....       LCALL   ??nwk_getNwkDescList?relay
   \   00000E   8A..         MOV     ?V0 + 4,R2
   \   000010   8B..         MOV     ?V0 + 5,R3
   \   000012   AE..         MOV     R6,?V0 + 4
   \   000014   AF..         MOV     R7,?V0 + 5
   \   000016   EE           MOV     A,R6
   \   000017   F8           MOV     R0,A
   \   000018   EF           MOV     A,R7
   \   000019   F9           MOV     R1,A
   \   00001A   8017         SJMP    ??CrossCallReturnLabel_102
    443            
    444              // Count the number of nwk descriptors in the list
    445              while (pNwkDesc)
    446              {
    447                ResultCount++;
   \                     ??AT_ZDO_ProcessNWKDISC_CB_0:
   \   00001C   05..         INC     ?V0 + 2
    448                if(pNwkDesc->chosenRouterLinkQuality>0)count++;
   \   00001E   8E82         MOV     DPL,R6
   \   000020   8F83         MOV     DPH,R7
   \   000022   A3           INC     DPTR
   \   000023   A3           INC     DPTR
   \   000024   A3           INC     DPTR
   \   000025   A3           INC     DPTR
   \   000026   A3           INC     DPTR
   \   000027   A3           INC     DPTR
   \   000028   A3           INC     DPTR
   \   000029   A3           INC     DPTR
   \   00002A   A3           INC     DPTR
   \   00002B   E0           MOVX    A,@DPTR
   \   00002C   6002         JZ      ??AT_ZDO_ProcessNWKDISC_CB_1
   \   00002E   05..         INC     ?V0 + 0
    449                pNwkDesc = pNwkDesc->nextDesc;
   \                     ??AT_ZDO_ProcessNWKDISC_CB_1:
   \   000030   12....       LCALL   ?Subroutine14 & 0xFFFF
    450              }
   \                     ??CrossCallReturnLabel_102:
   \   000033   EE           MOV     A,R6
   \   000034   4F           ORL     A,R7
   \   000035   70E5         JNZ     ??AT_ZDO_ProcessNWKDISC_CB_0
    451              pNwkDesc =  NetworkList;
   \   000037   E8           MOV     A,R0
   \   000038   FE           MOV     R6,A
   \   000039   E9           MOV     A,R1
   \   00003A   FF           MOV     R7,A
    452            
    453              AT_RESP_START();
   \   00003B                ; Setup parameters for call to function AT_HalUARTWrite
   \   00003B   7C02         MOV     R4,#0x2
   \   00003D   7D00         MOV     R5,#0x0
   \   00003F   7A..         MOV     R2,#`?<Constant "\\r\\n">` & 0xff
   \   000041   7B..         MOV     R3,#(`?<Constant "\\r\\n">` >> 8) & 0xff
   \   000043   7900         MOV     R1,#0x0
   \   000045   12....       LCALL   ??AT_HalUARTWrite?relay
    454              printf("%d result(s)\n\r",count);
   \   000048                ; Setup parameters for call to function printf
   \   000048   85....       MOV     ?V0 + 4,?V0 + 0
   \   00004B   75..00       MOV     ?V0 + 5,#0x0
   \   00004E   78..         MOV     R0,#?V0 + 4
   \   000050   12....       LCALL   ?PUSH_XSTACK_I_TWO
   \   000053   7A..         MOV     R2,#`?<Constant "%d result(s)\\n\\r">` & 0xff
   \   000055   7B..         MOV     R3,#(`?<Constant "%d result(s)\\n\\r">` >> 8) & 0xff
   \   000057   12....       LCALL   ??Subroutine37_0 & 0xFFFF
   \                     ??CrossCallReturnLabel_78:
   \   00005A   12....       LCALL   ?DEALLOC_XSTACK8
    455              pNwkDesc = NetworkList;
    456              if(count>0){
   \   00005D   E5..         MOV     A,?V0 + 0
   \   00005F   6007         JZ      ??AT_ZDO_ProcessNWKDISC_CB_2
    457                //print:Channel | PANID | EPANID | StackProfile | LQI | perimit
    458                printf("channel | PANID | EPANID | StackProfile | LQI | perimit");
   \   000061                ; Setup parameters for call to function printf
   \   000061   7A..         MOV     R2,#`?<Constant "channel | PANID | EPA...">` & 0xff
   \   000063   7B..         MOV     R3,#(`?<Constant "channel | PANID | EPA...">` >> 8) & 0xff
   \   000065   12....       LCALL   ??printf?relay
    459              }
    460              for ( i = 0; i < ResultCount ; i++, pNwkDesc = pNwkDesc->nextDesc ){
   \                     ??AT_ZDO_ProcessNWKDISC_CB_2:
   \   000068   75..00       MOV     ?V0 + 3,#0x0
   \   00006B   02....       LJMP    ??CrossCallReturnLabel_103 & 0xFFFF
    461                if(pNwkDesc->chosenRouterLinkQuality>0){
    462                  uint16 *ext = (uint16*)pNwkDesc->extendedPANID;
    463                  uint8 permit;
    464                  if ( pNwkDesc->chosenRouter != INVALID_NODE_ADDR )
    465                  {
    466                    permit = 1;//TRUE;                         // Permit Joining
    467                  }
    468                  else
    469                  {
    470                    permit = 0;//FALSE;
   \                     ??AT_ZDO_ProcessNWKDISC_CB_3:
   \   00006E   75..00       MOV     ?V0 + 4,#0x0
    471                  }
    472                  AT_NEXT_LINE();
   \                     ??AT_ZDO_ProcessNWKDISC_CB_4:
   \   000071                ; Setup parameters for call to function AT_HalUARTWrite
   \   000071   7C02         MOV     R4,#0x2
   \   000073   7D00         MOV     R5,#0x0
   \   000075   7A..         MOV     R2,#`?<Constant "\\n\\r">` & 0xff
   \   000077   7B..         MOV     R3,#(`?<Constant "\\n\\r">` >> 8) & 0xff
   \   000079   7900         MOV     R1,#0x0
   \   00007B   12....       LCALL   ??AT_HalUARTWrite?relay
    473                  printf("%02X,%04X,%04X%04X%04X%04X,%02X,%02X,%X",
    474                         pNwkDesc->logicalChannel,
    475                         pNwkDesc->panId,
    476                         ext[3],ext[2],ext[1],ext[0],
    477                         pNwkDesc->stackProfile,
    478                         pNwkDesc->chosenRouterLinkQuality,
    479                         permit);
   \   00007E                ; Setup parameters for call to function printf
   \   00007E   78..         MOV     R0,#?V0 + 4
   \   000080   12....       LCALL   ?PUSH_XSTACK_I_TWO
   \   000083   8E82         MOV     DPL,R6
   \   000085   8F83         MOV     DPH,R7
   \   000087   A3           INC     DPTR
   \   000088   A3           INC     DPTR
   \   000089   A3           INC     DPTR
   \   00008A   A3           INC     DPTR
   \   00008B   A3           INC     DPTR
   \   00008C   A3           INC     DPTR
   \   00008D   A3           INC     DPTR
   \   00008E   A3           INC     DPTR
   \   00008F   A3           INC     DPTR
   \   000090   E0           MOVX    A,@DPTR
   \   000091   F5..         MOV     ?V0 + 4,A
   \   000093   78..         MOV     R0,#?V0 + 4
   \   000095   12....       LCALL   ?PUSH_XSTACK_I_TWO
   \   000098   8E82         MOV     DPL,R6
   \   00009A   8F83         MOV     DPH,R7
   \   00009C   A3           INC     DPTR
   \   00009D   A3           INC     DPTR
   \   00009E   A3           INC     DPTR
   \   00009F   A3           INC     DPTR
   \   0000A0   A3           INC     DPTR
   \   0000A1   A3           INC     DPTR
   \   0000A2   E0           MOVX    A,@DPTR
   \   0000A3   F5..         MOV     ?V0 + 4,A
   \   0000A5   78..         MOV     R0,#?V0 + 4
   \   0000A7   12....       LCALL   ?PUSH_XSTACK_I_TWO
   \   0000AA   85..82       MOV     DPL,?V0 + 0
   \   0000AD   85..83       MOV     DPH,?V0 + 1
   \   0000B0   12....       LCALL   ?PUSH_XSTACK8_X_TWO
   \   0000B3   85..82       MOV     DPL,?V0 + 0
   \   0000B6   85..83       MOV     DPH,?V0 + 1
   \   0000B9   A3           INC     DPTR
   \   0000BA   A3           INC     DPTR
   \   0000BB   12....       LCALL   ?PUSH_XSTACK8_X_TWO
   \   0000BE   85..82       MOV     DPL,?V0 + 0
   \   0000C1   85..83       MOV     DPH,?V0 + 1
   \   0000C4   A3           INC     DPTR
   \   0000C5   A3           INC     DPTR
   \   0000C6   A3           INC     DPTR
   \   0000C7   A3           INC     DPTR
   \   0000C8   12....       LCALL   ?PUSH_XSTACK8_X_TWO
   \   0000CB   85..82       MOV     DPL,?V0 + 0
   \   0000CE   85..83       MOV     DPH,?V0 + 1
   \   0000D1   A3           INC     DPTR
   \   0000D2   A3           INC     DPTR
   \   0000D3   A3           INC     DPTR
   \   0000D4   A3           INC     DPTR
   \   0000D5   A3           INC     DPTR
   \   0000D6   A3           INC     DPTR
   \   0000D7   12....       LCALL   ?PUSH_XSTACK8_X_TWO
   \   0000DA   8E82         MOV     DPL,R6
   \   0000DC   8F83         MOV     DPH,R7
   \   0000DE   12....       LCALL   ?PUSH_XSTACK8_X_TWO
   \   0000E1   8E82         MOV     DPL,R6
   \   0000E3   8F83         MOV     DPH,R7
   \   0000E5   A3           INC     DPTR
   \   0000E6   A3           INC     DPTR
   \   0000E7   12....       LCALL   ??Subroutine44_0 & 0xFFFF
   \                     ??CrossCallReturnLabel_132:
   \   0000EA   12....       LCALL   ?PUSH_XSTACK_I_TWO
   \   0000ED   7A..         MOV     R2,#`?<Constant "%02X,%04X,%04X%04X%04...">` & 0xff
   \   0000EF   7B..         MOV     R3,#(`?<Constant "%02X,%04X,%04X%04X%04...">` >> 8) & 0xff
   \   0000F1   12....       LCALL   ??printf?relay
   \   0000F4   7412         MOV     A,#0x12
   \   0000F6   12....       LCALL   ?DEALLOC_XSTACK8
   \                     ??AT_ZDO_ProcessNWKDISC_CB_5:
   \   0000F9   05..         INC     ?V0 + 3
   \   0000FB   12....       LCALL   ?Subroutine14 & 0xFFFF
   \                     ??CrossCallReturnLabel_103:
   \   0000FE   E5..         MOV     A,?V0 + 3
   \   000100   C3           CLR     C
   \   000101   95..         SUBB    A,?V0 + 2
   \   000103   5038         JNC     ??AT_ZDO_ProcessNWKDISC_CB_6
   \   000105   8E82         MOV     DPL,R6
   \   000107   8F83         MOV     DPH,R7
   \   000109   A3           INC     DPTR
   \   00010A   A3           INC     DPTR
   \   00010B   A3           INC     DPTR
   \   00010C   A3           INC     DPTR
   \   00010D   A3           INC     DPTR
   \   00010E   A3           INC     DPTR
   \   00010F   A3           INC     DPTR
   \   000110   A3           INC     DPTR
   \   000111   A3           INC     DPTR
   \   000112   E0           MOVX    A,@DPTR
   \   000113   60E4         JZ      ??AT_ZDO_ProcessNWKDISC_CB_5
   \   000115   EE           MOV     A,R6
   \   000116   240B         ADD     A,#0xb
   \   000118   F5..         MOV     ?V0 + 0,A
   \   00011A   EF           MOV     A,R7
   \   00011B   3400         ADDC    A,#0x0
   \   00011D   F5..         MOV     ?V0 + 1,A
   \   00011F   8E82         MOV     DPL,R6
   \   000121   8F83         MOV     DPH,R7
   \   000123   A3           INC     DPTR
   \   000124   A3           INC     DPTR
   \   000125   A3           INC     DPTR
   \   000126   A3           INC     DPTR
   \   000127   A3           INC     DPTR
   \   000128   A3           INC     DPTR
   \   000129   A3           INC     DPTR
   \   00012A   E0           MOVX    A,@DPTR
   \   00012B   64FE         XRL     A,#0xfe
   \   00012D   7003         JNZ     ??AT_ZDO_ProcessNWKDISC_CB_7
   \   00012F   A3           INC     DPTR
   \   000130   E0           MOVX    A,@DPTR
   \   000131   F4           CPL     A
   \                     ??AT_ZDO_ProcessNWKDISC_CB_7:
   \   000132   7003         JNZ     $+5
   \   000134   02....       LJMP    ??AT_ZDO_ProcessNWKDISC_CB_3 & 0xFFFF
   \   000137   75..01       MOV     ?V0 + 4,#0x1
   \   00013A   02....       LJMP    ??AT_ZDO_ProcessNWKDISC_CB_4 & 0xFFFF
    480                } 
    481              }
    482            AT_RESP_END();
   \                     ??AT_ZDO_ProcessNWKDISC_CB_6:
   \   00013D                ; Setup parameters for call to function AT_HalUARTWrite
   \   00013D   7C02         MOV     R4,#0x2
   \   00013F   7D00         MOV     R5,#0x0
   \   000141   7A..         MOV     R2,#`?<Constant "\\r\\n">` & 0xff
   \   000143   7B..         MOV     R3,#(`?<Constant "\\r\\n">` >> 8) & 0xff
   \   000145   7900         MOV     R1,#0x0
   \   000147   12....       LCALL   ??AT_HalUARTWrite?relay
    483            NLME_NwkDiscTerm();
   \   00014A                ; Setup parameters for call to function NLME_NwkDiscTerm
   \   00014A   12....       LCALL   ??NLME_NwkDiscTerm?relay
    484            ZDO_RegisterForZdoCB(ZDO_NWK_DISCOVERY_CNF_CBID, NULL);//cancel the registation in the AT command and implement the default ZDO network call back
   \   00014D                ; Setup parameters for call to function ZDO_RegisterForZdoCB
   \   00014D   7A00         MOV     R2,#0x0
   \   00014F   7B00         MOV     R3,#0x0
   \   000151   7902         MOV     R1,#0x2
   \   000153   12....       LCALL   ??ZDO_RegisterForZdoCB?relay
    485            return NULL;
   \   000156   7A00         MOV     R2,#0x0
   \   000158   7B00         MOV     R3,#0x0
   \   00015A   02....       LJMP    ?Subroutine3 & 0xFFFF
    486          }

   \                                 In  segment BANKED_CODE, align 1, keep-with-next
   \                     ?Subroutine14:
   \   000000   EE           MOV     A,R6
   \   000001   2414         ADD     A,#0x14
   \   000003   F582         MOV     DPL,A
   \   000005   EF           MOV     A,R7
   \   000006                REQUIRE ??Subroutine38_0
   \   000006                ; // Fall through to label ??Subroutine38_0
    487          
    488          /**************************************************************
    489          Join network response
    490              JPAN:<channel>,<PANID>,<EPANID>
    491          
    492          ****************************************************************/

   \                                 In  segment BANKED_CODE, align 1, keep-with-next
    493          void* AT_ZDO_ProcessJOIN_CNF_CB(void *param){
   \                     AT_ZDO_ProcessJOIN_CNF_CB:
   \   000000   74F6         MOV     A,#-0xa
   \   000002   12....       LCALL   ?BANKED_ENTER_XDATA
   \   000005                ; Saved register size: 10
   \   000005                ; Auto size: 0
   \   000005   EA           MOV     A,R2
   \   000006   FE           MOV     R6,A
   \   000007   EB           MOV     A,R3
   \   000008   FF           MOV     R7,A
    494              zdoJoinCnf_t *joinCnf = (zdoJoinCnf_t*) param;
    495              
    496          
    497              AT_RESP_START();
   \   000009                ; Setup parameters for call to function AT_HalUARTWrite
   \   000009   12....       LCALL   ??Subroutine43_0 & 0xFFFF
    498              if(joinCnf->status==SUCCESS){
   \                     ??CrossCallReturnLabel_125:
   \   00000C   E0           MOVX    A,@DPTR
   \   00000D   703E         JNZ     ??AT_ZDO_ProcessJOIN_CNF_CB_0
    499                uint16* ext = (uint16*)_NIB.extendedPANID;
    500                //cancel the call, because the command will finished in this function 
    501                ZDO_RegisterForZdoCB(ZDO_JOIN_CNF_CBID,NULL);
   \   00000F                ; Setup parameters for call to function ZDO_RegisterForZdoCB
   \   00000F   7A00         MOV     R2,#0x0
   \   000011   7B00         MOV     R3,#0x0
   \   000013   7904         MOV     R1,#0x4
   \   000015   12....       LCALL   ??ZDO_RegisterForZdoCB?relay
    502                printf("JPAN:%02X,%04X,%04X%04X%04X%04X",_NIB.nwkLogicalChannel,_NIB.nwkPanId,ext[3],ext[2],ext[1],ext[0]);
   \   000018                ; Setup parameters for call to function printf
   \   000018   90....       MOV     DPTR,#_NIB + 53
   \   00001B   12....       LCALL   ?PUSH_XSTACK8_X_TWO
   \   00001E   90....       MOV     DPTR,#_NIB + 55
   \   000021   12....       LCALL   ?PUSH_XSTACK8_X_TWO
   \   000024   90....       MOV     DPTR,#_NIB + 57
   \   000027   12....       LCALL   ?PUSH_XSTACK8_X_TWO
   \   00002A   90....       MOV     DPTR,#_NIB + 59
   \   00002D   12....       LCALL   ?PUSH_XSTACK8_X_TWO
   \   000030   90....       MOV     DPTR,#_NIB + 33
   \   000033   12....       LCALL   ?PUSH_XSTACK8_X_TWO
   \   000036   90....       MOV     DPTR,#_NIB + 22
   \   000039   12....       LCALL   ??Subroutine44_0 & 0xFFFF
    503              }else{
   \                     ??CrossCallReturnLabel_133:
   \   00003C   12....       LCALL   ?PUSH_XSTACK_I_TWO
   \   00003F   7A..         MOV     R2,#`?<Constant "JPAN:%02X,%04X,%04X%0...">` & 0xff
   \   000041   7B..         MOV     R3,#(`?<Constant "JPAN:%02X,%04X,%04X%0...">` >> 8) & 0xff
   \   000043   12....       LCALL   ??printf?relay
   \   000046   740C         MOV     A,#0xc
   \   000048   12....       LCALL   ?DEALLOC_XSTACK8
   \   00004B   8011         SJMP    ??AT_ZDO_ProcessJOIN_CNF_CB_1
    504                AT_ERROR(joinCnf->status);
   \                     ??AT_ZDO_ProcessJOIN_CNF_CB_0:
   \   00004D                ; Setup parameters for call to function AT_UARTWriteErrMsg
   \   00004D   F9           MOV     R1,A
   \   00004E   12....       LCALL   ??AT_UARTWriteErrMsg?relay
    505                //I set the device auto start (HOLD_AUTO_START), so, when the device start, it controlled by ZDO
    506                //although, I change the devState and devStartMode (variables in ZDAPP) to control the flow process
    507                //the ZDO layer may still commit newwork discover when the device is end device.
    508                //therefor The MAC_BAD_STATE appears, due to doulbe call of the NLME_NetworkDiscoveryRequest();
    509                //one by me, one by ZDO.
    510                //I don't want controll all the thing by myself, so I using auto start mode.
    511                AT_DEBUG("MAC_BAD_STATE ZDO Trying...",sizeof("MAC_BAD_STATE ZDO Trying..."));
   \   000051                ; Setup parameters for call to function AT_HalUARTWrite
   \   000051   7C1C         MOV     R4,#0x1c
   \   000053   7D00         MOV     R5,#0x0
   \   000055   7A..         MOV     R2,#`?<Constant "MAC_BAD_STATE ZDO Try...">` & 0xff
   \   000057   7B..         MOV     R3,#(`?<Constant "MAC_BAD_STATE ZDO Try...">` >> 8) & 0xff
   \   000059   7900         MOV     R1,#0x0
   \   00005B   12....       LCALL   ??AT_HalUARTWrite?relay
    512              }
    513              AT_RESP_END();
   \                     ??AT_ZDO_ProcessJOIN_CNF_CB_1:
   \   00005E                ; Setup parameters for call to function AT_HalUARTWrite
   \   00005E   7C02         MOV     R4,#0x2
   \   000060   7D00         MOV     R5,#0x0
   \   000062   7A..         MOV     R2,#`?<Constant "\\r\\n">` & 0xff
   \   000064   7B..         MOV     R3,#(`?<Constant "\\r\\n">` >> 8) & 0xff
   \   000066   7900         MOV     R1,#0x0
   \   000068   12....       LCALL   ??AT_HalUARTWrite?relay
    514              return NULL;
   \   00006B   7A00         MOV     R2,#0x0
   \   00006D   7B00         MOV     R3,#0x0
   \   00006F   80..         SJMP    ??Subroutine39_0
    515          }

   \                                 In  segment BANKED_CODE, align 1, keep-with-next
   \                     ??Subroutine43_0:
   \   000000   7C02         MOV     R4,#0x2
   \   000002   7D00         MOV     R5,#0x0
   \   000004   7A..         MOV     R2,#`?<Constant "\\r\\n">` & 0xff
   \   000006   7B..         MOV     R3,#(`?<Constant "\\r\\n">` >> 8) & 0xff
   \   000008   7900         MOV     R1,#0x0
   \   00000A   12....       LCALL   ??AT_HalUARTWrite?relay
   \   00000D                ; Setup parameters for call to function printf
   \   00000D                ; Setup parameters for call to function printf
   \   00000D   8E82         MOV     DPL,R6
   \   00000F   8F83         MOV     DPH,R7
   \   000011   22           RET
    516          
    517          /**************************************************************
    518          +DASSL C Disassociate Local Device From PAN
    519              LeftPAN
    520          
    521          ****************************************************************/

   \                                 In  segment BANKED_CODE, align 1, keep-with-next
    522          extern void* AT_ZDO_ProcessLEAVE_CNF_CB(void *param){
   \                     AT_ZDO_ProcessLEAVE_CNF_CB:
   \   000000   74F7         MOV     A,#-0x9
   \   000002   12....       LCALL   ?BANKED_ENTER_XDATA
   \   000005                ; Saved register size: 9
   \   000005                ; Auto size: 0
    523          
    524              AT_RESP_START();
   \   000005                ; Setup parameters for call to function AT_HalUARTWrite
   \   000005   7C02         MOV     R4,#0x2
   \   000007   7D00         MOV     R5,#0x0
   \   000009   7A..         MOV     R2,#`?<Constant "\\r\\n">` & 0xff
   \   00000B   7B..         MOV     R3,#(`?<Constant "\\r\\n">` >> 8) & 0xff
   \   00000D   7900         MOV     R1,#0x0
   \   00000F   12....       LCALL   ??AT_HalUARTWrite?relay
    525              printf("LeftPAN");
   \   000012                ; Setup parameters for call to function printf
   \   000012   7A..         MOV     R2,#`?<Constant "LeftPAN">` & 0xff
   \   000014   7B..         MOV     R3,#(`?<Constant "LeftPAN">` >> 8) & 0xff
   \   000016   12....       LCALL   ??printf?relay
    526              AT_RESP_END();
   \   000019                ; Setup parameters for call to function AT_HalUARTWrite
   \   000019   7C02         MOV     R4,#0x2
   \   00001B   7D00         MOV     R5,#0x0
   \   00001D   7A..         MOV     R2,#`?<Constant "\\r\\n">` & 0xff
   \   00001F   7B..         MOV     R3,#(`?<Constant "\\r\\n">` >> 8) & 0xff
   \   000021   7900         MOV     R1,#0x0
   \   000023   12....       LCALL   ??AT_HalUARTWrite?relay
    527              return NULL;
   \   000026   7A00         MOV     R2,#0x0
   \   000028   7B00         MOV     R3,#0x0
   \   00002A   02....       LJMP    ?Subroutine0 & 0xFFFF
    528          }
    529          
    530          
    531          /**************************************************************
    532          +NODEDESC C Request Nodes Descriptor
    533              Prompt (example) 
    534                    NodeDesc:<NodeID>,<errorcode> 
    535                    Type:FFD 
    536                    ComplexDesc:No 
    537                    UserDesc:No 
    538                    APSFlags:00  
    539                    FreqBand:40 
    540                    MacCap:8E 
    541                    ManufCode:1010 
    542                    MaxBufSize:52 
    543                    MaxInSize:0080 
    544                    SrvMask:0000 
    545                    MaxOutSize:0080 
    546                    DescCap:00
    547          ****************************************************************/

   \                                 In  segment BANKED_CODE, align 1, keep-with-next
    548          void AT_ZDO_ProcessNodeDescRsp(zdoIncomingMsg_t *inMsg ){
   \                     AT_ZDO_ProcessNodeDescRsp:
   \   000000   74F6         MOV     A,#-0xa
   \   000002   12....       LCALL   ?BANKED_ENTER_XDATA
   \   000005                ; Saved register size: 10
   \   000005                ; Auto size: 16
   \   000005   74F0         MOV     A,#-0x10
   \   000007   12....       LCALL   ?ALLOC_XSTACK8
    549            ZDO_NodeDescRsp_t Rsp;
    550            ZDO_ParseNodeDescRsp(inMsg, &Rsp );
   \   00000A                ; Setup parameters for call to function ZDO_ParseNodeDescRsp
   \   00000A   85..82       MOV     DPL,?XSP + 0
   \   00000D   85..83       MOV     DPH,?XSP + 1
   \   000010   AC82         MOV     R4,DPL
   \   000012   AD83         MOV     R5,DPH
   \   000014   12....       LCALL   ??ZDO_ParseNodeDescRsp?relay
    551           /* // Node Logical Types
    552          #define NODETYPE_COORDINATOR    0x00
    553          #define NODETYPE_ROUTER         0x01
    554          #define NODETYPE_DEVICE         0x02
    555            
    556              NodeDescriptorFormat_t nodeDesc;
    557            uint8 LogicalType:3;*
    558            uint8 ComplexDescAvail:1;  /AF_V1_SUPPORT - reserved bit. 
    559            uint8 UserDescAvail:1;     /AF_V1_SUPPORT - reserved bit. 
    560            uint8 Reserved:3;
    561            uint8 APSFlags:3;
    562            uint8 FrequencyBand:5;
    563            uint8 CapabilityFlags;
    564            uint8 ManufacturerCode[2];
    565            uint8 MaxBufferSize;
    566            uint8 MaxInTransferSize[2];
    567            uint16 ServerMask;
    568            uint8 MaxOutTransferSize[2];
    569            uint8 DescriptorCapability;
    570            */
    571            AT_RESP_START();
   \   000017                ; Setup parameters for call to function AT_HalUARTWrite
   \   000017   12....       LCALL   ?Subroutine6 & 0xFFFF
    572            
    573            printf("NodeDesc:%04X,%02X",Rsp.nwkAddr,Rsp.status);
   \                     ??CrossCallReturnLabel_126:
   \   00001A   12....       LCALL   ?PUSH_XSTACK_I_TWO
   \   00001D   7403         MOV     A,#0x3
   \   00001F   12....       LCALL   ?XSTACK_DISP0_8
   \   000022   12....       LCALL   ?PUSH_XSTACK8_X_TWO
   \   000025   7A..         MOV     R2,#`?<Constant "NodeDesc:%04X,%02X">` & 0xff
   \   000027   7B..         MOV     R3,#(`?<Constant "NodeDesc:%04X,%02X">` >> 8) & 0xff
   \   000029   12....       LCALL   ??Subroutine40_0 & 0xFFFF
   \                     ??CrossCallReturnLabel_110:
   \   00002C   12....       LCALL   ?DEALLOC_XSTACK8
    574            if(Rsp.status==SUCCESS){
   \   00002F   85..82       MOV     DPL,?XSP + 0
   \   000032   85..83       MOV     DPH,?XSP + 1
   \   000035   E0           MOVX    A,@DPTR
   \   000036   6003         JZ      $+5
   \   000038   02....       LJMP    ??AT_ZDO_ProcessNodeDescRsp_0 & 0xFFFF
    575              
    576              AT_NEXT_LINE();
   \   00003B                ; Setup parameters for call to function AT_HalUARTWrite
   \   00003B   12....       LCALL   ?Subroutine19 & 0xFFFF
    577              printf("Type:%s",NODETYPE_COORDINATOR==Rsp.nodeDesc.LogicalType ? "COOR" :
    578                       NODETYPE_ROUTER==Rsp.nodeDesc.LogicalType ? "ROUTER" : "ENDDEV");
   \                     ??CrossCallReturnLabel_23:
   \   00003E   12....       LCALL   ?XSTACK_DISP0_8
   \   000041   E0           MOVX    A,@DPTR
   \   000042   5407         ANL     A,#0x7
   \   000044   7008         JNZ     ??AT_ZDO_ProcessNodeDescRsp_1
   \   000046   75....       MOV     ?V0 + 0,#`?<Constant "COOR">` & 0xff
   \   000049   75....       MOV     ?V0 + 1,#(`?<Constant "COOR">` >> 8) & 0xff
   \   00004C   8015         SJMP    ??AT_ZDO_ProcessNodeDescRsp_2
   \                     ??AT_ZDO_ProcessNodeDescRsp_1:
   \   00004E   E0           MOVX    A,@DPTR
   \   00004F   5407         ANL     A,#0x7
   \   000051   6401         XRL     A,#0x1
   \   000053   7008         JNZ     ??AT_ZDO_ProcessNodeDescRsp_3
   \   000055   75....       MOV     ?V0 + 0,#`?<Constant "ROUTER">` & 0xff
   \   000058   75....       MOV     ?V0 + 1,#(`?<Constant "ROUTER">` >> 8) & 0xff
   \   00005B   8006         SJMP    ??AT_ZDO_ProcessNodeDescRsp_2
   \                     ??AT_ZDO_ProcessNodeDescRsp_3:
   \   00005D   75....       MOV     ?V0 + 0,#`?<Constant "ENDDEV">` & 0xff
   \   000060   75....       MOV     ?V0 + 1,#(`?<Constant "ENDDEV">` >> 8) & 0xff
   \                     ??AT_ZDO_ProcessNodeDescRsp_2:
   \   000063                ; Setup parameters for call to function printf
   \   000063   78..         MOV     R0,#?V0 + 0
   \   000065   12....       LCALL   ?PUSH_XSTACK_I_TWO
   \   000068   7A..         MOV     R2,#`?<Constant "Type:%s">` & 0xff
   \   00006A   7B..         MOV     R3,#(`?<Constant "Type:%s">` >> 8) & 0xff
   \   00006C   12....       LCALL   ??Subroutine37_0 & 0xFFFF
   \                     ??CrossCallReturnLabel_79:
   \   00006F   12....       LCALL   ?DEALLOC_XSTACK8
    579              AT_NEXT_LINE();
   \   000072                ; Setup parameters for call to function AT_HalUARTWrite
   \   000072   12....       LCALL   ?Subroutine19 & 0xFFFF
    580              printf("ComplexDesc:%s" , Rsp.nodeDesc.ComplexDescAvail ? "Yes" : "No");
   \                     ??CrossCallReturnLabel_24:
   \   000075   12....       LCALL   ?XSTACK_DISP0_8
   \   000078   E0           MOVX    A,@DPTR
   \   000079   A2E3         MOV     C,0xE0 /* A   */.3
   \   00007B   5008         JNC     ??AT_ZDO_ProcessNodeDescRsp_4
   \   00007D   75....       MOV     ?V0 + 0,#`?<Constant "Yes">` & 0xff
   \   000080   75....       MOV     ?V0 + 1,#(`?<Constant "Yes">` >> 8) & 0xff
   \   000083   8006         SJMP    ??AT_ZDO_ProcessNodeDescRsp_5
   \                     ??AT_ZDO_ProcessNodeDescRsp_4:
   \   000085   75....       MOV     ?V0 + 0,#`?<Constant "No">` & 0xff
   \   000088   75....       MOV     ?V0 + 1,#(`?<Constant "No">` >> 8) & 0xff
   \                     ??AT_ZDO_ProcessNodeDescRsp_5:
   \   00008B                ; Setup parameters for call to function printf
   \   00008B   78..         MOV     R0,#?V0 + 0
   \   00008D   12....       LCALL   ?PUSH_XSTACK_I_TWO
   \   000090   7A..         MOV     R2,#`?<Constant "ComplexDesc:%s">` & 0xff
   \   000092   7B..         MOV     R3,#(`?<Constant "ComplexDesc:%s">` >> 8) & 0xff
   \   000094   12....       LCALL   ??Subroutine37_0 & 0xFFFF
   \                     ??CrossCallReturnLabel_80:
   \   000097   12....       LCALL   ?DEALLOC_XSTACK8
    581              AT_NEXT_LINE();
   \   00009A                ; Setup parameters for call to function AT_HalUARTWrite
   \   00009A   12....       LCALL   ?Subroutine19 & 0xFFFF
    582              printf("UserDesc:%s" , Rsp.nodeDesc.UserDescAvail ? "Yes" : "No");
   \                     ??CrossCallReturnLabel_25:
   \   00009D   12....       LCALL   ?XSTACK_DISP0_8
   \   0000A0   E0           MOVX    A,@DPTR
   \   0000A1   A2E4         MOV     C,0xE0 /* A   */.4
   \   0000A3   5008         JNC     ??AT_ZDO_ProcessNodeDescRsp_6
   \   0000A5   75....       MOV     ?V0 + 0,#`?<Constant "Yes">` & 0xff
   \   0000A8   75....       MOV     ?V0 + 1,#(`?<Constant "Yes">` >> 8) & 0xff
   \   0000AB   8006         SJMP    ??AT_ZDO_ProcessNodeDescRsp_7
   \                     ??AT_ZDO_ProcessNodeDescRsp_6:
   \   0000AD   75....       MOV     ?V0 + 0,#`?<Constant "No">` & 0xff
   \   0000B0   75....       MOV     ?V0 + 1,#(`?<Constant "No">` >> 8) & 0xff
   \                     ??AT_ZDO_ProcessNodeDescRsp_7:
   \   0000B3                ; Setup parameters for call to function printf
   \   0000B3   78..         MOV     R0,#?V0 + 0
   \   0000B5   12....       LCALL   ?PUSH_XSTACK_I_TWO
   \   0000B8   7A..         MOV     R2,#`?<Constant "UserDesc:%s">` & 0xff
   \   0000BA   7B..         MOV     R3,#(`?<Constant "UserDesc:%s">` >> 8) & 0xff
   \   0000BC   12....       LCALL   ??Subroutine37_0 & 0xFFFF
   \                     ??CrossCallReturnLabel_81:
   \   0000BF   12....       LCALL   ?DEALLOC_XSTACK8
    583              AT_NEXT_LINE();
   \   0000C2                ; Setup parameters for call to function AT_HalUARTWrite
   \   0000C2   7C02         MOV     R4,#0x2
   \   0000C4   7D00         MOV     R5,#0x0
   \   0000C6   7A..         MOV     R2,#`?<Constant "\\n\\r">` & 0xff
   \   0000C8   7B..         MOV     R3,#(`?<Constant "\\n\\r">` >> 8) & 0xff
   \   0000CA   7900         MOV     R1,#0x0
   \   0000CC   12....       LCALL   ??AT_HalUARTWrite?relay
    584              printf("APSFlags:%02X",Rsp.nodeDesc.APSFlags);  
   \   0000CF                ; Setup parameters for call to function printf
   \   0000CF   7404         MOV     A,#0x4
   \   0000D1   12....       LCALL   ?XSTACK_DISP0_8
   \   0000D4   E0           MOVX    A,@DPTR
   \   0000D5   5407         ANL     A,#0x7
   \   0000D7   F5..         MOV     ?V0 + 0,A
   \   0000D9   75..00       MOV     ?V0 + 1,#0x0
   \   0000DC   78..         MOV     R0,#?V0 + 0
   \   0000DE   12....       LCALL   ?PUSH_XSTACK_I_TWO
   \   0000E1   7A..         MOV     R2,#`?<Constant "APSFlags:%02X">` & 0xff
   \   0000E3   7B..         MOV     R3,#(`?<Constant "APSFlags:%02X">` >> 8) & 0xff
   \   0000E5   12....       LCALL   ??Subroutine37_0 & 0xFFFF
   \                     ??CrossCallReturnLabel_82:
   \   0000E8   12....       LCALL   ?DEALLOC_XSTACK8
    585              AT_NEXT_LINE();
   \   0000EB                ; Setup parameters for call to function AT_HalUARTWrite
   \   0000EB   7C02         MOV     R4,#0x2
   \   0000ED   7D00         MOV     R5,#0x0
   \   0000EF   7A..         MOV     R2,#`?<Constant "\\n\\r">` & 0xff
   \   0000F1   7B..         MOV     R3,#(`?<Constant "\\n\\r">` >> 8) & 0xff
   \   0000F3   7900         MOV     R1,#0x0
   \   0000F5   12....       LCALL   ??AT_HalUARTWrite?relay
    586              printf("FreqBand:%02X",Rsp.nodeDesc.FrequencyBand); 
   \   0000F8                ; Setup parameters for call to function printf
   \   0000F8   7404         MOV     A,#0x4
   \   0000FA   12....       LCALL   ?XSTACK_DISP0_8
   \   0000FD   E0           MOVX    A,@DPTR
   \   0000FE   13           RRC     A
   \   0000FF   13           RRC     A
   \   000100   13           RRC     A
   \   000101   541F         ANL     A,#0x1f
   \   000103   F5..         MOV     ?V0 + 0,A
   \   000105   78..         MOV     R0,#?V0 + 0
   \   000107   12....       LCALL   ?PUSH_XSTACK_I_TWO
   \   00010A   7A..         MOV     R2,#`?<Constant "FreqBand:%02X">` & 0xff
   \   00010C   7B..         MOV     R3,#(`?<Constant "FreqBand:%02X">` >> 8) & 0xff
   \   00010E   12....       LCALL   ??Subroutine37_0 & 0xFFFF
   \                     ??CrossCallReturnLabel_83:
   \   000111   12....       LCALL   ?DEALLOC_XSTACK8
    587              AT_NEXT_LINE();
   \   000114                ; Setup parameters for call to function AT_HalUARTWrite
   \   000114   7C02         MOV     R4,#0x2
   \   000116   7D00         MOV     R5,#0x0
   \   000118   7A..         MOV     R2,#`?<Constant "\\n\\r">` & 0xff
   \   00011A   7B..         MOV     R3,#(`?<Constant "\\n\\r">` >> 8) & 0xff
   \   00011C   7900         MOV     R1,#0x0
   \   00011E   12....       LCALL   ??AT_HalUARTWrite?relay
    588              printf("MacCap:%02x",Rsp.nodeDesc.CapabilityFlags); 
   \   000121                ; Setup parameters for call to function printf
   \   000121   7405         MOV     A,#0x5
   \   000123   12....       LCALL   ?XSTACK_DISP0_8
   \   000126   12....       LCALL   ??Subroutine42_0 & 0xFFFF
   \                     ??CrossCallReturnLabel_117:
   \   000129   12....       LCALL   ?PUSH_XSTACK_I_TWO
   \   00012C   7A..         MOV     R2,#`?<Constant "MacCap:%02x">` & 0xff
   \   00012E   7B..         MOV     R3,#(`?<Constant "MacCap:%02x">` >> 8) & 0xff
   \   000130   12....       LCALL   ??Subroutine37_0 & 0xFFFF
   \                     ??CrossCallReturnLabel_84:
   \   000133   12....       LCALL   ?DEALLOC_XSTACK8
    589              AT_NEXT_LINE();
   \   000136                ; Setup parameters for call to function AT_HalUARTWrite
   \   000136   7C02         MOV     R4,#0x2
   \   000138   7D00         MOV     R5,#0x0
   \   00013A   7A..         MOV     R2,#`?<Constant "\\n\\r">` & 0xff
   \   00013C   7B..         MOV     R3,#(`?<Constant "\\n\\r">` >> 8) & 0xff
   \   00013E   7900         MOV     R1,#0x0
   \   000140   12....       LCALL   ??AT_HalUARTWrite?relay
    590              printf("ManufCode:%04X",*(uint16*)Rsp.nodeDesc.ManufacturerCode); 
   \   000143                ; Setup parameters for call to function printf
   \   000143   7406         MOV     A,#0x6
   \   000145   12....       LCALL   ?XSTACK_DISP0_8
   \   000148   12....       LCALL   ?PUSH_XSTACK8_X_TWO
   \   00014B   7A..         MOV     R2,#`?<Constant "ManufCode:%04X">` & 0xff
   \   00014D   7B..         MOV     R3,#(`?<Constant "ManufCode:%04X">` >> 8) & 0xff
   \   00014F   12....       LCALL   ??Subroutine37_0 & 0xFFFF
   \                     ??CrossCallReturnLabel_85:
   \   000152   12....       LCALL   ?DEALLOC_XSTACK8
    591              AT_NEXT_LINE();
   \   000155                ; Setup parameters for call to function AT_HalUARTWrite
   \   000155   7C02         MOV     R4,#0x2
   \   000157   7D00         MOV     R5,#0x0
   \   000159   7A..         MOV     R2,#`?<Constant "\\n\\r">` & 0xff
   \   00015B   7B..         MOV     R3,#(`?<Constant "\\n\\r">` >> 8) & 0xff
   \   00015D   7900         MOV     R1,#0x0
   \   00015F   12....       LCALL   ??AT_HalUARTWrite?relay
    592              printf("MaxBufSize:%02X",Rsp.nodeDesc.MaxBufferSize); 
   \   000162                ; Setup parameters for call to function printf
   \   000162   7408         MOV     A,#0x8
   \   000164   12....       LCALL   ?XSTACK_DISP0_8
   \   000167   12....       LCALL   ??Subroutine42_0 & 0xFFFF
   \                     ??CrossCallReturnLabel_118:
   \   00016A   12....       LCALL   ?PUSH_XSTACK_I_TWO
   \   00016D   7A..         MOV     R2,#`?<Constant "MaxBufSize:%02X">` & 0xff
   \   00016F   7B..         MOV     R3,#(`?<Constant "MaxBufSize:%02X">` >> 8) & 0xff
   \   000171   12....       LCALL   ??Subroutine37_0 & 0xFFFF
   \                     ??CrossCallReturnLabel_86:
   \   000174   12....       LCALL   ?DEALLOC_XSTACK8
    593              AT_NEXT_LINE();
   \   000177                ; Setup parameters for call to function AT_HalUARTWrite
   \   000177   7C02         MOV     R4,#0x2
   \   000179   7D00         MOV     R5,#0x0
   \   00017B   7A..         MOV     R2,#`?<Constant "\\n\\r">` & 0xff
   \   00017D   7B..         MOV     R3,#(`?<Constant "\\n\\r">` >> 8) & 0xff
   \   00017F   7900         MOV     R1,#0x0
   \   000181   12....       LCALL   ??AT_HalUARTWrite?relay
    594              printf("MaxInSize:%04X",*(uint16*)Rsp.nodeDesc.MaxInTransferSize); 
   \   000184                ; Setup parameters for call to function printf
   \   000184   7409         MOV     A,#0x9
   \   000186   12....       LCALL   ?XSTACK_DISP0_8
   \   000189   12....       LCALL   ?PUSH_XSTACK8_X_TWO
   \   00018C   7A..         MOV     R2,#`?<Constant "MaxInSize:%04X">` & 0xff
   \   00018E   7B..         MOV     R3,#(`?<Constant "MaxInSize:%04X">` >> 8) & 0xff
   \   000190   12....       LCALL   ??Subroutine37_0 & 0xFFFF
   \                     ??CrossCallReturnLabel_87:
   \   000193   12....       LCALL   ?DEALLOC_XSTACK8
    595              AT_NEXT_LINE();
   \   000196                ; Setup parameters for call to function AT_HalUARTWrite
   \   000196   7C02         MOV     R4,#0x2
   \   000198   7D00         MOV     R5,#0x0
   \   00019A   7A..         MOV     R2,#`?<Constant "\\n\\r">` & 0xff
   \   00019C   7B..         MOV     R3,#(`?<Constant "\\n\\r">` >> 8) & 0xff
   \   00019E   7900         MOV     R1,#0x0
   \   0001A0   12....       LCALL   ??AT_HalUARTWrite?relay
    596              printf("SrvMask:%02X",Rsp.nodeDesc.ServerMask); 
   \   0001A3                ; Setup parameters for call to function printf
   \   0001A3   740B         MOV     A,#0xb
   \   0001A5   12....       LCALL   ?XSTACK_DISP0_8
   \   0001A8   12....       LCALL   ?PUSH_XSTACK8_X_TWO
   \   0001AB   7A..         MOV     R2,#`?<Constant "SrvMask:%02X">` & 0xff
   \   0001AD   7B..         MOV     R3,#(`?<Constant "SrvMask:%02X">` >> 8) & 0xff
   \   0001AF   12....       LCALL   ??Subroutine37_0 & 0xFFFF
   \                     ??CrossCallReturnLabel_88:
   \   0001B2   12....       LCALL   ?DEALLOC_XSTACK8
    597              AT_NEXT_LINE();
   \   0001B5                ; Setup parameters for call to function AT_HalUARTWrite
   \   0001B5   7C02         MOV     R4,#0x2
   \   0001B7   7D00         MOV     R5,#0x0
   \   0001B9   7A..         MOV     R2,#`?<Constant "\\n\\r">` & 0xff
   \   0001BB   7B..         MOV     R3,#(`?<Constant "\\n\\r">` >> 8) & 0xff
   \   0001BD   7900         MOV     R1,#0x0
   \   0001BF   12....       LCALL   ??AT_HalUARTWrite?relay
    598              printf("MaxOutSize:%04X",*(uint16*)Rsp.nodeDesc.MaxOutTransferSize); 
   \   0001C2                ; Setup parameters for call to function printf
   \   0001C2   740D         MOV     A,#0xd
   \   0001C4   12....       LCALL   ?XSTACK_DISP0_8
   \   0001C7   12....       LCALL   ?PUSH_XSTACK8_X_TWO
   \   0001CA   7A..         MOV     R2,#`?<Constant "MaxOutSize:%04X">` & 0xff
   \   0001CC   7B..         MOV     R3,#(`?<Constant "MaxOutSize:%04X">` >> 8) & 0xff
   \   0001CE   12....       LCALL   ??Subroutine37_0 & 0xFFFF
   \                     ??CrossCallReturnLabel_89:
   \   0001D1   12....       LCALL   ?DEALLOC_XSTACK8
    599              AT_NEXT_LINE();
   \   0001D4                ; Setup parameters for call to function AT_HalUARTWrite
   \   0001D4   7C02         MOV     R4,#0x2
   \   0001D6   7D00         MOV     R5,#0x0
   \   0001D8   7A..         MOV     R2,#`?<Constant "\\n\\r">` & 0xff
   \   0001DA   7B..         MOV     R3,#(`?<Constant "\\n\\r">` >> 8) & 0xff
   \   0001DC   7900         MOV     R1,#0x0
   \   0001DE   12....       LCALL   ??AT_HalUARTWrite?relay
    600              printf("DescCap:%02X",Rsp.nodeDesc.DescriptorCapability);
   \   0001E1                ; Setup parameters for call to function printf
   \   0001E1   740F         MOV     A,#0xf
   \   0001E3   12....       LCALL   ?XSTACK_DISP0_8
   \   0001E6   12....       LCALL   ??Subroutine42_0 & 0xFFFF
    601            }
   \                     ??CrossCallReturnLabel_119:
   \   0001E9   12....       LCALL   ?PUSH_XSTACK_I_TWO
   \   0001EC   7A..         MOV     R2,#`?<Constant "DescCap:%02X">` & 0xff
   \   0001EE   7B..         MOV     R3,#(`?<Constant "DescCap:%02X">` >> 8) & 0xff
   \   0001F0   12....       LCALL   ??Subroutine37_0 & 0xFFFF
   \                     ??CrossCallReturnLabel_90:
   \   0001F3   12....       LCALL   ?DEALLOC_XSTACK8
    602            
    603            AT_RESP_END();
   \                     ??AT_ZDO_ProcessNodeDescRsp_0:
   \   0001F6                ; Setup parameters for call to function AT_HalUARTWrite
   \   0001F6   7C02         MOV     R4,#0x2
   \   0001F8   7D00         MOV     R5,#0x0
   \   0001FA   7A..         MOV     R2,#`?<Constant "\\r\\n">` & 0xff
   \   0001FC   7B..         MOV     R3,#(`?<Constant "\\r\\n">` >> 8) & 0xff
   \   0001FE   7900         MOV     R1,#0x0
   \   000200   12....       LCALL   ??AT_HalUARTWrite?relay
    604          }
   \   000203   02....       LJMP    ?Subroutine4 & 0xFFFF

   \                                 In  segment BANKED_CODE, align 1, keep-with-next
   \                     ?Subroutine19:
   \   000000   7C02         MOV     R4,#0x2
   \   000002   7D00         MOV     R5,#0x0
   \   000004   7A..         MOV     R2,#`?<Constant "\\n\\r">` & 0xff
   \   000006   7B..         MOV     R3,#(`?<Constant "\\n\\r">` >> 8) & 0xff
   \   000008   7900         MOV     R1,#0x0
   \   00000A   12....       LCALL   ??AT_HalUARTWrite?relay
   \   00000D                ; Setup parameters for call to function printf
   \   00000D                ; Setup parameters for call to function printf
   \   00000D                ; Setup parameters for call to function printf
   \   00000D                ; Setup parameters for call to function printf
   \   00000D                ; Setup parameters for call to function printf
   \   00000D   7403         MOV     A,#0x3
   \   00000F   22           RET

   \                                 In  segment BANKED_CODE, align 1, keep-with-next
   \                     ?Subroutine6:
   \   000000   7C02         MOV     R4,#0x2
   \   000002   7D00         MOV     R5,#0x0
   \   000004   7A..         MOV     R2,#`?<Constant "\\r\\n">` & 0xff
   \   000006   7B..         MOV     R3,#(`?<Constant "\\r\\n">` >> 8) & 0xff
   \   000008   12....       LCALL   ?Subroutine29 & 0xFFFF
   \                     ??CrossCallReturnLabel_42:
   \   00000B                REQUIRE ??Subroutine44_0
   \   00000B                ; // Fall through to label ??Subroutine44_0
    605          
    606          /**************************************************************
    607          +POWERDESC C Request Nodes Power Descriptor
    608          
    609          Prompt 
    610                PowerDesc:<NodeID>,<errorcode>[,<PowerDescriptor>] 
    611                      In case of an error an errorcode other than 00 will be displayed  
    612                              and the prompt will end after the errorcode 
    613          
    614                      <NodeID> is the Remote nodes Node ID. In addition the 
    615          
    616                      <PowerDescriptor> is displayed as a 16 bit hexadecimal number as 
    617                              described in section 2.3.2.4. of ZigBee Pro Specification.
    618          
    619          ****************************************************************/

   \                                 In  segment BANKED_CODE, align 1, keep-with-next
    620          void AT_ZDO_ProcessPowerDescRsp(zdoIncomingMsg_t *inMsg ){
   \                     AT_ZDO_ProcessPowerDescRsp:
   \   000000   74F6         MOV     A,#-0xa
   \   000002   12....       LCALL   ?BANKED_ENTER_XDATA
   \   000005                ; Saved register size: 10
   \   000005                ; Auto size: 5
   \   000005   74FB         MOV     A,#-0x5
   \   000007   12....       LCALL   ?ALLOC_XSTACK8
    621            ZDO_PowerRsp_t Rsp;
    622            ZDO_ParsePowerDescRsp( inMsg, &Rsp );
   \   00000A                ; Setup parameters for call to function ZDO_ParsePowerDescRsp
   \   00000A   85..82       MOV     DPL,?XSP + 0
   \   00000D   85..83       MOV     DPH,?XSP + 1
   \   000010   AC82         MOV     R4,DPL
   \   000012   AD83         MOV     R5,DPH
   \   000014   12....       LCALL   ??ZDO_ParsePowerDescRsp?relay
    623            
    624            AT_RESP_START();
   \   000017                ; Setup parameters for call to function AT_HalUARTWrite
   \   000017   12....       LCALL   ?Subroutine6 & 0xFFFF
    625            
    626            printf("PowerDesc:%04X,%02X",Rsp.nwkAddr,Rsp.status);
   \                     ??CrossCallReturnLabel_127:
   \   00001A   12....       LCALL   ?PUSH_XSTACK_I_TWO
   \   00001D   7403         MOV     A,#0x3
   \   00001F   12....       LCALL   ?XSTACK_DISP0_8
   \   000022   12....       LCALL   ?PUSH_XSTACK8_X_TWO
   \   000025   7A..         MOV     R2,#`?<Constant "PowerDesc:%04X,%02X">` & 0xff
   \   000027   7B..         MOV     R3,#(`?<Constant "PowerDesc:%04X,%02X">` >> 8) & 0xff
   \   000029   12....       LCALL   ??Subroutine40_0 & 0xFFFF
   \                     ??CrossCallReturnLabel_111:
   \   00002C   12....       LCALL   ?DEALLOC_XSTACK8
    627            if(Rsp.status==SUCCESS){
   \   00002F   85..82       MOV     DPL,?XSP + 0
   \   000032   85..83       MOV     DPH,?XSP + 1
   \   000035   E0           MOVX    A,@DPTR
   \   000036   706B         JNZ     ??AT_ZDO_ProcessPowerDescRsp_0
    628              AT_NEXT_LINE();
   \   000038                ; Setup parameters for call to function AT_HalUARTWrite
   \   000038   12....       LCALL   ?Subroutine19 & 0xFFFF
    629              printf("PowerMode:%02X",Rsp.pwrDesc.PowerMode);
   \                     ??CrossCallReturnLabel_26:
   \   00003B   12....       LCALL   ?XSTACK_DISP0_8
   \   00003E   12....       LCALL   ?Subroutine12 & 0xFFFF
   \                     ??CrossCallReturnLabel_13:
   \   000041   12....       LCALL   ?PUSH_XSTACK_I_TWO
   \   000044   7A..         MOV     R2,#`?<Constant "PowerMode:%02X">` & 0xff
   \   000046   7B..         MOV     R3,#(`?<Constant "PowerMode:%02X">` >> 8) & 0xff
   \   000048   12....       LCALL   ??Subroutine37_0 & 0xFFFF
   \                     ??CrossCallReturnLabel_91:
   \   00004B   12....       LCALL   ?DEALLOC_XSTACK8
    630              AT_NEXT_LINE();
   \   00004E                ; Setup parameters for call to function AT_HalUARTWrite
   \   00004E   12....       LCALL   ?Subroutine19 & 0xFFFF
    631              printf("AvailablePowerSources:%02X",Rsp.pwrDesc.AvailablePowerSources);
   \                     ??CrossCallReturnLabel_27:
   \   000051   12....       LCALL   ?XSTACK_DISP0_8
   \   000054   E0           MOVX    A,@DPTR
   \   000055   C4           SWAP    A
   \   000056   540F         ANL     A,#0xf
   \   000058   F5..         MOV     ?V0 + 0,A
   \   00005A   78..         MOV     R0,#?V0 + 0
   \   00005C   12....       LCALL   ?PUSH_XSTACK_I_TWO
   \   00005F   7A..         MOV     R2,#`?<Constant "AvailablePowerSources...">` & 0xff
   \   000061   7B..         MOV     R3,#(`?<Constant "AvailablePowerSources...">` >> 8) & 0xff
   \   000063   12....       LCALL   ??Subroutine37_0 & 0xFFFF
   \                     ??CrossCallReturnLabel_92:
   \   000066   12....       LCALL   ?DEALLOC_XSTACK8
    632              AT_NEXT_LINE();
   \   000069                ; Setup parameters for call to function AT_HalUARTWrite
   \   000069   12....       LCALL   ?Subroutine19 & 0xFFFF
    633              printf("CurrentPowerSource:%02X",Rsp.pwrDesc.CurrentPowerSource);
   \                     ??CrossCallReturnLabel_28:
   \   00006C   12....       LCALL   ?XSTACK_DISP0_8
   \   00006F   A3           INC     DPTR
   \   000070   12....       LCALL   ?Subroutine12 & 0xFFFF
   \                     ??CrossCallReturnLabel_14:
   \   000073   12....       LCALL   ?PUSH_XSTACK_I_TWO
   \   000076   7A..         MOV     R2,#`?<Constant "CurrentPowerSource:%02X">` & 0xff
   \   000078   7B..         MOV     R3,#(`?<Constant "CurrentPowerSource:%02X">` >> 8) & 0xff
   \   00007A   12....       LCALL   ??Subroutine37_0 & 0xFFFF
   \                     ??CrossCallReturnLabel_93:
   \   00007D   12....       LCALL   ?DEALLOC_XSTACK8
    634              AT_NEXT_LINE();
   \   000080                ; Setup parameters for call to function AT_HalUARTWrite
   \   000080   12....       LCALL   ?Subroutine19 & 0xFFFF
    635              printf("CurrentPowerSourceLevel:%02X",Rsp.pwrDesc.CurrentPowerSourceLevel);
    636              
    637            }
   \                     ??CrossCallReturnLabel_29:
   \   000083   12....       LCALL   ?XSTACK_DISP0_8
   \   000086   E0           MOVX    A,@DPTR
   \   000087   F5..         MOV     ?V0 + 0,A
   \   000089   A3           INC     DPTR
   \   00008A   E0           MOVX    A,@DPTR
   \   00008B   F5..         MOV     ?V0 + 1,A
   \   00008D   740C         MOV     A,#0xc
   \   00008F   78..         MOV     R0,#?V0 + 0
   \   000091   12....       LCALL   ?US_SHR
   \   000094   78..         MOV     R0,#?V0 + 0
   \   000096   12....       LCALL   ?PUSH_XSTACK_I_TWO
   \   000099   7A..         MOV     R2,#`?<Constant "CurrentPowerSourceLev...">` & 0xff
   \   00009B   7B..         MOV     R3,#(`?<Constant "CurrentPowerSourceLev...">` >> 8) & 0xff
   \   00009D   12....       LCALL   ??Subroutine37_0 & 0xFFFF
   \                     ??CrossCallReturnLabel_94:
   \   0000A0   12....       LCALL   ?DEALLOC_XSTACK8
    638            AT_RESP_END();
   \                     ??AT_ZDO_ProcessPowerDescRsp_0:
   \   0000A3                ; Setup parameters for call to function AT_HalUARTWrite
   \   0000A3   7C02         MOV     R4,#0x2
   \   0000A5   7D00         MOV     R5,#0x0
   \   0000A7   7A..         MOV     R2,#`?<Constant "\\r\\n">` & 0xff
   \   0000A9   7B..         MOV     R3,#(`?<Constant "\\r\\n">` >> 8) & 0xff
   \   0000AB   7900         MOV     R1,#0x0
   \   0000AD   12....       LCALL   ??AT_HalUARTWrite?relay
    639          }
   \   0000B0   7405         MOV     A,#0x5
   \   0000B2   80..         SJMP    ??Subroutine41_0

   \                                 In  segment BANKED_CODE, align 1, keep-with-next
   \                     ?Subroutine12:
   \   000000   E0           MOVX    A,@DPTR
   \   000001   540F         ANL     A,#0xf
   \   000003   F5..         MOV     ?V0 + 0,A
   \   000005   78..         MOV     R0,#?V0 + 0
   \   000007   22           RET
    640          
    641          /**************************************************************
    642          Prompt 
    643                SimpleDesc:<NodeID>,<errorcode> 
    644                EP:XX 
    645                ProfileID:XXXX 
    646                DeviceID:XXXXvXX 
    647                InCluster:<Cluster List> 
    648                OutCluster:<Cluster List> 
    649          
    650                In case of an error, an errorcode other than 00 will be displayed and
    651                the prompt will end after the errorcode. <NodeID> is th
    652          
    653          ****************************************************************/

   \                                 In  segment BANKED_CODE, align 1, keep-with-next
    654          void AT_ZDO_ProcessSimpleDescRsp(zdoIncomingMsg_t *inMsg ){
   \                     AT_ZDO_ProcessSimpleDescRsp:
   \   000000   74F6         MOV     A,#-0xa
   \   000002   12....       LCALL   ?BANKED_ENTER_XDATA
   \   000005                ; Saved register size: 10
   \   000005                ; Auto size: 15
   \   000005   74F1         MOV     A,#-0xf
   \   000007   12....       LCALL   ?ALLOC_XSTACK8
    655             ZDO_SimpleDescRsp_t Rsp;
    656            ZDO_ParseSimpleDescRsp(inMsg, &Rsp );
   \   00000A                ; Setup parameters for call to function ZDO_ParseSimpleDescRsp
   \   00000A   85..82       MOV     DPL,?XSP + 0
   \   00000D   85..83       MOV     DPH,?XSP + 1
   \   000010   AC82         MOV     R4,DPL
   \   000012   AD83         MOV     R5,DPH
   \   000014   12....       LCALL   ??ZDO_ParseSimpleDescRsp?relay
    657            /*
    658            uint8  status;
    659            uint16 nwkAddr;   // Network address of interest
    660            SimpleDescriptionFormat_t simpleDesc;
    661            
    662            uint8          EndPoint;
    663            uint16         AppProfId;
    664            uint16         AppDeviceId;
    665            uint8          AppDevVer:4;
    666            uint8          Reserved:4;             // AF_V1_SUPPORT uses for AppFlags:4.
    667            uint8          AppNumInClusters;
    668            cId_t         *pAppInClusterList;
    669            uint8          AppNumOutClusters;
    670            cId_t         *pAppOutClusterList;
    671            */
    672            AT_RESP_START();
   \   000017                ; Setup parameters for call to function AT_HalUARTWrite
   \   000017   12....       LCALL   ?Subroutine6 & 0xFFFF
    673            
    674            printf("SimpleDesc:%04X,%02X",Rsp.nwkAddr,Rsp.status);
   \                     ??CrossCallReturnLabel_128:
   \   00001A   12....       LCALL   ?PUSH_XSTACK_I_TWO
   \   00001D   7403         MOV     A,#0x3
   \   00001F   12....       LCALL   ?XSTACK_DISP0_8
   \   000022   12....       LCALL   ?PUSH_XSTACK8_X_TWO
   \   000025   7A..         MOV     R2,#`?<Constant "SimpleDesc:%04X,%02X">` & 0xff
   \   000027   7B..         MOV     R3,#(`?<Constant "SimpleDesc:%04X,%02X">` >> 8) & 0xff
   \   000029   12....       LCALL   ??Subroutine40_0 & 0xFFFF
   \                     ??CrossCallReturnLabel_112:
   \   00002C   12....       LCALL   ?DEALLOC_XSTACK8
    675            if(Rsp.status==SUCCESS){
   \   00002F   85..82       MOV     DPL,?XSP + 0
   \   000032   85..83       MOV     DPH,?XSP + 1
   \   000035   E0           MOVX    A,@DPTR
   \   000036   6003         JZ      $+5
   \   000038   02....       LJMP    ??AT_ZDO_ProcessSimpleDescRsp_0 & 0xFFFF
    676              AT_NEXT_LINE();
   \   00003B                ; Setup parameters for call to function AT_HalUARTWrite
   \   00003B   12....       LCALL   ?Subroutine19 & 0xFFFF
    677              printf("EP:%02X",Rsp.simpleDesc.EndPoint);
   \                     ??CrossCallReturnLabel_30:
   \   00003E   12....       LCALL   ?XSTACK_DISP0_8
   \   000041   12....       LCALL   ??Subroutine42_0 & 0xFFFF
   \                     ??CrossCallReturnLabel_120:
   \   000044   12....       LCALL   ?PUSH_XSTACK_I_TWO
   \   000047   7A..         MOV     R2,#`?<Constant "EP:%02X">` & 0xff
   \   000049   7B..         MOV     R3,#(`?<Constant "EP:%02X">` >> 8) & 0xff
   \   00004B   12....       LCALL   ??Subroutine37_0 & 0xFFFF
   \                     ??CrossCallReturnLabel_95:
   \   00004E   12....       LCALL   ?DEALLOC_XSTACK8
    678              AT_NEXT_LINE();
   \   000051                ; Setup parameters for call to function AT_HalUARTWrite
   \   000051   7C02         MOV     R4,#0x2
   \   000053   7D00         MOV     R5,#0x0
   \   000055   7A..         MOV     R2,#`?<Constant "\\n\\r">` & 0xff
   \   000057   7B..         MOV     R3,#(`?<Constant "\\n\\r">` >> 8) & 0xff
   \   000059   7900         MOV     R1,#0x0
   \   00005B   12....       LCALL   ??AT_HalUARTWrite?relay
    679              printf("ProfileID:%04X",Rsp.simpleDesc.AppProfId);
   \   00005E                ; Setup parameters for call to function printf
   \   00005E   7404         MOV     A,#0x4
   \   000060   12....       LCALL   ?XSTACK_DISP0_8
   \   000063   12....       LCALL   ?PUSH_XSTACK8_X_TWO
   \   000066   7A..         MOV     R2,#`?<Constant "ProfileID:%04X">` & 0xff
   \   000068   7B..         MOV     R3,#(`?<Constant "ProfileID:%04X">` >> 8) & 0xff
   \   00006A   12....       LCALL   ??Subroutine37_0 & 0xFFFF
   \                     ??CrossCallReturnLabel_96:
   \   00006D   12....       LCALL   ?DEALLOC_XSTACK8
    680              AT_NEXT_LINE();
   \   000070                ; Setup parameters for call to function AT_HalUARTWrite
   \   000070   7C02         MOV     R4,#0x2
   \   000072   7D00         MOV     R5,#0x0
   \   000074   7A..         MOV     R2,#`?<Constant "\\n\\r">` & 0xff
   \   000076   7B..         MOV     R3,#(`?<Constant "\\n\\r">` >> 8) & 0xff
   \   000078   7900         MOV     R1,#0x0
   \   00007A   12....       LCALL   ??AT_HalUARTWrite?relay
    681              printf("DeviceID:%04Xv%02X",Rsp.simpleDesc.AppDeviceId,Rsp.simpleDesc.AppDevVer);
   \   00007D                ; Setup parameters for call to function printf
   \   00007D   7408         MOV     A,#0x8
   \   00007F   12....       LCALL   ?XSTACK_DISP0_8
   \   000082   12....       LCALL   ?Subroutine12 & 0xFFFF
   \                     ??CrossCallReturnLabel_15:
   \   000085   12....       LCALL   ?PUSH_XSTACK_I_TWO
   \   000088   7408         MOV     A,#0x8
   \   00008A   12....       LCALL   ?XSTACK_DISP0_8
   \   00008D   12....       LCALL   ?PUSH_XSTACK8_X_TWO
   \   000090   7A..         MOV     R2,#`?<Constant "DeviceID:%04Xv%02X">` & 0xff
   \   000092   7B..         MOV     R3,#(`?<Constant "DeviceID:%04Xv%02X">` >> 8) & 0xff
   \   000094   12....       LCALL   ??Subroutine40_0 & 0xFFFF
   \                     ??CrossCallReturnLabel_113:
   \   000097   12....       LCALL   ?DEALLOC_XSTACK8
    682              AT_NEXT_LINE();
   \   00009A                ; Setup parameters for call to function AT_HalUARTWrite
   \   00009A   7C02         MOV     R4,#0x2
   \   00009C   7D00         MOV     R5,#0x0
   \   00009E   7A..         MOV     R2,#`?<Constant "\\n\\r">` & 0xff
   \   0000A0   7B..         MOV     R3,#(`?<Constant "\\n\\r">` >> 8) & 0xff
   \   0000A2   7900         MOV     R1,#0x0
   \   0000A4   12....       LCALL   ??AT_HalUARTWrite?relay
    683              uint8 i;
    684              printf("InCluster: ");
   \   0000A7                ; Setup parameters for call to function printf
   \   0000A7   7A..         MOV     R2,#`?<Constant "InCluster: ">` & 0xff
   \   0000A9   7B..         MOV     R3,#(`?<Constant "InCluster: ">` >> 8) & 0xff
   \   0000AB   12....       LCALL   ??printf?relay
    685              for(i=0;i<Rsp.simpleDesc.AppNumInClusters;i++){
   \   0000AE   7E00         MOV     R6,#0x0
   \   0000B0   8023         SJMP    ??AT_ZDO_ProcessSimpleDescRsp_1
    686                  if(i) printf("           %04X",Rsp.simpleDesc.pAppInClusterList[i]);
    687                  else printf("%04X",Rsp.simpleDesc.pAppInClusterList[i]);
   \                     ??AT_ZDO_ProcessSimpleDescRsp_2:
   \   0000B2                ; Setup parameters for call to function printf
   \   0000B2   740A         MOV     A,#0xa
   \   0000B4   12....       LCALL   ?XSTACK_DISP0_8
   \   0000B7   12....       LCALL   ?Subroutine11 & 0xFFFF
   \                     ??CrossCallReturnLabel_11:
   \   0000BA   12....       LCALL   ?PUSH_XSTACK8_X_TWO
   \   0000BD   7A..         MOV     R2,#`?<Constant "%04X">` & 0xff
   \   0000BF   7B..         MOV     R3,#(`?<Constant "%04X">` >> 8) & 0xff
   \                     ??AT_ZDO_ProcessSimpleDescRsp_3:
   \   0000C1   12....       LCALL   ??Subroutine37_0 & 0xFFFF
   \                     ??CrossCallReturnLabel_97:
   \   0000C4   12....       LCALL   ?DEALLOC_XSTACK8
    688                  AT_NEXT_LINE();
   \   0000C7                ; Setup parameters for call to function AT_HalUARTWrite
   \   0000C7   7C02         MOV     R4,#0x2
   \   0000C9   7D00         MOV     R5,#0x0
   \   0000CB   7A..         MOV     R2,#`?<Constant "\\n\\r">` & 0xff
   \   0000CD   7B..         MOV     R3,#(`?<Constant "\\n\\r">` >> 8) & 0xff
   \   0000CF   7900         MOV     R1,#0x0
   \   0000D1   12....       LCALL   ??AT_HalUARTWrite?relay
   \   0000D4   0E           INC     R6
   \                     ??AT_ZDO_ProcessSimpleDescRsp_1:
   \   0000D5   7409         MOV     A,#0x9
   \   0000D7   12....       LCALL   ?XSTACK_DISP0_8
   \   0000DA   E0           MOVX    A,@DPTR
   \   0000DB   F8           MOV     R0,A
   \   0000DC   EE           MOV     A,R6
   \   0000DD   C3           CLR     C
   \   0000DE   98           SUBB    A,R0
   \   0000DF   501A         JNC     ??AT_ZDO_ProcessSimpleDescRsp_4
   \   0000E1   EE           MOV     A,R6
   \   0000E2   60CE         JZ      ??AT_ZDO_ProcessSimpleDescRsp_2
   \   0000E4                ; Setup parameters for call to function printf
   \   0000E4   C3           CLR     C
   \   0000E5   33           RLC     A
   \   0000E6   F8           MOV     R0,A
   \   0000E7   E4           CLR     A
   \   0000E8   33           RLC     A
   \   0000E9   F9           MOV     R1,A
   \   0000EA   740A         MOV     A,#0xa
   \   0000EC   12....       LCALL   ?XSTACK_DISP0_8
   \   0000EF   12....       LCALL   ?Subroutine13 & 0xFFFF
    689              }
   \                     ??CrossCallReturnLabel_16:
   \   0000F2   12....       LCALL   ?PUSH_XSTACK8_X_TWO
   \   0000F5   7A..         MOV     R2,#`?<Constant "           %04X">` & 0xff
   \   0000F7   7B..         MOV     R3,#(`?<Constant "           %04X">` >> 8) & 0xff
   \   0000F9   80C6         SJMP    ??AT_ZDO_ProcessSimpleDescRsp_3
    690              
    691              printf("OutCluster: ");
   \                     ??AT_ZDO_ProcessSimpleDescRsp_4:
   \   0000FB                ; Setup parameters for call to function printf
   \   0000FB   7A..         MOV     R2,#`?<Constant "OutCluster: ">` & 0xff
   \   0000FD   7B..         MOV     R3,#(`?<Constant "OutCluster: ">` >> 8) & 0xff
   \   0000FF   12....       LCALL   ??printf?relay
    692              for(i=0;i<Rsp.simpleDesc.AppNumOutClusters;i++){
   \   000102   7E00         MOV     R6,#0x0
   \   000104   803F         SJMP    ??AT_ZDO_ProcessSimpleDescRsp_5
    693                  if(i) printf("            %04X",Rsp.simpleDesc.pAppOutClusterList[i]); 
    694                  else printf("%04X",Rsp.simpleDesc.pAppOutClusterList[i]);
   \                     ??AT_ZDO_ProcessSimpleDescRsp_6:
   \   000106                ; Setup parameters for call to function printf
   \   000106   740D         MOV     A,#0xd
   \   000108   12....       LCALL   ?XSTACK_DISP0_8
   \   00010B   12....       LCALL   ?Subroutine11 & 0xFFFF
   \                     ??CrossCallReturnLabel_12:
   \   00010E   12....       LCALL   ?PUSH_XSTACK8_X_TWO
   \   000111   7A..         MOV     R2,#`?<Constant "%04X">` & 0xff
   \   000113   7B..         MOV     R3,#(`?<Constant "%04X">` >> 8) & 0xff
   \                     ??AT_ZDO_ProcessSimpleDescRsp_7:
   \   000115   12....       LCALL   ??Subroutine37_0 & 0xFFFF
   \                     ??CrossCallReturnLabel_98:
   \   000118   12....       LCALL   ?DEALLOC_XSTACK8
    695                  if(i<Rsp.simpleDesc.AppNumOutClusters-1) AT_NEXT_LINE();
   \   00011B   8E..         MOV     ?V0 + 0,R6
   \   00011D   740C         MOV     A,#0xc
   \   00011F   12....       LCALL   ?XSTACK_DISP0_8
   \   000122   E0           MOVX    A,@DPTR
   \   000123   24FF         ADD     A,#-0x1
   \   000125   F8           MOV     R0,A
   \   000126   E4           CLR     A
   \   000127   34FF         ADDC    A,#-0x1
   \   000129   F9           MOV     R1,A
   \   00012A   C3           CLR     C
   \   00012B   E5..         MOV     A,?V0 + 0
   \   00012D   98           SUBB    A,R0
   \   00012E   E4           CLR     A
   \   00012F   99           SUBB    A,R1
   \   000130   A2D2         MOV     C,0xD0 /* PSW */.2
   \   000132   65D0         XRL     A,PSW
   \   000134   33           RLC     A
   \   000135   500D         JNC     ??AT_ZDO_ProcessSimpleDescRsp_8
   \   000137                ; Setup parameters for call to function AT_HalUARTWrite
   \   000137   7C02         MOV     R4,#0x2
   \   000139   7D00         MOV     R5,#0x0
   \   00013B   7A..         MOV     R2,#`?<Constant "\\n\\r">` & 0xff
   \   00013D   7B..         MOV     R3,#(`?<Constant "\\n\\r">` >> 8) & 0xff
   \   00013F   7900         MOV     R1,#0x0
   \   000141   12....       LCALL   ??AT_HalUARTWrite?relay
   \                     ??AT_ZDO_ProcessSimpleDescRsp_8:
   \   000144   0E           INC     R6
   \                     ??AT_ZDO_ProcessSimpleDescRsp_5:
   \   000145   740C         MOV     A,#0xc
   \   000147   12....       LCALL   ?XSTACK_DISP0_8
   \   00014A   E0           MOVX    A,@DPTR
   \   00014B   F8           MOV     R0,A
   \   00014C   EE           MOV     A,R6
   \   00014D   C3           CLR     C
   \   00014E   98           SUBB    A,R0
   \   00014F   501A         JNC     ??AT_ZDO_ProcessSimpleDescRsp_0
   \   000151   EE           MOV     A,R6
   \   000152   60B2         JZ      ??AT_ZDO_ProcessSimpleDescRsp_6
   \   000154                ; Setup parameters for call to function printf
   \   000154   C3           CLR     C
   \   000155   33           RLC     A
   \   000156   F8           MOV     R0,A
   \   000157   E4           CLR     A
   \   000158   33           RLC     A
   \   000159   F9           MOV     R1,A
   \   00015A   740D         MOV     A,#0xd
   \   00015C   12....       LCALL   ?XSTACK_DISP0_8
   \   00015F   12....       LCALL   ?Subroutine13 & 0xFFFF
    696              }
    697            }
   \                     ??CrossCallReturnLabel_17:
   \   000162   12....       LCALL   ?PUSH_XSTACK8_X_TWO
   \   000165   7A..         MOV     R2,#`?<Constant "            %04X">` & 0xff
   \   000167   7B..         MOV     R3,#(`?<Constant "            %04X">` >> 8) & 0xff
   \   000169   80AA         SJMP    ??AT_ZDO_ProcessSimpleDescRsp_7
    698            
    699            AT_RESP_END();
   \                     ??AT_ZDO_ProcessSimpleDescRsp_0:
   \   00016B                ; Setup parameters for call to function AT_HalUARTWrite
   \   00016B   7C02         MOV     R4,#0x2
   \   00016D   7D00         MOV     R5,#0x0
   \   00016F   7A..         MOV     R2,#`?<Constant "\\r\\n">` & 0xff
   \   000171   7B..         MOV     R3,#(`?<Constant "\\r\\n">` >> 8) & 0xff
   \   000173   7900         MOV     R1,#0x0
   \   000175   12....       LCALL   ??AT_HalUARTWrite?relay
    700          }
   \   000178   740F         MOV     A,#0xf
   \   00017A   02....       LJMP    ??Subroutine41_0 & 0xFFFF

   \                                 In  segment BANKED_CODE, align 1, keep-with-next
   \                     ?Subroutine13:
   \   000000   E0           MOVX    A,@DPTR
   \   000001   28           ADD     A,R0
   \   000002   FA           MOV     R2,A
   \   000003   A3           INC     DPTR
   \   000004   E0           MOVX    A,@DPTR
   \   000005   39           ADDC    A,R1
   \   000006   8A82         MOV     DPL,R2
   \   000008   F583         MOV     DPH,A
   \   00000A   22           RET
    701          
    702          /**************************************************************
    703          Prompt 
    704              ActEpDesc:<NodeID>,<errorcode>[,XX,] 
    705                    <NodeID> is the Remote nodes NodeID. In addition all active endpoints 
    706                              are listed as 8-bit hexadecimal numbers separated by commas. 
    707                              In case of an error an errorcode other than 00 will be displayed
    708                              and the prompt will end after the errorcode
    709          
    710          ****************************************************************/

   \                                 In  segment BANKED_CODE, align 1, keep-with-next
   \                     ?Subroutine9:
   \   000000   85....       MOV     ?V0 + 0,?V0 + 2
   \   000003   EE           MOV     A,R6
   \   000004   25..         ADD     A,?V0 + 0
   \   000006   F582         MOV     DPL,A
   \   000008   EF           MOV     A,R7
   \   000009   3400         ADDC    A,#0x0
   \   00000B   F583         MOV     DPH,A
   \   00000D   A3           INC     DPTR
   \   00000E   A3           INC     DPTR
   \   00000F   A3           INC     DPTR
   \   000010   A3           INC     DPTR
   \   000011                REQUIRE ??Subroutine42_0
   \   000011                ; // Fall through to label ??Subroutine42_0

   \                                 In  segment BANKED_CODE, align 1, keep-with-next
    711          void AT_ZDO_ProcessActEPRsp(zdoIncomingMsg_t *inMsg ){
   \                     AT_ZDO_ProcessActEPRsp:
   \   000000   74F5         MOV     A,#-0xb
   \   000002   12....       LCALL   ?BANKED_ENTER_XDATA
   \   000005                ; Saved register size: 11
   \   000005                ; Auto size: 0
    712            ZDO_ActiveEndpointRsp_t * pRsp = ZDO_ParseEPListRsp(inMsg );
   \   000005                ; Setup parameters for call to function ZDO_ParseEPListRsp
   \   000005   12....       LCALL   ?Subroutine22 & 0xFFFF
    713            
    714            AT_RESP_START();
    715            printf("ActEpDesc:%04X,%02X",pRsp->nwkAddr,pRsp->status);
   \                     ??CrossCallReturnLabel_123:
   \   000008   12....       LCALL   ??Subroutine44_0 & 0xFFFF
   \                     ??CrossCallReturnLabel_134:
   \   00000B   12....       LCALL   ?PUSH_XSTACK_I_TWO
   \   00000E   8E82         MOV     DPL,R6
   \   000010   8F83         MOV     DPH,R7
   \   000012   A3           INC     DPTR
   \   000013   12....       LCALL   ?PUSH_XSTACK8_X_TWO
   \   000016   7A..         MOV     R2,#`?<Constant "ActEpDesc:%04X,%02X">` & 0xff
   \   000018   7B..         MOV     R3,#(`?<Constant "ActEpDesc:%04X,%02X">` >> 8) & 0xff
   \   00001A   12....       LCALL   ??Subroutine40_0 & 0xFFFF
   \                     ??CrossCallReturnLabel_114:
   \   00001D   12....       LCALL   ?DEALLOC_XSTACK8
    716            if(pRsp->status==SUCCESS){
   \   000020   8E82         MOV     DPL,R6
   \   000022   8F83         MOV     DPH,R7
   \   000024   E0           MOVX    A,@DPTR
   \   000025   701C         JNZ     ??AT_ZDO_ProcessActEPRsp_0
    717              uint8 i;
    718              for(i=0;i<pRsp->cnt;i++){
   \   000027   75..00       MOV     ?V0 + 2,#0x0
   \   00002A   8012         SJMP    ??AT_ZDO_ProcessActEPRsp_1
    719                printf(",%02X",pRsp->epList[i]);
   \                     ??AT_ZDO_ProcessActEPRsp_2:
   \   00002C                ; Setup parameters for call to function printf
   \   00002C   12....       LCALL   ?Subroutine9 & 0xFFFF
    720              }
   \                     ??CrossCallReturnLabel_121:
   \   00002F   12....       LCALL   ?PUSH_XSTACK_I_TWO
   \   000032   7A..         MOV     R2,#`?<Constant ",%02X">` & 0xff
   \   000034   7B..         MOV     R3,#(`?<Constant ",%02X">` >> 8) & 0xff
   \   000036   12....       LCALL   ??Subroutine37_0 & 0xFFFF
   \                     ??CrossCallReturnLabel_99:
   \   000039   12....       LCALL   ?DEALLOC_XSTACK8
   \   00003C   05..         INC     ?V0 + 2
   \                     ??AT_ZDO_ProcessActEPRsp_1:
   \   00003E   12....       LCALL   ?Subroutine10 & 0xFFFF
    721            }
   \                     ??CrossCallReturnLabel_8:
   \   000041   40E9         JC      ??AT_ZDO_ProcessActEPRsp_2
    722            AT_RESP_END();
   \                     ??AT_ZDO_ProcessActEPRsp_0:
   \   000043                ; Setup parameters for call to function AT_HalUARTWrite
   \   000043   02....       LJMP    ?Subroutine2 & 0xFFFF
    723            osal_mem_free(pRsp);
    724          }

   \                                 In  segment BANKED_CODE, align 1, keep-with-next
   \                     ?Subroutine22:
   \   000000   12....       LCALL   ??ZDO_ParseEPListRsp?relay
   \   000003   8A..         MOV     ?V0 + 0,R2
   \   000005   8B..         MOV     ?V0 + 1,R3
   \   000007   AE..         MOV     R6,?V0 + 0
   \   000009   AF..         MOV     R7,?V0 + 1
   \   00000B                ; Setup parameters for call to function AT_HalUARTWrite
   \   00000B                ; Setup parameters for call to function AT_HalUARTWrite
   \   00000B                REQUIRE ??Subroutine43_0
   \   00000B                ; // Fall through to label ??Subroutine43_0
    725          
    726          /**************************************************************
    727          +MATCHREQ C Find Nodes which Match a Specific Descriptor
    728          Prompt 
    729                MatchDesc:<NodeID>,<errorcode>,XX, 
    730          
    731                In case of an error an errorcode other than 00 will be displayed 
    732                and the prompt will end after the errorcode.
    733          
    734          ****************************************************************/

   \                                 In  segment BANKED_CODE, align 1, keep-with-next
    735          void AT_ZDO_ProcessMatchDescRsp(zdoIncomingMsg_t *inMsg ){
   \                     AT_ZDO_ProcessMatchDescRsp:
   \   000000   74F5         MOV     A,#-0xb
   \   000002   12....       LCALL   ?BANKED_ENTER_XDATA
   \   000005                ; Saved register size: 11
   \   000005                ; Auto size: 0
    736            ZDO_ActiveEndpointRsp_t * pRsp = ZDO_ParseEPListRsp(inMsg );
   \   000005                ; Setup parameters for call to function ZDO_ParseEPListRsp
   \   000005   12....       LCALL   ?Subroutine22 & 0xFFFF
    737            
    738            AT_RESP_START();
    739            printf("MatchDesc:%04X,%02X",pRsp->nwkAddr,pRsp->status);
   \                     ??CrossCallReturnLabel_124:
   \   000008   12....       LCALL   ??Subroutine44_0 & 0xFFFF
   \                     ??CrossCallReturnLabel_135:
   \   00000B   12....       LCALL   ?PUSH_XSTACK_I_TWO
   \   00000E   8E82         MOV     DPL,R6
   \   000010   8F83         MOV     DPH,R7
   \   000012   A3           INC     DPTR
   \   000013   12....       LCALL   ?PUSH_XSTACK8_X_TWO
   \   000016   7A..         MOV     R2,#`?<Constant "MatchDesc:%04X,%02X">` & 0xff
   \   000018   7B..         MOV     R3,#(`?<Constant "MatchDesc:%04X,%02X">` >> 8) & 0xff
   \   00001A   12....       LCALL   ??Subroutine40_0 & 0xFFFF
   \                     ??CrossCallReturnLabel_115:
   \   00001D   12....       LCALL   ?DEALLOC_XSTACK8
    740            if(pRsp->status==SUCCESS){
   \   000020   8E82         MOV     DPL,R6
   \   000022   8F83         MOV     DPH,R7
   \   000024   E0           MOVX    A,@DPTR
   \   000025   701C         JNZ     ??AT_ZDO_ProcessMatchDescRsp_0
    741              uint8 i;
    742              for(i=0;i<pRsp->cnt;i++){
   \   000027   75..00       MOV     ?V0 + 2,#0x0
   \   00002A   8012         SJMP    ??AT_ZDO_ProcessMatchDescRsp_1
    743                printf(",%02X",pRsp->epList[i]);
   \                     ??AT_ZDO_ProcessMatchDescRsp_2:
   \   00002C                ; Setup parameters for call to function printf
   \   00002C   12....       LCALL   ?Subroutine9 & 0xFFFF
    744              }
   \                     ??CrossCallReturnLabel_122:
   \   00002F   12....       LCALL   ?PUSH_XSTACK_I_TWO
   \   000032   7A..         MOV     R2,#`?<Constant ",%02X">` & 0xff
   \   000034   7B..         MOV     R3,#(`?<Constant ",%02X">` >> 8) & 0xff
   \   000036   12....       LCALL   ??Subroutine37_0 & 0xFFFF
   \                     ??CrossCallReturnLabel_100:
   \   000039   12....       LCALL   ?DEALLOC_XSTACK8
   \   00003C   05..         INC     ?V0 + 2
   \                     ??AT_ZDO_ProcessMatchDescRsp_1:
   \   00003E   12....       LCALL   ?Subroutine10 & 0xFFFF
    745            }
   \                     ??CrossCallReturnLabel_9:
   \   000041   40E9         JC      ??AT_ZDO_ProcessMatchDescRsp_2
    746            AT_RESP_END();
   \                     ??AT_ZDO_ProcessMatchDescRsp_0:
   \   000043                ; Setup parameters for call to function AT_HalUARTWrite
   \   000043   02....       LJMP    ?Subroutine2 & 0xFFFF
    747            osal_mem_free(pRsp);
    748          }
    749          
    750          /**************************************************************
    751          +ANNCE C Announce Local Device In The Network
    752              Prompt 
    753                    FFD:<EUI64>,<NodeID> 
    754                    The prompt above will be displayed on all nodes which can hear the announcement.
    755          ****************************************************************/

   \                                 In  segment BANKED_CODE, align 1, keep-with-next
    756          void AT_ZDO_ProcessAnnceRsp(zdoIncomingMsg_t *inMsg ){
   \                     AT_ZDO_ProcessAnnceRsp:
   \   000000   74F6         MOV     A,#-0xa
   \   000002   12....       LCALL   ?BANKED_ENTER_XDATA
   \   000005                ; Saved register size: 10
   \   000005                ; Auto size: 11
   \   000005   74F5         MOV     A,#-0xb
   \   000007   12....       LCALL   ?ALLOC_XSTACK8
    757            ZDO_DeviceAnnce_t Rsp;
    758            ZDO_ParseDeviceAnnce( inMsg,&Rsp );
   \   00000A                ; Setup parameters for call to function ZDO_ParseDeviceAnnce
   \   00000A   85..82       MOV     DPL,?XSP + 0
   \   00000D   85..83       MOV     DPH,?XSP + 1
   \   000010   AC82         MOV     R4,DPL
   \   000012   AD83         MOV     R5,DPH
   \   000014   12....       LCALL   ??ZDO_ParseDeviceAnnce?relay
    759          
    760            uint16* ext= (uint16*) Rsp.extAddr;
    761            AT_RESP_START();
   \   000017                ; Setup parameters for call to function AT_HalUARTWrite
   \   000017   7C02         MOV     R4,#0x2
   \   000019   7D00         MOV     R5,#0x0
   \   00001B   7A..         MOV     R2,#`?<Constant "\\r\\n">` & 0xff
   \   00001D   7B..         MOV     R3,#(`?<Constant "\\r\\n">` >> 8) & 0xff
   \   00001F   7900         MOV     R1,#0x0
   \   000021   12....       LCALL   ??AT_HalUARTWrite?relay
    762            printf("%s:%04X%04X%04X%04X,%04X",
    763                   (Rsp.capabilities&0x03) == CAPINFO_ALTPANCOORD ? "COORD" :
    764                   (Rsp.capabilities&0x03) == CAPINFO_DEVICETYPE_FFD ? "FFD" : "RFD"
    765                   ,ext[3],ext[2],ext[1],ext[0],Rsp.nwkAddr);
   \   000024   740A         MOV     A,#0xa
   \   000026   12....       LCALL   ?XSTACK_DISP0_8
   \   000029   E0           MOVX    A,@DPTR
   \   00002A   5403         ANL     A,#0x3
   \   00002C   6401         XRL     A,#0x1
   \   00002E   7008         JNZ     ??AT_ZDO_ProcessAnnceRsp_0
   \   000030   75....       MOV     ?V0 + 0,#`?<Constant "COORD">` & 0xff
   \   000033   75....       MOV     ?V0 + 1,#(`?<Constant "COORD">` >> 8) & 0xff
   \   000036   8015         SJMP    ??AT_ZDO_ProcessAnnceRsp_1
   \                     ??AT_ZDO_ProcessAnnceRsp_0:
   \   000038   E0           MOVX    A,@DPTR
   \   000039   5403         ANL     A,#0x3
   \   00003B   6402         XRL     A,#0x2
   \   00003D   7008         JNZ     ??AT_ZDO_ProcessAnnceRsp_2
   \   00003F   75....       MOV     ?V0 + 0,#`?<Constant "FFD">` & 0xff
   \   000042   75....       MOV     ?V0 + 1,#(`?<Constant "FFD">` >> 8) & 0xff
   \   000045   8006         SJMP    ??AT_ZDO_ProcessAnnceRsp_1
   \                     ??AT_ZDO_ProcessAnnceRsp_2:
   \   000047   75....       MOV     ?V0 + 0,#`?<Constant "RFD">` & 0xff
   \   00004A   75....       MOV     ?V0 + 1,#(`?<Constant "RFD">` >> 8) & 0xff
   \                     ??AT_ZDO_ProcessAnnceRsp_1:
   \   00004D                ; Setup parameters for call to function printf
   \   00004D   85..82       MOV     DPL,?XSP + 0
   \   000050   85..83       MOV     DPH,?XSP + 1
   \   000053   12....       LCALL   ?PUSH_XSTACK8_X_TWO
   \   000056   7404         MOV     A,#0x4
   \   000058   12....       LCALL   ?XSTACK_DISP0_8
   \   00005B   12....       LCALL   ?PUSH_XSTACK8_X_TWO
   \   00005E   7408         MOV     A,#0x8
   \   000060   12....       LCALL   ?XSTACK_DISP0_8
   \   000063   12....       LCALL   ?PUSH_XSTACK8_X_TWO
   \   000066   740C         MOV     A,#0xc
   \   000068   12....       LCALL   ?XSTACK_DISP0_8
   \   00006B   12....       LCALL   ?PUSH_XSTACK8_X_TWO
   \   00006E   7410         MOV     A,#0x10
   \   000070   12....       LCALL   ?XSTACK_DISP0_8
   \   000073   12....       LCALL   ?PUSH_XSTACK8_X_TWO
   \   000076   78..         MOV     R0,#?V0 + 0
   \   000078   12....       LCALL   ?PUSH_XSTACK_I_TWO
   \   00007B   7A..         MOV     R2,#`?<Constant "%s:%04X%04X%04X%04X,%04X">` & 0xff
   \   00007D   7B..         MOV     R3,#(`?<Constant "%s:%04X%04X%04X%04X,%04X">` >> 8) & 0xff
   \   00007F   12....       LCALL   ??printf?relay
   \   000082   740C         MOV     A,#0xc
   \   000084   12....       LCALL   ?DEALLOC_XSTACK8
    766            AT_RESP_END();
   \   000087                ; Setup parameters for call to function AT_HalUARTWrite
   \   000087   7C02         MOV     R4,#0x2
   \   000089   7D00         MOV     R5,#0x0
   \   00008B   7A..         MOV     R2,#`?<Constant "\\r\\n">` & 0xff
   \   00008D   7B..         MOV     R3,#(`?<Constant "\\r\\n">` >> 8) & 0xff
   \   00008F   7900         MOV     R1,#0x0
   \   000091   12....       LCALL   ??AT_HalUARTWrite?relay
    767            
    768              /*
    769            // CapabilityFlags Bitmap values
    770          #define CAPINFO_ALTPANCOORD           0x01
    771          #define CAPINFO_DEVICETYPE_FFD        0x02
    772          #define CAPINFO_DEVICETYPE_RFD        0x00
    773          #define CAPINFO_POWER_AC              0x04
    774          #define CAPINFO_RCVR_ON_IDLE          0x08
    775          #define CAPINFO_SECURITY_CAPABLE      0x40
    776          #define CAPINFO_ALLOC_ADDR            0x80*/
    777          }
   \   000094   740B         MOV     A,#0xb
   \   000096   02....       LJMP    ??Subroutine41_0 & 0xFFFF

   \                                 In  segment BANK_RELAYS, align 1
   \                     ??AT_ZDO_Register?relay:
   \   000000   12....       LCALL   ?BDISPATCH
   \   000003   ......       DC24    AT_ZDO_Register

   \                                 In  segment BANK_RELAYS, align 1
   \                     ??AT_ZDO_ProcessMsgCBs?relay:
   \   000000   12....       LCALL   ?BDISPATCH
   \   000003   ......       DC24    AT_ZDO_ProcessMsgCBs

   \                                 In  segment BANK_RELAYS, align 1
   \                     ??AT_ZDO_ProcessLqiRsp?relay:
   \   000000   12....       LCALL   ?BDISPATCH
   \   000003   ......       DC24    AT_ZDO_ProcessLqiRsp

   \                                 In  segment BANK_RELAYS, align 1
   \                     ??AT_ZDO_ProcessRtgRsp?relay:
   \   000000   12....       LCALL   ?BDISPATCH
   \   000003   ......       DC24    AT_ZDO_ProcessRtgRsp

   \                                 In  segment BANK_RELAYS, align 1
   \                     ??AT_ZDO_ProcessNwkDiscRsp?relay:
   \   000000   12....       LCALL   ?BDISPATCH
   \   000003   ......       DC24    AT_ZDO_ProcessNwkDiscRsp

   \                                 In  segment BANK_RELAYS, align 1
   \                     ??AT_ZDO_ProcessMgmtBindRsp?relay:
   \   000000   12....       LCALL   ?BDISPATCH
   \   000003   ......       DC24    AT_ZDO_ProcessMgmtBindRsp

   \                                 In  segment BANK_RELAYS, align 1
   \                     ??AT_ZDO_ProcessBindRsp?relay:
   \   000000   12....       LCALL   ?BDISPATCH
   \   000003   ......       DC24    AT_ZDO_ProcessBindRsp

   \                                 In  segment BANK_RELAYS, align 1
   \                     ??AT_ZDO_ProcessUnbindRsp?relay:
   \   000000   12....       LCALL   ?BDISPATCH
   \   000003   ......       DC24    AT_ZDO_ProcessUnbindRsp

   \                                 In  segment BANK_RELAYS, align 1
   \                     ??AT_ZDO_ProcessEDbindRsp?relay:
   \   000000   12....       LCALL   ?BDISPATCH
   \   000003   ......       DC24    AT_ZDO_ProcessEDbindRsp

   \                                 In  segment BANK_RELAYS, align 1
   \                     ??AT_ZDO_ProcessMgmtLeaveRsp?relay:
   \   000000   12....       LCALL   ?BDISPATCH
   \   000003   ......       DC24    AT_ZDO_ProcessMgmtLeaveRsp

   \                                 In  segment BANK_RELAYS, align 1
   \                     ??AT_ZDO_ProcessNWKDISC_CB?relay:
   \   000000   12....       LCALL   ?BDISPATCH
   \   000003   ......       DC24    AT_ZDO_ProcessNWKDISC_CB

   \                                 In  segment BANK_RELAYS, align 1
   \                     ??AT_ZDO_ProcessJOIN_CNF_CB?relay:
   \   000000   12....       LCALL   ?BDISPATCH
   \   000003   ......       DC24    AT_ZDO_ProcessJOIN_CNF_CB

   \                                 In  segment BANK_RELAYS, align 1
   \                     ??AT_ZDO_ProcessLEAVE_CNF_CB?relay:
   \   000000   12....       LCALL   ?BDISPATCH
   \   000003   ......       DC24    AT_ZDO_ProcessLEAVE_CNF_CB

   \                                 In  segment BANK_RELAYS, align 1
   \                     ??AT_ZDO_ProcessNodeDescRsp?relay:
   \   000000   12....       LCALL   ?BDISPATCH
   \   000003   ......       DC24    AT_ZDO_ProcessNodeDescRsp

   \                                 In  segment BANK_RELAYS, align 1
   \                     ??AT_ZDO_ProcessPowerDescRsp?relay:
   \   000000   12....       LCALL   ?BDISPATCH
   \   000003   ......       DC24    AT_ZDO_ProcessPowerDescRsp

   \                                 In  segment BANK_RELAYS, align 1
   \                     ??AT_ZDO_ProcessSimpleDescRsp?relay:
   \   000000   12....       LCALL   ?BDISPATCH
   \   000003   ......       DC24    AT_ZDO_ProcessSimpleDescRsp

   \                                 In  segment BANK_RELAYS, align 1
   \                     ??AT_ZDO_ProcessActEPRsp?relay:
   \   000000   12....       LCALL   ?BDISPATCH
   \   000003   ......       DC24    AT_ZDO_ProcessActEPRsp

   \                                 In  segment BANK_RELAYS, align 1
   \                     ??AT_ZDO_ProcessMatchDescRsp?relay:
   \   000000   12....       LCALL   ?BDISPATCH
   \   000003   ......       DC24    AT_ZDO_ProcessMatchDescRsp

   \                                 In  segment BANK_RELAYS, align 1
   \                     ??AT_ZDO_ProcessAnnceRsp?relay:
   \   000000   12....       LCALL   ?BDISPATCH
   \   000003   ......       DC24    AT_ZDO_ProcessAnnceRsp

   \                                 In  segment XDATA_ROM_C, align 1
   \                     `?<Constant "\\r\\n">`:
   \   000000   0D0A00       DB "\015\012"

   \                                 In  segment XDATA_ROM_C, align 1
   \                     `?<Constant ",">`:
   \   000000   2C00         DB ","

   \                                 In  segment XDATA_ROM_C, align 1
   \                     `?<Constant "\\n\\r">`:
   \   000000   0A0D00       DB "\012\015"

   \                                 In  segment XDATA_ROM_C, align 1
   \                     `?<Constant "NTABLE:%04X,%02X\\n\\r">`:
   \   000000   4E544142     DB "NTABLE:%04X,%02X\012\015"
   \            4C453A25
   \            3034582C
   \            25303258
   \            0A0D00  

   \                                 In  segment XDATA_ROM_C, align 1
   \                     `?<Constant "Length:%02X\\n\\r">`:
   \   000000   4C656E67     DB "Length:%02X\012\015"
   \            74683A25
   \            3032580A
   \            0D00    

   \                                 In  segment XDATA_ROM_C, align 1
   \                     `?<Constant "No.|  Type  |Relation...">`:
   \   000000   4E6F2E7C     DB 4EH, 6FH, 2EH, 7CH, 20H, 20H, 54H, 79H
   \            20205479
   \   000008   70652020     DB 70H, 65H, 20H, 20H, 7CH, 52H, 65H, 6CH
   \            7C52656C
   \   000010   6174696F     DB 61H, 74H, 69H, 6FH, 6EH, 7CH, 20H, 20H
   \            6E7C2020
   \   000018   20202020     DB 20H, 20H, 20H, 20H, 20H, 45H, 55H, 49H
   \            20455549
   \   000020   20202020     DB 20H, 20H, 20H, 20H, 20H, 20H, 20H, 20H
   \            20202020
   \   000028   7C202049     DB 7CH, 20H, 20H, 49H, 44H, 20H, 20H, 7CH
   \            4420207C
   \   000030   204C5149     DB 20H, 4CH, 51H, 49H, 0AH, 0DH, 0
   \            0A0D00  

   \                                 In  segment XDATA_ROM_C, align 1
   \                     `?<Constant "\\n\\r%X. | ">`:
   \   000000   0A0D2558     DB "\012\015%X. | "
   \            2E207C20
   \            00      

   \                                 In  segment XDATA_ROM_C, align 1
   \                     `?<Constant "%-7s| ">`:
   \   000000   252D3773     DB "%-7s| "
   \            7C2000  

   \                                 In  segment XDATA_ROM_C, align 1
   \                     `?<Constant "COORD">`:
   \   000000   434F4F52     DB "COORD"
   \            4400    

   \                                 In  segment XDATA_ROM_C, align 1
   \                     `?<Constant "ROUTER">`:
   \   000000   524F5554     DB "ROUTER"
   \            455200  

   \                                 In  segment XDATA_ROM_C, align 1
   \                     `?<Constant "ENDDEV">`:
   \   000000   454E4444     DB "ENDDEV"
   \            455600  

   \                                 In  segment XDATA_ROM_C, align 1
   \                     `?<Constant "%-s| ">`:
   \   000000   252D737C     DB "%-s| "
   \            2000    

   \                                 In  segment XDATA_ROM_C, align 1
   \                     `?<Constant "UNKNOWN">`:
   \   000000   554E4B4E     DB "UNKNOWN"
   \            4F574E00

   \                                 In  segment XDATA_ROM_C, align 1
   \                     `?<Constant "PARENT">`:
   \   000000   50415245     DB "PARENT"
   \            4E5400  

   \                                 In  segment XDATA_ROM_C, align 1
   \                     `?<Constant "CHILD">`:
   \   000000   4348494C     DB "CHILD"
   \            4400    

   \                                 In  segment XDATA_ROM_C, align 1
   \                     `?<Constant "SIBLING">`:
   \   000000   5349424C     DB "SIBLING"
   \            494E4700

   \                                 In  segment XDATA_ROM_C, align 1
   \                     `?<Constant "%04X%04X%04X%04X | %0...">`:
   \   000000   25303458     DB "%04X%04X%04X%04X | %04X | %02X"
   \            25303458
   \            25303458
   \            25303458
   \            207C2025
   \            30345820
   \            7C202530
   \            325800  

   \                                 In  segment XDATA_ROM_C, align 1
   \                     `?<Constant "No.| Dest | Next | St...">`:
   \   000000   4E6F2E7C     DB "No.| Dest | Next | Status\012\015"
   \            20446573
   \            74207C20
   \            4E657874
   \            207C2053
   \            74617475
   \            730A0D00

   \                                 In  segment XDATA_ROM_C, align 1
   \                     `?<Constant "\\n\\r%X. | %04X | %04X |...">`:
   \   000000   0A0D2558     DB "\012\015%X. | %04X | %04X | %02X"
   \            2E207C20
   \            25303458
   \            207C2025
   \            30345820
   \            7C202530
   \            325800  

   \                                 In  segment XDATA_ROM_C, align 1
   \                     `?<Constant "%d:%d">`:
   \   000000   25643A25     DB "%d:%d"
   \            6400    

   \                                 In  segment XDATA_ROM_C, align 1
   \                     `?<Constant "Length:%02X">`:
   \   000000   4C656E67     DB "Length:%02X"
   \            74683A25
   \            30325800

   \                                 In  segment XDATA_ROM_C, align 1
   \                     `?<Constant "No. |     SrcAddr    ...">`:
   \   000000   4E6F2E20     DB 4EH, 6FH, 2EH, 20H, 7CH, 20H, 20H, 20H
   \            7C202020
   \   000008   20205372     DB 20H, 20H, 53H, 72H, 63H, 41H, 64H, 64H
   \            63416464
   \   000010   72202020     DB 72H, 20H, 20H, 20H, 20H, 20H, 20H, 7CH
   \            2020207C
   \   000018   20537263     DB 20H, 53H, 72H, 63H, 45H, 50H, 20H, 7CH
   \            4550207C
   \   000020   20436C75     DB 20H, 43H, 6CH, 75H, 73H, 74H, 65H, 72H
   \            73746572
   \   000028   4944207C     DB 49H, 44H, 20H, 7CH, 20H, 20H, 20H, 20H
   \            20202020
   \   000030   20447374     DB 20H, 44H, 73H, 74H, 41H, 64H, 64H, 72H
   \            41646472
   \   000038   20202020     DB 20H, 20H, 20H, 20H, 20H, 20H, 7CH, 20H
   \            20207C20
   \   000040   44737445     DB 44H, 73H, 74H, 45H, 50H, 0
   \            5000    

   \                                 In  segment XDATA_ROM_C, align 1
   \                     `?<Constant "| %02X">`:
   \   000000   7C202530     DB "| %02X"
   \            325800  

   \                                 In  segment XDATA_ROM_C, align 1
   \                     `?<Constant "%04X">`:
   \   000000   25303458     DB "%04X"
   \            00      

   \                                 In  segment XDATA_ROM_C, align 1
   \                     `?<Constant "%02X. | %04X%04X%04X%...">`:
   \   000000   25303258     DB 25H, 30H, 32H, 58H, 2EH, 20H, 7CH, 20H
   \            2E207C20
   \   000008   25303458     DB 25H, 30H, 34H, 58H, 25H, 30H, 34H, 58H
   \            25303458
   \   000010   25303458     DB 25H, 30H, 34H, 58H, 25H, 30H, 34H, 58H
   \            25303458
   \   000018   207C2020     DB 20H, 7CH, 20H, 20H, 25H, 30H, 32H, 58H
   \            25303258
   \   000020   2020207C     DB 20H, 20H, 20H, 7CH, 20H, 20H, 20H, 25H
   \            20202025
   \   000028   30345820     DB 30H, 34H, 58H, 20H, 20H, 20H, 20H, 7CH
   \            2020207C
   \   000030   20257320     DB 20H, 25H, 73H, 20H, 25H, 73H, 20H, 0
   \            25732000

   \                                 In  segment XDATA_ROM_C, align 1
   \                     `?<Constant "Bind:%04X,%02X">`:
   \   000000   42696E64     DB "Bind:%04X,%02X"
   \            3A253034
   \            582C2530
   \            325800  

   \                                 In  segment XDATA_ROM_C, align 1
   \                     `?<Constant "Bind:UNKNOWN,%02X">`:
   \   000000   42696E64     DB "Bind:UNKNOWN,%02X"
   \            3A554E4B
   \            4E4F574E
   \            2C253032
   \            5800    

   \                                 In  segment XDATA_ROM_C, align 1
   \                     `?<Constant "Unbind:%04X,%02X">`:
   \   000000   556E6269     DB "Unbind:%04X,%02X"
   \            6E643A25
   \            3034582C
   \            25303258
   \            00      

   \                                 In  segment XDATA_ROM_C, align 1
   \                     `?<Constant "Unbind:UNKNOWN,%02X">`:
   \   000000   556E6269     DB "Unbind:UNKNOWN,%02X"
   \            6E643A55
   \            4E4B4E4F
   \            574E2C25
   \            30325800

   \                                 In  segment XDATA_ROM_C, align 1
   \                     `?<Constant "Ebind:%04X,%02X">`:
   \   000000   4562696E     DB "Ebind:%04X,%02X"
   \            643A2530
   \            34582C25
   \            30325800

   \                                 In  segment XDATA_ROM_C, align 1
   \                     `?<Constant "Ebind:UNKNOWN,%02X">`:
   \   000000   4562696E     DB "Ebind:UNKNOWN,%02X"
   \            643A554E
   \            4B4E4F57
   \            4E2C2530
   \            325800  

   \                                 In  segment XDATA_ROM_C, align 1
   \                     `?<Constant "LeftPAN">`:
   \   000000   4C656674     DB "LeftPAN"
   \            50414E00

   \                                 In  segment XDATA_ROM_C, align 1
   \                     `?<Constant "failed:%02X">`:
   \   000000   6661696C     DB "failed:%02X"
   \            65643A25
   \            30325800

   \                                 In  segment XDATA_ROM_C, align 1
   \                     `?<Constant "%d result(s)\\n\\r">`:
   \   000000   25642072     DB "%d result(s)\012\015"
   \            6573756C
   \            74287329
   \            0A0D00  

   \                                 In  segment XDATA_ROM_C, align 1
   \                     `?<Constant "channel | PANID | EPA...">`:
   \   000000   6368616E     DB 63H, 68H, 61H, 6EH, 6EH, 65H, 6CH, 20H
   \            6E656C20
   \   000008   7C205041     DB 7CH, 20H, 50H, 41H, 4EH, 49H, 44H, 20H
   \            4E494420
   \   000010   7C204550     DB 7CH, 20H, 45H, 50H, 41H, 4EH, 49H, 44H
   \            414E4944
   \   000018   207C2053     DB 20H, 7CH, 20H, 53H, 74H, 61H, 63H, 6BH
   \            7461636B
   \   000020   50726F66     DB 50H, 72H, 6FH, 66H, 69H, 6CH, 65H, 20H
   \            696C6520
   \   000028   7C204C51     DB 7CH, 20H, 4CH, 51H, 49H, 20H, 7CH, 20H
   \            49207C20
   \   000030   70657269     DB 70H, 65H, 72H, 69H, 6DH, 69H, 74H, 0
   \            6D697400

   \                                 In  segment XDATA_ROM_C, align 1
   \                     `?<Constant "%02X,%04X,%04X%04X%04...">`:
   \   000000   25303258     DB "%02X,%04X,%04X%04X%04X%04X,%02X,%02X,%X"
   \            2C253034
   \            582C2530
   \            34582530
   \            34582530
   \            34582530
   \            34582C25
   \            3032582C
   \            25303258
   \            2C255800

   \                                 In  segment XDATA_ROM_C, align 1
   \                     `?<Constant "JPAN:%02X,%04X,%04X%0...">`:
   \   000000   4A50414E     DB "JPAN:%02X,%04X,%04X%04X%04X%04X"
   \            3A253032
   \            582C2530
   \            34582C25
   \            30345825
   \            30345825
   \            30345825
   \            30345800

   \                                 In  segment XDATA_ROM_C, align 1
   \                     `?<Constant "MAC_BAD_STATE ZDO Try...">`:
   \   000000   4D41435F     DB "MAC_BAD_STATE ZDO Trying..."
   \            4241445F
   \            53544154
   \            45205A44
   \            4F205472
   \            79696E67
   \            2E2E2E00

   \                                 In  segment XDATA_ROM_C, align 1
   \                     `?<Constant "NodeDesc:%04X,%02X">`:
   \   000000   4E6F6465     DB "NodeDesc:%04X,%02X"
   \            44657363
   \            3A253034
   \            582C2530
   \            325800  

   \                                 In  segment XDATA_ROM_C, align 1
   \                     `?<Constant "Type:%s">`:
   \   000000   54797065     DB "Type:%s"
   \            3A257300

   \                                 In  segment XDATA_ROM_C, align 1
   \                     `?<Constant "COOR">`:
   \   000000   434F4F52     DB "COOR"
   \            00      

   \                                 In  segment XDATA_ROM_C, align 1
   \                     `?<Constant "ComplexDesc:%s">`:
   \   000000   436F6D70     DB "ComplexDesc:%s"
   \            6C657844
   \            6573633A
   \            257300  

   \                                 In  segment XDATA_ROM_C, align 1
   \                     `?<Constant "Yes">`:
   \   000000   59657300     DB "Yes"

   \                                 In  segment XDATA_ROM_C, align 1
   \                     `?<Constant "No">`:
   \   000000   4E6F00       DB "No"

   \                                 In  segment XDATA_ROM_C, align 1
   \                     `?<Constant "UserDesc:%s">`:
   \   000000   55736572     DB "UserDesc:%s"
   \            44657363
   \            3A257300

   \                                 In  segment XDATA_ROM_C, align 1
   \                     `?<Constant "APSFlags:%02X">`:
   \   000000   41505346     DB "APSFlags:%02X"
   \            6C616773
   \            3A253032
   \            5800    

   \                                 In  segment XDATA_ROM_C, align 1
   \                     `?<Constant "FreqBand:%02X">`:
   \   000000   46726571     DB "FreqBand:%02X"
   \            42616E64
   \            3A253032
   \            5800    

   \                                 In  segment XDATA_ROM_C, align 1
   \                     `?<Constant "MacCap:%02x">`:
   \   000000   4D616343     DB "MacCap:%02x"
   \            61703A25
   \            30327800

   \                                 In  segment XDATA_ROM_C, align 1
   \                     `?<Constant "ManufCode:%04X">`:
   \   000000   4D616E75     DB "ManufCode:%04X"
   \            66436F64
   \            653A2530
   \            345800  

   \                                 In  segment XDATA_ROM_C, align 1
   \                     `?<Constant "MaxBufSize:%02X">`:
   \   000000   4D617842     DB "MaxBufSize:%02X"
   \            75665369
   \            7A653A25
   \            30325800

   \                                 In  segment XDATA_ROM_C, align 1
   \                     `?<Constant "MaxInSize:%04X">`:
   \   000000   4D617849     DB "MaxInSize:%04X"
   \            6E53697A
   \            653A2530
   \            345800  

   \                                 In  segment XDATA_ROM_C, align 1
   \                     `?<Constant "SrvMask:%02X">`:
   \   000000   5372764D     DB "SrvMask:%02X"
   \            61736B3A
   \            25303258
   \            00      

   \                                 In  segment XDATA_ROM_C, align 1
   \                     `?<Constant "MaxOutSize:%04X">`:
   \   000000   4D61784F     DB "MaxOutSize:%04X"
   \            75745369
   \            7A653A25
   \            30345800

   \                                 In  segment XDATA_ROM_C, align 1
   \                     `?<Constant "DescCap:%02X">`:
   \   000000   44657363     DB "DescCap:%02X"
   \            4361703A
   \            25303258
   \            00      

   \                                 In  segment XDATA_ROM_C, align 1
   \                     `?<Constant "PowerDesc:%04X,%02X">`:
   \   000000   506F7765     DB "PowerDesc:%04X,%02X"
   \            72446573
   \            633A2530
   \            34582C25
   \            30325800

   \                                 In  segment XDATA_ROM_C, align 1
   \                     `?<Constant "PowerMode:%02X">`:
   \   000000   506F7765     DB "PowerMode:%02X"
   \            724D6F64
   \            653A2530
   \            325800  

   \                                 In  segment XDATA_ROM_C, align 1
   \                     `?<Constant "AvailablePowerSources...">`:
   \   000000   41766169     DB "AvailablePowerSources:%02X"
   \            6C61626C
   \            65506F77
   \            6572536F
   \            75726365
   \            733A2530
   \            325800  

   \                                 In  segment XDATA_ROM_C, align 1
   \                     `?<Constant "CurrentPowerSource:%02X">`:
   \   000000   43757272     DB "CurrentPowerSource:%02X"
   \            656E7450
   \            6F776572
   \            536F7572
   \            63653A25
   \            30325800

   \                                 In  segment XDATA_ROM_C, align 1
   \                     `?<Constant "CurrentPowerSourceLev...">`:
   \   000000   43757272     DB "CurrentPowerSourceLevel:%02X"
   \            656E7450
   \            6F776572
   \            536F7572
   \            63654C65
   \            76656C3A
   \            25303258
   \            00      

   \                                 In  segment XDATA_ROM_C, align 1
   \                     `?<Constant "SimpleDesc:%04X,%02X">`:
   \   000000   53696D70     DB "SimpleDesc:%04X,%02X"
   \            6C654465
   \            73633A25
   \            3034582C
   \            25303258
   \            00      

   \                                 In  segment XDATA_ROM_C, align 1
   \                     `?<Constant "EP:%02X">`:
   \   000000   45503A25     DB "EP:%02X"
   \            30325800

   \                                 In  segment XDATA_ROM_C, align 1
   \                     `?<Constant "ProfileID:%04X">`:
   \   000000   50726F66     DB "ProfileID:%04X"
   \            696C6549
   \            443A2530
   \            345800  

   \                                 In  segment XDATA_ROM_C, align 1
   \                     `?<Constant "DeviceID:%04Xv%02X">`:
   \   000000   44657669     DB "DeviceID:%04Xv%02X"
   \            63654944
   \            3A253034
   \            58762530
   \            325800  

   \                                 In  segment XDATA_ROM_C, align 1
   \                     `?<Constant "InCluster: ">`:
   \   000000   496E436C     DB "InCluster: "
   \            75737465
   \            723A2000

   \                                 In  segment XDATA_ROM_C, align 1
   \                     `?<Constant "           %04X">`:
   \   000000   20202020     DB "           %04X"
   \            20202020
   \            20202025
   \            30345800

   \                                 In  segment XDATA_ROM_C, align 1
   \                     `?<Constant "OutCluster: ">`:
   \   000000   4F757443     DB "OutCluster: "
   \            6C757374
   \            65723A20
   \            00      

   \                                 In  segment XDATA_ROM_C, align 1
   \                     `?<Constant "            %04X">`:
   \   000000   20202020     DB "            %04X"
   \            20202020
   \            20202020
   \            25303458
   \            00      

   \                                 In  segment XDATA_ROM_C, align 1
   \                     `?<Constant "ActEpDesc:%04X,%02X">`:
   \   000000   41637445     DB "ActEpDesc:%04X,%02X"
   \            70446573
   \            633A2530
   \            34582C25
   \            30325800

   \                                 In  segment XDATA_ROM_C, align 1
   \                     `?<Constant ",%02X">`:
   \   000000   2C253032     DB ",%02X"
   \            5800    

   \                                 In  segment XDATA_ROM_C, align 1
   \                     `?<Constant "MatchDesc:%04X,%02X">`:
   \   000000   4D617463     DB "MatchDesc:%04X,%02X"
   \            68446573
   \            633A2530
   \            34582C25
   \            30325800

   \                                 In  segment XDATA_ROM_C, align 1
   \                     `?<Constant "%s:%04X%04X%04X%04X,%04X">`:
   \   000000   25733A25     DB "%s:%04X%04X%04X%04X,%04X"
   \            30345825
   \            30345825
   \            30345825
   \            3034582C
   \            25303458
   \            00      

   \                                 In  segment XDATA_ROM_C, align 1
   \                     `?<Constant "FFD">`:
   \   000000   46464400     DB "FFD"

   \                                 In  segment XDATA_ROM_C, align 1
   \                     `?<Constant "RFD">`:
   \   000000   52464400     DB "RFD"

   Maximum stack usage in bytes:

     Function                       ISTACK PSTACK XSTACK
     --------                       ------ ------ ------
     AT_ZDO_ProcessActEPRsp             0      0     41
       -> ZDO_ParseEPListRsp            0      0     22
       -> AT_HalUARTWrite               0      0     22
       -> printf                        0      0     30
       -> printf                        0      0     26
       -> AT_HalUARTWrite               0      0     22
       -> osal_mem_free                 0      0     22
     AT_ZDO_ProcessAnnceRsp             0      0     59
       -> ZDO_ParseDeviceAnnce          0      0     42
       -> AT_HalUARTWrite               0      0     42
       -> printf                        0      0     66
       -> AT_HalUARTWrite               0      0     42
     AT_ZDO_ProcessBindRsp              0      0     40
       -> AT_HalUARTWrite               0      0     20
       -> printf                        0      0     28
       -> printf                        0      0     24
       -> AT_HalUARTWrite               0      0     20
     AT_ZDO_ProcessEDbindRsp            0      0     40
       -> AT_HalUARTWrite               0      0     20
       -> printf                        0      0     28
       -> printf                        0      0     24
       -> AT_HalUARTWrite               0      0     20
     AT_ZDO_ProcessJOIN_CNF_CB          0      0     22
       -> AT_HalUARTWrite               0      0     20
       -> ZDO_RegisterForZdoCB          0      0     20
       -> printf                        0      0     44
       -> AT_UARTWriteErrMsg            0      0     20
       -> AT_HalUARTWrite               0      0     20
       -> AT_HalUARTWrite               0      0     20
     AT_ZDO_ProcessLEAVE_CNF_CB         0      0      9
       -> AT_HalUARTWrite               0      0     18
       -> printf                        0      0     18
       -> AT_HalUARTWrite               0      0     18
     AT_ZDO_ProcessLqiRsp               0      0     54
       -> AT_HalUARTWrite               0      0     32
       -> printf                        0      0     40
       -> printf                        0      0     36
       -> printf                        0      0     32
       -> printf                        0      0     36
       -> printf                        0      0     56
       -> printf                        0      0     36
       -> printf                        0      0     36
       -> printf                        0      0     36
       -> printf                        0      0     36
       -> printf                        0      0     36
       -> printf                        0      0     36
       -> printf                        0      0     36
       -> printf                        0      0     36
       -> AT_HalUARTWrite               0      0     32
     AT_ZDO_ProcessMatchDescRsp         0      0     41
       -> ZDO_ParseEPListRsp            0      0     22
       -> AT_HalUARTWrite               0      0     22
       -> printf                        0      0     30
       -> printf                        0      0     26
       -> AT_HalUARTWrite               0      0     22
       -> osal_mem_free                 0      0     22
     AT_ZDO_ProcessMgmtBindRsp          0      0     80
       -> ZDO_ParseMgmtBindRsp          0      0     72
       -> AT_HalUARTWrite               0      0     72
       -> printf                        0      0     76
       -> AT_HalUARTWrite               0      0     72
       -> printf                        0      0     72
       -> sprintf                       0      0     76
       -> printf                        0      0    108
       -> AT_HalUARTWrite               0      0     72
       -> AT_EUI64toChar                0      0     72
       -> sprintf                       0      0     76
       -> AT_HalUARTWrite               0      0     72
     AT_ZDO_ProcessMgmtLeaveRsp         0      0     38
       -> AT_HalUARTWrite               0      0     20
       -> printf                        0      0     20
       -> printf                        0      0     24
       -> AT_HalUARTWrite               0      0     20
     AT_ZDO_ProcessMsgCBs               0      0     26
       -> ZDO_ParseAddrRsp              0      0     52
       -> AT_HalUARTWrite               0      0     52
       -> AT_Int16toChar                0      0     52
       -> AT_HalUARTWrite               0      0     52
       -> AT_HalUARTWrite               0      0     52
       -> AT_EUI64toChar                0      0     52
       -> AT_HalUARTWrite               0      0     52
       -> AT_HalUARTWrite               0      0     52
       -> AT_Int16toChar                0      0     52
       -> AT_HalUARTWrite               0      0     52
       -> AT_HalUARTWrite               0      0     52
       -> osal_mem_free                 0      0     52
       -> AT_ZDO_ProcessLqiRsp          0      0     52
       -> AT_ZDO_ProcessRtgRsp          0      0     52
       -> AT_ZDO_ProcessNwkDiscRsp      0      0     52
       -> AT_ZDO_ProcessMgmtBindRsp     0      0     52
       -> AT_ZDO_ProcessBindRsp         0      0     52
       -> AT_ZDO_ProcessUnbindRsp       0      0     52
       -> AT_ZDO_ProcessEDbindRsp       0      0     52
       -> AT_ZDO_ProcessMgmtLeaveRsp
                                        0      0     52
       -> AT_ZDO_ProcessNodeDescRsp     0      0     52
       -> AT_ZDO_ProcessPowerDescRsp
                                        0      0     52
       -> AT_ZDO_ProcessSimpleDescRsp
                                        0      0     52
       -> AT_ZDO_ProcessActEPRsp        0      0     52
       -> AT_ZDO_ProcessMatchDescRsp
                                        0      0     52
       -> AT_ZDO_ProcessAnnceRsp        0      0     52
     AT_ZDO_ProcessNWKDISC_CB           0      0     32
       -> nwk_getNwkDescList            0      0     28
       -> AT_HalUARTWrite               0      0     28
       -> printf                        0      0     32
       -> printf                        0      0     28
       -> AT_HalUARTWrite               0      0     28
       -> printf                        0      0     64
       -> AT_HalUARTWrite               0      0     28
       -> NLME_NwkDiscTerm              0      0     28
       -> ZDO_RegisterForZdoCB          0      0     28
     AT_ZDO_ProcessNodeDescRsp          0      0     56
       -> ZDO_ParseNodeDescRsp          0      0     52
       -> AT_HalUARTWrite               0      0     52
       -> printf                        0      0     60
       -> AT_HalUARTWrite               0      0     52
       -> printf                        0      0     56
       -> AT_HalUARTWrite               0      0     52
       -> printf                        0      0     56
       -> AT_HalUARTWrite               0      0     52
       -> printf                        0      0     56
       -> AT_HalUARTWrite               0      0     52
       -> printf                        0      0     56
       -> AT_HalUARTWrite               0      0     52
       -> printf                        0      0     56
       -> AT_HalUARTWrite               0      0     52
       -> printf                        0      0     56
       -> AT_HalUARTWrite               0      0     52
       -> printf                        0      0     56
       -> AT_HalUARTWrite               0      0     52
       -> printf                        0      0     56
       -> AT_HalUARTWrite               0      0     52
       -> printf                        0      0     56
       -> AT_HalUARTWrite               0      0     52
       -> printf                        0      0     56
       -> AT_HalUARTWrite               0      0     52
       -> printf                        0      0     56
       -> AT_HalUARTWrite               0      0     52
       -> printf                        0      0     56
       -> AT_HalUARTWrite               0      0     52
     AT_ZDO_ProcessNwkDiscRsp           0      0     41
       -> ZDO_ParseMgmNwkDiscRsp        0      0     22
       -> AT_HalUARTWrite               0      0     22
       -> printf                        0      0     30
       -> AT_HalUARTWrite               0      0     22
       -> osal_mem_free                 0      0     22
     AT_ZDO_ProcessPowerDescRsp         0      0     45
       -> ZDO_ParsePowerDescRsp         0      0     30
       -> AT_HalUARTWrite               0      0     30
       -> printf                        0      0     38
       -> AT_HalUARTWrite               0      0     30
       -> printf                        0      0     34
       -> AT_HalUARTWrite               0      0     30
       -> printf                        0      0     34
       -> AT_HalUARTWrite               0      0     30
       -> printf                        0      0     34
       -> AT_HalUARTWrite               0      0     30
       -> printf                        0      0     34
       -> AT_HalUARTWrite               0      0     30
     AT_ZDO_ProcessRtgRsp               0      0     46
       -> ZDO_ParseMgmtRtgRsp           0      0     24
       -> AT_HalUARTWrite               0      0     24
       -> printf                        0      0     32
       -> printf                        0      0     28
       -> printf                        0      0     24
       -> printf                        0      0     40
       -> AT_HalUARTWrite               0      0     24
       -> osal_mem_free                 0      0     24
     AT_ZDO_ProcessSimpleDescRsp        0      0     55
       -> ZDO_ParseSimpleDescRsp        0      0     50
       -> AT_HalUARTWrite               0      0     50
       -> printf                        0      0     58
       -> AT_HalUARTWrite               0      0     50
       -> printf                        0      0     54
       -> AT_HalUARTWrite               0      0     50
       -> printf                        0      0     54
       -> AT_HalUARTWrite               0      0     50
       -> printf                        0      0     58
       -> AT_HalUARTWrite               0      0     50
       -> printf                        0      0     50
       -> printf                        0      0     54
       -> AT_HalUARTWrite               0      0     50
       -> printf                        0      0     54
       -> printf                        0      0     50
       -> printf                        0      0     54
       -> AT_HalUARTWrite               0      0     50
       -> printf                        0      0     54
       -> AT_HalUARTWrite               0      0     50
     AT_ZDO_ProcessUnbindRsp            0      0     40
       -> AT_HalUARTWrite               0      0     20
       -> printf                        0      0     28
       -> printf                        0      0     24
       -> AT_HalUARTWrite               0      0     20
     AT_ZDO_Register                    0      0      9
       -> ZDO_RegisterForZDOMsg         0      0     18
       -> ZDO_RegisterForZDOMsg         0      0     18
       -> ZDO_RegisterForZDOMsg         0      0     18
       -> ZDO_RegisterForZDOMsg         0      0     18
       -> ZDO_RegisterForZDOMsg         0      0     18
       -> ZDO_RegisterForZDOMsg         0      0     18
       -> ZDO_RegisterForZDOMsg         0      0     18
       -> ZDO_RegisterForZDOMsg         0      0     18
       -> ZDO_RegisterForZDOMsg         0      0     18
       -> ZDO_RegisterForZDOMsg         0      0     18
       -> ZDO_RegisterForZDOMsg         0      0     18
       -> ZDO_RegisterForZDOMsg         0      0     18
       -> ZDO_RegisterForZDOMsg         0      0     18
       -> ZDO_RegisterForZDOMsg         0      0     18
       -> ZDO_RegisterForZDOMsg         0      0     18
       -> ZDO_RegisterForZDOMsg         0      0     18
       -> ZDO_RegisterForZdoCB          0      0     18


   Segment part sizes:

     Function/Label                           Bytes
     --------------                           -----
     AT_ZDO_Register                           163
     ?Subroutine0                                5
     AT_ZDO_ProcessMsgCBs                      322
     ?Subroutine17                               8
     ?Subroutine7                               28
     ?Subroutine15                               6
     ??Subroutine31_0                            6
     ??Subroutine33_0                            8
     ??Subroutine36_0                            5
     ??Subroutine39_0                            5
     ?Subroutine4                                2
     ??Subroutine41_0                            6
     ?Subroutine29                              12
     AT_ZDO_ProcessLqiRsp                      481
     ??Subroutine32_0                            4
     ?Subroutine18                              25
     ?Subroutine8                               15
     ??Subroutine34_0                            9
     ?Subroutine30                              12
     ?Subroutine25                               4
     ??Subroutine37_0                            6
     ??Subroutine38_0                           10
     ?Subroutine26                               4
     ??Subroutine40_0                            6
     AT_ZDO_ProcessRtgRsp                      196
     ?Subroutine21                              21
     ?Subroutine23                              11
     ?Subroutine10                              14
     ??Subroutine44_0                            9
     AT_ZDO_ProcessNwkDiscRsp                   93
     ?Subroutine2                                8
     ?Subroutine16                               3
     ??Subroutine35_0                            3
     ??Subroutine42_0                            6
     ?Subroutine20                               5
     AT_ZDO_ProcessMgmtBindRsp                 380
     ?Subroutine3                                5
     ?Subroutine24                              12
     AT_ZDO_ProcessBindRsp                      50
     ?Subroutine5                               43
     ?Subroutine27                              17
     ?Subroutine1                               13
     ?Subroutine28                               9
     AT_ZDO_ProcessUnbindRsp                    50
     AT_ZDO_ProcessEDbindRsp                    50
     AT_ZDO_ProcessMgmtLeaveRsp                 48
     ?Subroutine11                               4
     AT_ZDO_ProcessNWKDISC_CB                  349
     ?Subroutine14                               6
     AT_ZDO_ProcessJOIN_CNF_CB                 113
     ??Subroutine43_0                           18
     AT_ZDO_ProcessLEAVE_CNF_CB                 45
     AT_ZDO_ProcessNodeDescRsp                 518
     ?Subroutine19                              16
     ?Subroutine6                               11
     AT_ZDO_ProcessPowerDescRsp                180
     ?Subroutine12                               8
     AT_ZDO_ProcessSimpleDescRsp               381
     ?Subroutine13                              11
     ?Subroutine9                               17
     AT_ZDO_ProcessActEPRsp                     70
     ?Subroutine22                              11
     AT_ZDO_ProcessMatchDescRsp                 70
     AT_ZDO_ProcessAnnceRsp                    153
     ??AT_ZDO_Register?relay                     6
     ??AT_ZDO_ProcessMsgCBs?relay                6
     ??AT_ZDO_ProcessLqiRsp?relay                6
     ??AT_ZDO_ProcessRtgRsp?relay                6
     ??AT_ZDO_ProcessNwkDiscRsp?relay            6
     ??AT_ZDO_ProcessMgmtBindRsp?relay           6
     ??AT_ZDO_ProcessBindRsp?relay               6
     ??AT_ZDO_ProcessUnbindRsp?relay             6
     ??AT_ZDO_ProcessEDbindRsp?relay             6
     ??AT_ZDO_ProcessMgmtLeaveRsp?relay          6
     ??AT_ZDO_ProcessNWKDISC_CB?relay            6
     ??AT_ZDO_ProcessJOIN_CNF_CB?relay           6
     ??AT_ZDO_ProcessLEAVE_CNF_CB?relay          6
     ??AT_ZDO_ProcessNodeDescRsp?relay           6
     ??AT_ZDO_ProcessPowerDescRsp?relay          6
     ??AT_ZDO_ProcessSimpleDescRsp?relay         6
     ??AT_ZDO_ProcessActEPRsp?relay              6
     ??AT_ZDO_ProcessMatchDescRsp?relay          6
     ??AT_ZDO_ProcessAnnceRsp?relay              6
     ?<Constant "\r\n">                          3
     ?<Constant ",">                             2
     ?<Constant "\n\r">                          3
     ?<Constant "NTABLE:%04X,%02X\n\r">         19
     ?<Constant "Length:%02X\n\r">              14
     ?<Constant "No.|  Type  |Relation...">     55
     ?<Constant "\n\r%X. | ">                    9
     ?<Constant "%-7s| ">                        7
     ?<Constant "COORD">                         6
     ?<Constant "ROUTER">                        7
     ?<Constant "ENDDEV">                        7
     ?<Constant "%-s| ">                         6
     ?<Constant "UNKNOWN">                       8
     ?<Constant "PARENT">                        7
     ?<Constant "CHILD">                         6
     ?<Constant "SIBLING">                       8
     ?<Constant "%04X%04X%04X%04X | %0...">     31
     ?<Constant "No.| Dest | Next | St...">     28
     ?<Constant "\n\r%X. | %04X | %04X |...">   27
     ?<Constant "%d:%d">                         6
     ?<Constant "Length:%02X">                  12
     ?<Constant "No. |     SrcAddr    ...">     70
     ?<Constant "| %02X">                        7
     ?<Constant "%04X">                          5
     ?<Constant "%02X. | %04X%04X%04X%...">     56
     ?<Constant "Bind:%04X,%02X">               15
     ?<Constant "Bind:UNKNOWN,%02X">            18
     ?<Constant "Unbind:%04X,%02X">             17
     ?<Constant "Unbind:UNKNOWN,%02X">          20
     ?<Constant "Ebind:%04X,%02X">              16
     ?<Constant "Ebind:UNKNOWN,%02X">           19
     ?<Constant "LeftPAN">                       8
     ?<Constant "failed:%02X">                  12
     ?<Constant "%d result(s)\n\r">             15
     ?<Constant "channel | PANID | EPA...">     56
     ?<Constant "%02X,%04X,%04X%04X%04...">     40
     ?<Constant "JPAN:%02X,%04X,%04X%0...">     32
     ?<Constant "MAC_BAD_STATE ZDO Try...">     28
     ?<Constant "NodeDesc:%04X,%02X">           19
     ?<Constant "Type:%s">                       8
     ?<Constant "COOR">                          5
     ?<Constant "ComplexDesc:%s">               15
     ?<Constant "Yes">                           4
     ?<Constant "No">                            3
     ?<Constant "UserDesc:%s">                  12
     ?<Constant "APSFlags:%02X">                14
     ?<Constant "FreqBand:%02X">                14
     ?<Constant "MacCap:%02x">                  12
     ?<Constant "ManufCode:%04X">               15
     ?<Constant "MaxBufSize:%02X">              16
     ?<Constant "MaxInSize:%04X">               15
     ?<Constant "SrvMask:%02X">                 13
     ?<Constant "MaxOutSize:%04X">              16
     ?<Constant "DescCap:%02X">                 13
     ?<Constant "PowerDesc:%04X,%02X">          20
     ?<Constant "PowerMode:%02X">               15
     ?<Constant "AvailablePowerSources...">     27
     ?<Constant "CurrentPowerSource:%02X">      24
     ?<Constant "CurrentPowerSourceLev...">     29
     ?<Constant "SimpleDesc:%04X,%02X">         21
     ?<Constant "EP:%02X">                       8
     ?<Constant "ProfileID:%04X">               15
     ?<Constant "DeviceID:%04Xv%02X">           19
     ?<Constant "InCluster: ">                  12
     ?<Constant "           %04X">              16
     ?<Constant "OutCluster: ">                 13
     ?<Constant "            %04X">             17
     ?<Constant "ActEpDesc:%04X,%02X">          20
     ?<Constant ",%02X">                         6
     ?<Constant "MatchDesc:%04X,%02X">          20
     ?<Constant "%s:%04X%04X%04X%04X,%04X">     25
     ?<Constant "FFD">                           4
     ?<Constant "RFD">                           4

 
 4 179 bytes in segment BANKED_CODE
   114 bytes in segment BANK_RELAYS
 1 214 bytes in segment XDATA_ROM_C
 
 4 293 bytes of CODE  memory
 1 214 bytes of CONST memory

Errors: none
Warnings: none
