///////////////////////////////////////////////////////////////////////////////
//                                                                            /
// IAR C/C++ Compiler V8.10.3.10338/W32 for 8051        15/Jun/2015  20:13:31 /
// Copyright 2004-2011 IAR Systems AB.                                        /
//                                                                            /
//    Core               =  plain                                             /
//    Code model         =  banked                                            /
//    Data model         =  large                                             /
//    Calling convention =  xdata reentrant                                   /
//    Constant location  =  data_rom                                          /
//    Dptr setup         =  1,16                                              /
//    Source file        =  S:\zigbee\Myzigbe\version 3.0 for new             /
//                          ZStack-CC2530-2.5.1a\Components\stack\zcl\zcl_se. /
//                          c                                                 /
//    Command line       =  -f "S:\zigbee\Myzigbe\version 3.0 for new         /
//                          ZStack-CC2530-2.5.1a\Projects\zstack\AT           /
//                          commands\AT command 3.2\CC2530DB\..\..\..\Tools\C /
//                          C2530DB\f8wCoord.cfg" (-DCPU32MHZ                 /
//                          -DROOT=__near_func -DMAC_CFG_APP_PENDING_QUEUE=TR /
//                          UE -DMAC_CFG_TX_DATA_MAX=5 -DMAC_CFG_TX_MAX=8     /
//                          -DMAC_CFG_RX_MAX=5 -DZDO_COORDINATOR -DRTR_NWK)   /
//                          -f "S:\zigbee\Myzigbe\version 3.0 for new         /
//                          ZStack-CC2530-2.5.1a\Projects\zstack\AT           /
//                          commands\AT command 3.2\CC2530DB\..\..\..\Tools\C /
//                          C2530DB\f8wConfig.cfg" (-DZIGBEEPRO -DSECURE=0    /
//                          -DZG_SECURE_DYNAMIC=0 -DREFLECTOR                 /
//                          -DDEFAULT_CHANLIST=0x00000800                     /
//                          -DZDAPP_CONFIG_PAN_ID=0x2015                      /
//                          -DNWK_START_DELAY=100 -DEXTENDED_JOINING_RANDOM_M /
//                          ASK=0x007F -DBEACON_REQUEST_DELAY=100             /
//                          -DBEACON_REQ_DELAY_MASK=0x00FF                    /
//                          -DLINK_STATUS_JITTER_MASK=0x007F                  /
//                          -DROUTE_EXPIRY_TIME=30 -DAPSC_ACK_WAIT_DURATION_P /
//                          OLLED=3000 -DNWK_INDIRECT_MSG_TIMEOUT=7           /
//                          -DMAX_RREQ_ENTRIES=8 -DAPSC_MAX_FRAME_RETRIES=3   /
//                          -DNWK_MAX_DATA_RETRIES=2                          /
//                          -DMAX_POLL_FAILURE_RETRIES=2 -DMAX_BCAST=9        /
//                          -DAPS_MAX_GROUPS=16 -DMAX_RTG_ENTRIES=40          /
//                          -DNWK_MAX_BINDING_ENTRIES=4                       /
//                          -DMAX_BINDING_CLUSTER_IDS=4                       /
//                          "-DDEFAULT_KEY={0x01, 0x03, 0x05, 0x07, 0x09,     /
//                          0x0B, 0x0D, 0x0F, 0x00, 0x02, 0x04, 0x06, 0x08,   /
//                          0x0A, 0x0C, 0x0D}" -DMAC_MAX_FRAME_SIZE=116       /
//                          -DZDNWKMGR_MIN_TRANSMISSIONS=20 "-DCONST=const    /
//                          __code" -DGENERIC=__generic                       /
//                          -DRFD_RCVC_ALWAYS_ON=FALSE -DPOLL_RATE=1000       /
//                          -DQUEUED_POLL_RATE=100 -DRESPONSE_POLL_RATE=100)  /
//                          -DREJOIN_POLL_RATE=440 "S:\zigbee\Myzigbe\version /
//                           3.0 for new ZStack-CC2530-2.5.1a\Components\stac /
//                          k\zcl\zcl_se.c" -D ZIGBEEPRO -D NWK_AUTO_POLL -D  /
//                          HAL_UART=TRUE -D HOLD_AUTO_START -D NV_RESTORE    /
//                          -D REFLECTOR -D HAL_UART_ISR=1 -D HAL_UART_DMA=0  /
//                          -D xHAL_UART_ISR_TX_MAX=200 -D xPOWER_SAVING -D   /
//                          ZCL_READ -D ZCL_WRITE -D ZCL_IDENTIFY -D          /
//                          ZCL_ON_OFF -D ZCL_DISCOVER -D xZTOOL_P1 -D        /
//                          xMT_TASK -D xMT_SYS_FUNC -D xMT_ZDO_FUNC -D       /
//                          xLCD_SUPPORTED=DEBUG -D                           /
//                          xMT_UART_DEFAULT_OVERFLOW=FALSE -lC               /
//                          "S:\zigbee\Myzigbe\version 3.0 for new            /
//                          ZStack-CC2530-2.5.1a\Projects\zstack\AT           /
//                          commands\AT command 3.2\CC2530DB\CoordinatorEB\Li /
//                          st\" -lA "S:\zigbee\Myzigbe\version 3.0 for new   /
//                          ZStack-CC2530-2.5.1a\Projects\zstack\AT           /
//                          commands\AT command 3.2\CC2530DB\CoordinatorEB\Li /
//                          st\" --diag_suppress Pe001,Pa010 -o               /
//                          "S:\zigbee\Myzigbe\version 3.0 for new            /
//                          ZStack-CC2530-2.5.1a\Projects\zstack\AT           /
//                          commands\AT command 3.2\CC2530DB\CoordinatorEB\Ob /
//                          j\" -e --no_code_motion --debug --core=plain      /
//                          --dptr=16,1 --data_model=large                    /
//                          --code_model=banked --calling_convention=xdata_re /
//                          entrant --place_constants=data_rom                /
//                          --nr_virtual_regs 16 -I                           /
//                          "S:\zigbee\Myzigbe\version 3.0 for new            /
//                          ZStack-CC2530-2.5.1a\Projects\zstack\AT           /
//                          commands\AT command 3.2\CC2530DB\" -I             /
//                          "S:\zigbee\Myzigbe\version 3.0 for new            /
//                          ZStack-CC2530-2.5.1a\Projects\zstack\AT           /
//                          commands\AT command 3.2\CC2530DB\..\Source\" -I   /
//                          "S:\zigbee\Myzigbe\version 3.0 for new            /
//                          ZStack-CC2530-2.5.1a\Projects\zstack\AT           /
//                          commands\AT command 3.2\CC2530DB\..\..\..\ZMain\T /
//                          I2530DB\" -I "S:\zigbee\Myzigbe\version 3.0 for   /
//                          new ZStack-CC2530-2.5.1a\Projects\zstack\AT       /
//                          commands\AT command 3.2\CC2530DB\..\..\..\..\..\C /
//                          omponents\hal\include\" -I                        /
//                          "S:\zigbee\Myzigbe\version 3.0 for new            /
//                          ZStack-CC2530-2.5.1a\Projects\zstack\AT           /
//                          commands\AT command 3.2\CC2530DB\..\..\..\..\..\C /
//                          omponents\hal\target\CC2530EB\" -I                /
//                          "S:\zigbee\Myzigbe\version 3.0 for new            /
//                          ZStack-CC2530-2.5.1a\Projects\zstack\AT           /
//                          commands\AT command 3.2\CC2530DB\..\..\..\..\..\C /
//                          omponents\mac\include\" -I                        /
//                          "S:\zigbee\Myzigbe\version 3.0 for new            /
//                          ZStack-CC2530-2.5.1a\Projects\zstack\AT           /
//                          commands\AT command 3.2\CC2530DB\..\..\..\..\..\C /
//                          omponents\mac\high_level\" -I                     /
//                          "S:\zigbee\Myzigbe\version 3.0 for new            /
//                          ZStack-CC2530-2.5.1a\Projects\zstack\AT           /
//                          commands\AT command 3.2\CC2530DB\..\..\..\..\..\C /
//                          omponents\mac\low_level\srf04\" -I                /
//                          "S:\zigbee\Myzigbe\version 3.0 for new            /
//                          ZStack-CC2530-2.5.1a\Projects\zstack\AT           /
//                          commands\AT command 3.2\CC2530DB\..\..\..\..\..\C /
//                          omponents\mac\low_level\srf04\single_chip\" -I    /
//                          "S:\zigbee\Myzigbe\version 3.0 for new            /
//                          ZStack-CC2530-2.5.1a\Projects\zstack\AT           /
//                          commands\AT command 3.2\CC2530DB\..\..\..\..\..\C /
//                          omponents\mt\" -I "S:\zigbee\Myzigbe\version 3.0  /
//                          for new ZStack-CC2530-2.5.1a\Projects\zstack\AT   /
//                          commands\AT command 3.2\CC2530DB\..\..\..\..\..\C /
//                          omponents\osal\include\" -I                       /
//                          "S:\zigbee\Myzigbe\version 3.0 for new            /
//                          ZStack-CC2530-2.5.1a\Projects\zstack\AT           /
//                          commands\AT command 3.2\CC2530DB\..\..\..\..\..\C /
//                          omponents\services\saddr\" -I                     /
//                          "S:\zigbee\Myzigbe\version 3.0 for new            /
//                          ZStack-CC2530-2.5.1a\Projects\zstack\AT           /
//                          commands\AT command 3.2\CC2530DB\..\..\..\..\..\C /
//                          omponents\services\sdata\" -I                     /
//                          "S:\zigbee\Myzigbe\version 3.0 for new            /
//                          ZStack-CC2530-2.5.1a\Projects\zstack\AT           /
//                          commands\AT command 3.2\CC2530DB\..\..\..\..\..\C /
//                          omponents\stack\af\" -I                           /
//                          "S:\zigbee\Myzigbe\version 3.0 for new            /
//                          ZStack-CC2530-2.5.1a\Projects\zstack\AT           /
//                          commands\AT command 3.2\CC2530DB\..\..\..\..\..\C /
//                          omponents\stack\nwk\" -I                          /
//                          "S:\zigbee\Myzigbe\version 3.0 for new            /
//                          ZStack-CC2530-2.5.1a\Projects\zstack\AT           /
//                          commands\AT command 3.2\CC2530DB\..\..\..\..\..\C /
//                          omponents\stack\sapi\" -I                         /
//                          "S:\zigbee\Myzigbe\version 3.0 for new            /
//                          ZStack-CC2530-2.5.1a\Projects\zstack\AT           /
//                          commands\AT command 3.2\CC2530DB\..\..\..\..\..\C /
//                          omponents\stack\sec\" -I                          /
//                          "S:\zigbee\Myzigbe\version 3.0 for new            /
//                          ZStack-CC2530-2.5.1a\Projects\zstack\AT           /
//                          commands\AT command 3.2\CC2530DB\..\..\..\..\..\C /
//                          omponents\stack\sys\" -I                          /
//                          "S:\zigbee\Myzigbe\version 3.0 for new            /
//                          ZStack-CC2530-2.5.1a\Projects\zstack\AT           /
//                          commands\AT command 3.2\CC2530DB\..\..\..\..\..\C /
//                          omponents\stack\zdo\" -I                          /
//                          "S:\zigbee\Myzigbe\version 3.0 for new            /
//                          ZStack-CC2530-2.5.1a\Projects\zstack\AT           /
//                          commands\AT command 3.2\CC2530DB\..\..\..\..\..\C /
//                          omponents\stack\zcl\" -I                          /
//                          "S:\zigbee\Myzigbe\version 3.0 for new            /
//                          ZStack-CC2530-2.5.1a\Projects\zstack\AT           /
//                          commands\AT command 3.2\CC2530DB\..\..\..\..\..\C /
//                          omponents\zmac\" -I "S:\zigbee\Myzigbe\version    /
//                          3.0 for new ZStack-CC2530-2.5.1a\Projects\zstack\ /
//                          AT commands\AT command 3.2\CC2530DB\..\..\..\..\. /
//                          .\Components\zmac\f8w\" -Ohz --require_prototypes /
//    List file          =  S:\zigbee\Myzigbe\version 3.0 for new             /
//                          ZStack-CC2530-2.5.1a\Projects\zstack\AT           /
//                          commands\AT command 3.2\CC2530DB\CoordinatorEB\Li /
//                          st\zcl_se.s51                                     /
//                                                                            /
//                                                                            /
///////////////////////////////////////////////////////////////////////////////

        NAME zcl_se

        RTMODEL "__SystemLibrary", "CLib"
        RTMODEL "__calling_convention", "xdata_reentrant"
        RTMODEL "__code_model", "banked"
        RTMODEL "__core", "plain"
        RTMODEL "__data_model", "large"
        RTMODEL "__dptr_size", "16"
        RTMODEL "__extended_stack", "disabled"
        RTMODEL "__location_for_constants", "data"
        RTMODEL "__number_of_dptrs", "1"
        RTMODEL "__rt_version", "1"

        RSEG DOVERLAY:DATA:NOROOT(0)
        RSEG IOVERLAY:IDATA:NOROOT(0)
        RSEG ISTACK:IDATA:NOROOT(0)
        RSEG PSTACK:XDATA:NOROOT(0)
        RSEG XSTACK:XDATA:NOROOT(0)

        EXTERN ?BANKED_ENTER_XDATA
        EXTERN ?BANKED_LEAVE_XDATA
        EXTERN ?BDISPATCH
        EXTERN ?BRET
        EXTERN ?DEALLOC_XSTACK8
        EXTERN ?PUSH_XSTACK_I_TWO
        EXTERN ?V0
        EXTERN __INIT_XDATA_Z

        FUNCTION ??zclSE_HdlIncoming?relay,0203H
        PUBLIC ??zclSE_RegisterCmdCallbacks?relay
        FUNCTION ??zclSE_RegisterCmdCallbacks?relay,0203H
        FUNCTION zclSE_HdlIncoming,0603H
        ARGFRAME XSTACK, 0, STACK
        PUBLIC zclSE_RegisterCmdCallbacks
        FUNCTION zclSE_RegisterCmdCallbacks,021203H
        ARGFRAME XSTACK, 0, STACK
        LOCFRAME ISTACK, 1, STACK
        LOCFRAME XSTACK, 14, STACK
        
        CFI Names cfiNames0
        CFI StackFrame CFA_SP SP IDATA
        CFI StackFrame CFA_PSP16 PSP16 XDATA
        CFI StackFrame CFA_XSP16 XSP16 XDATA
        CFI StaticOverlayFrame CFA_IOVERLAY IOVERLAY
        CFI StaticOverlayFrame CFA_DOVERLAY DOVERLAY
        CFI Resource `PSW.CY`:1, `B.BR0`:1, `B.BR1`:1, `B.BR2`:1, `B.BR3`:1
        CFI Resource `B.BR4`:1, `B.BR5`:1, `B.BR6`:1, `B.BR7`:1, `VB.BR8`:1
        CFI Resource `VB.BR9`:1, `VB.BR10`:1, `VB.BR11`:1, `VB.BR12`:1
        CFI Resource `VB.BR13`:1, `VB.BR14`:1, `VB.BR15`:1, VB:8, B:8, A:8
        CFI Resource PSW:8, DPL0:8, DPH0:8, R0:8, R1:8, R2:8, R3:8, R4:8, R5:8
        CFI Resource R6:8, R7:8, V0:8, V1:8, V2:8, V3:8, V4:8, V5:8, V6:8, V7:8
        CFI Resource V8:8, V9:8, V10:8, V11:8, V12:8, V13:8, V14:8, V15:8, SP:8
        CFI Resource PSPH:8, PSPL:8, PSP16:16, XSPH:8, XSPL:8, XSP16:16
        CFI VirtualResource ?RET:24
        CFI Resource ?BRET_EXT:8
        CFI VirtualResource ?RET_HIGH:8, ?RET_LOW:8
        CFI ResourceParts PSP16 PSPH, PSPL
        CFI ResourceParts XSP16 XSPH, XSPL
        CFI ResourceParts ?RET ?BRET_EXT, ?RET_HIGH, ?RET_LOW
        CFI EndNames cfiNames0
        
        CFI Common cfiCommon0 Using cfiNames0
        CFI CodeAlign 1
        CFI DataAlign -1
        CFI ReturnAddress ?RET CODE
        CFI CFA_DOVERLAY Used
        CFI CFA_IOVERLAY Used
        CFI CFA_SP SP+-3
        CFI CFA_PSP16 PSP16+0
        CFI CFA_XSP16 XSP16+0
        CFI `PSW.CY` SameValue
        CFI `B.BR0` SameValue
        CFI `B.BR1` SameValue
        CFI `B.BR2` SameValue
        CFI `B.BR3` SameValue
        CFI `B.BR4` SameValue
        CFI `B.BR5` SameValue
        CFI `B.BR6` SameValue
        CFI `B.BR7` SameValue
        CFI `VB.BR8` SameValue
        CFI `VB.BR9` SameValue
        CFI `VB.BR10` SameValue
        CFI `VB.BR11` SameValue
        CFI `VB.BR12` SameValue
        CFI `VB.BR13` SameValue
        CFI `VB.BR14` SameValue
        CFI `VB.BR15` SameValue
        CFI VB SameValue
        CFI B Undefined
        CFI A Undefined
        CFI PSW SameValue
        CFI DPL0 SameValue
        CFI DPH0 SameValue
        CFI R0 Undefined
        CFI R1 Undefined
        CFI R2 Undefined
        CFI R3 Undefined
        CFI R4 Undefined
        CFI R5 Undefined
        CFI R6 SameValue
        CFI R7 SameValue
        CFI V0 SameValue
        CFI V1 SameValue
        CFI V2 SameValue
        CFI V3 SameValue
        CFI V4 SameValue
        CFI V5 SameValue
        CFI V6 SameValue
        CFI V7 SameValue
        CFI V8 SameValue
        CFI V9 SameValue
        CFI V10 SameValue
        CFI V11 SameValue
        CFI V12 SameValue
        CFI V13 SameValue
        CFI V14 SameValue
        CFI V15 SameValue
        CFI PSPH Undefined
        CFI PSPL Undefined
        CFI XSPH Undefined
        CFI XSPL Undefined
        CFI ?RET Concat
        CFI ?BRET_EXT Frame(CFA_SP, 3)
        CFI ?RET_HIGH Frame(CFA_SP, 2)
        CFI ?RET_LOW Frame(CFA_SP, 1)
        CFI EndCommon cfiCommon0
        
zcl_registerPlugin  SYMBOL "zcl_registerPlugin"
osal_mem_alloc      SYMBOL "osal_mem_alloc"
??osal_mem_alloc?relay SYMBOL "?relay", osal_mem_alloc
??zcl_registerPlugin?relay SYMBOL "?relay", zcl_registerPlugin
zclSE_RegisterCmdCallbacks SYMBOL "zclSE_RegisterCmdCallbacks"
??zclSE_RegisterCmdCallbacks?relay SYMBOL "?relay", zclSE_RegisterCmdCallbacks

        EXTERN zcl_registerPlugin
        FUNCTION zcl_registerPlugin,0202H
        ARGFRAME ISTACK, 0, STACK
        ARGFRAME PSTACK, 0, STACK
        ARGFRAME XSTACK, 14, STACK
        ARGFRAME IOVERLAY, 0, STATIC
        ARGFRAME DOVERLAY, 0, STATIC
        EXTERN osal_mem_alloc
        FUNCTION osal_mem_alloc,0202H
        ARGFRAME ISTACK, 0, STACK
        ARGFRAME PSTACK, 0, STACK
        ARGFRAME XSTACK, 12, STACK
        ARGFRAME IOVERLAY, 0, STATIC
        ARGFRAME DOVERLAY, 0, STATIC
        EXTERN ??osal_mem_alloc?relay
        FUNCTION ??osal_mem_alloc?relay,00H
        EXTERN ??zcl_registerPlugin?relay
        FUNCTION ??zcl_registerPlugin?relay,00H

// S:\zigbee\Myzigbe\version 3.0 for new ZStack-CC2530-2.5.1a\Components\stack\zcl\zcl_se.c
//    1 /**************************************************************************************************
//    2   Filename:       zcl_se.c
//    3   Revised:        $Date: 2012-03-11 00:25:21 -0800 (Sun, 11 Mar 2012) $
//    4   Revision:       $Revision: 29708 $
//    5 
//    6   Description:    Zigbee Cluster Library - SE (Smart Energy) Profile.
//    7 
//    8 
//    9   Copyright 2007-2012 Texas Instruments Incorporated. All rights reserved.
//   10 
//   11   IMPORTANT: Your use of this Software is limited to those specific rights
//   12   granted under the terms of a software license agreement between the user
//   13   who downloaded the software, his/her employer (which must be your employer)
//   14   and Texas Instruments Incorporated (the "License").  You may not use this
//   15   Software unless you agree to abide by the terms of the License. The License
//   16   limits your use, and you acknowledge, that the Software may not be modified,
//   17   copied or distributed unless embedded on a Texas Instruments microcontroller
//   18   or used solely and exclusively in conjunction with a Texas Instruments radio
//   19   frequency transceiver, which is integrated into your product.  Other than for
//   20   the foregoing purpose, you may not use, reproduce, copy, prepare derivative
//   21   works of, modify, distribute, perform, display or sell this Software and/or
//   22   its documentation for any purpose.
//   23 
//   24   YOU FURTHER ACKNOWLEDGE AND AGREE THAT THE SOFTWARE AND DOCUMENTATION ARE
//   25   PROVIDED “AS IS?WITHOUT WARRANTY OF ANY KIND, EITHER EXPRESS OR IMPLIED,
//   26   INCLUDING WITHOUT LIMITATION, ANY WARRANTY OF MERCHANTABILITY, TITLE,
//   27   NON-INFRINGEMENT AND FITNESS FOR A PARTICULAR PURPOSE. IN NO EVENT SHALL
//   28   TEXAS INSTRUMENTS OR ITS LICENSORS BE LIABLE OR OBLIGATED UNDER CONTRACT,
//   29   NEGLIGENCE, STRICT LIABILITY, CONTRIBUTION, BREACH OF WARRANTY, OR OTHER
//   30   LEGAL EQUITABLE THEORY ANY DIRECT OR INDIRECT DAMAGES OR EXPENSES
//   31   INCLUDING BUT NOT LIMITED TO ANY INCIDENTAL, SPECIAL, INDIRECT, PUNITIVE
//   32   OR CONSEQUENTIAL DAMAGES, LOST PROFITS OR LOST DATA, COST OF PROCUREMENT
//   33   OF SUBSTITUTE GOODS, TECHNOLOGY, SERVICES, OR ANY CLAIMS BY THIRD PARTIES
//   34   (INCLUDING BUT NOT LIMITED TO ANY DEFENSE THEREOF), OR OTHER SIMILAR COSTS.
//   35 
//   36   Should you have any questions regarding your right to use this Software,
//   37   contact Texas Instruments Incorporated at www.TI.com.
//   38 **************************************************************************************************/
//   39 
//   40 
//   41 /*********************************************************************
//   42  * INCLUDES
//   43  */
//   44 #include "ZComDef.h"
//   45 #include "OSAL.h"
//   46 #include "zcl.h"
//   47 #include "zcl_general.h"
//   48 #include "zcl_se.h"
//   49 #include "DebugTrace.h"
//   50 
//   51 #if defined ( INTER_PAN )
//   52   #include "stub_aps.h"
//   53 #endif
//   54 
//   55 
//   56 #include "zcl_key_establish.h"
//   57 
//   58 
//   59 /*********************************************************************
//   60  * MACROS
//   61  */
//   62 // Clusters that are supported thru Inter-PAN communication
//   63 #define INTER_PAN_CLUSTER( id )  ( (id) == ZCL_CLUSTER_ID_SE_PRICING || \ 
//   64                                    (id) == ZCL_CLUSTER_ID_SE_MESSAGE )
//   65 
//   66 /*********************************************************************
//   67  * CONSTANTS
//   68  */
//   69 
//   70 /*********************************************************************
//   71  * TYPEDEFS
//   72  */
//   73 typedef struct zclSECBRec
//   74 {
//   75   struct zclSECBRec          *next;
//   76   uint8                       endpoint; // Used to link it into the endpoint descriptor
//   77   zclSE_AppCallbacks_t       *CBs;     // Pointer to Callback function
//   78 } zclSECBRec_t;
//   79 
//   80 /*********************************************************************
//   81  * GLOBAL VARIABLES
//   82  */
//   83 
//   84 /*********************************************************************
//   85  * GLOBAL FUNCTIONS
//   86  */
//   87 
//   88 /*********************************************************************
//   89  * LOCAL VARIABLES
//   90  */

        RSEG XDATA_Z:XDATA:NOROOT(0)
        DATA16
//   91 static zclSECBRec_t *zclSECBs = (zclSECBRec_t *)NULL;
zclSECBs:
        DS 2
        REQUIRE __INIT_XDATA_Z

        RSEG XDATA_Z:XDATA:NOROOT(0)
        DATA8
//   92 static uint8 zclSEPluginRegisted = FALSE;
zclSEPluginRegisted:
        DS 1
        REQUIRE __INIT_XDATA_Z
//   93 
//   94 /*********************************************************************
//   95  * LOCAL FUNCTIONS
//   96  */
//   97 
//   98 static ZStatus_t zclSE_HdlIncoming(  zclIncoming_t *pInMsg );
//   99 static ZStatus_t zclSE_HdlInSpecificCommands( zclIncoming_t *pInMsg );
//  100 
//  101 #ifdef ZCL_SIMPLE_METERING
//  102 static ZStatus_t zclSE_ProcessInSimpleMeteringCmds( zclIncoming_t *pInMsg, zclSE_AppCallbacks_t *pCBs );
//  103 static ZStatus_t zclSE_ProcessInCmd_SimpleMeter_GetProfileCmd( zclIncoming_t *pInMsg, zclSE_AppCallbacks_t *pCBs );
//  104 static ZStatus_t zclSE_ProcessInCmd_SimpleMeter_GetProfileRsp( zclIncoming_t *pInMsg, zclSE_AppCallbacks_t *pCBs );
//  105 static ZStatus_t zclSE_ProcessInCmd_SimpleMeter_ReqMirrorCmd( zclIncoming_t *pInMsg, zclSE_AppCallbacks_t *pCBs );
//  106 static ZStatus_t zclSE_ProcessInCmd_SimpleMeter_ReqMirrorRsp( zclIncoming_t *pInMsg, zclSE_AppCallbacks_t *pCBs );
//  107 static ZStatus_t zclSE_ProcessInCmd_SimpleMeter_MirrorRemCmd( zclIncoming_t *pInMsg, zclSE_AppCallbacks_t *pCBs );
//  108 static ZStatus_t zclSE_ProcessInCmd_SimpleMeter_MirrorRemRsp( zclIncoming_t *pInMsg, zclSE_AppCallbacks_t *pCBs );
//  109 static ZStatus_t zclSE_ProcessInCmd_SimpleMeter_ReqFastPollModeCmd( zclIncoming_t *pInMsg, zclSE_AppCallbacks_t *pCBs );
//  110 static ZStatus_t zclSE_ProcessInCmd_SimpleMeter_ReqFastPollModeRsp( zclIncoming_t *pInMsg, zclSE_AppCallbacks_t *pCBs );
//  111 #ifdef SE_UK_EXT
//  112 static ZStatus_t zclSE_ProcessInCmd_SimpleMeter_GetSnapshotCmd( zclIncoming_t *pInMsg, zclSE_AppCallbacks_t *pCBs );
//  113 static ZStatus_t zclSE_ProcessInCmd_SimpleMeter_GetSnapshotRsp( zclIncoming_t *pInMsg, zclSE_AppCallbacks_t *pCBs );
//  114 static ZStatus_t zclSE_ProcessInCmd_SimpleMeter_TakeSnapshotCmd( zclIncoming_t *pInMsg, zclSE_AppCallbacks_t *pCBs );
//  115 static ZStatus_t zclSE_ProcessInCmd_SimpleMeter_MirrorReportAttrRsp( zclIncoming_t *pInMsg, zclSE_AppCallbacks_t *pCBs );
//  116 #endif  // SE_UK_EXT
//  117 #endif  // ZCL_SIMPLE_METERING
//  118 
//  119 #ifdef ZCL_PRICING
//  120 static ZStatus_t zclSE_ProcessInPricingCmds( zclIncoming_t *pInMsg, zclSE_AppCallbacks_t *pCBs );
//  121 static ZStatus_t zclSE_ProcessInCmd_Pricing_GetCurrentPrice( zclIncoming_t *pInMsg, zclSE_AppCallbacks_t *pCBs );
//  122 static ZStatus_t zclSE_ProcessInCmd_Pricing_GetScheduledPrice( zclIncoming_t *pInMsg, zclSE_AppCallbacks_t *pCBs );
//  123 static ZStatus_t zclSE_ProcessInCmd_Pricing_PublishPrice( zclIncoming_t *pInMsg, zclSE_AppCallbacks_t *pCBs );
//  124 static ZStatus_t zclSE_ProcessInCmd_Pricing_PriceAcknowledgement( zclIncoming_t *pInMsg, zclSE_AppCallbacks_t *pCBs );
//  125 static ZStatus_t zclSE_ProcessInCmd_Pricing_GetBlockPeriod( zclIncoming_t *pInMsg, zclSE_AppCallbacks_t *pCBs );
//  126 static ZStatus_t zclSE_ProcessInCmd_Pricing_PublishBlockPeriod( zclIncoming_t *pInMsg, zclSE_AppCallbacks_t *pCBs );
//  127 #ifdef SE_UK_EXT
//  128 static ZStatus_t zclSE_ProcessInCmd_Pricing_PublishTariffInformation( zclIncoming_t *pInMsg, zclSE_AppCallbacks_t *pCBs );
//  129 static ZStatus_t zclSE_ProcessInCmd_Pricing_PublishPriceMatrix( zclIncoming_t *pInMsg, zclSE_AppCallbacks_t *pCBs );
//  130 static ZStatus_t zclSE_ProcessInCmd_Pricing_PublishBlockThreshold( zclIncoming_t *pInMsg, zclSE_AppCallbacks_t *pCBs );
//  131 static ZStatus_t zclSE_ProcessInCmd_Pricing_PublishConversionFactor( zclIncoming_t *pInMsg, zclSE_AppCallbacks_t *pCBs );
//  132 static ZStatus_t zclSE_ProcessInCmd_Pricing_PublishCalorificValue( zclIncoming_t *pInMsg, zclSE_AppCallbacks_t *pCBs );
//  133 static ZStatus_t zclSE_ProcessInCmd_Pricing_PublishCO2Value( zclIncoming_t *pInMsg, zclSE_AppCallbacks_t *pCBs );
//  134 static ZStatus_t zclSE_ProcessInCmd_Pricing_PublishCPPEvent( zclIncoming_t *pInMsg, zclSE_AppCallbacks_t *pCBs );
//  135 static ZStatus_t zclSE_ProcessInCmd_Pricing_PublishBillingPeriod( zclIncoming_t *pInMsg, zclSE_AppCallbacks_t *pCBs );
//  136 static ZStatus_t zclSE_ProcessInCmd_Pricing_PublishConsolidatedBill( zclIncoming_t *pInMsg, zclSE_AppCallbacks_t *pCBs );
//  137 static ZStatus_t zclSE_ProcessInCmd_Pricing_PublishCreditPaymentInfo( zclIncoming_t *pInMsg, zclSE_AppCallbacks_t *pCBs );
//  138 static ZStatus_t zclSE_ProcessInCmd_Pricing_GetTariffInformation( zclIncoming_t *pInMsg, zclSE_AppCallbacks_t *pCBs );
//  139 static ZStatus_t zclSE_ProcessInCmd_Pricing_GetPriceMatrix( zclIncoming_t *pInMsg, zclSE_AppCallbacks_t *pCBs );
//  140 static ZStatus_t zclSE_ProcessInCmd_Pricing_GetBlockThresholds( zclIncoming_t *pInMsg, zclSE_AppCallbacks_t *pCBs );
//  141 static ZStatus_t zclSE_ProcessInCmd_Pricing_GetConversionFactor( zclIncoming_t *pInMsg, zclSE_AppCallbacks_t *pCBs );
//  142 static ZStatus_t zclSE_ProcessInCmd_Pricing_GetCalorificValue( zclIncoming_t *pInMsg, zclSE_AppCallbacks_t *pCBs );
//  143 static ZStatus_t zclSE_ProcessInCmd_Pricing_GetCO2Value( zclIncoming_t *pInMsg, zclSE_AppCallbacks_t *pCBs );
//  144 static ZStatus_t zclSE_ProcessInCmd_Pricing_GetBillingPeriod( zclIncoming_t *pInMsg, zclSE_AppCallbacks_t *pCBs );
//  145 static ZStatus_t zclSE_ProcessInCmd_Pricing_GetConsolidatedBill( zclIncoming_t *pInMsg, zclSE_AppCallbacks_t *pCBs );
//  146 static ZStatus_t zclSE_ProcessInCmd_Pricing_CPPEventResponse( zclIncoming_t *pInMsg, zclSE_AppCallbacks_t *pCBs );
//  147 #endif  // SE_UK_EXT
//  148 #endif  // ZCL_PRICING
//  149 
//  150 #ifdef ZCL_MESSAGE
//  151 static ZStatus_t zclSE_ProcessInMessageCmds( zclIncoming_t *pInMsg, zclSE_AppCallbacks_t *pCBs );
//  152 static ZStatus_t zclSE_ProcessInCmd_Message_DisplayMessage( zclIncoming_t *pInMsg, zclSE_AppCallbacks_t *pCBs );
//  153 static ZStatus_t zclSE_ProcessInCmd_Message_CancelMessage( zclIncoming_t *pInMsg, zclSE_AppCallbacks_t *pCBs );
//  154 static ZStatus_t zclSE_ProcessInCmd_Message_GetLastMessage( zclIncoming_t *pInMsg, zclSE_AppCallbacks_t *pCBs );
//  155 static ZStatus_t zclSE_ProcessInCmd_Message_MessageConfirmation( zclIncoming_t *pInMsg, zclSE_AppCallbacks_t *pCBs );
//  156 #endif  // ZCL_MESSAGE
//  157 
//  158 #ifdef ZCL_LOAD_CONTROL
//  159 static ZStatus_t zclSE_ProcessInLoadControlCmds( zclIncoming_t *pInMsg, zclSE_AppCallbacks_t *pCBs );
//  160 static ZStatus_t zclSE_ProcessInCmd_LoadControl_LoadControlEvent( zclIncoming_t *pInMsg, zclSE_AppCallbacks_t *pCBs );
//  161 static ZStatus_t zclSE_ProcessInCmd_LoadControl_CancelLoadControlEvent( zclIncoming_t *pInMsg, zclSE_AppCallbacks_t *pCBs );
//  162 static ZStatus_t zclSE_ProcessInCmd_LoadControl_CancelAllLoadControlEvents( zclIncoming_t *pInMsg, zclSE_AppCallbacks_t *pCBs );
//  163 static ZStatus_t zclSE_ProcessInCmd_LoadControl_ReportEventStatus( zclIncoming_t *pInMsg, zclSE_AppCallbacks_t *pCBs );
//  164 static ZStatus_t zclSE_ProcessInCmd_LoadControl_GetScheduledEvents( zclIncoming_t *pInMsg,
//  165                                                                     zclSE_AppCallbacks_t *pCBs );
//  166 #endif  // ZCL_LOAD_CONTROL
//  167 
//  168 #ifdef ZCL_TUNNELING
//  169 static ZStatus_t zclSE_ProcessInTunnelingCmds(zclIncoming_t *pInMsg, zclSE_AppCallbacks_t *pCBs);
//  170 static ZStatus_t zclSE_ProcessInCmd_Tunneling_RequestTunnel(zclIncoming_t *pInMsg, zclSE_AppCallbacks_t *pCBs);
//  171 static ZStatus_t zclSE_ProcessInCmd_Tunneling_ReqTunnelRsp(zclIncoming_t *pInMsg, zclSE_AppCallbacks_t *pCBs);
//  172 static ZStatus_t zclSE_ProcessInCmd_Tunneling_CloseTunnel(zclIncoming_t *pInMsg, zclSE_AppCallbacks_t *pCBs);
//  173 static ZStatus_t zclSE_ProcessInCmd_Tunneling_TransferData(zclIncoming_t *pInMsg, zclSE_AppCallbacks_t *pCBs);
//  174 static ZStatus_t zclSE_ProcessInCmd_Tunneling_TransferDataError(zclIncoming_t *pInMsg, zclSE_AppCallbacks_t *pCBs);
//  175 static ZStatus_t zclSE_ProcessInCmd_Tunneling_AckTransferData(zclIncoming_t *pInMsg, zclSE_AppCallbacks_t *pCBs);
//  176 static ZStatus_t zclSE_ProcessInCmd_Tunneling_ReadyData(zclIncoming_t *pInMsg, zclSE_AppCallbacks_t *pCBs);
//  177 #ifdef SE_UK_EXT
//  178 static ZStatus_t zclSE_ProcessInCmd_Tunneling_GetSuppTunnelProt(zclIncoming_t *pInMsg, zclSE_AppCallbacks_t *pCBs);
//  179 static ZStatus_t zclSE_ProcessInCmd_Tunneling_SuppTunnelProtRsp(zclIncoming_t *pInMsg, zclSE_AppCallbacks_t *pCBs);
//  180 static ZStatus_t zclSE_ProcessInCmd_Tunneling_TunnelClosureNotification(zclIncoming_t *pInMsg, zclSE_AppCallbacks_t *pCBs);
//  181 #endif  // SE_UK_EXT
//  182 #endif  // ZCL_TUNNELING
//  183 
//  184 #ifdef ZCL_PREPAYMENT
//  185 static ZStatus_t zclSE_ProcessInPrepaymentCmds( zclIncoming_t *pInMsg, zclSE_AppCallbacks_t *pCBs );
//  186 static ZStatus_t zclSE_ProcessInCmd_Prepayment_SelAvailEmergencyCredit( zclIncoming_t *pInMsg, zclSE_AppCallbacks_t *pCBs);
//  187 #ifndef SE_UK_EXT
//  188 static ZStatus_t zclSE_ProcessInCmd_Prepayment_ChangeSupply( zclIncoming_t *pInMsg, zclSE_AppCallbacks_t *pCBs );
//  189 static ZStatus_t zclSE_ProcessInCmd_Prepayment_SupplyStatusResponse( zclIncoming_t *pInMsg, zclSE_AppCallbacks_t *pCBs );
//  190 #else // SE_UK_EXT
//  191 static ZStatus_t zclSE_ProcessInCmd_Prepayment_ChangeDebt( zclIncoming_t *pInMsg, zclSE_AppCallbacks_t *pCBs );
//  192 static ZStatus_t zclSE_ProcessInCmd_Prepayment_EmergencyCreditSetup( zclIncoming_t *pInMsg, zclSE_AppCallbacks_t *pCBs );
//  193 static ZStatus_t zclSE_ProcessInCmd_Prepayment_ConsumerTopup( zclIncoming_t *pInMsg, zclSE_AppCallbacks_t *pCBs );
//  194 static ZStatus_t zclSE_ProcessInCmd_Prepayment_CreditAdjustment( zclIncoming_t *pInMsg, zclSE_AppCallbacks_t *pCBs );
//  195 static ZStatus_t zclSE_ProcessInCmd_Prepayment_ChangePaymentMode( zclIncoming_t *pInMsg, zclSE_AppCallbacks_t *pCBs );
//  196 static ZStatus_t zclSE_ProcessInCmd_Prepayment_GetPrepaySnapshot( zclIncoming_t *pInMsg, zclSE_AppCallbacks_t *pCBs );
//  197 static ZStatus_t zclSE_ProcessInCmd_Prepayment_GetTopupLog( zclIncoming_t *pInMsg, zclSE_AppCallbacks_t *pCBs );
//  198 static ZStatus_t zclSE_ProcessInCmd_Prepayment_SetLowCreditWarningLevel( zclIncoming_t *pInMsg, zclSE_AppCallbacks_t *pCBs );
//  199 static ZStatus_t zclSE_ProcessInCmd_Prepayment_GetDebtRepaymentLog( zclIncoming_t *pInMsg, zclSE_AppCallbacks_t *pCBs );
//  200 static ZStatus_t zclSE_ProcessInCmd_Prepayment_GetPrepaySnapshotResponse( zclIncoming_t *pInMsg, zclSE_AppCallbacks_t *pCBs );
//  201 static ZStatus_t zclSE_ProcessInCmd_Prepayment_ChangePaymentModeResponse( zclIncoming_t *pInMsg, zclSE_AppCallbacks_t *pCBs );
//  202 static ZStatus_t zclSE_ProcessInCmd_Prepayment_ConsumerTopupResponse( zclIncoming_t *pInMsg, zclSE_AppCallbacks_t *pCBs );
//  203 static ZStatus_t zclSE_ProcessInCmd_Prepayment_GetCommands( zclIncoming_t *pInMsg, zclSE_AppCallbacks_t *pCBs );
//  204 static ZStatus_t zclSE_ProcessInCmd_Prepayment_PublishTopupLog( zclIncoming_t *pInMsg, zclSE_AppCallbacks_t *pCBs );
//  205 static ZStatus_t zclSE_ProcessInCmd_Prepayment_PublishDebtLog( zclIncoming_t *pInMsg, zclSE_AppCallbacks_t *pCBs );
//  206 #endif  // SE_UK_EXT
//  207 #endif  // ZCL_PREPAYMENT
//  208 
//  209 #ifdef ZCL_TOU
//  210 #ifdef SE_UK_EXT
//  211 static ZStatus_t zclSE_ProcessInTouCmds( zclIncoming_t *pInMsg, zclSE_AppCallbacks_t *pCBs );
//  212 static ZStatus_t zclSE_ProcessInCmd_Tou_PublishCalendar( zclIncoming_t *pInMsg, zclSE_AppCallbacks_t *pCBs );
//  213 static ZStatus_t zclSE_ProcessInCmd_Tou_PublishDayProfile( zclIncoming_t *pInMsg, zclSE_AppCallbacks_t *pCBs );
//  214 static ZStatus_t zclSE_ProcessInCmd_Tou_PublishWeekProfile( zclIncoming_t *pInMsg, zclSE_AppCallbacks_t *pCBs );
//  215 static ZStatus_t zclSE_ProcessInCmd_Tou_PublishSeasons( zclIncoming_t *pInMsg, zclSE_AppCallbacks_t *pCBs );
//  216 static ZStatus_t zclSE_ProcessInCmd_Tou_PublishSpecialDays( zclIncoming_t *pInMsg, zclSE_AppCallbacks_t *pCBs );
//  217 static ZStatus_t zclSE_ProcessInCmd_Tou_GetCalendar( zclIncoming_t *pInMsg, zclSE_AppCallbacks_t *pCBs );
//  218 static ZStatus_t zclSE_ProcessInCmd_Tou_GetDayProfiles( zclIncoming_t *pInMsg, zclSE_AppCallbacks_t *pCBs );
//  219 static ZStatus_t zclSE_ProcessInCmd_Tou_GetWeekProfiles( zclIncoming_t *pInMsg, zclSE_AppCallbacks_t *pCBs );
//  220 static ZStatus_t zclSE_ProcessInCmd_Tou_GetSeasons( zclIncoming_t *pInMsg, zclSE_AppCallbacks_t *pCBs );
//  221 static ZStatus_t zclSE_ProcessInCmd_Tou_GetSpecialDays( zclIncoming_t *pInMsg, zclSE_AppCallbacks_t *pCBs );
//  222 #endif  // SE_UK_EXT
//  223 #endif  // ZCL_TOU
//  224 
//  225 #ifdef ZCL_DEVICE_MGMT
//  226 #ifdef SE_UK_EXT
//  227 static ZStatus_t zclSE_ProcessInDeviceMgmtCmds( zclIncoming_t *pInMsg, zclSE_AppCallbacks_t *pCBs );
//  228 static ZStatus_t zclSE_ProcessInCmd_DeviceMgmt_GetChangeTenancy( zclIncoming_t *pInMsg, zclSE_AppCallbacks_t *pCBs );
//  229 static ZStatus_t zclSE_ProcessInCmd_DeviceMgmt_GetChangeSupplier( zclIncoming_t *pInMsg, zclSE_AppCallbacks_t *pCBs );
//  230 static ZStatus_t zclSE_ProcessInCmd_DeviceMgmt_GetChangeSupply( zclIncoming_t *pInMsg, zclSE_AppCallbacks_t *pCBs );
//  231 static ZStatus_t zclSE_ProcessInCmd_DeviceMgmt_SupplyStatusResponse( zclIncoming_t *pInMsg, zclSE_AppCallbacks_t *pCBs );
//  232 static ZStatus_t zclSE_ProcessInCmd_DeviceMgmt_GetPassword( zclIncoming_t *pInMsg, zclSE_AppCallbacks_t *pCBs );
//  233 static ZStatus_t zclSE_ProcessInCmd_DeviceMgmt_PublishChangeTenancy( zclIncoming_t *pInMsg, zclSE_AppCallbacks_t *pCBs );
//  234 static ZStatus_t zclSE_ProcessInCmd_DeviceMgmt_PublishChangeSupplier( zclIncoming_t *pInMsg, zclSE_AppCallbacks_t *pCBs );
//  235 static ZStatus_t zclSE_ProcessInCmd_DeviceMgmt_ChangeSupply( zclIncoming_t *pInMsg, zclSE_AppCallbacks_t *pCBs );
//  236 static ZStatus_t zclSE_ProcessInCmd_DeviceMgmt_ChangePassword( zclIncoming_t *pInMsg, zclSE_AppCallbacks_t *pCBs );
//  237 static ZStatus_t zclSE_ProcessInCmd_DeviceMgmt_LocalChangeSupply( zclIncoming_t *pInMsg, zclSE_AppCallbacks_t *pCBs );
//  238 #endif  // SE_UK_EXT
//  239 #endif  // ZCL_DEVICE_MGMT
//  240 
//  241 #ifdef SE_UK_EXT
//  242 static uint8 zclSE_Parse_UTF8String( uint8 *pBuf, UTF8String_t *pString, uint8 maxLen );
//  243 #endif  // SE_UK_EXT
//  244 
//  245 #ifdef ZCL_SIMPLE_METERING
//  246 /*********************************************************************
//  247  * @fn      zclSE_SimpleMetering_Send_GetProfileCmd
//  248  *
//  249  * @brief   Call to send out a Get Profile Command
//  250  *
//  251  * @param   srcEP - Sending application's endpoint
//  252  * @param   dstAddr - where you want the message to go
//  253  * @param   channel - returned inteval (delivered @ 0; received @ 1)
//  254  * @param   endTime - UTC time for the starting time of requested interval
//  255  * @param   numOfPeriods - number of periods requested
//  256  * @param   disableDefaultRsp - disable default response
//  257  * @param   seqNum - ZCL sequence number
//  258  *
//  259  * @return  ZStatus_t
//  260  */
//  261 ZStatus_t zclSE_SimpleMetering_Send_GetProfileCmd( uint8 srcEP, afAddrType_t *dstAddr,
//  262                                                       uint8 channel, uint32 endTime, uint8 numOfPeriods,
//  263                                                       uint8 disableDefaultRsp, uint8 seqNum )
//  264 {
//  265   uint8 buf[6];
//  266 
//  267   buf[0] = channel;
//  268   osal_buffer_uint32( &buf[1], endTime );
//  269   buf[5] = numOfPeriods;
//  270 
//  271   return zcl_SendCommand( srcEP, dstAddr, ZCL_CLUSTER_ID_SE_SIMPLE_METERING,
//  272                           COMMAND_SE_GET_PROFILE_CMD, TRUE,
//  273                           ZCL_FRAME_CLIENT_SERVER_DIR, disableDefaultRsp, 0, seqNum, 6, buf );
//  274 }
//  275 
//  276 /*********************************************************************
//  277  * @fn      zclSE_SimpleMetering_Send_GetProfileRsp
//  278  *
//  279  * @brief   Call to send out a Get Profile Response
//  280  *
//  281  * @param   srcEP - Sending application's endpoint
//  282  * @param   dstAddr - where you want the message to go
//  283  * @param   endTime - UTC time for the starting time of requested interval
//  284  * @param   intervals - data buffer holding an array of interval data captured
//  285  *          using the period
//  286  *          specified by the ProfileIntervalPeriod attribute. Data is organized
//  287  *          in a reverse chronological order, the most recent interval is
//  288  *          transmitted first and the oldest interval is transmitted last.
//  289  *          Invalid intervals intervals should be marked as 0xFFFFFF
//  290  * @param   len - length of the intervals buffer
//  291  * @param   disableDefaultRsp - disable default response
//  292  * @param   seqNum - ZCL sequence number
//  293  *
//  294  * @return  ZStatus_t
//  295  */
//  296 ZStatus_t zclSE_SimpleMetering_Send_GetProfileRsp( uint8 srcEP, afAddrType_t *dstAddr,
//  297                                                    uint32 endTime, uint8 rspStatus, uint8 profileIntervalPeriod,
//  298                                                    uint8 numOfPeriodDelivered, uint24 *intervals,
//  299                                                    uint8 disableDefaultRsp, uint8 seqNum )
//  300 {
//  301   uint8 *buf;
//  302   uint8 *pBuf;
//  303   uint8 i;
//  304   uint8 len;
//  305   ZStatus_t status;
//  306 
//  307   // endTime + status + profileIntervalPeriod + numOfEntry + array
//  308   len = 4 + 1 + 1 + 1 + (3 * numOfPeriodDelivered);
//  309   buf = osal_mem_alloc( len );
//  310   if ( buf == NULL )
//  311   {
//  312     return ( ZMemError );
//  313   }
//  314 
//  315   osal_buffer_uint32( buf, endTime );
//  316   buf[4] = rspStatus;
//  317   buf[5] = profileIntervalPeriod;
//  318 
//  319   // Starting of the array of uint24
//  320   buf[6] = numOfPeriodDelivered;   // Number of entries in the array
//  321   pBuf = &buf[7];
//  322   for ( i = 0; i < numOfPeriodDelivered; i++ )
//  323   {
//  324     pBuf = osal_buffer_uint24( pBuf, *intervals++ );
//  325   }
//  326 
//  327   status = zcl_SendCommand( srcEP, dstAddr, ZCL_CLUSTER_ID_SE_SIMPLE_METERING,
//  328                             COMMAND_SE_GET_PROFILE_RSP, TRUE,
//  329                             ZCL_FRAME_SERVER_CLIENT_DIR, disableDefaultRsp, 0, seqNum, len, buf );
//  330 
//  331   osal_mem_free( buf );
//  332 
//  333   return status;
//  334 }
//  335 
//  336 /*********************************************************************
//  337  * @fn      zclSE_SimpleMetering_Send_ReqMirrorRsp
//  338  *
//  339  * @brief   Call to send out a Request Mirror Response
//  340  *
//  341  * @param   srcEP - Sending application's endpoint
//  342  * @param   dstAddr - where you want the message to go
//  343  *
//  344  * @return  ZStatus_t
//  345  */
//  346 ZStatus_t zclSE_SimpleMetering_Send_ReqMirrorRsp( uint8 srcEP, afAddrType_t *dstAddr,
//  347                                                       uint16 endpointId,
//  348                                                       uint8 disableDefaultRsp, uint8 seqNum )
//  349 {
//  350   ZStatus_t status;
//  351   uint8 buf[2];
//  352 
//  353   buf[0] = (uint8) endpointId ;
//  354   buf[1] = (uint8)( endpointId >> 8 );
//  355 
//  356   status = zcl_SendCommand( srcEP, dstAddr, ZCL_CLUSTER_ID_SE_SIMPLE_METERING,
//  357                             COMMAND_SE_REQ_MIRROR_RSP, TRUE,
//  358                             ZCL_FRAME_CLIENT_SERVER_DIR, disableDefaultRsp, 0, seqNum, 2, buf );
//  359 
//  360   return status ;
//  361 }
//  362 
//  363 /*********************************************************************
//  364  * @fn      zclSE_SimpleMetering_Send_RemMirrorRsp
//  365  *
//  366  * @brief   Call to send out a Remove Mirror Response
//  367  *
//  368  * @param   srcEP - Sending application's endpoint
//  369  * @param   dstAddr - where you want the message to go
//  370  *
//  371  * @return  ZStatus_t
//  372  */
//  373 ZStatus_t zclSE_SimpleMetering_Send_RemMirrorRsp( uint8 srcEP, afAddrType_t *dstAddr,
//  374                                                       uint16 endpointId,
//  375                                                       uint8 disableDefaultRsp, uint8 seqNum )
//  376 {
//  377   ZStatus_t status;
//  378   uint8 buf[2];
//  379 
//  380   buf[0] = (uint8) endpointId ;
//  381   buf[1] = (uint8)( endpointId >> 8 );
//  382 
//  383   status = zcl_SendCommand( srcEP, dstAddr, ZCL_CLUSTER_ID_SE_SIMPLE_METERING,
//  384                             COMMAND_SE_MIRROR_REM_RSP, TRUE,
//  385                             ZCL_FRAME_CLIENT_SERVER_DIR, disableDefaultRsp, 0, seqNum, 2, buf );
//  386 
//  387   return status ;
//  388 }
//  389 
//  390 
//  391 /*********************************************************************
//  392  * @fn      zclSE_SimpleMetering_Send_ReqFastPollModeCmd
//  393  *
//  394  * @brief   Call to send out a Request Fast Poll Mode Command
//  395  *
//  396  * @param   srcEP - Sending application's endpoint
//  397  * @param   dstAddr - where you want the message to go
//  398  * @param   pCmd - zclCCReqFastPollModeCmd_t command
//  399  * @param   disableDefaultRsp - disable default response
//  400  * @param   seqNum - ZCL sequence number
//  401  *
//  402  * @return  ZStatus_t
//  403  */
//  404 ZStatus_t zclSE_SimpleMetering_Send_ReqFastPollModeCmd( uint8 srcEP, afAddrType_t *dstAddr,
//  405                                                         zclCCReqFastPollModeCmd_t *pCmd,
//  406                                                         uint8 disableDefaultRsp, uint8 seqNum )
//  407 {
//  408   ZStatus_t status;
//  409   uint8 buf[PACKET_LEN_SE_METERING_FAST_POLLING_REQ];
//  410 
//  411   buf[0] = pCmd->fastPollUpdatePeriod;
//  412   buf[1] = pCmd->duration;
//  413 
//  414   status = zcl_SendCommand( srcEP, dstAddr, ZCL_CLUSTER_ID_SE_SIMPLE_METERING,
//  415                             COMMAND_SE_REQ_FAST_POLL_MODE_CMD, TRUE,
//  416                             ZCL_FRAME_CLIENT_SERVER_DIR, disableDefaultRsp, 0, seqNum,
//  417                             PACKET_LEN_SE_METERING_FAST_POLLING_REQ, buf );
//  418 
//  419   return status ;
//  420 }
//  421 
//  422 /*********************************************************************
//  423  * @fn      zclSE_SimpleMetering_Send_ReqFastPollModeRsp
//  424  *
//  425  * @brief   Call to send out a Request Fast Poll Mode Response
//  426  *
//  427  * @param   srcEP - Sending application's endpoint
//  428  * @param   dstAddr - where you want the message to go
//  429  * @param   pCmd - zclCCReqFastPollModeRsp_t command
//  430  * @param   disableDefaultRsp - disable default response
//  431  * @param   seqNum - ZCL sequence number
//  432  *
//  433  * @return  ZStatus_t
//  434  */
//  435 ZStatus_t zclSE_SimpleMetering_Send_ReqFastPollModeRsp( uint8 srcEP, afAddrType_t *dstAddr,
//  436                                                         zclCCReqFastPollModeRsp_t *pCmd,
//  437                                                         uint8 disableDefaultRsp, uint8 seqNum )
//  438 {
//  439   ZStatus_t status;
//  440   uint8 buf[PACKET_LEN_SE_METERING_FAST_POLLING_RSP];
//  441 
//  442   buf[0] = pCmd->appliedUpdatePeriod;
//  443   osal_buffer_uint32( &buf[1], pCmd->fastPollModeEndTime );
//  444 
//  445   status = zcl_SendCommand( srcEP, dstAddr, ZCL_CLUSTER_ID_SE_SIMPLE_METERING,
//  446                             COMMAND_SE_REQ_FAST_POLL_MODE_RSP, TRUE,
//  447                             ZCL_FRAME_SERVER_CLIENT_DIR, disableDefaultRsp, 0, seqNum,
//  448                             PACKET_LEN_SE_METERING_FAST_POLLING_RSP, buf );
//  449 
//  450   return status ;
//  451 }
//  452 
//  453 #ifdef SE_UK_EXT
//  454 /*********************************************************************
//  455  * @fn      zclSE_SimpleMetering_Send_GetSnapshotCmd
//  456  *
//  457  * @brief   Call to send out a Get Snapshot Command
//  458  *
//  459  * @param   srcEP - Sending application's endpoint
//  460  * @param   dstAddr - where you want the message to go
//  461  * @param   pCmd - zclCCReqGetSnapshotCmd_t command
//  462  * @param   disableDefaultRsp - disable default response
//  463  * @param   seqNum - ZCL sequence number
//  464  *
//  465  * @return  ZStatus_t
//  466  */
//  467 ZStatus_t zclSE_SimpleMetering_Send_GetSnapshotCmd( uint8 srcEP, afAddrType_t *dstAddr,
//  468                                                     zclCCReqGetSnapshotCmd_t *pCmd,
//  469                                                     uint8 disableDefaultRsp, uint8 seqNum )
//  470 {
//  471   ZStatus_t status;
//  472   uint8 buf[PACKET_LEN_SE_GET_SNAPSHOT_CMD];
//  473 
//  474   osal_buffer_uint32( &buf[0], pCmd->StartTime );
//  475   buf[4] = pCmd->NumberOfSnapshots;
//  476   buf[5] = LO_UINT16( pCmd->SnapshotCause );
//  477   buf[6] = HI_UINT16( pCmd->SnapshotCause );
//  478 
//  479   status = zcl_SendCommand( srcEP, dstAddr, ZCL_CLUSTER_ID_SE_SIMPLE_METERING,
//  480                             COMMAND_SE_GET_SNAPSHOT_CMD, TRUE,
//  481                             ZCL_FRAME_CLIENT_SERVER_DIR, disableDefaultRsp, 0, seqNum,
//  482                             PACKET_LEN_SE_GET_SNAPSHOT_CMD, buf );
//  483 
//  484   return status;
//  485 }
//  486 
//  487 /*********************************************************************
//  488  * @fn      zclSE_SimpleMetering_Send_GetSnapshotRsp
//  489  *
//  490  * @brief   Call to send out a Get Snapshot Response
//  491  *
//  492  * @param   srcEP - Sending application's endpoint
//  493  * @param   dstAddr - where you want the message to go
//  494  * @param   pCmd - zclCCReqGetSnapshotRsp_t command
//  495  * @param   disableDefaultRsp - disable default response
//  496  * @param   seqNum - ZCL sequence number
//  497  *
//  498  * @return  ZStatus_t
//  499  */
//  500 ZStatus_t zclSE_SimpleMetering_Send_GetSnapshotRsp( uint8 srcEP, afAddrType_t *dstAddr,
//  501                                                     zclCCReqGetSnapshotRsp_t *pCmd,
//  502                                                     uint8 disableDefaultRsp, uint8 seqNum )
//  503 {
//  504   uint8 *buf;
//  505   uint8 *pBuf;
//  506   uint16 bufLen;
//  507   ZStatus_t status;
//  508   uint16 payloadLen;
//  509 
//  510   if ( pCmd->pSnapshotPayload )
//  511   {
//  512     switch( pCmd->SnapshotPayloadType )
//  513     {
//  514       case SE_SNAPSHOT_TYPE_CSD_AND_RCV_REGISTER:
//  515         payloadLen = SE_SNAPSHOT_CSD_AND_RCV_REGISTER_PAYLOAD_LEN;
//  516         break;
//  517 
//  518       case SE_SNAPSHOT_TYPE_TOU_INFO_RECEIVED:
//  519       case SE_SNAPSHOT_TYPE_TOU_INFO_DELIVERED:
//  520         // Len in Bytes = (uint8) + (NumberOfTiersInUse * (48BitIntegers))
//  521         payloadLen = 1 + (pCmd->pSnapshotPayload[0] * 6);
//  522         break;
//  523 
//  524       case SE_SNAPSHOT_TYPE_BLOCK_INFO_RECEIVED:
//  525       case SE_SNAPSHOT_TYPE_BLOCK_INFO_DELIVERED:
//  526         // Len in Bytes = (uint8) + (NumberOfTiersAndBlockThresholdsInUse * (32BitIntegers))
//  527         payloadLen = 1 + (pCmd->pSnapshotPayload[0] * 4);
//  528         break;
//  529 
//  530       default:
//  531         return ZInvalidParameter;
//  532     }
//  533 
//  534     bufLen = PACKET_LEN_SE_GET_SNAPSHOT_RSP + payloadLen;
//  535 
//  536     buf = osal_mem_alloc( bufLen );
//  537     if ( buf == NULL )
//  538     {
//  539       return ( ZMemError );
//  540     }
//  541 
//  542     pBuf = osal_buffer_uint32( buf, pCmd->IssuerEventID );
//  543     pBuf = osal_buffer_uint32( pBuf, pCmd->SnapshotTime );
//  544     *pBuf++ = pCmd->CommandIndex;
//  545     *pBuf++ = LO_UINT16( pCmd->SnapshotCause );
//  546     *pBuf++ = HI_UINT16( pCmd->SnapshotCause );
//  547     *pBuf++ = pCmd->SnapshotPayloadType;
//  548 
//  549     osal_memcpy(pBuf, pCmd->pSnapshotPayload, payloadLen);
//  550 
//  551     status = zcl_SendCommand( srcEP, dstAddr, ZCL_CLUSTER_ID_SE_SIMPLE_METERING,
//  552                               COMMAND_SE_GET_SNAPSHOT_RSP, TRUE,
//  553                               ZCL_FRAME_SERVER_CLIENT_DIR, disableDefaultRsp, 0, seqNum,
//  554                               bufLen, buf );
//  555 
//  556     osal_mem_free( buf );
//  557 
//  558     return status;
//  559   }
//  560   else
//  561   {
//  562     return ZInvalidParameter;
//  563   }
//  564 }
//  565 
//  566 /*********************************************************************
//  567  * @fn      zclSE_SimpleMetering_Send_TakeSnapshot
//  568  *
//  569  * @brief   Call to send out a Take Snapshot
//  570  *
//  571  * @param   srcEP - Sending application's endpoint
//  572  * @param   dstAddr - where you want the message to go
//  573  * @param   disableDefaultRsp - disable default response
//  574  * @param   seqNum - ZCL sequence number
//  575  *
//  576  * @return  ZStatus_t
//  577  */
//  578 ZStatus_t zclSE_SimpleMetering_Send_TakeSnapshot( uint8 srcEP, afAddrType_t *dstAddr,
//  579                                                   uint8 disableDefaultRsp, uint8 seqNum )
//  580 {
//  581   return zcl_SendCommand( srcEP, dstAddr, ZCL_CLUSTER_ID_SE_SIMPLE_METERING,
//  582                           COMMAND_SE_TAKE_SNAPSHOT_CMD, TRUE,
//  583                           ZCL_FRAME_CLIENT_SERVER_DIR, disableDefaultRsp, 0, seqNum,
//  584                           0, NULL );
//  585 }
//  586 
//  587 /*********************************************************************
//  588  * @fn      zclSE_SimpleMetering_Send_MirrorReportAttrRsp
//  589  *
//  590  * @brief   Call to send out a Mirror Report Attribute Response
//  591  *
//  592  * @param   srcEP - Sending application's endpoint
//  593  * @param   dstAddr - where you want the message to go
//  594  * @param   pCmd - zclCCReqMirrorReportAttrRsp_t command
//  595  * @param   disableDefaultRsp - disable default response
//  596  * @param   seqNum - ZCL sequence number
//  597  *
//  598  * @return  ZStatus_t
//  599  */
//  600 ZStatus_t zclSE_SimpleMetering_Send_MirrorReportAttrRsp( uint8 srcEP, afAddrType_t *dstAddr,
//  601                                                          zclCCReqMirrorReportAttrRsp_t *pCmd,
//  602                                                          uint8 disableDefaultRsp, uint8 seqNum )
//  603 {
//  604   ZStatus_t status;
//  605   uint8 buf[PACKET_LEN_SE_MIRROR_REPORT_ATTR_RSP];
//  606 
//  607   buf[0] = pCmd->NotificationFlags;
//  608   buf[1] = LO_UINT16( pCmd->PriceNotificationFlags );
//  609   buf[2] = HI_UINT16( pCmd->PriceNotificationFlags );
//  610   buf[3] = pCmd->CalendarNotificationFlags;
//  611   buf[4] = LO_UINT16( pCmd->PrePayNotificationFlags );
//  612   buf[5] = HI_UINT16( pCmd->PrePayNotificationFlags );
//  613   buf[6] = pCmd->DeviceMgmtNotificationFlags;
//  614 
//  615   status = zcl_SendCommand( srcEP, dstAddr, ZCL_CLUSTER_ID_SE_SIMPLE_METERING,
//  616                             COMMAND_SE_MIRROR_REPORT_ATTR_RSP, TRUE,
//  617                             ZCL_FRAME_CLIENT_SERVER_DIR, disableDefaultRsp, 0, seqNum,
//  618                             PACKET_LEN_SE_MIRROR_REPORT_ATTR_RSP, buf );
//  619 
//  620   return status;
//  621 }
//  622 #endif  // SE_UK_EXT
//  623 #endif  // ZCL_SIMPLE_METERING
//  624 
//  625 #ifdef ZCL_PRICING
//  626 /*********************************************************************
//  627  * @fn      zclSE_Pricing_Send_GetScheduledPrice
//  628  *
//  629  * @brief   Call to send out a Get Scheduled Price Command
//  630  *
//  631  * @param   srcEP - Sending application's endpoint
//  632  * @param   dstAddr - where you want the message to go
//  633  * @param   pCmd - command payload
//  634  * @param   disableDefaultRsp - disable default response
//  635  * @param   seqNum - ZCL sequence number
//  636  *
//  637  * @return  ZStatus_t
//  638  */
//  639 ZStatus_t zclSE_Pricing_Send_GetScheduledPrice( uint8 srcEP, afAddrType_t *dstAddr,
//  640                                             zclCCGetScheduledPrice_t *pCmd,
//  641                                             uint8 disableDefaultRsp, uint8 seqNum )
//  642 {
//  643   uint8 buf[5];
//  644   ZStatus_t status;
//  645 
//  646   osal_buffer_uint32( buf, pCmd->startTime );
//  647   buf[4] = pCmd->numEvents;
//  648 
//  649   status = zcl_SendCommand( srcEP, dstAddr, ZCL_CLUSTER_ID_SE_PRICING,
//  650                             COMMAND_SE_GET_SCHEDULED_PRICE, TRUE,
//  651                             ZCL_FRAME_CLIENT_SERVER_DIR, disableDefaultRsp, 0,
//  652                             seqNum, 5, buf );
//  653 
//  654   return status;
//  655 }
//  656 
//  657 /*********************************************************************
//  658  * @fn      zclSE_Pricing_Send_PublishPrice
//  659  *
//  660  * @brief   Call to send out a Publish Price Command
//  661  *
//  662  * @param   srcEP - Sending application's endpoint
//  663  * @param   dstAddr - where you want the message to go
//  664  * @param   pCmd - command payload
//  665  * @param   disableDefaultRsp - disable default response
//  666  * @param   seqNum - ZCL sequence number
//  667  *
//  668  * @return  ZStatus_t
//  669  */
//  670 ZStatus_t zclSE_Pricing_Send_PublishPrice( uint8 srcEP, afAddrType_t *dstAddr,
//  671                                             zclCCPublishPrice_t *pCmd,
//  672                                             uint8 disableDefaultRsp, uint8 seqNum )
//  673 {
//  674   uint8 *buf;
//  675   uint8 *pBuf;
//  676   uint16 bufLen;
//  677   ZStatus_t status;
//  678 
//  679   bufLen = PACKET_LEN_SE_PUBLISH_PRICE + pCmd->rateLabel.strLen;
//  680   buf = osal_mem_alloc( bufLen );
//  681   if ( buf == NULL )
//  682   {
//  683     return ( ZMemError );
//  684   }
//  685 
//  686   pBuf = osal_buffer_uint32( buf, pCmd->providerId );
//  687   *pBuf++ = pCmd->rateLabel.strLen;
//  688   pBuf = osal_memcpy( pBuf, pCmd->rateLabel.pStr, pCmd->rateLabel.strLen );
//  689   pBuf = osal_buffer_uint32( pBuf, pCmd->issuerEventId );
//  690   pBuf = osal_buffer_uint32( pBuf, pCmd->currentTime );
//  691   *pBuf++ = pCmd->unitOfMeasure;
//  692   *pBuf++ = LO_UINT16( pCmd->currency );
//  693   *pBuf++ = HI_UINT16( pCmd->currency );
//  694   *pBuf++ = pCmd->priceTrailingDigit;
//  695   *pBuf++ = pCmd->numberOfPriceTiers;
//  696   pBuf = osal_buffer_uint32( pBuf, pCmd->startTime );
//  697   *pBuf++ = LO_UINT16( pCmd->durationInMinutes );
//  698   *pBuf++ = HI_UINT16( pCmd->durationInMinutes );
//  699   pBuf = osal_buffer_uint32( pBuf, pCmd->price );
//  700   *pBuf++ = pCmd->priceRatio;
//  701   pBuf = osal_buffer_uint32( pBuf, pCmd->generationPrice );
//  702   *pBuf++ = pCmd->generationPriceRatio;
//  703   pBuf = osal_buffer_uint32( pBuf, pCmd->alternateCostDelivered );
//  704   *pBuf++ = pCmd->alternateCostUnit;
//  705   *pBuf++ = pCmd->alternateCostTrailingDigit;
//  706   *pBuf++ = pCmd->numberOfBlockThresholds;
//  707   *pBuf = pCmd->priceControl;
//  708 
//  709   status = zcl_SendCommand( srcEP, dstAddr, ZCL_CLUSTER_ID_SE_PRICING,
//  710                             COMMAND_SE_PUBLISH_PRICE, TRUE,
//  711                             ZCL_FRAME_SERVER_CLIENT_DIR, disableDefaultRsp, 0,
//  712                             seqNum, bufLen, buf );
//  713 
//  714   osal_mem_free( buf );
//  715 
//  716   return status;
//  717 }
//  718 
//  719 /*********************************************************************
//  720  * @fn      zclSE_Pricing_Send_PriceAcknowledgement
//  721  *
//  722  * @brief   Call to send out a Price Acknowledgement
//  723  *
//  724  * @param   srcEP - Sending application's endpoint
//  725  * @param   dstAddr - where you want the message to go
//  726  * @param   pCmd - command payload
//  727  * @param   disableDefaultRsp - disable default response
//  728  * @param   seqNum - ZCL sequence number
//  729  *
//  730  * @return  ZStatus_t
//  731  */
//  732 ZStatus_t zclSE_Pricing_Send_PriceAcknowledgement( uint8 srcEP, afAddrType_t *dstAddr,
//  733                                             zclCCPriceAcknowledgement_t *pCmd,
//  734                                             uint8 disableDefaultRsp, uint8 seqNum )
//  735 {
//  736   uint8 *buf;
//  737   uint8 *pBuf;
//  738   ZStatus_t status;
//  739 
//  740   buf = osal_mem_alloc( PACKET_LEN_SE_PRICE_ACKNOWLEDGEMENT );
//  741   if ( buf == NULL )
//  742   {
//  743     return ( ZMemError );
//  744   }
//  745 
//  746   pBuf = osal_buffer_uint32( buf, pCmd->providerId );
//  747   pBuf = osal_buffer_uint32( pBuf, pCmd->issuerEventId );
//  748   pBuf = osal_buffer_uint32( pBuf, pCmd->priceAckTime );
//  749   *pBuf = pCmd->control;
//  750 
//  751   status = zcl_SendCommand( srcEP, dstAddr, ZCL_CLUSTER_ID_SE_PRICING,
//  752                             COMMAND_SE_PRICE_ACKNOWLEDGEMENT, TRUE,
//  753                             ZCL_FRAME_CLIENT_SERVER_DIR, disableDefaultRsp, 0,
//  754                             seqNum, PACKET_LEN_SE_PRICE_ACKNOWLEDGEMENT, buf );
//  755 
//  756   osal_mem_free( buf );
//  757 
//  758   return status;
//  759 }
//  760 
//  761 /*********************************************************************
//  762  * @fn      zclSE_Pricing_Send_GetBlockPeriod
//  763  *
//  764  * @brief   Call to send out a Get Block Period
//  765  *
//  766  * @param   srcEP - Sending application's endpoint
//  767  * @param   dstAddr - where you want the message to go
//  768  * @param   pCmd - command payload
//  769  * @param   disableDefaultRsp - disable default response
//  770  * @param   seqNum - ZCL sequence number
//  771  *
//  772  * @return  ZStatus_t
//  773  */
//  774 ZStatus_t zclSE_Pricing_Send_GetBlockPeriod( uint8 srcEP, afAddrType_t *dstAddr,
//  775                                              zclCCGetBlockPeriod_t *pCmd,
//  776                                              uint8 disableDefaultRsp, uint8 seqNum )
//  777 {
//  778   uint8 buf[5];
//  779   ZStatus_t status;
//  780 
//  781   osal_buffer_uint32( buf, pCmd->startTime );
//  782   buf[4] = pCmd->numEvents;
//  783 
//  784   status = zcl_SendCommand( srcEP, dstAddr, ZCL_CLUSTER_ID_SE_PRICING,
//  785                             COMMAND_SE_GET_BLOCK_PERIOD, TRUE,
//  786                             ZCL_FRAME_CLIENT_SERVER_DIR, disableDefaultRsp, 0,
//  787                             seqNum, 5, buf );
//  788 
//  789   return status;
//  790 }
//  791 
//  792 /*********************************************************************
//  793  * @fn      zclSE_Pricing_Send_PublishBlockPeriod
//  794  *
//  795  * @brief   Call to send out a Publish Block Period
//  796  *
//  797  * @param   srcEP - Sending application's endpoint
//  798  * @param   dstAddr - where you want the message to go
//  799  * @param   pCmd - command payload
//  800  * @param   disableDefaultRsp - disable default response
//  801  * @param   seqNum - ZCL sequence number
//  802  *
//  803  * @return  ZStatus_t
//  804  */
//  805 ZStatus_t zclSE_Pricing_Send_PublishBlockPeriod( uint8 srcEP, afAddrType_t *dstAddr,
//  806                                             zclCCPublishBlockPeriod_t *pCmd,
//  807                                             uint8 disableDefaultRsp, uint8 seqNum )
//  808 {
//  809   uint8 *buf;
//  810   uint8 *pBuf;
//  811   uint16 bufLen;
//  812   ZStatus_t status;
//  813 
//  814   bufLen = PACKET_LEN_SE_PUBLISH_BLOCK_PERIOD;
//  815   buf = osal_mem_alloc( bufLen );
//  816   if ( buf == NULL )
//  817   {
//  818     return ( ZMemError );
//  819   }
//  820 
//  821   pBuf = osal_buffer_uint32( buf, pCmd->providerId );
//  822   pBuf = osal_buffer_uint32( pBuf, pCmd->issuerEventId );
//  823   pBuf = osal_buffer_uint32( pBuf, pCmd->blockPeriodStartTime );
//  824   pBuf = osal_buffer_uint24( pBuf, pCmd->blockPeriodDurInMins );
//  825   *pBuf++ = pCmd->numPriceTiersAndBlock;
//  826 #ifdef SE_UK_EXT
//  827   *pBuf++ = pCmd->tariffType;
//  828 #endif
//  829   *pBuf = pCmd->blockPeriodControl;
//  830 
//  831   status = zcl_SendCommand( srcEP, dstAddr, ZCL_CLUSTER_ID_SE_PRICING,
//  832                             COMMAND_SE_PUBLISH_BLOCK_PERIOD, TRUE,
//  833                             ZCL_FRAME_SERVER_CLIENT_DIR, disableDefaultRsp, 0,
//  834                             seqNum, bufLen, buf );
//  835 
//  836   osal_mem_free( buf );
//  837 
//  838   return status;
//  839 }
//  840 
//  841 #ifdef SE_UK_EXT
//  842 /*********************************************************************
//  843  * @fn      zclSE_Pricing_Send_PublishTariffInformation
//  844  *
//  845  * @brief   Call to send out a Publish Tariff Information
//  846  *
//  847  * @param   srcEP - Sending application's endpoint
//  848  * @param   dstAddr - where you want the message to go
//  849  * @param   pCmd - command payload
//  850  * @param   disableDefaultRsp - disable default response
//  851  * @param   seqNum - ZCL sequence number
//  852  *
//  853  * @return  ZStatus_t
//  854  */
//  855 ZStatus_t zclSE_Pricing_Send_PublishTariffInformation( uint8 srcEP, afAddrType_t *dstAddr,
//  856                                             zclCCPublishTariffInformation_t *pCmd,
//  857                                             uint8 disableDefaultRsp, uint8 seqNum )
//  858 {
//  859   uint8 *buf;
//  860   uint8 *pBuf;
//  861   uint16 bufLen;
//  862   ZStatus_t status;
//  863 
//  864   bufLen = PACKET_LEN_SE_MIN_PUBLISH_TARIFF_INFORMATION + pCmd->tarifLabel.strLen;
//  865   buf = osal_mem_alloc( bufLen );
//  866   if ( buf == NULL )
//  867   {
//  868     return ( ZMemError );
//  869   }
//  870 
//  871   pBuf = osal_buffer_uint32( buf, pCmd->supplierId );
//  872   pBuf = osal_buffer_uint32( pBuf, pCmd->issuerTariffId );
//  873   pBuf = osal_buffer_uint32( pBuf, pCmd->startTime );
//  874   *pBuf++ = pCmd->tariffType;
//  875   *pBuf++ = pCmd->tarifLabel.strLen;
//  876   pBuf = osal_memcpy( pBuf, pCmd->tarifLabel.pStr, pCmd->tarifLabel.strLen );
//  877   *pBuf++ = pCmd->numPriceTiersInUse;
//  878   *pBuf++ = pCmd->numBlockThresholdsInUse;
//  879   *pBuf++ = pCmd->unitOfMeasure;
//  880   *pBuf++ = LO_UINT16( pCmd->currency );
//  881   *pBuf++ = HI_UINT16( pCmd->currency );
//  882   *pBuf++ = pCmd->priceTrailingDigit;
//  883   pBuf = osal_buffer_uint32( pBuf, pCmd->standingCharge );
//  884   *pBuf++ = pCmd->tierBlockMode;
//  885   *pBuf++ = LO_UINT16( pCmd->blockThresholdMask );
//  886   *pBuf++ = HI_UINT16( pCmd->blockThresholdMask );
//  887   pBuf = osal_buffer_uint24( pBuf, pCmd->BlockThresholdMultiplier );
//  888   pBuf = osal_buffer_uint24( pBuf, pCmd->BlockThresholdDivisor );
//  889 
//  890   status = zcl_SendCommand( srcEP, dstAddr, ZCL_CLUSTER_ID_SE_PRICING,
//  891                             COMMAND_SE_PUBLISH_TARIFF_INFO, TRUE,
//  892                             ZCL_FRAME_SERVER_CLIENT_DIR, disableDefaultRsp, 0,
//  893                             seqNum, bufLen, buf );
//  894   osal_mem_free( buf );
//  895 
//  896   return status;
//  897 }
//  898 
//  899 /*********************************************************************
//  900  * @fn      zclSE_Pricing_Send_PublishPriceMatrix
//  901  *
//  902  * @brief   Call to send out a Publish Price Matrix
//  903  *
//  904  * @param   srcEP - Sending application's endpoint
//  905  * @param   dstAddr - where you want the message to go
//  906  * @param   pCmd - command payload
//  907  * @param   disableDefaultRsp - disable default response
//  908  * @param   seqNum - ZCL sequence number
//  909  *
//  910  * @return  ZStatus_t
//  911  */
//  912 ZStatus_t zclSE_Pricing_Send_PublishPriceMatrix( uint8 srcEP, afAddrType_t *dstAddr,
//  913                                                  zclCCPublishPriceMatrix_t *pCmd,
//  914                                                  uint8 disableDefaultRsp, uint8 seqNum )
//  915 {
//  916   uint8 *buf;
//  917   uint8 *pBuf;
//  918   uint16 bufLen;
//  919   ZStatus_t status;
//  920   uint8 i;
//  921 
//  922   bufLen = PACKET_LEN_SE_MIN_PUBLISH_PRICE_MATRIX + (pCmd->numElements * sizeof(uint32));
//  923   buf = osal_mem_alloc( bufLen );
//  924   if ( buf == NULL )
//  925   {
//  926     return ( ZMemError );
//  927   }
//  928 
//  929   pBuf = osal_buffer_uint32( buf, pCmd->issuerTariffId );
//  930   *pBuf++ = pCmd->commandIndex;
//  931 
//  932   for ( i = 0; i < pCmd->numElements; i++ )
//  933   {
//  934     pBuf = osal_buffer_uint32( pBuf, pCmd->pTierBlockPrice[i] );
//  935   }
//  936 
//  937   status = zcl_SendCommand( srcEP, dstAddr, ZCL_CLUSTER_ID_SE_PRICING,
//  938                             COMMAND_SE_PUBLISH_PRICE_MATRIX, TRUE,
//  939                             ZCL_FRAME_SERVER_CLIENT_DIR, disableDefaultRsp, 0,
//  940                             seqNum, bufLen, buf );
//  941   osal_mem_free( buf );
//  942 
//  943   return status;
//  944 }
//  945 
//  946 /*********************************************************************
//  947  * @fn      zclSE_Pricing_Send_PublishBlockThresholds
//  948  *
//  949  * @brief   Call to send out a Publish Block Thresholds
//  950  *
//  951  * @param   srcEP - Sending application's endpoint
//  952  * @param   dstAddr - where you want the message to go
//  953  * @param   pCmd - command payload
//  954  * @param   disableDefaultRsp - disable default response
//  955  * @param   seqNum - ZCL sequence number
//  956  *
//  957  * @return  ZStatus_t
//  958  */
//  959 ZStatus_t zclSE_Pricing_Send_PublishBlockThresholds( uint8 srcEP, afAddrType_t *dstAddr,
//  960                                                  zclCCPublishBlockThresholds_t *pCmd,
//  961                                                  uint8 disableDefaultRsp, uint8 seqNum )
//  962 {
//  963   uint8 *buf;
//  964   uint8 *pBuf;
//  965   uint16 bufLen;
//  966   ZStatus_t status;
//  967   uint8 i;
//  968 
//  969   bufLen = PACKET_LEN_SE_MIN_PUBLISH_BLOCK_THRESHOLD + (pCmd->numElements * 6);
//  970   buf = osal_mem_alloc( bufLen );
//  971   if ( buf == NULL )
//  972   {
//  973     return ( ZMemError );
//  974   }
//  975 
//  976   pBuf = osal_buffer_uint32( buf, pCmd->issuerTariffId );
//  977   *pBuf++ = pCmd->commandIndex;
//  978 
//  979   for ( i = 0; i < pCmd->numElements; i++ )
//  980   {
//  981     pBuf = osal_memcpy( pBuf, pCmd->pTierBlockThreshold[i], 6 );
//  982   }
//  983 
//  984   status = zcl_SendCommand( srcEP, dstAddr, ZCL_CLUSTER_ID_SE_PRICING,
//  985                             COMMAND_SE_PUBLISH_BLOCK_THRESHOLD, TRUE,
//  986                             ZCL_FRAME_SERVER_CLIENT_DIR, disableDefaultRsp, 0,
//  987                             seqNum, bufLen, buf );
//  988   osal_mem_free( buf );
//  989 
//  990   return status;
//  991 }
//  992 
//  993 /*********************************************************************
//  994  * @fn      zclSE_Pricing_Send_PublishConversionFactor
//  995  *
//  996  * @brief   Call to send out a Publish Conversion Factor
//  997  *
//  998  * @param   srcEP - Sending application's endpoint
//  999  * @param   dstAddr - where you want the message to go
// 1000  * @param   pCmd - command payload
// 1001  * @param   disableDefaultRsp - disable default response
// 1002  * @param   seqNum - ZCL sequence number
// 1003  *
// 1004  * @return  ZStatus_t
// 1005  */
// 1006 ZStatus_t zclSE_Pricing_Send_PublishConversionFactor( uint8 srcEP, afAddrType_t *dstAddr,
// 1007                                                  zclCCPublishConversionFactor_t *pCmd,
// 1008                                                  uint8 disableDefaultRsp, uint8 seqNum )
// 1009 {
// 1010   uint8 buf[PACKET_LEN_SE_PUBLISH_CONVERSION_FACTOR];
// 1011   uint8 *pBuf;
// 1012 
// 1013   pBuf = osal_buffer_uint32( buf, pCmd->issuerEventId );
// 1014   pBuf = osal_buffer_uint32( pBuf, pCmd->startTime );
// 1015   pBuf = osal_buffer_uint32( pBuf, pCmd->conversionFactor );
// 1016   *pBuf = pCmd->trailingDigit;
// 1017 
// 1018   return zcl_SendCommand( srcEP, dstAddr, ZCL_CLUSTER_ID_SE_PRICING,
// 1019                           COMMAND_SE_PUBLISH_CONVERSION_FACTOR, TRUE,
// 1020                           ZCL_FRAME_SERVER_CLIENT_DIR, disableDefaultRsp, 0,
// 1021                           seqNum, PACKET_LEN_SE_PUBLISH_CONVERSION_FACTOR, buf );
// 1022 }
// 1023 
// 1024 /*********************************************************************
// 1025  * @fn      zclSE_Pricing_Send_PublishCalorificValue
// 1026  *
// 1027  * @brief   Call to send out a Publish Calorific Value
// 1028  *
// 1029  * @param   srcEP - Sending application's endpoint
// 1030  * @param   dstAddr - where you want the message to go
// 1031  * @param   pCmd - command payload
// 1032  * @param   disableDefaultRsp - disable default response
// 1033  * @param   seqNum - ZCL sequence number
// 1034  *
// 1035  * @return  ZStatus_t
// 1036  */
// 1037 ZStatus_t zclSE_Pricing_Send_PublishCalorificValue( uint8 srcEP, afAddrType_t *dstAddr,
// 1038                                                  zclCCPublishCalorificValue_t *pCmd,
// 1039                                                  uint8 disableDefaultRsp, uint8 seqNum )
// 1040 {
// 1041   uint8 buf[PACKET_LEN_SE_PUBLISH_CALORIFIC_VALUE];
// 1042   uint8 *pBuf;
// 1043 
// 1044   pBuf = osal_buffer_uint32( buf, pCmd->issuerEventId );
// 1045   pBuf = osal_buffer_uint32( pBuf, pCmd->startTime );
// 1046   pBuf = osal_buffer_uint32( pBuf, pCmd->calorificValue );
// 1047   *pBuf++ = pCmd->calorificValueUnit;
// 1048   *pBuf = pCmd->trailingDigit;
// 1049 
// 1050   return zcl_SendCommand( srcEP, dstAddr, ZCL_CLUSTER_ID_SE_PRICING,
// 1051                           COMMAND_SE_PUBLISH_CALORIFIC_VALUE, TRUE,
// 1052                           ZCL_FRAME_SERVER_CLIENT_DIR, disableDefaultRsp, 0,
// 1053                           seqNum, PACKET_LEN_SE_PUBLISH_CALORIFIC_VALUE, buf );
// 1054 }
// 1055 
// 1056 /*********************************************************************
// 1057  * @fn      zclSE_Pricing_Send_PublishCO2Value
// 1058  *
// 1059  * @brief   Call to send out a Publish CO2 Value
// 1060  *
// 1061  * @param   srcEP - Sending application's endpoint
// 1062  * @param   dstAddr - where you want the message to go
// 1063  * @param   pCmd - command payload
// 1064  * @param   disableDefaultRsp - disable default response
// 1065  * @param   seqNum - ZCL sequence number
// 1066  *
// 1067  * @return  ZStatus_t
// 1068  */
// 1069 ZStatus_t zclSE_Pricing_Send_PublishCO2Value( uint8 srcEP, afAddrType_t *dstAddr,
// 1070                                                  zclCCPublishCO2Value_t *pCmd,
// 1071                                                  uint8 disableDefaultRsp, uint8 seqNum )
// 1072 {
// 1073   uint8 buf[PACKET_LEN_SE_PUBLISH_CO2_VALUE];
// 1074   uint8 *pBuf;
// 1075 
// 1076   pBuf = osal_buffer_uint32( buf, pCmd->issuerEventId );
// 1077   pBuf = osal_buffer_uint32( pBuf, pCmd->startTime );
// 1078   *pBuf++ = pCmd->tariffType;
// 1079   pBuf = osal_buffer_uint32( pBuf, pCmd->CO2Value );
// 1080   *pBuf++ = pCmd->CO2ValueUnit;
// 1081   *pBuf = pCmd->trailingDigit;
// 1082 
// 1083   return zcl_SendCommand( srcEP, dstAddr, ZCL_CLUSTER_ID_SE_PRICING,
// 1084                           COMMAND_SE_PUBLISH_CO2_VALUE, TRUE,
// 1085                           ZCL_FRAME_SERVER_CLIENT_DIR, disableDefaultRsp, 0,
// 1086                           seqNum, PACKET_LEN_SE_PUBLISH_CO2_VALUE, buf );
// 1087 }
// 1088 
// 1089 /*********************************************************************
// 1090  * @fn      zclSE_Pricing_Send_PublishCPPEvent
// 1091  *
// 1092  * @brief   Call to send out a Publish CPP Event
// 1093  *
// 1094  * @param   srcEP - Sending application's endpoint
// 1095  * @param   dstAddr - where you want the message to go
// 1096  * @param   pCmd - command payload
// 1097  * @param   disableDefaultRsp - disable default response
// 1098  * @param   seqNum - ZCL sequence number
// 1099  *
// 1100  * @return  ZStatus_t
// 1101  */
// 1102 ZStatus_t zclSE_Pricing_Send_PublishCPPEvent( uint8 srcEP, afAddrType_t *dstAddr,
// 1103                                                  zclCCPublishCPPEvent_t *pCmd,
// 1104                                                  uint8 disableDefaultRsp, uint8 seqNum )
// 1105 {
// 1106   uint8 buf[PACKET_LEN_SE_PUBLISH_CPP_EVENT];
// 1107   uint8 *pBuf;
// 1108 
// 1109   pBuf = osal_buffer_uint32( buf, pCmd->issuerEventId );
// 1110   pBuf = osal_buffer_uint32( pBuf, pCmd->startTime );
// 1111   *pBuf++ = LO_UINT16( pCmd->durationInMinutes );
// 1112   *pBuf++ = HI_UINT16( pCmd->durationInMinutes );
// 1113   *pBuf++ = pCmd->tariffType;
// 1114   *pBuf++ = pCmd->CPPPriceTier;
// 1115   *pBuf = pCmd->CPPAuth;
// 1116 
// 1117   return zcl_SendCommand( srcEP, dstAddr, ZCL_CLUSTER_ID_SE_PRICING,
// 1118                           COMMAND_SE_PUBLISH_CPP_EVENT, TRUE,
// 1119                           ZCL_FRAME_SERVER_CLIENT_DIR, disableDefaultRsp, 0,
// 1120                           seqNum, PACKET_LEN_SE_PUBLISH_CPP_EVENT, buf );
// 1121 }
// 1122 
// 1123 /*********************************************************************
// 1124  * @fn      zclSE_Pricing_Send_PublishBillingPeriod
// 1125  *
// 1126  * @brief   Call to send out a Publish Billing Period
// 1127  *
// 1128  * @param   srcEP - Sending application's endpoint
// 1129  * @param   dstAddr - where you want the message to go
// 1130  * @param   pCmd - command payload
// 1131  * @param   disableDefaultRsp - disable default response
// 1132  * @param   seqNum - ZCL sequence number
// 1133  *
// 1134  * @return  ZStatus_t
// 1135  */
// 1136 ZStatus_t zclSE_Pricing_Send_PublishBillingPeriod( uint8 srcEP, afAddrType_t *dstAddr,
// 1137                                                  zclCCPublishBillingPeriod_t *pCmd,
// 1138                                                  uint8 disableDefaultRsp, uint8 seqNum )
// 1139 {
// 1140   uint8 buf[PACKET_LEN_SE_PUBLISH_BILLING_PERIOD];
// 1141   uint8 *pBuf;
// 1142 
// 1143   pBuf = osal_buffer_uint32( buf, pCmd->issuerEventId );
// 1144   pBuf = osal_buffer_uint32( pBuf, pCmd->startTime );
// 1145   pBuf = osal_buffer_uint24( pBuf, pCmd->duration );
// 1146   *pBuf = pCmd->tariffType;
// 1147 
// 1148   return zcl_SendCommand( srcEP, dstAddr, ZCL_CLUSTER_ID_SE_PRICING,
// 1149                           COMMAND_SE_PUBLISH_BILLING_PERIOD, TRUE,
// 1150                           ZCL_FRAME_SERVER_CLIENT_DIR, disableDefaultRsp, 0,
// 1151                           seqNum, PACKET_LEN_SE_PUBLISH_BILLING_PERIOD, buf );
// 1152 }
// 1153 
// 1154 /*********************************************************************
// 1155  * @fn      zclSE_Pricing_Send_PublishConsolidatedBill
// 1156  *
// 1157  * @brief   Call to send out a Publish Consolidated Bill
// 1158  *
// 1159  * @param   srcEP - Sending application's endpoint
// 1160  * @param   dstAddr - where you want the message to go
// 1161  * @param   pCmd - command payload
// 1162  * @param   disableDefaultRsp - disable default response
// 1163  * @param   seqNum - ZCL sequence number
// 1164  *
// 1165  * @return  ZStatus_t
// 1166  */
// 1167 ZStatus_t zclSE_Pricing_Send_PublishConsolidatedBill( uint8 srcEP, afAddrType_t *dstAddr,
// 1168                                                  zclCCPublishConsolidatedBill_t *pCmd,
// 1169                                                  uint8 disableDefaultRsp, uint8 seqNum )
// 1170 {
// 1171   uint8 buf[PACKET_LEN_SE_PUBLISH_CONSOLIDATED_BILL];
// 1172   uint8 *pBuf;
// 1173 
// 1174   pBuf = osal_buffer_uint32( buf, pCmd->issuerEventId );
// 1175   pBuf = osal_buffer_uint32( pBuf, pCmd->startTime );
// 1176   pBuf = osal_buffer_uint24( pBuf, pCmd->duration );
// 1177   *pBuf++ = pCmd->tariffType;
// 1178   pBuf = osal_buffer_uint32( pBuf, pCmd->consolidatedBill );
// 1179   *pBuf++ = LO_UINT16( pCmd->currency );
// 1180   *pBuf++ = HI_UINT16( pCmd->currency );
// 1181   *pBuf = pCmd->trailingDigit;
// 1182 
// 1183   return zcl_SendCommand( srcEP, dstAddr, ZCL_CLUSTER_ID_SE_PRICING,
// 1184                           COMMAND_SE_PUBLISH_CONSOLIDATED_BILL, TRUE,
// 1185                           ZCL_FRAME_SERVER_CLIENT_DIR, disableDefaultRsp, 0,
// 1186                           seqNum, PACKET_LEN_SE_PUBLISH_CONSOLIDATED_BILL, buf );
// 1187 }
// 1188 
// 1189 /*********************************************************************
// 1190  * @fn      zclSE_Pricing_Send_PublishCreditPaymentInfo
// 1191  *
// 1192  * @brief   Call to send out a Publish Credit Payment Info
// 1193  *
// 1194  * @param   srcEP - Sending application's endpoint
// 1195  * @param   dstAddr - where you want the message to go
// 1196  * @param   pCmd - command payload
// 1197  * @param   disableDefaultRsp - disable default response
// 1198  * @param   seqNum - ZCL sequence number
// 1199  *
// 1200  * @return  ZStatus_t
// 1201  */
// 1202 ZStatus_t zclSE_Pricing_Send_PublishCreditPaymentInfo( uint8 srcEP, afAddrType_t *dstAddr,
// 1203                                                  zclCCPublishCreditPaymentInfo_t *pCmd,
// 1204                                                  uint8 disableDefaultRsp, uint8 seqNum )
// 1205 {
// 1206   uint8 *buf;
// 1207   uint8 *pBuf;
// 1208   uint16 bufLen;
// 1209   ZStatus_t status;
// 1210 
// 1211   bufLen = PACKET_LEN_SE_MIN_PUBLISH_CREDIT_PAYMENT_INFO + pCmd->creditPaymentRef.strLen;
// 1212   buf = osal_mem_alloc( bufLen );
// 1213   if ( buf == NULL )
// 1214   {
// 1215     return ( ZMemError );
// 1216   }
// 1217 
// 1218   pBuf = osal_buffer_uint32( buf, pCmd->issuerEventId );
// 1219   pBuf = osal_buffer_uint32( pBuf, pCmd->paymentDueDate );
// 1220   pBuf = osal_buffer_uint32( pBuf, pCmd->creditPaymentOverdueAmt );
// 1221   *pBuf++ = pCmd->creditPaymentStatus;
// 1222   pBuf = osal_buffer_uint32( pBuf, pCmd->creditPayment );
// 1223   pBuf = osal_buffer_uint32( pBuf, pCmd->creditPaymentDate );
// 1224   *pBuf++ = pCmd->creditPaymentRef.strLen;
// 1225   osal_memcpy( pBuf, pCmd->creditPaymentRef.pStr, pCmd->creditPaymentRef.strLen );
// 1226 
// 1227   status = zcl_SendCommand( srcEP, dstAddr, ZCL_CLUSTER_ID_SE_PRICING,
// 1228                             COMMAND_SE_PUBLISH_CREDIT_PAYMENT_INFO, TRUE,
// 1229                             ZCL_FRAME_SERVER_CLIENT_DIR, disableDefaultRsp, 0,
// 1230                             seqNum, bufLen, buf );
// 1231   osal_mem_free( buf );
// 1232 
// 1233   return status;
// 1234 }
// 1235 
// 1236 /*********************************************************************
// 1237  * @fn      zclSE_Pricing_Send_GetTariffInformation
// 1238  *
// 1239  * @brief   Call to send out a Get Tariff Information
// 1240  *
// 1241  * @param   srcEP - Sending application's endpoint
// 1242  * @param   dstAddr - where you want the message to go
// 1243  * @param   pCmd - command payload
// 1244  * @param   disableDefaultRsp - disable default response
// 1245  * @param   seqNum - ZCL sequence number
// 1246  *
// 1247  * @return  ZStatus_t
// 1248  */
// 1249 ZStatus_t zclSE_Pricing_Send_GetTariffInformation( uint8 srcEP, afAddrType_t *dstAddr,
// 1250                                                    zclCCGetTariffInformation_t *pCmd,
// 1251                                                    uint8 disableDefaultRsp, uint8 seqNum )
// 1252 {
// 1253   uint8 buf[PACKET_LEN_SE_GET_TARIFF_INFO];
// 1254   uint8 *pBuf;
// 1255 
// 1256   pBuf = osal_buffer_uint32( buf, pCmd->startTime );
// 1257   *pBuf++ = pCmd->numEvents;
// 1258   *pBuf = pCmd->tariffType;
// 1259 
// 1260   return zcl_SendCommand( srcEP, dstAddr, ZCL_CLUSTER_ID_SE_PRICING,
// 1261                           COMMAND_SE_GET_TARIFF_INFO, TRUE,
// 1262                           ZCL_FRAME_CLIENT_SERVER_DIR, disableDefaultRsp, 0,
// 1263                           seqNum, PACKET_LEN_SE_GET_TARIFF_INFO, buf );
// 1264 }
// 1265 
// 1266 /*********************************************************************
// 1267  * @fn      zclSE_Pricing_Send_GetPriceMatrix
// 1268  *
// 1269  * @brief   Call to send out a Get Price Matrix
// 1270  *
// 1271  * @param   srcEP - Sending application's endpoint
// 1272  * @param   dstAddr - where you want the message to go
// 1273  * @param   issuerId - Issuer ID
// 1274  * @param   disableDefaultRsp - disable default response
// 1275  * @param   seqNum - ZCL sequence number
// 1276  *
// 1277  * @return  ZStatus_t
// 1278  */
// 1279 ZStatus_t zclSE_Pricing_Send_GetPriceMatrix( uint8 srcEP, afAddrType_t *dstAddr,
// 1280                                              uint32 issuerId,
// 1281                                              uint8 disableDefaultRsp, uint8 seqNum )
// 1282 {
// 1283   uint8 buf[PACKET_LEN_SE_GET_PRICE_MATRIX];
// 1284 
// 1285   osal_buffer_uint32( buf, issuerId );
// 1286 
// 1287   return zcl_SendCommand( srcEP, dstAddr, ZCL_CLUSTER_ID_SE_PRICING,
// 1288                           COMMAND_SE_GET_PRICE_MATRIX, TRUE,
// 1289                           ZCL_FRAME_CLIENT_SERVER_DIR, disableDefaultRsp, 0,
// 1290                           seqNum, PACKET_LEN_SE_GET_PRICE_MATRIX, buf );
// 1291 }
// 1292 
// 1293 /*********************************************************************
// 1294  * @fn      zclSE_Pricing_Send_GetBlockThresholds
// 1295  *
// 1296  * @brief   Call to send out a Get Block Thresholds
// 1297  *
// 1298  * @param   srcEP - Sending application's endpoint
// 1299  * @param   dstAddr - where you want the message to go
// 1300  * @param   issuerId - Issuer ID
// 1301  * @param   disableDefaultRsp - disable default response
// 1302  * @param   seqNum - ZCL sequence number
// 1303  *
// 1304  * @return  ZStatus_t
// 1305  */
// 1306 ZStatus_t zclSE_Pricing_Send_GetBlockThresholds( uint8 srcEP, afAddrType_t *dstAddr,
// 1307                                                  uint32 issuerId,
// 1308                                                  uint8 disableDefaultRsp, uint8 seqNum )
// 1309 {
// 1310   uint8 buf[PACKET_LEN_SE_GET_BLOCK_THRESHOLD];
// 1311 
// 1312   osal_buffer_uint32( buf, issuerId );
// 1313 
// 1314   return zcl_SendCommand( srcEP, dstAddr, ZCL_CLUSTER_ID_SE_PRICING,
// 1315                           COMMAND_SE_GET_BLOCK_THRESHOLD, TRUE,
// 1316                           ZCL_FRAME_CLIENT_SERVER_DIR, disableDefaultRsp, 0,
// 1317                           seqNum, PACKET_LEN_SE_GET_BLOCK_THRESHOLD, buf );
// 1318 }
// 1319 
// 1320 /*********************************************************************
// 1321  * @fn      zclSE_Pricing_Send_GetConversionFactor
// 1322  *
// 1323  * @brief   Call to send out a Get Conversion Factor
// 1324  *
// 1325  * @param   srcEP - Sending application's endpoint
// 1326  * @param   dstAddr - where you want the message to go
// 1327  * @param   pCmd - command payload
// 1328  * @param   disableDefaultRsp - disable default response
// 1329  * @param   seqNum - ZCL sequence number
// 1330  *
// 1331  * @return  ZStatus_t
// 1332  */
// 1333 ZStatus_t zclSE_Pricing_Send_GetConversionFactor( uint8 srcEP, afAddrType_t *dstAddr,
// 1334                                                   zclCCGetConversionFactor_t *pCmd,
// 1335                                                   uint8 disableDefaultRsp, uint8 seqNum )
// 1336 {
// 1337   uint8 buf[PACKET_LEN_SE_GET_CONVERSION_FACTOR];
// 1338   uint8 *pBuf;
// 1339 
// 1340   pBuf = osal_buffer_uint32( buf, pCmd->startTime );
// 1341   *pBuf = pCmd->numEvents;
// 1342 
// 1343   return zcl_SendCommand( srcEP, dstAddr, ZCL_CLUSTER_ID_SE_PRICING,
// 1344                           COMMAND_SE_GET_CONVERSION_FACTOR, TRUE,
// 1345                           ZCL_FRAME_CLIENT_SERVER_DIR, disableDefaultRsp, 0,
// 1346                           seqNum, PACKET_LEN_SE_GET_CONVERSION_FACTOR, buf );
// 1347 }
// 1348 
// 1349 /*********************************************************************
// 1350  * @fn      zclSE_Pricing_Send_GetCalorificValue
// 1351  *
// 1352  * @brief   Call to send out a Get Calorific Value
// 1353  *
// 1354  * @param   srcEP - Sending application's endpoint
// 1355  * @param   dstAddr - where you want the message to go
// 1356  * @param   pCmd - command payload
// 1357  * @param   disableDefaultRsp - disable default response
// 1358  * @param   seqNum - ZCL sequence number
// 1359  *
// 1360  * @return  ZStatus_t
// 1361  */
// 1362 ZStatus_t zclSE_Pricing_Send_GetCalorificValue( uint8 srcEP, afAddrType_t *dstAddr,
// 1363                                                 zclCCGetCalorificValue_t *pCmd,
// 1364                                                 uint8 disableDefaultRsp, uint8 seqNum )
// 1365 {
// 1366   uint8 buf[PACKET_LEN_SE_GET_CALORIFIC_VALUE];
// 1367   uint8 *pBuf;
// 1368 
// 1369   pBuf = osal_buffer_uint32( buf, pCmd->startTime );
// 1370   *pBuf = pCmd->numEvents;
// 1371 
// 1372   return zcl_SendCommand( srcEP, dstAddr, ZCL_CLUSTER_ID_SE_PRICING,
// 1373                           COMMAND_SE_GET_CALORIFIC_VALUE, TRUE,
// 1374                           ZCL_FRAME_CLIENT_SERVER_DIR, disableDefaultRsp, 0,
// 1375                           seqNum, PACKET_LEN_SE_GET_CALORIFIC_VALUE, buf );
// 1376 }
// 1377 
// 1378 /*********************************************************************
// 1379  * @fn      zclSE_Pricing_Send_GetCO2Value
// 1380  *
// 1381  * @brief   Call to send out a Get CO2 Value
// 1382  *
// 1383  * @param   srcEP - Sending application's endpoint
// 1384  * @param   dstAddr - where you want the message to go
// 1385  * @param   pCmd - command payload
// 1386  * @param   disableDefaultRsp - disable default response
// 1387  * @param   seqNum - ZCL sequence number
// 1388  *
// 1389  * @return  ZStatus_t
// 1390  */
// 1391 ZStatus_t zclSE_Pricing_Send_GetCO2Value( uint8 srcEP, afAddrType_t *dstAddr,
// 1392                                                 zclCCGetCO2Value_t *pCmd,
// 1393                                                 uint8 disableDefaultRsp, uint8 seqNum )
// 1394 {
// 1395   uint8 buf[PACKET_LEN_SE_GET_CO2_VALUE];
// 1396   uint8 *pBuf;
// 1397 
// 1398   pBuf = osal_buffer_uint32( buf, pCmd->startTime );
// 1399   *pBuf++ = pCmd->numEvents;
// 1400   *pBuf = pCmd->tariffType;
// 1401 
// 1402   return zcl_SendCommand( srcEP, dstAddr, ZCL_CLUSTER_ID_SE_PRICING,
// 1403                           COMMAND_SE_GET_CO2_VALUE, TRUE,
// 1404                           ZCL_FRAME_CLIENT_SERVER_DIR, disableDefaultRsp, 0,
// 1405                           seqNum, PACKET_LEN_SE_GET_CO2_VALUE, buf );
// 1406 }
// 1407 
// 1408 /*********************************************************************
// 1409  * @fn      zclSE_Pricing_Send_GetBillingPeriod
// 1410  *
// 1411  * @brief   Call to send out a Get Billing Period
// 1412  *
// 1413  * @param   srcEP - Sending application's endpoint
// 1414  * @param   dstAddr - where you want the message to go
// 1415  * @param   pCmd - command payload
// 1416  * @param   disableDefaultRsp - disable default response
// 1417  * @param   seqNum - ZCL sequence number
// 1418  *
// 1419  * @return  ZStatus_t
// 1420  */
// 1421 ZStatus_t zclSE_Pricing_Send_GetBillingPeriod( uint8 srcEP, afAddrType_t *dstAddr,
// 1422                                                zclCCGetBillingPeriod_t *pCmd,
// 1423                                                uint8 disableDefaultRsp, uint8 seqNum )
// 1424 {
// 1425   uint8 buf[PACKET_LEN_SE_GET_BILLING_PERIOD];
// 1426   uint8 *pBuf;
// 1427 
// 1428   pBuf = osal_buffer_uint32( buf, pCmd->startTime );
// 1429   *pBuf++ = pCmd->numEvents;
// 1430   *pBuf = pCmd->tariffType;
// 1431 
// 1432   return zcl_SendCommand( srcEP, dstAddr, ZCL_CLUSTER_ID_SE_PRICING,
// 1433                           COMMAND_SE_GET_BILLING_PERIOD, TRUE,
// 1434                           ZCL_FRAME_CLIENT_SERVER_DIR, disableDefaultRsp, 0,
// 1435                           seqNum, PACKET_LEN_SE_GET_BILLING_PERIOD, buf );
// 1436 }
// 1437 
// 1438 /*********************************************************************
// 1439  * @fn      zclSE_Pricing_Send_GetConsolidatedBill
// 1440  *
// 1441  * @brief   Call to send out a Get Consolidated Bill
// 1442  *
// 1443  * @param   srcEP - Sending application's endpoint
// 1444  * @param   dstAddr - where you want the message to go
// 1445  * @param   pCmd - command payload
// 1446  * @param   disableDefaultRsp - disable default response
// 1447  * @param   seqNum - ZCL sequence number
// 1448  *
// 1449  * @return  ZStatus_t
// 1450  */
// 1451 ZStatus_t zclSE_Pricing_Send_GetConsolidatedBill( uint8 srcEP, afAddrType_t *dstAddr,
// 1452                                                 zclCCGetConsolidatedBill_t *pCmd,
// 1453                                                 uint8 disableDefaultRsp, uint8 seqNum )
// 1454 {
// 1455   uint8 buf[PACKET_LEN_SE_GET_CONSOLIDATED_BILL];
// 1456   uint8 *pBuf;
// 1457 
// 1458   pBuf = osal_buffer_uint32( buf, pCmd->startTime );
// 1459   *pBuf++ = pCmd->numEvents;
// 1460   *pBuf = pCmd->tariffType;
// 1461 
// 1462   return zcl_SendCommand( srcEP, dstAddr, ZCL_CLUSTER_ID_SE_PRICING,
// 1463                           COMMAND_SE_GET_CONSOLIDATED_BILL, TRUE,
// 1464                           ZCL_FRAME_CLIENT_SERVER_DIR, disableDefaultRsp, 0,
// 1465                           seqNum, PACKET_LEN_SE_GET_CONSOLIDATED_BILL, buf );
// 1466 }
// 1467 
// 1468 /*********************************************************************
// 1469  * @fn      zclSE_Pricing_Send_CPPEventResponse
// 1470  *
// 1471  * @brief   Call to send out a CPP Event Response
// 1472  *
// 1473  * @param   srcEP - Sending application's endpoint
// 1474  * @param   dstAddr - where you want the message to go
// 1475  * @param   pCmd - command payload
// 1476  * @param   disableDefaultRsp - disable default response
// 1477  * @param   seqNum - ZCL sequence number
// 1478  *
// 1479  * @return  ZStatus_t
// 1480  */
// 1481 ZStatus_t zclSE_Pricing_Send_CPPEventResponse( uint8 srcEP, afAddrType_t *dstAddr,
// 1482                                                zclCCCPPEventResponse_t *pCmd,
// 1483                                                uint8 disableDefaultRsp, uint8 seqNum )
// 1484 {
// 1485   uint8 buf[PACKET_LEN_SE_CPP_EVENT_RESPONSE];
// 1486   uint8 *pBuf;
// 1487 
// 1488   pBuf = osal_buffer_uint32( buf, pCmd->issuerEventId );
// 1489   *pBuf = pCmd->CPPAuth;
// 1490 
// 1491   return zcl_SendCommand( srcEP, dstAddr, ZCL_CLUSTER_ID_SE_PRICING,
// 1492                           COMMAND_SE_CPP_EVENT_RESPONSE, TRUE,
// 1493                           ZCL_FRAME_CLIENT_SERVER_DIR, disableDefaultRsp, 0,
// 1494                           seqNum, PACKET_LEN_SE_CPP_EVENT_RESPONSE, buf );
// 1495 }
// 1496 #endif  // SE_UK_EXT
// 1497 #endif  // ZCL_PRICING
// 1498 
// 1499 
// 1500 #ifdef ZCL_MESSAGE
// 1501 /*********************************************************************
// 1502  * @fn      zclSE_Message_Send_DisplayMessage
// 1503  *
// 1504  * @brief   Call to send out a Display Message Command
// 1505  *
// 1506  * @param   srcEP - Sending application's endpoint
// 1507  * @param   dstAddr - where you want the message to go
// 1508  * @param   pCmd - command payload
// 1509  * @param   disableDefaultRsp - disable default response
// 1510  * @param   seqNum - ZCL sequence number
// 1511  *
// 1512  * @return  ZStatus_t
// 1513  */
// 1514 ZStatus_t zclSE_Message_Send_DisplayMessage( uint8 srcEP, afAddrType_t *dstAddr,
// 1515                                              zclCCDisplayMessage_t *pCmd,
// 1516                                              uint8 disableDefaultRsp, uint8 seqNum )
// 1517 {
// 1518   uint8 *buf;
// 1519   uint8 *pBuf;
// 1520   uint16 bufLen;
// 1521   ZStatus_t status;
// 1522 
// 1523   // msgId + msgCtrl + start time + duration + msgLen + msg
// 1524   bufLen = 4 + 1 + 4 + 2 + 1 + pCmd->msgString.strLen;
// 1525 
// 1526   buf = osal_mem_alloc( bufLen );
// 1527   if ( buf == NULL )
// 1528   {
// 1529     return ( ZMemError );
// 1530   }
// 1531 
// 1532   pBuf = osal_buffer_uint32( buf, pCmd->messageId );  // Streamline the uint32 data
// 1533   *pBuf++ = pCmd->messageCtrl.transmissionMode |
// 1534            (pCmd->messageCtrl.importance << SE_PROFILE_MSGCTRL_IMPORTANCE) |
// 1535 #if defined ( SE_UK_EXT )
// 1536            (pCmd->messageCtrl.pinRequired << SE_PROFILE_MSGCTRL_PINREQUIRED ) |
// 1537            (pCmd->messageCtrl.acceptanceRequired << SE_PROFILE_MSGCTRL_ACCEPTREQUIRED ) |
// 1538 #endif
// 1539            (pCmd->messageCtrl.confirmationRequired << SE_PROFILE_MSGCTRL_CONFREQUIRED);
// 1540   pBuf = osal_buffer_uint32( pBuf, pCmd->startTime );
// 1541   *pBuf++ = LO_UINT16( pCmd->durationInMinutes );
// 1542   *pBuf++ = HI_UINT16( pCmd->durationInMinutes );
// 1543   *pBuf++ = pCmd->msgString.strLen;
// 1544 
// 1545   osal_memcpy( pBuf, pCmd->msgString.pStr, pCmd->msgString.strLen );
// 1546 
// 1547   status = zcl_SendCommand( srcEP, dstAddr, ZCL_CLUSTER_ID_SE_MESSAGE,
// 1548                             COMMAND_SE_DISPLAY_MESSAGE, TRUE,
// 1549                             ZCL_FRAME_SERVER_CLIENT_DIR, disableDefaultRsp,
// 1550                             0, seqNum, bufLen, buf );
// 1551   osal_mem_free( buf );
// 1552 
// 1553   return status;
// 1554 }
// 1555 
// 1556 /*********************************************************************
// 1557  * @fn      zclSE_Message_Send_CancelMessage
// 1558  *
// 1559  * @brief   Call to send out a Cancel Message Command
// 1560  *
// 1561  * @param   srcEP - Sending application's endpoint
// 1562  * @param   dstAddr - where you want the message to go
// 1563  * @param   pCmd - command payload
// 1564  * @param   disableDefaultRsp - disable default response
// 1565  * @param   seqNum - ZCL sequence number
// 1566  *
// 1567  * @return  ZStatus_t
// 1568  */
// 1569 ZStatus_t zclSE_Message_Send_CancelMessage( uint8 srcEP, afAddrType_t *dstAddr,
// 1570                                             zclCCCancelMessage_t *pCmd,
// 1571                                             uint8 disableDefaultRsp, uint8 seqNum )
// 1572 {
// 1573   uint8 buf[5];
// 1574 
// 1575   osal_buffer_uint32( buf, pCmd->messageId );  // Streamline the uint32 data
// 1576   buf[4] = pCmd->messageCtrl.transmissionMode |
// 1577            (pCmd->messageCtrl.importance << SE_PROFILE_MSGCTRL_IMPORTANCE) |
// 1578 #if defined ( SE_UK_EXT )
// 1579            (pCmd->messageCtrl.pinRequired << SE_PROFILE_MSGCTRL_PINREQUIRED ) |
// 1580            (pCmd->messageCtrl.acceptanceRequired << SE_PROFILE_MSGCTRL_ACCEPTREQUIRED ) |
// 1581 #endif
// 1582            (pCmd->messageCtrl.confirmationRequired << SE_PROFILE_MSGCTRL_CONFREQUIRED);
// 1583 
// 1584   return zcl_SendCommand( srcEP, dstAddr, ZCL_CLUSTER_ID_SE_MESSAGE,
// 1585                           COMMAND_SE_CANCEL_MESSAGE, TRUE,
// 1586                           ZCL_FRAME_SERVER_CLIENT_DIR, disableDefaultRsp,
// 1587                           0, seqNum, 5, buf );
// 1588 }
// 1589 
// 1590 /*********************************************************************
// 1591  * @fn      zclSE_Message_Send_MessageConfirmation
// 1592  *
// 1593  * @brief   Call to send out a Message Confirmation
// 1594  *
// 1595  * @param   srcEP - Sending application's endpoint
// 1596  * @param   dstAddr - where you want the message to go
// 1597  * @param   pCmd - command payload
// 1598  * @param   disableDefaultRsp - disable default response
// 1599  * @param   seqNum - ZCL sequence number
// 1600  *
// 1601  * @return  ZStatus_t
// 1602  */
// 1603 ZStatus_t zclSE_Message_Send_MessageConfirmation( uint8 srcEP, afAddrType_t *dstAddr,
// 1604                                                   zclCCMessageConfirmation_t *pCmd,
// 1605                                                   uint8 disableDefaultRsp, uint8 seqNum )
// 1606 {
// 1607   uint8 *buf;
// 1608   uint8 *pBuf;
// 1609   uint16 bufLen = 4 + 4; // msgId + confirm time
// 1610   ZStatus_t status;
// 1611 
// 1612 #if defined ( SE_UK_EXT )
// 1613   // Message Response length must be 0 - 20 octets
// 1614   if ( pCmd->msgString.strLen > SE_PROFILE_MESSAGE_RESPONSE_LENGTH )
// 1615   {
// 1616     return (ZInvalidParameter);
// 1617   }
// 1618 
// 1619   // msgLen + msg
// 1620   bufLen += 1 + pCmd->msgString.strLen;
// 1621 #endif
// 1622 
// 1623   buf = osal_mem_alloc( bufLen );
// 1624   if ( buf == NULL )
// 1625   {
// 1626     return ( ZMemError );
// 1627   }
// 1628 
// 1629   pBuf = osal_buffer_uint32( buf, pCmd->messageId );  // Streamline the uint32 data
// 1630   pBuf = osal_buffer_uint32( pBuf, pCmd->confirmTime );
// 1631 
// 1632 #if defined ( SE_UK_EXT )
// 1633   *pBuf++ = pCmd->msgString.strLen;
// 1634   osal_memcpy( pBuf, pCmd->msgString.pStr, pCmd->msgString.strLen );
// 1635 #endif
// 1636 
// 1637   status = zcl_SendCommand( srcEP, dstAddr, ZCL_CLUSTER_ID_SE_MESSAGE,
// 1638                             COMMAND_SE_MESSAGE_CONFIRMATION, TRUE,
// 1639                             ZCL_FRAME_CLIENT_SERVER_DIR, disableDefaultRsp,
// 1640                             0, seqNum, bufLen, buf );
// 1641   osal_mem_free( buf );
// 1642 
// 1643   return status;
// 1644 }
// 1645 #endif  // ZCL_MESSAGE
// 1646 
// 1647 #ifdef ZCL_LOAD_CONTROL
// 1648 /*********************************************************************
// 1649  * @fn      zclSE_LoadControl_Send_LoadControlEvent
// 1650  *
// 1651  * @brief   Call to send out a Load Control Event
// 1652  *
// 1653  * @param   srcEP - Sending application's endpoint
// 1654  * @param   dstAddr - where you want the message to go
// 1655  * @param   pCmd - command payload
// 1656  * @param   disableDefaultRsp - disable default response
// 1657  * @param   seqNum - ZCL sequence number
// 1658  *
// 1659  * @return  ZStatus_t
// 1660  */
// 1661 ZStatus_t zclSE_LoadControl_Send_LoadControlEvent( uint8 srcEP, afAddrType_t *dstAddr,
// 1662                                                       zclCCLoadControlEvent_t *pCmd,
// 1663                                                       uint8 disableDefaultRsp, uint8 seqNum )
// 1664 {
// 1665   uint8 *buf;
// 1666   uint8 *pBuf;
// 1667   ZStatus_t status;
// 1668 
// 1669   buf = osal_mem_alloc( PACKET_LEN_SE_LOAD_CONTROL_EVENT );
// 1670 
// 1671   if ( buf == NULL )
// 1672   {
// 1673     return ( ZMemError );
// 1674   }
// 1675 
// 1676   pBuf = osal_buffer_uint32( buf, pCmd->issuerEvent );
// 1677   pBuf = osal_buffer_uint24( pBuf, pCmd->deviceGroupClass );
// 1678   pBuf = osal_buffer_uint32( pBuf, pCmd->startTime );
// 1679   *pBuf++ = LO_UINT16( pCmd->durationInMinutes );
// 1680   *pBuf++ = HI_UINT16( pCmd->durationInMinutes );
// 1681   *pBuf++ = pCmd->criticalityLevel;
// 1682   *pBuf++ = pCmd->coolingTemperatureOffset;
// 1683   *pBuf++ = pCmd->heatingTemperatureOffset;
// 1684   *pBuf++ = LO_UINT16( pCmd->coolingTemperatureSetPoint );
// 1685   *pBuf++ = HI_UINT16( pCmd->coolingTemperatureSetPoint );
// 1686   *pBuf++ = LO_UINT16( pCmd->heatingTemperatureSetPoint );
// 1687   *pBuf++ = HI_UINT16( pCmd->heatingTemperatureSetPoint );
// 1688   *pBuf++ = pCmd->averageLoadAdjustmentPercentage;
// 1689   *pBuf++ = pCmd->dutyCycle;
// 1690   *pBuf = pCmd->eventControl;
// 1691 
// 1692   status = zcl_SendCommand( srcEP, dstAddr, ZCL_CLUSTER_ID_SE_LOAD_CONTROL,
// 1693                             COMMAND_SE_LOAD_CONTROL_EVENT, TRUE,
// 1694                             ZCL_FRAME_SERVER_CLIENT_DIR, disableDefaultRsp, 0, seqNum,
// 1695                             PACKET_LEN_SE_LOAD_CONTROL_EVENT, buf );
// 1696 
// 1697   osal_mem_free( buf );
// 1698 
// 1699   return status;
// 1700 }
// 1701 
// 1702 /*********************************************************************
// 1703  * @fn      zclSE_LoadControl_Send_CancelLoadControlEvent
// 1704  *
// 1705  * @brief   Call to send out a Cancel Load Control Event
// 1706  *
// 1707  * @param   srcEP - Sending application's endpoint
// 1708  * @param   dstAddr - where you want the message to go
// 1709  * @param   pCmd - command payload
// 1710  * @param   disableDefaultRsp - disable default response
// 1711  * @param   seqNum - ZCL sequence number
// 1712  *
// 1713  * @return  ZStatus_t
// 1714  */
// 1715 ZStatus_t zclSE_LoadControl_Send_CancelLoadControlEvent( uint8 srcEP, afAddrType_t *dstAddr,
// 1716                                                       zclCCCancelLoadControlEvent_t *pCmd,
// 1717                                                       uint8 disableDefaultRsp, uint8 seqNum )
// 1718 {
// 1719   uint8 buf[PACKET_LEN_SE_CANCEL_LOAD_CONTROL_EVENT];
// 1720   uint8 *pBuf;
// 1721 
// 1722   pBuf = osal_buffer_uint32( buf, pCmd->issuerEventID );
// 1723   pBuf = osal_buffer_uint24( pBuf, pCmd->deviceGroupClass );
// 1724   *pBuf++ = pCmd->cancelControl;
// 1725   pBuf = osal_buffer_uint32( pBuf, pCmd->effectiveTime );
// 1726 
// 1727   return zcl_SendCommand( srcEP, dstAddr, ZCL_CLUSTER_ID_SE_LOAD_CONTROL,
// 1728                           COMMAND_SE_CANCEL_LOAD_CONTROL_EVENT, TRUE,
// 1729                           ZCL_FRAME_SERVER_CLIENT_DIR, disableDefaultRsp, 0, seqNum,
// 1730                           PACKET_LEN_SE_CANCEL_LOAD_CONTROL_EVENT, buf );
// 1731 }
// 1732 
// 1733 /*********************************************************************
// 1734  * @fn      zclSE_LoadControl_Send_ReportEventStatus
// 1735  *
// 1736  * @brief   Call to send out a Report Event Status
// 1737  *
// 1738  * @param   srcEP - Sending application's endpoint
// 1739  * @param   dstAddr - where you want the message to go
// 1740  * @param   pCmd - command payload
// 1741  * @param   disableDefaultRsp - disable default response
// 1742  * @param   seqNum - ZCL sequence number
// 1743  *
// 1744  * @return  ZStatus_t
// 1745  */
// 1746 ZStatus_t zclSE_LoadControl_Send_ReportEventStatus( uint8 srcEP, afAddrType_t *dstAddr,
// 1747                                                       zclCCReportEventStatus_t *pCmd,
// 1748                                                       uint8 disableDefaultRsp, uint8 seqNum )
// 1749 {
// 1750   uint8 *buf;
// 1751   uint8 *pBuf;
// 1752   ZStatus_t status;
// 1753 
// 1754   buf = osal_mem_alloc( PACKET_LEN_SE_REPORT_EVENT_STATUS );
// 1755 
// 1756   if ( buf == NULL )
// 1757   {
// 1758     return ( ZMemError );
// 1759   }
// 1760 
// 1761   pBuf = osal_buffer_uint32( buf, pCmd->issuerEventID );
// 1762   *pBuf++ = pCmd->eventStatus;
// 1763   pBuf = osal_buffer_uint32( pBuf, pCmd->eventStartTime );
// 1764   *pBuf++ = pCmd->criticalityLevelApplied;
// 1765   *pBuf++ = LO_UINT16( pCmd->coolingTemperatureSetPointApplied );
// 1766   *pBuf++ = HI_UINT16( pCmd->coolingTemperatureSetPointApplied );
// 1767   *pBuf++ = LO_UINT16( pCmd->heatingTemperatureSetPointApplied );
// 1768   *pBuf++ = HI_UINT16( pCmd->heatingTemperatureSetPointApplied );
// 1769   *pBuf++ = pCmd->averageLoadAdjustment;
// 1770   *pBuf++ = pCmd->dutyCycleApplied;
// 1771   *pBuf++ = pCmd->eventControl;
// 1772   *pBuf++ = pCmd->signatureType;
// 1773 
// 1774   zclGeneral_KeyEstablishment_ECDSASign( buf, PACKET_LEN_SE_REPORT_EVENT_STATUS_ONLY, pBuf);
// 1775 
// 1776   status = zcl_SendCommand( srcEP, dstAddr, ZCL_CLUSTER_ID_SE_LOAD_CONTROL,
// 1777                             COMMAND_SE_REPORT_EVENT_STATUS, TRUE,
// 1778                             ZCL_FRAME_CLIENT_SERVER_DIR, disableDefaultRsp, 0, seqNum,
// 1779                             PACKET_LEN_SE_REPORT_EVENT_STATUS, buf );
// 1780 
// 1781   osal_mem_free( buf );
// 1782 
// 1783   return status;
// 1784 }
// 1785 
// 1786 /*********************************************************************
// 1787  * @fn      zclSE_LoadControl_Send_GetScheduledEvent
// 1788  *
// 1789  * @brief   Call to send out a Get Scheduled Event
// 1790  *
// 1791  * @param   srcEP - Sending application's endpoint
// 1792  * @param   dstAddr - where you want the message to go
// 1793  * @param   pCmd - command payload
// 1794  * @param   disableDefaultRsp - disable default response
// 1795  * @param   seqNum - ZCL sequence number
// 1796  *
// 1797  * @return  ZStatus_t
// 1798  */
// 1799 ZStatus_t zclSE_LoadControl_Send_GetScheduledEvent( uint8 srcEP, afAddrType_t *dstAddr,
// 1800                                                       zclCCGetScheduledEvent_t *pCmd,
// 1801                                                       uint8 disableDefaultRsp, uint8 seqNum )
// 1802 {
// 1803   uint8 buf[PACKET_LEN_SE_GET_SCHEDULED_EVENT];
// 1804 
// 1805   osal_buffer_uint32( buf, pCmd->startTime );
// 1806   buf[4] = pCmd->numEvents;
// 1807 
// 1808   return zcl_SendCommand( srcEP, dstAddr, ZCL_CLUSTER_ID_SE_LOAD_CONTROL,
// 1809                           COMMAND_SE_GET_SCHEDULED_EVENT, TRUE,
// 1810                           ZCL_FRAME_CLIENT_SERVER_DIR, disableDefaultRsp, 0, seqNum,
// 1811                           PACKET_LEN_SE_GET_SCHEDULED_EVENT, buf );
// 1812 }
// 1813 #endif  // ZCL_LOAD_CONTROL
// 1814 
// 1815 #ifdef ZCL_PREPAYMENT
// 1816 /*********************************************************************
// 1817  * @fn      zclSE_Prepayment_Send_SelAvailEmergencyCredit
// 1818  *
// 1819  * @brief   Call to send out a Select Available Emergency Credit command
// 1820  *
// 1821  * @param   srcEP - Sending application's endpoint
// 1822  * @param   dstAddr - where you want the message to go
// 1823  * @param   pCmd - command payload
// 1824  * @param   disableDefaultRsp - disable default response
// 1825  * @param   seqNum - ZCL sequence number
// 1826  *
// 1827  * @return  ZStatus_t
// 1828  */
// 1829 ZStatus_t zclSE_Prepayment_Send_SelAvailEmergencyCredit( uint8 srcEP,
// 1830                                                          afAddrType_t *dstAddr,
// 1831                                                          zclCCSelAvailEmergencyCredit_t *pCmd,
// 1832                                                          uint8 disableDefaultRsp,
// 1833                                                          uint8 seqNum )
// 1834 {
// 1835   uint8 *buf;
// 1836   uint8 *pBuf;
// 1837   uint8 bufLen;
// 1838   ZStatus_t status;
// 1839 
// 1840   // include in length all variable length fields
// 1841   bufLen = PACKET_LEN_SE_SEL_AVAIL_EMERGENCY_CREDIT +
// 1842            pCmd->siteId.strLen +
// 1843            pCmd->meterSerialNumber.strLen;
// 1844 
// 1845   buf = osal_mem_alloc( bufLen );
// 1846   if ( buf == NULL )
// 1847   {
// 1848     return ( ZMemError );
// 1849   }
// 1850 
// 1851   pBuf = osal_buffer_uint32( buf, pCmd->commandDateTime );
// 1852   *pBuf++ = pCmd->originatingDevice;
// 1853   *pBuf++ = pCmd->siteId.strLen;
// 1854   pBuf = osal_memcpy( pBuf, pCmd->siteId.pStr, pCmd->siteId.strLen );
// 1855   *pBuf++ = pCmd->meterSerialNumber.strLen;
// 1856   osal_memcpy( pBuf, pCmd->meterSerialNumber.pStr, pCmd->meterSerialNumber.strLen );
// 1857 
// 1858   status = zcl_SendCommand( srcEP, dstAddr, ZCL_CLUSTER_ID_SE_PREPAYMENT,
// 1859                             COMMAND_SE_SEL_AVAIL_EMERGENCY_CREDIT, TRUE,
// 1860                             ZCL_FRAME_CLIENT_SERVER_DIR, disableDefaultRsp, 0,
// 1861                             seqNum, bufLen, buf );
// 1862 
// 1863   osal_mem_free( buf );
// 1864 
// 1865   return status;
// 1866 }
// 1867 
// 1868 #ifndef SE_UK_EXT
// 1869 /*********************************************************************
// 1870  * @fn      zclSE_Prepayment_Send_ChangeSupply
// 1871  *
// 1872  * @brief   Call to send out a Change Supply command
// 1873  *
// 1874  * @param   srcEP - Sending application's endpoint
// 1875  * @param   dstAddr - where you want the message to go
// 1876  * @param   pCmd - command payload
// 1877  * @param   disableDefaultRsp - disable default response
// 1878  * @param   seqNum - ZCL sequence number
// 1879  *
// 1880  * @return  ZStatus_t
// 1881  */
// 1882 ZStatus_t zclSE_Prepayment_Send_ChangeSupply( uint8 srcEP, afAddrType_t *dstAddr,
// 1883                                               zclCCChangeSupply_t *pCmd,
// 1884                                               uint8 disableDefaultRsp,
// 1885                                               uint8 seqNum )
// 1886 {
// 1887   uint8 *buf;
// 1888   uint8 *pBuf;
// 1889   uint8 bufLen;
// 1890   ZStatus_t status;
// 1891 
// 1892   // include in length all variable length fields
// 1893   bufLen = PACKET_LEN_SE_CHANGE_SUPPLY +
// 1894            pCmd->siteId.strLen +
// 1895            pCmd->meterSerialNumber.strLen;
// 1896 
// 1897   buf = osal_mem_alloc( bufLen );
// 1898   if ( buf == NULL )
// 1899   {
// 1900     return ( ZMemError );
// 1901   }
// 1902 
// 1903   pBuf = osal_buffer_uint32( buf, pCmd->providerId );
// 1904   pBuf = osal_buffer_uint32( pBuf, pCmd->requestDateTime );
// 1905   *pBuf++ = pCmd->siteId.strLen;
// 1906   pBuf = osal_memcpy( pBuf, pCmd->siteId.pStr, pCmd->siteId.strLen );
// 1907   *pBuf++ = pCmd->meterSerialNumber.strLen;
// 1908   pBuf = osal_memcpy( pBuf, pCmd->meterSerialNumber.pStr, pCmd->meterSerialNumber.strLen );
// 1909   pBuf = osal_buffer_uint32( pBuf, pCmd->implementationDateTime );
// 1910   *pBuf++ = pCmd->proposedSupplyStatus;
// 1911   *pBuf = pCmd->origIdSupplyControlBits;
// 1912 
// 1913   status = zcl_SendCommand( srcEP, dstAddr, ZCL_CLUSTER_ID_SE_PREPAYMENT,
// 1914                             COMMAND_SE_CHANGE_SUPPLY, TRUE,
// 1915                             ZCL_FRAME_CLIENT_SERVER_DIR, disableDefaultRsp, 0,
// 1916                             seqNum, bufLen, buf );
// 1917 
// 1918   osal_mem_free( buf );
// 1919 
// 1920   return status;
// 1921 }
// 1922 
// 1923 /*********************************************************************
// 1924  * @fn      zclSE_Prepayment_Send_SupplyStatusResponse
// 1925  *
// 1926  * @brief   Call to send out a Supply Status Response
// 1927  *
// 1928  * @param   srcEP - Sending application's endpoint
// 1929  * @param   dstAddr - where you want the message to go
// 1930  * @param   pCmd - command payload
// 1931  * @param   disableDefaultRsp - disable default response
// 1932  * @param   seqNum - ZCL sequence number
// 1933  *
// 1934  * @return  ZStatus_t
// 1935  */
// 1936 ZStatus_t zclSE_Prepayment_Send_SupplyStatusResponse( uint8 srcEP,
// 1937                                                       afAddrType_t *dstAddr,
// 1938                                                       zclCCSupplyStatusResponse_t *pCmd,
// 1939                                                       uint8 disableDefaultRsp,
// 1940                                                       uint8 seqNum )
// 1941 {
// 1942   uint8 *buf;
// 1943   uint8 *pBuf;
// 1944   ZStatus_t status;
// 1945 
// 1946   buf = osal_mem_alloc( PACKET_LEN_SE_SUPPLY_STATUS_RESPONSE );
// 1947   if ( buf == NULL )
// 1948   {
// 1949     return ( ZMemError );
// 1950   }
// 1951 
// 1952   pBuf = osal_buffer_uint32( buf, pCmd->providerId );
// 1953   pBuf = osal_buffer_uint32( pBuf, pCmd->implementationDateTime );
// 1954   *pBuf = pCmd->supplyStatus;
// 1955 
// 1956   status = zcl_SendCommand( srcEP, dstAddr, ZCL_CLUSTER_ID_SE_PREPAYMENT,
// 1957                             COMMAND_SE_SUPPLY_STATUS_RESPONSE, TRUE,
// 1958                             ZCL_FRAME_SERVER_CLIENT_DIR, disableDefaultRsp, 0,
// 1959                             seqNum, PACKET_LEN_SE_SUPPLY_STATUS_RESPONSE, buf );
// 1960 
// 1961   osal_mem_free( buf );
// 1962 
// 1963   return status;
// 1964 }
// 1965 
// 1966 #else // SE_UK_EXT
// 1967 /*********************************************************************
// 1968  * @fn      zclSE_Prepayment_Send_ChangeDebt
// 1969  *
// 1970  * @brief   Call to send out a Change Debt
// 1971  *
// 1972  * @param   srcEP - Sending application's endpoint
// 1973  * @param   dstAddr - where you want the message to go
// 1974  * @param   pCmd - command payload
// 1975  * @param   disableDefaultRsp - disable default response
// 1976  * @param   seqNum - ZCL sequence number
// 1977  *
// 1978  * @return  ZStatus_t
// 1979  */
// 1980 ZStatus_t zclSE_Prepayment_Send_ChangeDebt( uint8 srcEP, afAddrType_t *dstAddr,
// 1981                                             zclCCChangeDebt_t *pCmd,
// 1982                                             uint8 disableDefaultRsp, uint8 seqNum )
// 1983 {
// 1984   uint8 *buf;
// 1985   uint8 *pBuf;
// 1986   ZStatus_t status;
// 1987   uint8 bufLen = PACKET_LEN_SE_MIN_CHANGE_DEBT + pCmd->debtLabel.strLen + pCmd->signature.strLen;
// 1988 
// 1989   buf = osal_mem_alloc( bufLen );
// 1990   if ( buf == NULL )
// 1991   {
// 1992     return ( ZMemError );
// 1993   }
// 1994 
// 1995   pBuf = osal_buffer_uint32( buf, pCmd->cmdIssueTime );
// 1996   *pBuf++ = pCmd->debtLabel.strLen;
// 1997   pBuf = osal_memcpy( pBuf, pCmd->debtLabel.pStr, pCmd->debtLabel.strLen );
// 1998   pBuf = osal_buffer_uint32( pBuf, pCmd->debtAmount );
// 1999   *pBuf++ = pCmd->debtRecoveryMethod;
// 2000   *pBuf++ = pCmd->debtType;
// 2001   pBuf = osal_buffer_uint32( pBuf, pCmd->recoveryStartTime );
// 2002   *pBuf++ = LO_UINT16( pCmd->debtRecoveryCollectionTime );
// 2003   *pBuf++ = HI_UINT16( pCmd->debtRecoveryCollectionTime );
// 2004   pBuf = osal_buffer_uint32( pBuf, pCmd->debtRecoveryFrequency );
// 2005   pBuf = osal_buffer_uint32( pBuf, pCmd->debtRecoveryAmt );
// 2006   *pBuf++ = LO_UINT16( pCmd->debtRecoveryBalancePct );
// 2007   *pBuf++ = HI_UINT16( pCmd->debtRecoveryBalancePct );
// 2008   *pBuf++ = pCmd->debtRecoveryMaxMissed;
// 2009   *pBuf++ = pCmd->signature.strLen;
// 2010   (void)osal_memcpy( pBuf, pCmd->signature.pStr, pCmd->signature.strLen );
// 2011 
// 2012   status = zcl_SendCommand( srcEP, dstAddr, ZCL_CLUSTER_ID_SE_PREPAYMENT,
// 2013                             COMMAND_SE_CHANGE_DEBT, TRUE,
// 2014                             ZCL_FRAME_CLIENT_SERVER_DIR, disableDefaultRsp, 0,
// 2015                             seqNum, bufLen, buf );
// 2016 
// 2017   osal_mem_free( buf );
// 2018 
// 2019   return status;
// 2020 }
// 2021 
// 2022 /*********************************************************************
// 2023  * @fn      zclSE_Prepayment_Send_EmergencyCreditSetup
// 2024  *
// 2025  * @brief   Call to send out a Emergency Credit Setup
// 2026  *
// 2027  * @param   srcEP - Sending application's endpoint
// 2028  * @param   dstAddr - where you want the message to go
// 2029  * @param   pCmd - command payload
// 2030  * @param   disableDefaultRsp - disable default response
// 2031  * @param   seqNum - ZCL sequence number
// 2032  *
// 2033  * @return  ZStatus_t
// 2034  */
// 2035 ZStatus_t zclSE_Prepayment_Send_EmergencyCreditSetup( uint8 srcEP, afAddrType_t *dstAddr,
// 2036                                                       zclCCEmergencyCreditSetup_t *pCmd,
// 2037                                                       uint8 disableDefaultRsp, uint8 seqNum )
// 2038 {
// 2039   uint8 buf[PACKET_LEN_SE_EMERGENCY_CREDIT_SETUP];
// 2040   uint8 *pBuf;
// 2041 
// 2042   pBuf = osal_buffer_uint32( buf, pCmd->cmdIssueTime );
// 2043   pBuf = osal_buffer_uint32( pBuf, pCmd->emergencyCreditLimit );
// 2044   pBuf = osal_buffer_uint32( pBuf, pCmd->emergencyCreditThreshold );
// 2045 
// 2046   return zcl_SendCommand( srcEP, dstAddr, ZCL_CLUSTER_ID_SE_PREPAYMENT,
// 2047                           COMMAND_SE_EMERGENCY_CREDIT_SETUP, TRUE,
// 2048                           ZCL_FRAME_CLIENT_SERVER_DIR, disableDefaultRsp, 0,
// 2049                           seqNum, PACKET_LEN_SE_EMERGENCY_CREDIT_SETUP, buf );
// 2050 }
// 2051 
// 2052 /*********************************************************************
// 2053  * @fn      zclSE_Prepayment_Send_ConsumerTopup
// 2054  *
// 2055  * @brief   Call to send out a Consumer Topup
// 2056  *
// 2057  * @param   srcEP - Sending application's endpoint
// 2058  * @param   dstAddr - where you want the message to go
// 2059  * @param   pCmd - command payload
// 2060  * @param   disableDefaultRsp - disable default response
// 2061  * @param   seqNum - ZCL sequence number
// 2062  *
// 2063  * @return  ZStatus_t
// 2064  */
// 2065 ZStatus_t zclSE_Prepayment_Send_ConsumerTopup( uint8 srcEP, afAddrType_t *dstAddr,
// 2066                                                zclCCConsumerTopup_t *pCmd,
// 2067                                                uint8 disableDefaultRsp, uint8 seqNum )
// 2068 {
// 2069   uint8 *buf;
// 2070   uint8 *pBuf;
// 2071   ZStatus_t status;
// 2072   uint8 bufLen = PACKET_LEN_SE_MIN_CONSUMER_TOPUP + pCmd->topupCode.strLen;
// 2073 
// 2074   buf = osal_mem_alloc( bufLen );
// 2075   if ( buf == NULL )
// 2076   {
// 2077     return ( ZMemError );
// 2078   }
// 2079 
// 2080   pBuf = buf;
// 2081 
// 2082   *pBuf++ = pCmd->originatingDevice;
// 2083   *pBuf++ = pCmd->topupCode.strLen;
// 2084   pBuf = osal_memcpy( pBuf, pCmd->topupCode.pStr, pCmd->topupCode.strLen );
// 2085 
// 2086   status = zcl_SendCommand( srcEP, dstAddr, ZCL_CLUSTER_ID_SE_PREPAYMENT,
// 2087                             COMMAND_SE_CONSUMER_TOPUP, TRUE,
// 2088                             ZCL_FRAME_CLIENT_SERVER_DIR, disableDefaultRsp, 0,
// 2089                             seqNum, bufLen, buf );
// 2090   osal_mem_free( buf );
// 2091 
// 2092   return status;
// 2093 }
// 2094 
// 2095 /*********************************************************************
// 2096  * @fn      zclSE_Prepayment_Send_CreditAdjustment
// 2097  *
// 2098  * @brief   Call to send out a Credit Adjustment
// 2099  *
// 2100  * @param   srcEP - Sending application's endpoint
// 2101  * @param   dstAddr - where you want the message to go
// 2102  * @param   pCmd - command payload
// 2103  * @param   disableDefaultRsp - disable default response
// 2104  * @param   seqNum - ZCL sequence number
// 2105  *
// 2106  * @return  ZStatus_t
// 2107  */
// 2108 ZStatus_t zclSE_Prepayment_Send_CreditAdjustment( uint8 srcEP, afAddrType_t *dstAddr,
// 2109                                                   zclCCCreditAdjustment_t *pCmd,
// 2110                                                   uint8 disableDefaultRsp, uint8 seqNum )
// 2111 {
// 2112   uint8 *buf;
// 2113   uint8 *pBuf;
// 2114   ZStatus_t status;
// 2115   uint8 bufLen = PACKET_LEN_SE_MIN_CREDIT_ADJUSTMENT +  pCmd->signature.strLen;
// 2116 
// 2117   buf = osal_mem_alloc( bufLen );
// 2118   if ( buf == NULL )
// 2119   {
// 2120     return ( ZMemError );
// 2121   }
// 2122 
// 2123   pBuf = osal_buffer_uint32( buf, pCmd->cmdIssueTime );
// 2124   *pBuf++ = pCmd->creditAdjustmentType;
// 2125   pBuf = osal_memcpy( pBuf, pCmd->creditAdjustmentValue, 6 );
// 2126   *pBuf++ = pCmd->signature.strLen;
// 2127   pBuf = osal_memcpy( pBuf, pCmd->signature.pStr, pCmd->signature.strLen );
// 2128 
// 2129   status = zcl_SendCommand( srcEP, dstAddr, ZCL_CLUSTER_ID_SE_PREPAYMENT,
// 2130                             COMMAND_SE_CREDIT_ADJUSTMENT, TRUE,
// 2131                             ZCL_FRAME_CLIENT_SERVER_DIR, disableDefaultRsp, 0,
// 2132                             seqNum, bufLen, buf );
// 2133   osal_mem_free( buf );
// 2134 
// 2135   return status;
// 2136 }
// 2137 
// 2138 /*********************************************************************
// 2139  * @fn      zclSE_Prepayment_Send_ChangePaymentMode
// 2140  *
// 2141  * @brief   Call to send out a Change Payment Mode
// 2142  *
// 2143  * @param   srcEP - Sending application's endpoint
// 2144  * @param   dstAddr - where you want the message to go
// 2145  * @param   pCmd - command payload
// 2146  * @param   disableDefaultRsp - disable default response
// 2147  * @param   seqNum - ZCL sequence number
// 2148  *
// 2149  * @return  ZStatus_t
// 2150  */
// 2151 ZStatus_t zclSE_Prepayment_Send_ChangePaymentMode( uint8 srcEP, afAddrType_t *dstAddr,
// 2152                                                    zclCCChangePaymentMode_t *pCmd,
// 2153                                                    uint8 disableDefaultRsp, uint8 seqNum )
// 2154 {
// 2155   uint8 *buf;
// 2156   uint8 *pBuf;
// 2157   ZStatus_t status;
// 2158   uint8 bufLen = PACKET_LEN_SE_MIN_CHANGE_PAYMENT_MODE +  pCmd->signature.strLen;
// 2159 
// 2160   buf = osal_mem_alloc( bufLen );
// 2161   if ( buf == NULL )
// 2162   {
// 2163     return ( ZMemError );
// 2164   }
// 2165 
// 2166   pBuf = osal_buffer_uint32( buf, pCmd->supplierId );
// 2167   pBuf = osal_buffer_uint32( pBuf, pCmd->modeEventId );
// 2168   pBuf = osal_buffer_uint32( pBuf, pCmd->implementationDate );
// 2169   *pBuf++ = pCmd->proposedPaymentControl;
// 2170   pBuf = osal_buffer_uint32( pBuf, pCmd->cutOffValue );
// 2171   *pBuf++ = pCmd->signature.strLen;
// 2172   pBuf = osal_memcpy( pBuf, pCmd->signature.pStr, pCmd->signature.strLen );
// 2173 
// 2174   status = zcl_SendCommand( srcEP, dstAddr, ZCL_CLUSTER_ID_SE_PREPAYMENT,
// 2175                             COMMAND_SE_CHANGE_PAYMENT_MODE, TRUE,
// 2176                             ZCL_FRAME_CLIENT_SERVER_DIR, disableDefaultRsp, 0,
// 2177                             seqNum, bufLen, buf );
// 2178   osal_mem_free( buf );
// 2179 
// 2180   return status;
// 2181 }
// 2182 
// 2183 /*********************************************************************
// 2184  * @fn      zclSE_Prepayment_Send_GetPrepaySnapshot
// 2185  *
// 2186  * @brief   Call to send out a Get Prepay Snapshot
// 2187  *
// 2188  * @param   srcEP - Sending application's endpoint
// 2189  * @param   dstAddr - where you want the message to go
// 2190  * @param   pCmd - command payload
// 2191  * @param   disableDefaultRsp - disable default response
// 2192  * @param   seqNum - ZCL sequence number
// 2193  *
// 2194  * @return  ZStatus_t
// 2195  */
// 2196 ZStatus_t zclSE_Prepayment_Send_GetPrepaySnapshot( uint8 srcEP, afAddrType_t *dstAddr,
// 2197                                                    zclCCGetPrepaySnapshot_t *pCmd,
// 2198                                                    uint8 disableDefaultRsp, uint8 seqNum )
// 2199 {
// 2200   uint8 buf[PACKET_LEN_SE_GET_PREPAY_SNAPSHOT];
// 2201   uint8 *pBuf;
// 2202 
// 2203   pBuf = osal_buffer_uint32( buf, pCmd->startTime );
// 2204   *pBuf++ = pCmd->numberOfSnapshots;
// 2205   *pBuf++ = LO_UINT16( pCmd->snapshotCause );
// 2206   *pBuf   = HI_UINT16( pCmd->snapshotCause );
// 2207 
// 2208   return zcl_SendCommand( srcEP, dstAddr, ZCL_CLUSTER_ID_SE_PREPAYMENT,
// 2209                           COMMAND_SE_GET_PREPAY_SNAPSHOT, TRUE,
// 2210                           ZCL_FRAME_CLIENT_SERVER_DIR, disableDefaultRsp, 0,
// 2211                           seqNum, PACKET_LEN_SE_GET_PREPAY_SNAPSHOT, buf );
// 2212 }
// 2213 
// 2214 /*********************************************************************
// 2215  * @fn      zclSE_Prepayment_Send_GetTopupLog
// 2216  *
// 2217  * @brief   Call to send out a Get Topup Log
// 2218  *
// 2219  * @param   srcEP - Sending application's endpoint
// 2220  * @param   dstAddr - where you want the message to go
// 2221  * @param   numEvents - number of events
// 2222  * @param   disableDefaultRsp - disable default response
// 2223  * @param   seqNum - ZCL sequence number
// 2224  *
// 2225  * @return  ZStatus_t
// 2226  */
// 2227 ZStatus_t zclSE_Prepayment_Send_GetTopupLog( uint8 srcEP, afAddrType_t *dstAddr,
// 2228                                              uint8 numEvents, uint8 disableDefaultRsp, uint8 seqNum )
// 2229 {
// 2230   uint8 buf[PACKET_LEN_SE_GET_TOPUP_LOG];
// 2231 
// 2232   buf[0] = numEvents;
// 2233 
// 2234   return zcl_SendCommand( srcEP, dstAddr, ZCL_CLUSTER_ID_SE_PREPAYMENT,
// 2235                           COMMAND_SE_GET_TOPUP_LOG, TRUE,
// 2236                           ZCL_FRAME_CLIENT_SERVER_DIR, disableDefaultRsp, 0,
// 2237                           seqNum, PACKET_LEN_SE_GET_TOPUP_LOG, buf );
// 2238 }
// 2239 
// 2240 /*********************************************************************
// 2241  * @fn      zclSE_Prepayment_Send_SetLowCreditWarningLevel
// 2242  *
// 2243  * @brief   Call to send out a Set Low Credit Warning Level
// 2244  *
// 2245  * @param   srcEP - Sending application's endpoint
// 2246  * @param   dstAddr - where you want the message to go
// 2247  * @param   warningLevel - warning level
// 2248  * @param   disableDefaultRsp - disable default response
// 2249  * @param   seqNum - ZCL sequence number
// 2250  *
// 2251  * @return  ZStatus_t
// 2252  */
// 2253 ZStatus_t zclSE_Prepayment_Send_SetLowCreditWarningLevel( uint8 srcEP, afAddrType_t *dstAddr,
// 2254                                                           uint8 warningLevel,
// 2255                                                           uint8 disableDefaultRsp, uint8 seqNum )
// 2256 {
// 2257   uint8 buf[PACKET_LEN_SE_SET_LOW_CREDIT_WARNING_LEVEL];
// 2258 
// 2259   buf[0] = warningLevel;
// 2260 
// 2261   return zcl_SendCommand( srcEP, dstAddr, ZCL_CLUSTER_ID_SE_PREPAYMENT,
// 2262                           COMMAND_SE_SET_LOW_CREDIT_WARNING_LEVEL, TRUE,
// 2263                           ZCL_FRAME_CLIENT_SERVER_DIR, disableDefaultRsp, 0,
// 2264                           seqNum, PACKET_LEN_SE_SET_LOW_CREDIT_WARNING_LEVEL, buf );
// 2265 }
// 2266 
// 2267 /*********************************************************************
// 2268  * @fn      zclSE_Prepayment_Send_GetDebtRepaymentLog
// 2269  *
// 2270  * @brief   Call to send out a Get Debt Repayment Log
// 2271  *
// 2272  * @param   srcEP - Sending application's endpoint
// 2273  * @param   dstAddr - where you want the message to go
// 2274  * @param   pCmd - command payload
// 2275  * @param   disableDefaultRsp - disable default response
// 2276  * @param   seqNum - ZCL sequence number
// 2277  *
// 2278  * @return  ZStatus_t
// 2279  */
// 2280 ZStatus_t zclSE_Prepayment_Send_GetDebtRepaymentLog( uint8 srcEP, afAddrType_t *dstAddr,
// 2281                                                      zclCCGetDebtRepaymentLog_t *pCmd,
// 2282                                                      uint8 disableDefaultRsp, uint8 seqNum )
// 2283 {
// 2284   uint8 buf[PACKET_LEN_SE_GET_DEBT_REPAYMENT_LOG];
// 2285 
// 2286   buf[0] = pCmd->numberOfDebt;
// 2287   buf[1] = pCmd->debtType;
// 2288 
// 2289   return zcl_SendCommand( srcEP, dstAddr, ZCL_CLUSTER_ID_SE_PREPAYMENT,
// 2290                           COMMAND_SE_GET_DEBT_REPAYMENT_LOG, TRUE,
// 2291                           ZCL_FRAME_CLIENT_SERVER_DIR, disableDefaultRsp, 0,
// 2292                           seqNum, PACKET_LEN_SE_GET_DEBT_REPAYMENT_LOG, buf );
// 2293 }
// 2294 
// 2295 /*********************************************************************
// 2296  * @fn      zclSE_Prepayment_Send_GetPrepaySnapshotResponse
// 2297  *
// 2298  * @brief   Call to send out a Get Prepay Snapshot Response
// 2299  *
// 2300  * @param   srcEP - Sending application's endpoint
// 2301  * @param   dstAddr - where you want the message to go
// 2302  * @param   pCmd - command payload
// 2303  * @param   disableDefaultRsp - disable default response
// 2304  * @param   seqNum - ZCL sequence number
// 2305  *
// 2306  * @return  ZStatus_t
// 2307  */
// 2308 ZStatus_t zclSE_Prepayment_Send_GetPrepaySnapshotResponse( uint8 srcEP, afAddrType_t *dstAddr,
// 2309                                                            zclCCGetPrepaySnapshotResponse_t *pCmd,
// 2310                                                            uint8 disableDefaultRsp, uint8 seqNum )
// 2311 {
// 2312   uint8 buf[PACKET_LEN_SE_GET_PREPAY_SNAPSHOT_RESPONSE];
// 2313   uint8 *pBuf;
// 2314 
// 2315   pBuf = osal_buffer_uint32( buf, pCmd->eventIssuerId );
// 2316   pBuf = osal_buffer_uint32( pBuf, pCmd->snapshotTime );
// 2317   *pBuf++ = pCmd->commandIndex;
// 2318   *pBuf++ = LO_UINT16( pCmd->snapshotCause );
// 2319   *pBuf++ = HI_UINT16( pCmd->snapshotCause );
// 2320   *pBuf++ = pCmd->snapshotPayloadType;
// 2321 
// 2322   pBuf = osal_buffer_uint32( pBuf, pCmd->payload.type1DebtRemaining );
// 2323   pBuf = osal_buffer_uint32( pBuf, pCmd->payload.type2DebtRemaining );
// 2324   pBuf = osal_buffer_uint32( pBuf, pCmd->payload.type3DebtRemaining );
// 2325   pBuf = osal_buffer_uint32( pBuf, pCmd->payload.emergencyCreditRemaining );
// 2326   pBuf = osal_buffer_uint32( pBuf, pCmd->payload.creditRemaining );
// 2327 
// 2328   return zcl_SendCommand( srcEP, dstAddr, ZCL_CLUSTER_ID_SE_PREPAYMENT,
// 2329                           COMMAND_SE_GET_PREPAY_SNAPSHOT_RESPONSE, TRUE,
// 2330                           ZCL_FRAME_SERVER_CLIENT_DIR, disableDefaultRsp, 0,
// 2331                           seqNum, PACKET_LEN_SE_GET_PREPAY_SNAPSHOT_RESPONSE, buf );
// 2332 }
// 2333 
// 2334 /*********************************************************************
// 2335  * @fn      zclSE_Prepayment_Send_ChangePaymentModeResponse
// 2336  *
// 2337  * @brief   Call to send out a Change Payment Mode Response
// 2338  *
// 2339  * @param   srcEP - Sending application's endpoint
// 2340  * @param   dstAddr - where you want the message to go
// 2341  * @param   pCmd - command payload
// 2342  * @param   disableDefaultRsp - disable default response
// 2343  * @param   seqNum - ZCL sequence number
// 2344  *
// 2345  * @return  ZStatus_t
// 2346  */
// 2347 ZStatus_t zclSE_Prepayment_Send_ChangePaymentModeResponse( uint8 srcEP, afAddrType_t *dstAddr,
// 2348                                                            zclCCChangePaymentModeResponse_t *pCmd,
// 2349                                                            uint8 disableDefaultRsp, uint8 seqNum )
// 2350 {
// 2351   uint8 buf[PACKET_LEN_SE_CHANGE_PAYMENT_MODE_RESPONSE];
// 2352   uint8 *pBuf = buf;
// 2353 
// 2354   *pBuf++ = pCmd->friendlyCredit;
// 2355   pBuf = osal_buffer_uint32( pBuf, pCmd->friendlyCreditCalendar );
// 2356   pBuf = osal_buffer_uint32( pBuf, pCmd->emergencyCreditLimit );
// 2357   pBuf = osal_buffer_uint32( pBuf, pCmd->cmergencyCreditThreshold );
// 2358 
// 2359   return zcl_SendCommand( srcEP, dstAddr, ZCL_CLUSTER_ID_SE_PREPAYMENT,
// 2360                           COMMAND_SE_CHANGE_PAYMENT_MODE_RESPONSE, TRUE,
// 2361                           ZCL_FRAME_SERVER_CLIENT_DIR, disableDefaultRsp, 0,
// 2362                           seqNum, PACKET_LEN_SE_CHANGE_PAYMENT_MODE_RESPONSE, buf );
// 2363 }
// 2364 
// 2365 /*********************************************************************
// 2366  * @fn      zclSE_Prepayment_Send_ConsumerTopupResponse
// 2367  *
// 2368  * @brief   Call to send out a Consumer Topup Response
// 2369  *
// 2370  * @param   srcEP - Sending application's endpoint
// 2371  * @param   dstAddr - where you want the message to go
// 2372  * @param   pCmd - command payload
// 2373  * @param   disableDefaultRsp - disable default response
// 2374  * @param   seqNum - ZCL sequence number
// 2375  *
// 2376  * @return  ZStatus_t
// 2377  */
// 2378 ZStatus_t zclSE_Prepayment_Send_ConsumerTopupResponse( uint8 srcEP, afAddrType_t *dstAddr,
// 2379                                                        zclCCConsumerTopupResponse_t *pCmd,
// 2380                                                        uint8 disableDefaultRsp, uint8 seqNum )
// 2381 {
// 2382   uint8 buf[PACKET_LEN_SE_SE_CONSUMER_TOPUP_RESPONSE];
// 2383   uint8 *pBuf = buf;
// 2384 
// 2385   *pBuf++ = pCmd->resultType;
// 2386   pBuf = osal_buffer_uint32( pBuf, pCmd->topupValue );
// 2387   *pBuf++ = pCmd->sourceofTopup;
// 2388   pBuf = osal_buffer_uint32( pBuf, pCmd->creditRemaining );
// 2389 
// 2390   return zcl_SendCommand( srcEP, dstAddr, ZCL_CLUSTER_ID_SE_PREPAYMENT,
// 2391                           COMMAND_SE_CONSUMER_TOPUP_RESPONSE, TRUE,
// 2392                           ZCL_FRAME_SERVER_CLIENT_DIR, disableDefaultRsp, 0,
// 2393                           seqNum, PACKET_LEN_SE_SE_CONSUMER_TOPUP_RESPONSE, buf );
// 2394 }
// 2395 
// 2396 /*********************************************************************
// 2397  * @fn      zclSE_Prepayment_Send_GetCommands
// 2398  *
// 2399  * @brief   Call to send out a Get Commands
// 2400  *
// 2401  * @param   srcEP - Sending application's endpoint
// 2402  * @param   dstAddr - where you want the message to go
// 2403  * @param   notificationFlags - notification flags
// 2404  * @param   disableDefaultRsp - disable default response
// 2405  * @param   seqNum - ZCL sequence number
// 2406  *
// 2407  * @return  ZStatus_t
// 2408  */
// 2409 ZStatus_t zclSE_Prepayment_Send_GetCommands( uint8 srcEP, afAddrType_t *dstAddr,
// 2410                                              uint8 notificationFlags, uint8 disableDefaultRsp, uint8 seqNum )
// 2411 {
// 2412   uint8 buf[PACKET_LEN_SE_GET_COMMANDS];
// 2413 
// 2414   buf[0] = notificationFlags;
// 2415 
// 2416   return zcl_SendCommand( srcEP, dstAddr, ZCL_CLUSTER_ID_SE_PREPAYMENT,
// 2417                           COMMAND_SE_GET_COMMANDS, TRUE,
// 2418                           ZCL_FRAME_SERVER_CLIENT_DIR, disableDefaultRsp, 0,
// 2419                           seqNum, PACKET_LEN_SE_GET_COMMANDS, buf );
// 2420 }
// 2421 
// 2422 /*********************************************************************
// 2423  * @fn      zclSE_Prepayment_Send_PublishTopupLog
// 2424  *
// 2425  * @brief   Call to send out a Publish Topup Log
// 2426  *
// 2427  * @param   srcEP - Sending application's endpoint
// 2428  * @param   dstAddr - where you want the message to go
// 2429  * @param   pCmd - command payload
// 2430  * @param   disableDefaultRsp - disable default response
// 2431  * @param   seqNum - ZCL sequence number
// 2432  *
// 2433  * @return  ZStatus_t
// 2434  */
// 2435 ZStatus_t zclSE_Prepayment_Send_PublishTopupLog( uint8 srcEP, afAddrType_t *dstAddr,
// 2436                                                 zclCCPublishTopupLog_t *pCmd,
// 2437                                                 uint8 disableDefaultRsp, uint8 seqNum )
// 2438 {
// 2439   uint8 *buf;
// 2440   uint8 *pBuf;
// 2441   ZStatus_t status;
// 2442   uint8 bufLen = PACKET_LEN_SE_MIN_PUBLISH_TOPUP_LOG + (pCmd->numCodes * SE_TOPUP_CODE_LEN);
// 2443   uint8 i;
// 2444 
// 2445   buf = osal_mem_alloc( bufLen );
// 2446   if ( buf == NULL )
// 2447   {
// 2448     return ( ZMemError );
// 2449   }
// 2450 
// 2451   pBuf = buf;
// 2452 
// 2453   *pBuf++ = pCmd->cmdIndex;
// 2454   *pBuf++ = pCmd->totalCmds;
// 2455 
// 2456   bufLen = 2;
// 2457 
// 2458   for ( i = 0; i < pCmd->numCodes; i++ )
// 2459   {
// 2460     *pBuf++ = pCmd->pPayload[i].strLen;
// 2461     pBuf = osal_memcpy( pBuf, pCmd->pPayload[i].pStr, pCmd->pPayload[i].strLen );
// 2462     bufLen += 1 + pCmd->pPayload[i].strLen;
// 2463   }
// 2464 
// 2465   status = zcl_SendCommand( srcEP, dstAddr, ZCL_CLUSTER_ID_SE_PREPAYMENT,
// 2466                             COMMAND_SE_PUBLISH_TOPUP_LOG, TRUE,
// 2467                             ZCL_FRAME_SERVER_CLIENT_DIR, disableDefaultRsp, 0,
// 2468                             seqNum, bufLen, buf );
// 2469   osal_mem_free( buf );
// 2470 
// 2471   return status;
// 2472 }
// 2473 
// 2474 /*********************************************************************
// 2475  * @fn      zclSE_Prepayment_Send_PublishDebtLog
// 2476  *
// 2477  * @brief   Call to send out a Publish Debt Log
// 2478  *
// 2479  * @param   srcEP - Sending application's endpoint
// 2480  * @param   dstAddr - where you want the message to go
// 2481  * @param   pCmd - command payload
// 2482  * @param   disableDefaultRsp - disable default response
// 2483  * @param   seqNum - ZCL sequence number
// 2484  *
// 2485  * @return  ZStatus_t
// 2486  */
// 2487 ZStatus_t zclSE_Prepayment_Send_PublishDebtLog( uint8 srcEP, afAddrType_t *dstAddr,
// 2488                                                 zclCCPublishDebtLog_t *pCmd,
// 2489                                                 uint8 disableDefaultRsp, uint8 seqNum )
// 2490 {
// 2491   uint8 *buf;
// 2492   uint8 *pBuf;
// 2493   ZStatus_t status;
// 2494   uint8 bufLen = PACKET_LEN_SE_MIN_PUBLISH_DEBT_LOG + (pCmd->numDebts * sizeof(zclCCDebtPayload_t));
// 2495   uint8 i;
// 2496 
// 2497   buf = osal_mem_alloc( bufLen );
// 2498   if ( buf == NULL )
// 2499   {
// 2500     return ( ZMemError );
// 2501   }
// 2502 
// 2503   pBuf = buf;
// 2504 
// 2505   *pBuf++ = pCmd->cmdIndex;
// 2506   *pBuf++ = pCmd->totalCmds;
// 2507 
// 2508   for ( i = 0; i < pCmd->numDebts; i++ )
// 2509   {
// 2510     pBuf = osal_buffer_uint32( pBuf, pCmd->pPayload[i].collectionTime );
// 2511     pBuf = osal_buffer_uint32( pBuf, pCmd->pPayload[i].amountCollected );
// 2512     *pBuf++ = pCmd->pPayload[i].debtType;
// 2513     pBuf = osal_buffer_uint32( pBuf, pCmd->pPayload[i].outstandingDebt );
// 2514   }
// 2515 
// 2516   status = zcl_SendCommand( srcEP, dstAddr, ZCL_CLUSTER_ID_SE_PREPAYMENT,
// 2517                             COMMAND_SE_PUBLISH_DEBT_LOG, TRUE,
// 2518                             ZCL_FRAME_SERVER_CLIENT_DIR, disableDefaultRsp, 0,
// 2519                             seqNum, bufLen, buf );
// 2520   osal_mem_free( buf );
// 2521 
// 2522   return status;
// 2523 }
// 2524 #endif  //SE_UK_EXT
// 2525 #endif  // ZCL_PREPAYMENT
// 2526 
// 2527 #ifdef ZCL_TUNNELING
// 2528 /*********************************************************************
// 2529  * @fn      zclSE_Tunneling_Send_RequestTunnel
// 2530  *
// 2531  * @brief   Call to send out a Request Tunnel
// 2532  *
// 2533  * @param   srcEP - Sending application's endpoint
// 2534  * @param   dstAddr - where you want the message to go
// 2535  * @param   pCmd - command payload
// 2536  * @param   disableDefaultRsp - disable default response
// 2537  * @param   seqNum - ZCL sequence number
// 2538  *
// 2539  * @return  ZStatus_t
// 2540  */
// 2541 ZStatus_t zclSE_Tunneling_Send_RequestTunnel( uint8 srcEP, afAddrType_t *dstAddr,
// 2542                                               zclCCRequestTunnel_t  *pCmd,
// 2543                                               uint8 disableDefaultRsp, uint8 seqNum )
// 2544 {
// 2545   uint8 *buf;
// 2546   uint8 *pBuf;
// 2547   ZStatus_t status;
// 2548 
// 2549   buf = osal_mem_alloc( PACKET_LEN_SE_TUNNELING_REQUEST );
// 2550   if ( buf == NULL )
// 2551   {
// 2552     return ZMemError;
// 2553   }
// 2554 
// 2555   pBuf = buf;
// 2556   *pBuf++ = pCmd->protocolId;
// 2557   *pBuf++ = LO_UINT16( pCmd->manufacturerCode );
// 2558   *pBuf++ = HI_UINT16( pCmd->manufacturerCode );
// 2559   *pBuf++ = pCmd->flowControlSupport;
// 2560   *pBuf++ = LO_UINT16( pCmd->maxInTransferSize );
// 2561   *pBuf   = HI_UINT16( pCmd->maxInTransferSize );
// 2562 
// 2563   status = zcl_SendCommand( srcEP, dstAddr, ZCL_CLUSTER_ID_SE_SE_TUNNELING,
// 2564                             COMMAND_SE_REQUEST_TUNNEL, TRUE,
// 2565                             ZCL_FRAME_CLIENT_SERVER_DIR, disableDefaultRsp, 0,
// 2566                             seqNum, PACKET_LEN_SE_TUNNELING_REQUEST, buf );
// 2567 
// 2568   osal_mem_free( buf );
// 2569 
// 2570   return status;
// 2571 }
// 2572 
// 2573 /*********************************************************************
// 2574  * @fn      zclSE_Tunneling_Send_ReqTunnelRsp
// 2575  *
// 2576  * @brief   Call to send out a Request Tunnel Response
// 2577  *
// 2578  * @param   srcEP - Sending application's endpoint
// 2579  * @param   dstAddr - where you want the message to go
// 2580  * @param   pCmd - command payload
// 2581  * @param   disableDefaultRsp - disable default response
// 2582  * @param   seqNum - ZCL sequence number
// 2583  *
// 2584  * @return  ZStatus_t
// 2585  */
// 2586 extern ZStatus_t zclSE_Tunneling_Send_ReqTunnelRsp( uint8 srcEP, afAddrType_t *dstAddr,
// 2587                                                     zclCCReqTunnelRsp_t *pCmd,
// 2588                                                     uint8 disableDefaultRsp, uint8 seqNum )
// 2589 {
// 2590   uint8 *buf;
// 2591   uint8 *pBuf;
// 2592   ZStatus_t status;
// 2593 
// 2594   buf = osal_mem_alloc( PACKET_LEN_SE_TUNNELING_RESPONSE );
// 2595   if ( buf == NULL )
// 2596   {
// 2597     return ZMemError;
// 2598   }
// 2599 
// 2600   pBuf = buf;
// 2601   *pBuf++ = LO_UINT16( pCmd->tunnelId ) ;
// 2602   *pBuf++ = HI_UINT16( pCmd->tunnelId );
// 2603   *pBuf++ = pCmd->tunnelStatus;
// 2604   *pBuf++ = LO_UINT16( pCmd->maxInTransferSize ) ;
// 2605   *pBuf   = HI_UINT16( pCmd->maxInTransferSize );
// 2606 
// 2607   status = zcl_SendCommand( srcEP, dstAddr, ZCL_CLUSTER_ID_SE_SE_TUNNELING,
// 2608                             COMMAND_SE_REQUEST_TUNNEL_RESPONSE, TRUE,
// 2609                             ZCL_FRAME_SERVER_CLIENT_DIR, disableDefaultRsp, 0,
// 2610                             seqNum, PACKET_LEN_SE_TUNNELING_RESPONSE, buf );
// 2611 
// 2612   osal_mem_free( buf );
// 2613 
// 2614   return status;
// 2615 
// 2616 }
// 2617 
// 2618 /*********************************************************************
// 2619  * @fn      zclSE_Tunneling_Send_CloseTunnel
// 2620  *
// 2621  * @brief   Call to send out a Close Tunnel
// 2622  *
// 2623  * @param   srcEP - Sending application's endpoint
// 2624  * @param   dstAddr - where you want the message to go
// 2625  * @param   pCmd - command payload
// 2626  * @param   disableDefaultRsp - disable default response
// 2627  * @param   seqNum - ZCL sequence number
// 2628  *
// 2629  * @return  ZStatus_t
// 2630  */
// 2631 ZStatus_t zclSE_Tunneling_Send_CloseTunnel( uint8 srcEP, afAddrType_t *dstAddr,
// 2632                                             zclCCCloseTunnel_t *pCmd,
// 2633                                             uint8 disableDefaultRsp, uint8 seqNum )
// 2634 {
// 2635   uint8 buf[PACKET_LEN_SE_TUNNELING_CLOSE];
// 2636   ZStatus_t status;
// 2637 
// 2638   buf[0] = LO_UINT16( pCmd->tunnelId );
// 2639   buf[1] = HI_UINT16( pCmd->tunnelId );
// 2640 
// 2641   status = zcl_SendCommand( srcEP, dstAddr, ZCL_CLUSTER_ID_SE_SE_TUNNELING,
// 2642                             COMMAND_SE_CLOSE_TUNNEL, TRUE,
// 2643                             ZCL_FRAME_CLIENT_SERVER_DIR, disableDefaultRsp, 0,
// 2644                             seqNum, PACKET_LEN_SE_TUNNELING_CLOSE, buf );
// 2645 
// 2646   return status;
// 2647 }
// 2648 
// 2649 /*********************************************************************
// 2650  * @fn      zclSE_Tunneling_Send_TransferData
// 2651  *
// 2652  * @brief   Call to send out a Transfer Data
// 2653  *
// 2654  * @param   srcEP - Sending application's endpoint
// 2655  * @param   dstAddr - where you want the message to go
// 2656  * @param   pCmd - command payload
// 2657  * @param   cmdId - command identifier
// 2658  * @param   dataLen - length of transported data
// 2659  * @param   disableDefaultRsp - disable default response
// 2660  * @param   seqNum - ZCL sequence number
// 2661  *
// 2662  * @return  ZStatus_t
// 2663  */
// 2664 ZStatus_t zclSE_Tunneling_Send_TransferData( uint8 srcEP, afAddrType_t *dstAddr,
// 2665                                              zclCCTransferData_t *pCmd, uint8 cmdId,
// 2666                                              uint16 dataLen, uint8 disableDefaultRsp, uint8 seqNum )
// 2667 {
// 2668   uint8 *buf;
// 2669   uint8 *pBuf;
// 2670   uint8 bufLen;
// 2671   ZStatus_t status;
// 2672   uint8 direction;
// 2673 
// 2674   bufLen = PACKET_LEN_SE_TUNNELING_TRANSFER_DATA + dataLen;
// 2675   buf = osal_mem_alloc( bufLen );
// 2676   if ( buf == NULL )
// 2677   {
// 2678     return ZMemError;
// 2679   }
// 2680 
// 2681   pBuf = buf;
// 2682   *pBuf++ = LO_UINT16( pCmd->tunnelId );
// 2683   *pBuf++ = HI_UINT16( pCmd->tunnelId );
// 2684 
// 2685   if ( cmdId == COMMAND_SE_DATA_CLIENT_SERVER_DIR )
// 2686   {
// 2687     direction = ZCL_FRAME_CLIENT_SERVER_DIR;
// 2688   }
// 2689   else
// 2690   {
// 2691     direction = ZCL_FRAME_SERVER_CLIENT_DIR;
// 2692   }
// 2693 
// 2694   osal_memcpy( pBuf, pCmd->data, dataLen );
// 2695 
// 2696   status = zcl_SendCommand( srcEP, dstAddr, ZCL_CLUSTER_ID_SE_SE_TUNNELING,
// 2697                             cmdId, TRUE, direction, disableDefaultRsp, 0,
// 2698                             seqNum, bufLen, buf );
// 2699 
// 2700   osal_mem_free( buf );
// 2701 
// 2702   return status;
// 2703 }
// 2704 
// 2705 /*********************************************************************
// 2706  * @fn      zclSE_Tunneling_Send_TransferDataError
// 2707  *
// 2708  * @brief   Call to send out a Transfer Data Error
// 2709  *
// 2710  * @param   srcEP - Sending application's endpoint
// 2711  * @param   dstAddr - where you want the message to go
// 2712  * @param   pCmd - command payload
// 2713  * @param   cmdId - command identifier
// 2714  * @param   disableDefaultRsp - disable default response
// 2715  * @param   seqNum - ZCL sequence number
// 2716  *
// 2717  * @return  ZStatus_t
// 2718  */
// 2719 ZStatus_t zclSE_Tunneling_Send_TransferDataError( uint8 srcEP, afAddrType_t *dstAddr,
// 2720                                                   zclCCTransferDataError_t *pCmd, uint8 cmdId,
// 2721                                                   uint8 disableDefaultRsp, uint8 seqNum )
// 2722 {
// 2723   uint8 buf[PACKET_LEN_SE_TUNNELING_DATA_ERROR];
// 2724   ZStatus_t status;
// 2725   uint8 direction;
// 2726 
// 2727   buf[0] = LO_UINT16( pCmd->tunnelId );
// 2728   buf[1] = HI_UINT16( pCmd->tunnelId );
// 2729   buf[2] = pCmd->transferDataStatus;
// 2730 
// 2731   if ( cmdId == COMMAND_SE_DATA_ERROR_CLIENT_SERVER_DIR)
// 2732   {
// 2733     direction = ZCL_FRAME_CLIENT_SERVER_DIR;
// 2734   }
// 2735   else
// 2736   {
// 2737     direction = ZCL_FRAME_SERVER_CLIENT_DIR;
// 2738   }
// 2739 
// 2740   status = zcl_SendCommand( srcEP, dstAddr, ZCL_CLUSTER_ID_SE_SE_TUNNELING,
// 2741                             cmdId, TRUE, direction, disableDefaultRsp, 0,
// 2742                             seqNum, PACKET_LEN_SE_TUNNELING_DATA_ERROR, buf );
// 2743 
// 2744   return status;
// 2745 }
// 2746 
// 2747 /*********************************************************************
// 2748  * @fn      zclSE_Tunneling_Send_AckTransferData
// 2749  *
// 2750  * @brief   Call to send out an Acknowledgment Transfer Data
// 2751  *
// 2752  * @param   srcEP - Sending application's endpoint
// 2753  * @param   dstAddr - where you want the message to go
// 2754  * @param   pCmd - command payload
// 2755  * @param   cmdId - command identifier
// 2756  * @param   disableDefaultRsp - disable default response
// 2757  * @param   seqNum - ZCL sequence number
// 2758  *
// 2759  * @return  ZStatus_t
// 2760  */
// 2761 ZStatus_t zclSE_Tunneling_Send_AckTransferData( uint8 srcEP, afAddrType_t *dstAddr,
// 2762                                                 zclCCAckTransferData_t *pCmd, uint8 cmdId,
// 2763                                                 uint8 disableDefaultRsp, uint8 seqNum )
// 2764 {
// 2765   uint8 buf[PACKET_LEN_SE_TUNNELING_DATA_ACK];
// 2766   ZStatus_t status;
// 2767   uint8 direction;
// 2768 
// 2769   buf[0] = LO_UINT16( pCmd->tunnelId );
// 2770   buf[1] = HI_UINT16( pCmd->tunnelId );
// 2771   buf[2] = LO_UINT16( pCmd->numberOfBytesLeft );
// 2772   buf[3] = HI_UINT16( pCmd->numberOfBytesLeft );
// 2773 
// 2774   if ( cmdId == COMMAND_SE_ACK_SERVER_CLIENT_DIR )
// 2775   {
// 2776     direction = ZCL_FRAME_SERVER_CLIENT_DIR;
// 2777   }
// 2778   else
// 2779   {
// 2780     direction = ZCL_FRAME_CLIENT_SERVER_DIR;
// 2781   }
// 2782 
// 2783   status = zcl_SendCommand( srcEP, dstAddr, ZCL_CLUSTER_ID_SE_SE_TUNNELING,
// 2784                             cmdId, TRUE, direction, disableDefaultRsp, 0,
// 2785                             seqNum, PACKET_LEN_SE_TUNNELING_DATA_ACK, buf );
// 2786 
// 2787   return status;
// 2788 }
// 2789 
// 2790 /*********************************************************************
// 2791  * @fn      zclSE_Tunneling_Send_ReadyData
// 2792  *
// 2793  * @brief   Call to send out a Ready Data
// 2794  *
// 2795  * @param   srcEP - Sending application's endpoint
// 2796  * @param   dstAddr - where you want the message to go
// 2797  * @param   pCmd - command payload
// 2798  * @param   cmdId - command identifier
// 2799  * @param   disableDefaultRsp - disable default response
// 2800  * @param   seqNum - ZCL sequence number
// 2801  *
// 2802  * @return  ZStatus_t
// 2803  */
// 2804 ZStatus_t zclSE_Tunneling_Send_ReadyData( uint8 srcEP, afAddrType_t *dstAddr,
// 2805                                           zclCCReadyData_t *pCmd, uint8 cmdId,
// 2806                                           uint8 disableDefaultRsp, uint8 seqNum )
// 2807 {
// 2808   uint8 buf[PACKET_LEN_SE_TUNNELING_READY_DATA];
// 2809   ZStatus_t status;
// 2810   uint8 direction;
// 2811 
// 2812   buf[0] = LO_UINT16( pCmd->tunnelId );
// 2813   buf[1] = HI_UINT16( pCmd->tunnelId );
// 2814   buf[2] = LO_UINT16( pCmd->numberOfOctetsLeft );
// 2815   buf[3] = HI_UINT16( pCmd->numberOfOctetsLeft );
// 2816 
// 2817   if ( cmdId == COMMAND_SE_READY_DATA_CLIENT_SERVER_DIR )
// 2818   {
// 2819     direction = ZCL_FRAME_CLIENT_SERVER_DIR;
// 2820   }
// 2821   else
// 2822   {
// 2823     direction = ZCL_FRAME_SERVER_CLIENT_DIR;
// 2824   }
// 2825 
// 2826   status = zcl_SendCommand( srcEP, dstAddr, ZCL_CLUSTER_ID_SE_SE_TUNNELING,
// 2827                             cmdId, TRUE, direction, disableDefaultRsp, 0,
// 2828                             seqNum, PACKET_LEN_SE_TUNNELING_READY_DATA, buf );
// 2829 
// 2830   return status;
// 2831 }
// 2832 
// 2833 #ifdef SE_UK_EXT
// 2834 /*********************************************************************
// 2835  * @fn      zclSE_Tunneling_Send_GetSuppTunnelProt
// 2836  *
// 2837  * @brief   Call to send out a Get Supported Tunnel Protocols
// 2838  *
// 2839  * @param   srcEP - Sending application's endpoint
// 2840  * @param   dstAddr - where you want the message to go
// 2841  * @param   pCmd - command payload
// 2842  * @param   disableDefaultRsp - disable default response
// 2843  * @param   seqNum - ZCL sequence number
// 2844  *
// 2845  * @return  ZStatus_t
// 2846  */
// 2847 ZStatus_t zclSE_Tunneling_Send_GetSuppTunnelProt( uint8 srcEP, afAddrType_t *dstAddr,
// 2848                                                   zclCCGetSuppTunnProt_t *pCmd,
// 2849                                                   uint8 disableDefaultRsp, uint8 seqNum )
// 2850 {
// 2851   uint8 buf[PACKET_LEN_SE_TUNNELING_GET_SUPP_PROT];
// 2852   ZStatus_t status;
// 2853 
// 2854   buf[0] = pCmd->protocolOffset;
// 2855 
// 2856   status = zcl_SendCommand( srcEP, dstAddr, ZCL_CLUSTER_ID_SE_SE_TUNNELING,
// 2857                             COMMAND_SE_GET_SUPP_TUNNEL_PROTOCOLS, TRUE,
// 2858                             ZCL_FRAME_CLIENT_SERVER_DIR, disableDefaultRsp, 0,
// 2859                             seqNum, PACKET_LEN_SE_TUNNELING_GET_SUPP_PROT, buf );
// 2860   return status;
// 2861 }
// 2862 
// 2863 /*********************************************************************
// 2864  * @fn      zclSE_Tunneling_Send_SuppTunnelProtRsp
// 2865  *
// 2866  * @brief   Call to send out a Supported Tunnel Protocols Response
// 2867  *
// 2868  * @param   srcEP - Sending application's endpoint
// 2869  * @param   dstAddr - where you want the message to go
// 2870  * @param   pCmd - command payload
// 2871  * @param   disableDefaultRsp - disable default response
// 2872  * @param   seqNum - ZCL sequence number
// 2873  *
// 2874  * @return  ZStatus_t
// 2875  */
// 2876 ZStatus_t zclSE_Tunneling_Send_SuppTunnelProtRsp( uint8 srcEP, afAddrType_t *dstAddr,
// 2877                                                   zclCCSuppTunnProtRsp_t *pCmd,
// 2878                                                   uint8 disableDefaultRsp, uint8 seqNum )
// 2879 {
// 2880   uint8 *buf;
// 2881   uint8 *pBuf;
// 2882   uint8 bufLen;
// 2883   uint8 i;
// 2884   ZStatus_t status;
// 2885 
// 2886   bufLen = PACKET_LEN_SE_TUNNELING_SUPP_PROT_RSP +
// 2887            (pCmd->protocolCount * PACKET_LEN_SE_TUNNELING_PROTOCOL_PAYLOAD);
// 2888 
// 2889   buf = osal_mem_alloc( bufLen );
// 2890   if ( buf == NULL )
// 2891   {
// 2892     return ZMemError;
// 2893   }
// 2894 
// 2895   pBuf = buf;
// 2896   *pBuf++ = pCmd->protocolListComp;
// 2897   *pBuf++ = pCmd->protocolCount;
// 2898 
// 2899   for ( i = 0; i < pCmd->protocolCount; i++ )
// 2900   {
// 2901     *pBuf++ = LO_UINT16( pCmd->protocol[i].manufacturerCode );
// 2902     *pBuf++ = HI_UINT16( pCmd->protocol[i].manufacturerCode );
// 2903     *pBuf++ = pCmd->protocol[i].protocolId;
// 2904   }
// 2905 
// 2906   status = zcl_SendCommand( srcEP, dstAddr, ZCL_CLUSTER_ID_SE_SE_TUNNELING,
// 2907                             COMMAND_SE_SUPP_TUNNEL_PROTOCOLS_RSP, TRUE,
// 2908                             ZCL_FRAME_SERVER_CLIENT_DIR, disableDefaultRsp, 0,
// 2909                             seqNum, bufLen, buf );
// 2910 
// 2911   osal_mem_free( buf );
// 2912 
// 2913   return status;
// 2914 }
// 2915 
// 2916 /*********************************************************************
// 2917  * @fn      zclSE_Tunneling_Send_TunnelClosureNotification
// 2918  *
// 2919  * @brief   Call to send out a Tunnel Closure Notification
// 2920  *
// 2921  * @param   srcEP - Sending application's endpoint
// 2922  * @param   dstAddr - where you want the message to go
// 2923  * @param   pCmd - command payload
// 2924  * @param   disableDefaultRsp - disable default response
// 2925  * @param   seqNum - ZCL sequence number
// 2926  *
// 2927  * @return  ZStatus_t
// 2928  */
// 2929 ZStatus_t zclSE_Tunneling_Send_TunnelClosureNotification( uint8 srcEP, afAddrType_t *dstAddr,
// 2930                                                    zclCCTunnelClosureNotification_t *pCmd,
// 2931                                                    uint8 disableDefaultRsp, uint8 seqNum )
// 2932 {
// 2933   uint8 buf[PACKET_LEN_SE_TUNNELING_TUNNEL_CLOSURE];
// 2934   ZStatus_t status;
// 2935 
// 2936   buf[0] = LO_UINT16( pCmd->tunnelId );
// 2937   buf[1] = HI_UINT16( pCmd->tunnelId );
// 2938 
// 2939   status = zcl_SendCommand( srcEP, dstAddr, ZCL_CLUSTER_ID_SE_SE_TUNNELING,
// 2940                             COMMAND_SE_TUNNEL_CLOSURE_NOTIFICATION, TRUE,
// 2941                             ZCL_FRAME_SERVER_CLIENT_DIR, disableDefaultRsp, 0,
// 2942                             seqNum, PACKET_LEN_SE_TUNNELING_TUNNEL_CLOSURE, buf );
// 2943 
// 2944   return status;
// 2945 }
// 2946 #endif  //SE_UK_EXT
// 2947 #endif  // ZCL_TUNNELING
// 2948 
// 2949 #ifdef ZCL_TOU
// 2950 #ifdef SE_UK_EXT
// 2951 /*********************************************************************
// 2952  * @fn      zclSE_Tou_Send_PublishCalendar
// 2953  *
// 2954  * @brief   Call to send out a Publish Calendar Command
// 2955  *
// 2956  * @param   srcEP - Sending application's endpoint
// 2957  * @param   dstAddr - where you want the message to go
// 2958  * @param   pCmd - command payload
// 2959  * @param   disableDefaultRsp - disable default response
// 2960  * @param   seqNum - ZCL sequence number
// 2961  *
// 2962  * @return  ZStatus_t
// 2963  */
// 2964 ZStatus_t zclSE_Tou_Send_PublishCalendar( uint8 srcEP, afAddrType_t *dstAddr,
// 2965                                           zclCCPublishCalendar_t *pCmd,
// 2966                                           uint8 disableDefaultRsp, uint8 seqNum )
// 2967 {
// 2968   uint8 *buf;
// 2969   uint8 *pBuf;
// 2970   uint16 bufLen;
// 2971   ZStatus_t status;
// 2972 
// 2973   bufLen = PACKET_LEN_SE_PUBLISH_CALENDAR + pCmd->calendarName.strLen;
// 2974   buf = osal_mem_alloc( bufLen );
// 2975   if ( buf == NULL )
// 2976   {
// 2977     return ( ZMemError );
// 2978   }
// 2979 
// 2980   pBuf = osal_buffer_uint32( buf, pCmd->issuerCalendarId );
// 2981   pBuf = osal_buffer_uint32( pBuf, pCmd->startTime );
// 2982   *pBuf++ = pCmd->calendarType;
// 2983   *pBuf++ = pCmd->calendarTimeRef;
// 2984   *pBuf++ = pCmd->calendarName.strLen;
// 2985   pBuf = osal_memcpy( pBuf, pCmd->calendarName.pStr, pCmd->calendarName.strLen );
// 2986   *pBuf++ = pCmd->numOfSeasons;
// 2987   *pBuf++ = pCmd->numOfWeekProfiles;
// 2988   *pBuf = pCmd->numOfDayProfiles;
// 2989 
// 2990   status = zcl_SendCommand( srcEP, dstAddr, ZCL_CLUSTER_ID_SE_TOU_CALENDAR,
// 2991                             COMMAND_SE_PUBLISH_CALENDAR, TRUE,
// 2992                             ZCL_FRAME_SERVER_CLIENT_DIR, disableDefaultRsp, 0,
// 2993                             seqNum, bufLen, buf );
// 2994 
// 2995   osal_mem_free( buf );
// 2996 
// 2997   return status;
// 2998 }
// 2999 
// 3000 /*********************************************************************
// 3001  * @fn      zclSE_Tou_Send_PublishDayProfile
// 3002  *
// 3003  * @brief   Call to send out a Publish Day Profile Command
// 3004  *
// 3005  * @param   srcEP - Sending application's endpoint
// 3006  * @param   dstAddr - where you want the message to go
// 3007  * @param   pCmd - command payload
// 3008  * @param   disableDefaultRsp - disable default response
// 3009  * @param   seqNum - ZCL sequence number
// 3010  *
// 3011  * @return  ZStatus_t
// 3012  */
// 3013 ZStatus_t zclSE_Tou_Send_PublishDayProfile( uint8 srcEP, afAddrType_t *dstAddr,
// 3014                                             zclCCPublishDayProfile_t *pCmd,
// 3015                                             uint8 disableDefaultRsp, uint8 seqNum )
// 3016 {
// 3017   uint8 *buf;
// 3018   uint8 *pBuf;
// 3019   uint16 bufLen;
// 3020   ZStatus_t status;
// 3021   uint8 i;
// 3022 
// 3023   bufLen = PACKET_LEN_SE_PUBLISH_DAY_PROFILE + ( pCmd->numTransferEntries * SE_DAY_SCHEDULE_ENTRY_LEN );
// 3024   buf = osal_mem_alloc( bufLen );
// 3025   if ( buf == NULL )
// 3026   {
// 3027     return ( ZMemError );
// 3028   }
// 3029 
// 3030   pBuf = osal_buffer_uint32( buf, pCmd->issuerCalendarId );
// 3031   *pBuf++ = pCmd->dayId;
// 3032   *pBuf++ = pCmd->totalNumSchedEnt;
// 3033   *pBuf++ = pCmd->commandIndex;
// 3034 
// 3035   for ( i = 0; i < pCmd->numTransferEntries; i++ )
// 3036   {
// 3037     if ( pCmd->issuerCalendarId <= SE_CALENDAR_TYPE_IMPORT_EXPORT_CALENDAR )
// 3038     {
// 3039       zclCCRateEntry_t *pRateEntry = (zclCCRateEntry_t *)pCmd->pScheduleEntries;
// 3040       pRateEntry += i;
// 3041 
// 3042       *pBuf++ = LO_UINT16( pRateEntry->startTime );
// 3043       *pBuf++ = HI_UINT16( pRateEntry->startTime );
// 3044       *pBuf++ = pRateEntry->activePriceTier;
// 3045 
// 3046     }
// 3047     else
// 3048     {
// 3049       zclCCFriendlyCreditEntry_t *pFriendlyEntry =  (zclCCFriendlyCreditEntry_t *)pCmd->pScheduleEntries;
// 3050       pFriendlyEntry += i;
// 3051 
// 3052       *pBuf++ = LO_UINT16( pFriendlyEntry->startTime );
// 3053       *pBuf++ = HI_UINT16( pFriendlyEntry->startTime );
// 3054       *pBuf++ = pFriendlyEntry->friendCreditEnable;
// 3055     }
// 3056   }
// 3057 
// 3058   status = zcl_SendCommand( srcEP, dstAddr, ZCL_CLUSTER_ID_SE_TOU_CALENDAR,
// 3059                             COMMAND_SE_PUBLISH_DAY_PROFILE, TRUE,
// 3060                             ZCL_FRAME_SERVER_CLIENT_DIR, disableDefaultRsp, 0,
// 3061                             seqNum, bufLen, buf );
// 3062 
// 3063   osal_mem_free( buf );
// 3064 
// 3065   return status;
// 3066 }
// 3067 
// 3068 /*********************************************************************
// 3069  * @fn      zclSE_Tou_Send_PublishWeekProfile
// 3070  *
// 3071  * @brief   Call to send out a Publish Week Profile Command
// 3072  *
// 3073  * @param   srcEP - Sending application's endpoint
// 3074  * @param   dstAddr - where you want the message to go
// 3075  * @param   pCmd - command payload
// 3076  * @param   disableDefaultRsp - disable default response
// 3077  * @param   seqNum - ZCL sequence number
// 3078  *
// 3079  * @return  ZStatus_t
// 3080  */
// 3081 ZStatus_t zclSE_Tou_Send_PublishWeekProfile( uint8 srcEP, afAddrType_t *dstAddr,
// 3082                                              zclCCPublishWeekProfile_t *pCmd,
// 3083                                              uint8 disableDefaultRsp, uint8 seqNum )
// 3084 {
// 3085   uint8 *buf;
// 3086   uint8 *pBuf;
// 3087   ZStatus_t status;
// 3088 
// 3089   buf = osal_mem_alloc( PACKET_LEN_SE_PUBLISH_WEEK_PROFILE );
// 3090   if ( buf == NULL )
// 3091   {
// 3092     return ( ZMemError );
// 3093   }
// 3094 
// 3095   pBuf = osal_buffer_uint32( buf, pCmd->issuerCalendarId );
// 3096   *pBuf++ = pCmd->weekId;
// 3097   *pBuf++ = pCmd->dayIdRefMonday;
// 3098   *pBuf++ = pCmd->dayIdRefTuestday;
// 3099   *pBuf++ = pCmd->dayIdRefWednesday;
// 3100   *pBuf++ = pCmd->dayIdRefThursday;
// 3101   *pBuf++ = pCmd->dayIdRefFriday;
// 3102   *pBuf++ = pCmd->dayIdRefSaturday;
// 3103   *pBuf   = pCmd->dayIdRefSunday;
// 3104 
// 3105   status = zcl_SendCommand( srcEP, dstAddr, ZCL_CLUSTER_ID_SE_TOU_CALENDAR,
// 3106                             COMMAND_SE_PUBLISH_WEEK_PROFILE, TRUE,
// 3107                             ZCL_FRAME_SERVER_CLIENT_DIR, disableDefaultRsp, 0,
// 3108                             seqNum, PACKET_LEN_SE_PUBLISH_WEEK_PROFILE, buf );
// 3109 
// 3110   osal_mem_free( buf );
// 3111 
// 3112   return status;
// 3113 }
// 3114 
// 3115 /*********************************************************************
// 3116  * @fn      zclSE_Tou_Send_PublishSeasons
// 3117  *
// 3118  * @brief   Call to send out a Publish Seasons Command
// 3119  *
// 3120  * @param   srcEP - Sending application's endpoint
// 3121  * @param   dstAddr - where you want the message to go
// 3122  * @param   pCmd - command payload
// 3123  * @param   disableDefaultRsp - disable default response
// 3124  * @param   seqNum - ZCL sequence number
// 3125  *
// 3126  * @return  ZStatus_t
// 3127  */
// 3128 ZStatus_t zclSE_Tou_Send_PublishSeasons( uint8 srcEP, afAddrType_t *dstAddr,
// 3129                                          zclCCPublishSeasons_t *pCmd,
// 3130                                          uint8 disableDefaultRsp, uint8 seqNum )
// 3131 {
// 3132   uint8 *buf;
// 3133   uint8 *pBuf;
// 3134   uint16 bufLen;
// 3135   ZStatus_t status;
// 3136   uint8 i;
// 3137 
// 3138   bufLen = PACKET_LEN_SE_PUBLISH_SEASONS + ( pCmd->numTransferEntries * SE_SEASON_ENTRY_LEN );
// 3139   buf = osal_mem_alloc( bufLen );
// 3140   if ( buf == NULL )
// 3141   {
// 3142     return ( ZMemError );
// 3143   }
// 3144 
// 3145   pBuf = osal_buffer_uint32( buf, pCmd->issuerCalendarId );
// 3146   *pBuf++ = pCmd->commandIndex;
// 3147 
// 3148 
// 3149   for ( i = 0; i < pCmd->numTransferEntries; i++ )
// 3150   {
// 3151     zclCCSeasonEntry_t *pEntry = &( pCmd->pSeasonEntry[i] );
// 3152 
// 3153     pBuf = osal_buffer_uint32( pBuf, pEntry->seasonStartDate );
// 3154     *pBuf++ = pEntry->weekIdRef;
// 3155   }
// 3156 
// 3157   status = zcl_SendCommand( srcEP, dstAddr, ZCL_CLUSTER_ID_SE_TOU_CALENDAR,
// 3158                             COMMAND_SE_PUBLISH_SEASONS, TRUE,
// 3159                             ZCL_FRAME_SERVER_CLIENT_DIR, disableDefaultRsp, 0,
// 3160                             seqNum, bufLen, buf );
// 3161 
// 3162   osal_mem_free( buf );
// 3163 
// 3164   return status;
// 3165 }
// 3166 
// 3167 /*********************************************************************
// 3168  * @fn      zclSE_Tou_Send_PublishSpecialDays
// 3169  *
// 3170  * @brief   Call to send out a Publish Special Days Command
// 3171  *
// 3172  * @param   srcEP - Sending application's endpoint
// 3173  * @param   dstAddr - where you want the message to go
// 3174  * @param   pCmd - command payload
// 3175  * @param   disableDefaultRsp - disable default response
// 3176  * @param   seqNum - ZCL sequence number
// 3177  *
// 3178  * @return  ZStatus_t
// 3179  */
// 3180 ZStatus_t zclSE_Tou_Send_PublishSpecialDays( uint8 srcEP, afAddrType_t *dstAddr,
// 3181                                              zclCCPublishSpecialDays_t *pCmd,
// 3182                                              uint8 disableDefaultRsp, uint8 seqNum )
// 3183 {
// 3184   uint8 *buf;
// 3185   uint8 *pBuf;
// 3186   uint16 bufLen;
// 3187   ZStatus_t status;
// 3188   uint8 i;
// 3189 
// 3190   bufLen = PACKET_LEN_SE_PUBLISH_SPECIAL_DAYS + ( pCmd->numTransferEntries * SE_SPECIAL_DAY_ENTRY_LEN );
// 3191   buf = osal_mem_alloc( bufLen );
// 3192   if ( buf == NULL )
// 3193   {
// 3194     return ( ZMemError );
// 3195   }
// 3196 
// 3197   pBuf = osal_buffer_uint32( buf, pCmd->issuerEventId );
// 3198   pBuf = osal_buffer_uint32( pBuf, pCmd->startTime );
// 3199   *pBuf++ = pCmd->calendarType;
// 3200   *pBuf++ = pCmd->totalNumSpecialDays;
// 3201   *pBuf++ = pCmd->commandIndex;
// 3202 
// 3203   for ( i = 0; i < pCmd->numTransferEntries; i++ )
// 3204   {
// 3205     zclCCSpecialDayEntry_t *pEntry = &( pCmd->pSpecialDayEntry[i] );
// 3206 
// 3207     pBuf = osal_buffer_uint32( pBuf, pEntry->specialDayDate );
// 3208     *pBuf++ = pEntry->dayIdRef;
// 3209   }
// 3210 
// 3211   status = zcl_SendCommand( srcEP, dstAddr, ZCL_CLUSTER_ID_SE_TOU_CALENDAR,
// 3212                             COMMAND_SE_PUBLISH_SPECIAL_DAYS, TRUE,
// 3213                             ZCL_FRAME_SERVER_CLIENT_DIR, disableDefaultRsp, 0,
// 3214                             seqNum, bufLen, buf );
// 3215 
// 3216   osal_mem_free( buf );
// 3217 
// 3218   return status;
// 3219 }
// 3220 
// 3221 /*********************************************************************
// 3222  * @fn      zclSE_Tou_Send_GetCalendar
// 3223  *
// 3224  * @brief   Call to send out a Get Calendar Command
// 3225  *
// 3226  * @param   srcEP - Sending application's endpoint
// 3227  * @param   dstAddr - where you want the message to go
// 3228  * @param   pCmd - command payload
// 3229  * @param   disableDefaultRsp - disable default response
// 3230  * @param   seqNum - ZCL sequence number
// 3231  *
// 3232  * @return  ZStatus_t
// 3233  */
// 3234 ZStatus_t zclSE_Tou_Send_GetCalendar( uint8 srcEP, afAddrType_t *dstAddr,
// 3235                                       zclCCGetCalendar_t *pCmd,
// 3236                                       uint8 disableDefaultRsp, uint8 seqNum )
// 3237 {
// 3238   uint8 buf[PACKET_LEN_SE_GET_CALENDAR];
// 3239   ZStatus_t status;
// 3240 
// 3241   osal_buffer_uint32( buf, pCmd->startTime );
// 3242   buf[4] = pCmd->numOfCalendars;
// 3243   buf[5] = pCmd->calendarType;
// 3244 
// 3245   status = zcl_SendCommand( srcEP, dstAddr, ZCL_CLUSTER_ID_SE_TOU_CALENDAR,
// 3246                             COMMAND_SE_GET_CALENDAR, TRUE,
// 3247                             ZCL_FRAME_CLIENT_SERVER_DIR, disableDefaultRsp, 0,
// 3248                             seqNum, PACKET_LEN_SE_GET_CALENDAR, buf );
// 3249 
// 3250   return status;
// 3251 }
// 3252 
// 3253 /*********************************************************************
// 3254  * @fn      zclSE_Tou_Send_GetDayProfiles
// 3255  *
// 3256  * @brief   Call to send out a Get Day Profiles Command
// 3257  *
// 3258  * @param   srcEP - Sending application's endpoint
// 3259  * @param   dstAddr - where you want the message to go
// 3260  * @param   pCmd - command payload
// 3261  * @param   disableDefaultRsp - disable default response
// 3262  * @param   seqNum - ZCL sequence number
// 3263  *
// 3264  * @return  ZStatus_t
// 3265  */
// 3266 ZStatus_t zclSE_Tou_Send_GetDayProfiles( uint8 srcEP, afAddrType_t *dstAddr,
// 3267                                          zclCCGetDayProfiles_t *pCmd,
// 3268                                          uint8 disableDefaultRsp, uint8 seqNum )
// 3269 {
// 3270   uint8 buf[PACKET_LEN_SE_GET_DAY_PROFILE];
// 3271   ZStatus_t status;
// 3272 
// 3273   osal_buffer_uint32( buf, pCmd->issuerCalendarId );
// 3274 
// 3275   status = zcl_SendCommand( srcEP, dstAddr, ZCL_CLUSTER_ID_SE_TOU_CALENDAR,
// 3276                             COMMAND_SE_GET_DAY_PROFILES, TRUE,
// 3277                             ZCL_FRAME_CLIENT_SERVER_DIR, disableDefaultRsp, 0,
// 3278                             seqNum, PACKET_LEN_SE_GET_DAY_PROFILE, buf );
// 3279 
// 3280   return status;
// 3281 }
// 3282 
// 3283 /*********************************************************************
// 3284  * @fn      zclSE_Tou_Send_GetWeekProfiles
// 3285  *
// 3286  * @brief   Call to send out a Get Week Profiles Command
// 3287  *
// 3288  * @param   srcEP - Sending application's endpoint
// 3289  * @param   dstAddr - where you want the message to go
// 3290  * @param   pCmd - command payload
// 3291  * @param   disableDefaultRsp - disable default response
// 3292  * @param   seqNum - ZCL sequence number
// 3293  *
// 3294  * @return  ZStatus_t
// 3295  */
// 3296 ZStatus_t zclSE_Tou_Send_GetWeekProfiles( uint8 srcEP, afAddrType_t *dstAddr,
// 3297                                           zclCCGetWeekProfiles_t *pCmd,
// 3298                                           uint8 disableDefaultRsp, uint8 seqNum )
// 3299 {
// 3300   uint8 buf[PACKET_LEN_SE_GET_WEEK_PROFILE];
// 3301   ZStatus_t status;
// 3302 
// 3303   osal_buffer_uint32( buf, pCmd->issuerCalendarId );
// 3304 
// 3305   status = zcl_SendCommand( srcEP, dstAddr, ZCL_CLUSTER_ID_SE_TOU_CALENDAR,
// 3306                             COMMAND_SE_GET_WEEK_PROFILES, TRUE,
// 3307                             ZCL_FRAME_CLIENT_SERVER_DIR, disableDefaultRsp, 0,
// 3308                             seqNum, PACKET_LEN_SE_GET_WEEK_PROFILE, buf );
// 3309 
// 3310   return status;
// 3311 }
// 3312 
// 3313 /*********************************************************************
// 3314  * @fn      zclSE_Tou_Send_GetSeasons
// 3315  *
// 3316  * @brief   Call to send out a Get Seasons Command
// 3317  *
// 3318  * @param   srcEP - Sending application's endpoint
// 3319  * @param   dstAddr - where you want the message to go
// 3320  * @param   pCmd - command payload
// 3321  * @param   disableDefaultRsp - disable default response
// 3322  * @param   seqNum - ZCL sequence number
// 3323  *
// 3324  * @return  ZStatus_t
// 3325  */
// 3326 ZStatus_t zclSE_Tou_Send_GetSeasons( uint8 srcEP, afAddrType_t *dstAddr,
// 3327                                      zclCCGetSeasons_t *pCmd,
// 3328                                      uint8 disableDefaultRsp, uint8 seqNum )
// 3329 {
// 3330   uint8 buf[PACKET_LEN_SE_GET_SEASONS];
// 3331   ZStatus_t status;
// 3332 
// 3333   osal_buffer_uint32( buf, pCmd->issuerCalendarId );
// 3334 
// 3335   status = zcl_SendCommand( srcEP, dstAddr, ZCL_CLUSTER_ID_SE_TOU_CALENDAR,
// 3336                             COMMAND_SE_GET_SEASONS, TRUE,
// 3337                             ZCL_FRAME_CLIENT_SERVER_DIR, disableDefaultRsp, 0,
// 3338                             seqNum, PACKET_LEN_SE_GET_SEASONS, buf );
// 3339 
// 3340   return status;
// 3341 }
// 3342 
// 3343 /*********************************************************************
// 3344  * @fn      zclSE_Tou_Send_GetSpecialDays
// 3345  *
// 3346  * @brief   Call to send out a Get Special Days Command
// 3347  *
// 3348  * @param   srcEP - Sending application's endpoint
// 3349  * @param   dstAddr - where you want the message to go
// 3350  * @param   pCmd - command payload
// 3351  * @param   disableDefaultRsp - disable default response
// 3352  * @param   seqNum - ZCL sequence number
// 3353  *
// 3354  * @return  ZStatus_t
// 3355  */
// 3356 ZStatus_t zclSE_Tou_Send_GetSpecialDays( uint8 srcEP, afAddrType_t *dstAddr,
// 3357                                          zclCCGetSpecialDays_t *pCmd,
// 3358                                          uint8 disableDefaultRsp, uint8 seqNum )
// 3359 {
// 3360   uint8 buf[PACKET_LEN_SE_GET_SPECIAL_DAYS];
// 3361   ZStatus_t status;
// 3362 
// 3363   osal_buffer_uint32( buf, pCmd->startTime );
// 3364   buf[4] = pCmd->numOfEvents;
// 3365   buf[5] = pCmd->calendarType;
// 3366 
// 3367   status = zcl_SendCommand( srcEP, dstAddr, ZCL_CLUSTER_ID_SE_TOU_CALENDAR,
// 3368                             COMMAND_SE_GET_SPECIAL_DAYS, TRUE,
// 3369                             ZCL_FRAME_CLIENT_SERVER_DIR, disableDefaultRsp, 0,
// 3370                             seqNum, PACKET_LEN_SE_GET_SPECIAL_DAYS, buf );
// 3371 
// 3372   return status;
// 3373 }
// 3374 #endif  // SE_UK_EXT
// 3375 #endif  // ZCL_TOU
// 3376 
// 3377 #ifdef ZCL_DEVICE_MGMT
// 3378 #ifdef SE_UK_EXT
// 3379 /*********************************************************************
// 3380  * @fn      zclSE_DeviceMgmt_Send_GetChangeTenancy
// 3381  *
// 3382  * @brief   Call to send out a Get Change of Tenancy Command
// 3383  *
// 3384  * @param   srcEP - Sending application's endpoint
// 3385  * @param   dstAddr - where you want the message to go
// 3386  * @param   disableDefaultRsp - disable default response
// 3387  * @param   seqNum - ZCL sequence number
// 3388  *
// 3389  * @return  ZStatus_t
// 3390  */
// 3391 ZStatus_t zclSE_DeviceMgmt_Send_GetChangeTenancy( uint8 srcEP, afAddrType_t *dstAddr,
// 3392                                                   uint8 disableDefaultRsp, uint8 seqNum )
// 3393 {
// 3394   return zcl_SendCommand( srcEP, dstAddr, ZCL_CLUSTER_ID_SE_DEVICE_MGMT,
// 3395                           COMMAND_SE_GET_CHANGE_OF_TENANCY, TRUE,
// 3396                           ZCL_FRAME_CLIENT_SERVER_DIR, disableDefaultRsp, 0,
// 3397                           seqNum, 0, NULL );
// 3398 }
// 3399 
// 3400 /*********************************************************************
// 3401  * @fn      zclSE_DeviceMgmt_Send_GetChangeSupplier
// 3402  *
// 3403  * @brief   Call to send out a Get Change of Supplier Command
// 3404  *
// 3405  * @param   srcEP - Sending application's endpoint
// 3406  * @param   dstAddr - where you want the message to go
// 3407  * @param   disableDefaultRsp - disable default response
// 3408  * @param   seqNum - ZCL sequence number
// 3409  *
// 3410  * @return  ZStatus_t
// 3411  */
// 3412 ZStatus_t zclSE_DeviceMgmt_Send_GetChangeSupplier( uint8 srcEP, afAddrType_t *dstAddr,
// 3413                                                    uint8 disableDefaultRsp, uint8 seqNum )
// 3414 {
// 3415   return zcl_SendCommand( srcEP, dstAddr, ZCL_CLUSTER_ID_SE_DEVICE_MGMT,
// 3416                           COMMAND_SE_GET_CHANGE_OF_SUPPLIER, TRUE,
// 3417                           ZCL_FRAME_CLIENT_SERVER_DIR, disableDefaultRsp, 0,
// 3418                           seqNum, 0, NULL );
// 3419 }
// 3420 
// 3421 /*********************************************************************
// 3422  * @fn      zclSE_DeviceMgmt_Send_GetChangeSupply
// 3423  *
// 3424  * @brief   Call to send out a Get Change Supply Command
// 3425  *
// 3426  * @param   srcEP - Sending application's endpoint
// 3427  * @param   dstAddr - where you want the message to go
// 3428  * @param   disableDefaultRsp - disable default response
// 3429  * @param   seqNum - ZCL sequence number
// 3430  *
// 3431  * @return  ZStatus_t
// 3432  */
// 3433 ZStatus_t zclSE_DeviceMgmt_Send_GetChangeSupply( uint8 srcEP, afAddrType_t *dstAddr,
// 3434                                                  uint8 disableDefaultRsp, uint8 seqNum )
// 3435 {
// 3436   return zcl_SendCommand( srcEP, dstAddr, ZCL_CLUSTER_ID_SE_DEVICE_MGMT,
// 3437                           COMMAND_SE_GET_CHANGE_SUPPLY, TRUE,
// 3438                           ZCL_FRAME_CLIENT_SERVER_DIR, disableDefaultRsp, 0,
// 3439                           seqNum, 0, NULL );
// 3440 }
// 3441 
// 3442 /*********************************************************************
// 3443  * @fn      zclSE_DeviceMgmt_Send_SupplyStatusResponse
// 3444  *
// 3445  * @brief   Call to send out a Supply Status Response Command
// 3446  *
// 3447  * @param   srcEP - Sending application's endpoint
// 3448  * @param   dstAddr - where you want the message to go
// 3449  * @param   pCmd - command payload
// 3450  * @param   disableDefaultRsp - disable default response
// 3451  * @param   seqNum - ZCL sequence number
// 3452  *
// 3453  * @return  ZStatus_t
// 3454  */
// 3455 ZStatus_t zclSE_DeviceMgmt_Send_SupplyStatusResponse( uint8 srcEP, afAddrType_t *dstAddr,
// 3456                                                       zclCCSupplyStatusResponse_t *pCmd,
// 3457                                                       uint8 disableDefaultRsp, uint8 seqNum )
// 3458 {
// 3459   uint8 *buf;
// 3460   uint8 *pBuf;
// 3461   ZStatus_t status;
// 3462 
// 3463   buf = osal_mem_alloc( PACKET_LEN_SE_SUPPLY_STATUS_RESPONSE );
// 3464   if ( buf == NULL )
// 3465   {
// 3466     return ( ZMemError );
// 3467   }
// 3468 
// 3469   pBuf = osal_buffer_uint32( buf, pCmd->supplierId );
// 3470   pBuf = osal_buffer_uint32( pBuf, pCmd->issuerEventId );
// 3471   pBuf = osal_buffer_uint32( pBuf, pCmd->implementationDateTime );
// 3472   *pBuf = pCmd->supplyStatus;
// 3473 
// 3474   status = zcl_SendCommand( srcEP, dstAddr, ZCL_CLUSTER_ID_SE_DEVICE_MGMT,
// 3475                             COMMAND_SE_SUPPLY_STATUS_RESPONSE, TRUE,
// 3476                             ZCL_FRAME_CLIENT_SERVER_DIR, disableDefaultRsp, 0,
// 3477                             seqNum, PACKET_LEN_SE_SUPPLY_STATUS_RESPONSE, buf );
// 3478 
// 3479   osal_mem_free( buf );
// 3480 
// 3481   return status;
// 3482 }
// 3483 
// 3484 /*********************************************************************
// 3485  * @fn      zclSE_DeviceMgmt_Send_GetPassword
// 3486  *
// 3487  * @brief   Call to send out a Get Password Command
// 3488  *
// 3489  * @param   srcEP - Sending application's endpoint
// 3490  * @param   dstAddr - where you want the message to go
// 3491  * @param   pCmd - command payload
// 3492  * @param   disableDefaultRsp - disable default response
// 3493  * @param   seqNum - ZCL sequence number
// 3494  *
// 3495  * @return  ZStatus_t
// 3496  */
// 3497 ZStatus_t zclSE_DeviceMgmt_Send_GetPassword( uint8 srcEP, afAddrType_t *dstAddr,
// 3498                                              zclCCGetPassword_t *pCmd,
// 3499                                              uint8 disableDefaultRsp, uint8 seqNum )
// 3500 {
// 3501   return zcl_SendCommand( srcEP, dstAddr, ZCL_CLUSTER_ID_SE_DEVICE_MGMT,
// 3502                           COMMAND_SE_GET_PASSWORD, TRUE,
// 3503                           ZCL_FRAME_CLIENT_SERVER_DIR, disableDefaultRsp, 0,
// 3504                           seqNum, PACKET_LEN_SE_GET_PASSWORD,
// 3505                           &(pCmd->passwordLevel) );
// 3506 }
// 3507 
// 3508 /*********************************************************************
// 3509  * @fn      zclSE_DeviceMgmt_Send_PublishChangeTenancy
// 3510  *
// 3511  * @brief   Call to send out a Publish Change of Tenancy Command
// 3512  *
// 3513  * @param   srcEP - Sending application's endpoint
// 3514  * @param   dstAddr - where you want the message to go
// 3515  * @param   pCmd - command payload
// 3516  * @param   disableDefaultRsp - disable default response
// 3517  * @param   seqNum - ZCL sequence number
// 3518  *
// 3519  * @return  ZStatus_t
// 3520  */
// 3521 ZStatus_t zclSE_DeviceMgmt_Send_PublishChangeTenancy( uint8 srcEP, afAddrType_t *dstAddr,
// 3522                                                       zclCCPublishChangeTenancy_t *pCmd,
// 3523                                                       uint8 disableDefaultRsp, uint8 seqNum )
// 3524 {
// 3525   uint8 *buf;
// 3526   uint8 *pBuf;
// 3527   uint16 bufLen;
// 3528   ZStatus_t status;
// 3529 
// 3530   bufLen = PACKET_LEN_SE_PUBLISH_CHANGE_OF_TENANCY + pCmd->signature.strLen;
// 3531   buf = osal_mem_alloc( bufLen );
// 3532   if ( buf == NULL )
// 3533   {
// 3534     return ( ZMemError );
// 3535   }
// 3536 
// 3537   pBuf = osal_buffer_uint32( buf, pCmd->supplierId );
// 3538   pBuf = osal_buffer_uint32( pBuf, pCmd->eventId );
// 3539   *pBuf++ = pCmd->tariffType;
// 3540   pBuf = osal_buffer_uint32( pBuf, pCmd->implementationDateTime );
// 3541   pBuf = osal_buffer_uint32( pBuf, pCmd->propTenencyChangeCtrl );
// 3542   *pBuf++ = pCmd->signature.strLen;
// 3543   (void) osal_memcpy( pBuf, pCmd->signature.pStr, pCmd->signature.strLen );
// 3544 
// 3545   status = zcl_SendCommand( srcEP, dstAddr, ZCL_CLUSTER_ID_SE_DEVICE_MGMT,
// 3546                             COMMAND_SE_PUBLISH_CHANGE_OF_TENANCY, TRUE,
// 3547                             ZCL_FRAME_SERVER_CLIENT_DIR, disableDefaultRsp, 0,
// 3548                             seqNum, bufLen, buf );
// 3549   osal_mem_free( buf );
// 3550 
// 3551   return status;
// 3552 }
// 3553 
// 3554 /*********************************************************************
// 3555  * @fn      zclSE_DeviceMgmt_Send_PublishChangeSupplier
// 3556  *
// 3557  * @brief   Call to send out a Publish Change of Supplier Command
// 3558  *
// 3559  * @param   srcEP - Sending application's endpoint
// 3560  * @param   dstAddr - where you want the message to go
// 3561  * @param   pCmd - command payload
// 3562  * @param   disableDefaultRsp - disable default response
// 3563  * @param   seqNum - ZCL sequence number
// 3564  *
// 3565  * @return  ZStatus_t
// 3566  */
// 3567 ZStatus_t zclSE_DeviceMgmt_Send_PublishChangeSupplier( uint8 srcEP, afAddrType_t *dstAddr,
// 3568                                                        zclCCPublishChangeSupplier_t *pCmd,
// 3569                                                        uint8 disableDefaultRsp, uint8 seqNum )
// 3570 {
// 3571   uint8 *buf;
// 3572   uint8 *pBuf;
// 3573   uint16 bufLen;
// 3574   ZStatus_t status;
// 3575 
// 3576   // include in length all variable length fields
// 3577   bufLen = PACKET_LEN_SE_PUBLISH_CHANGE_OF_SUPPLIER +
// 3578            pCmd->supplierIdName.strLen +
// 3579            pCmd->signature.strLen;
// 3580 
// 3581   buf = osal_mem_alloc( bufLen );
// 3582   if ( buf == NULL )
// 3583   {
// 3584     return ( ZMemError );
// 3585   }
// 3586 
// 3587   pBuf = osal_buffer_uint32( buf, pCmd->supplierId );
// 3588   pBuf = osal_buffer_uint32( pBuf, pCmd->eventId );
// 3589   *pBuf++ = pCmd->tariffType;
// 3590   pBuf = osal_buffer_uint32( pBuf, pCmd->propSupplierId );
// 3591   pBuf = osal_buffer_uint32( pBuf, pCmd->suppIdImplemDateTime );
// 3592   pBuf = osal_buffer_uint32( pBuf, pCmd->supplierChangeCtrl );
// 3593   *pBuf++ = pCmd->supplierIdName.strLen;
// 3594   pBuf = osal_memcpy( pBuf, pCmd->supplierIdName.pStr, pCmd->supplierIdName.strLen );
// 3595   *pBuf++ = pCmd->signature.strLen;
// 3596   (void) osal_memcpy( pBuf, pCmd->signature.pStr, pCmd->signature.strLen );
// 3597 
// 3598   status = zcl_SendCommand( srcEP, dstAddr, ZCL_CLUSTER_ID_SE_DEVICE_MGMT,
// 3599                             COMMAND_SE_PUBLISH_CHANGE_OF_SUPPLIER, TRUE,
// 3600                             ZCL_FRAME_SERVER_CLIENT_DIR, disableDefaultRsp, 0,
// 3601                             seqNum, bufLen, buf );
// 3602   osal_mem_free( buf );
// 3603 
// 3604   return status;
// 3605 }
// 3606 
// 3607 /*********************************************************************
// 3608  * @fn      zclSE_DeviceMgmt_Send_ChangeSupply
// 3609  *
// 3610  * @brief   Call to send out a Change Supply Command
// 3611  *
// 3612  * @param   srcEP - Sending application's endpoint
// 3613  * @param   dstAddr - where you want the message to go
// 3614  * @param   pCmd - command payload
// 3615  * @param   disableDefaultRsp - disable default response
// 3616  * @param   seqNum - ZCL sequence number
// 3617  *
// 3618  * @return  ZStatus_t
// 3619  */
// 3620 ZStatus_t zclSE_DeviceMgmt_Send_ChangeSupply( uint8 srcEP, afAddrType_t *dstAddr,
// 3621                                               zclCCChangeSupply_t *pCmd,
// 3622                                               uint8 disableDefaultRsp, uint8 seqNum )
// 3623 {
// 3624   uint8 *buf;
// 3625   uint8 *pBuf;
// 3626   uint16 bufLen;
// 3627   ZStatus_t status;
// 3628 
// 3629   bufLen = PACKET_LEN_SE_CHANGE_SUPPLY + pCmd->signature.strLen;
// 3630   buf = osal_mem_alloc( bufLen );
// 3631   if ( buf == NULL )
// 3632   {
// 3633     return ( ZMemError );
// 3634   }
// 3635 
// 3636   pBuf = osal_buffer_uint32( buf, pCmd->supplierId );
// 3637   pBuf = osal_buffer_uint32( pBuf, pCmd->eventId );
// 3638   pBuf = osal_buffer_uint32( pBuf, pCmd->requestDateTime );
// 3639   pBuf = osal_buffer_uint32( pBuf, pCmd->implementationDateTime );
// 3640   *pBuf++ = pCmd->proposedSupplyStatus;
// 3641   *pBuf++ = pCmd->origIdSupplyControlBits;
// 3642   *pBuf++ = pCmd->signature.strLen;
// 3643   (void) osal_memcpy( pBuf, pCmd->signature.pStr, pCmd->signature.strLen );
// 3644 
// 3645   status = zcl_SendCommand( srcEP, dstAddr, ZCL_CLUSTER_ID_SE_DEVICE_MGMT,
// 3646                             COMMAND_SE_CHANGE_SUPPLY, TRUE,
// 3647                             ZCL_FRAME_SERVER_CLIENT_DIR, disableDefaultRsp, 0,
// 3648                             seqNum, bufLen, buf );
// 3649   osal_mem_free( buf );
// 3650 
// 3651   return status;
// 3652 }
// 3653 
// 3654 /*********************************************************************
// 3655  * @fn      zclSE_DeviceMgmt_Send_ChangePassword
// 3656  *
// 3657  * @brief   Call to send out a Change Password Command
// 3658  *
// 3659  * @param   srcEP - Sending application's endpoint
// 3660  * @param   dstAddr - where you want the message to go
// 3661  * @param   pCmd - command payload
// 3662  * @param   disableDefaultRsp - disable default response
// 3663  * @param   seqNum - ZCL sequence number
// 3664  *
// 3665  * @return  ZStatus_t
// 3666  */
// 3667 ZStatus_t zclSE_DeviceMgmt_Send_ChangePassword( uint8 srcEP, afAddrType_t *dstAddr,
// 3668                                                 zclCCChangePassword_t *pCmd,
// 3669                                                 uint8 disableDefaultRsp, uint8 seqNum )
// 3670 {
// 3671   uint8 *buf;
// 3672   uint16 bufLen;
// 3673   ZStatus_t status;
// 3674 
// 3675   bufLen = PACKET_LEN_SE_CHANGE_PASSWORD + pCmd->password.strLen;
// 3676   buf = osal_mem_alloc( bufLen );
// 3677   if ( buf == NULL )
// 3678   {
// 3679     return ( ZMemError );
// 3680   }
// 3681 
// 3682   buf[0] = pCmd->passwordLevel;
// 3683   buf[1] = pCmd->password.strLen;
// 3684   (void) osal_memcpy( &(buf[2]), pCmd->password.pStr, pCmd->password.strLen );
// 3685 
// 3686   status = zcl_SendCommand( srcEP, dstAddr, ZCL_CLUSTER_ID_SE_DEVICE_MGMT,
// 3687                             COMMAND_SE_CHANGE_PASSWORD, TRUE,
// 3688                             ZCL_FRAME_SERVER_CLIENT_DIR, disableDefaultRsp, 0,
// 3689                             seqNum, bufLen, buf );
// 3690   osal_mem_free( buf );
// 3691 
// 3692   return status;
// 3693 }
// 3694 
// 3695 /*********************************************************************
// 3696  * @fn      zclSE_DeviceMgmt_Send_LocalChangeSupply
// 3697  *
// 3698  * @brief   Call to send out a Local Change Supply Command
// 3699  *
// 3700  * @param   srcEP - Sending application's endpoint
// 3701  * @param   dstAddr - where you want the message to go
// 3702  * @param   pCmd - command payload
// 3703  * @param   disableDefaultRsp - disable default response
// 3704  * @param   seqNum - ZCL sequence number
// 3705  *
// 3706  * @return  ZStatus_t
// 3707  */
// 3708 ZStatus_t zclSE_DeviceMgmt_Send_LocalChangeSupply( uint8 srcEP, afAddrType_t *dstAddr,
// 3709                                                    zclCCLocalChangeSupply_t *pCmd,
// 3710                                                    uint8 disableDefaultRsp, uint8 seqNum )
// 3711 {
// 3712   return zcl_SendCommand( srcEP, dstAddr, ZCL_CLUSTER_ID_SE_DEVICE_MGMT,
// 3713                           COMMAND_SE_LOCAL_CHANGE_SUPPLY, TRUE,
// 3714                           ZCL_FRAME_SERVER_CLIENT_DIR, disableDefaultRsp, 0,
// 3715                           seqNum, PACKET_LEN_SE_LOCAL_CHANGE_SUPPLY,
// 3716                           &(pCmd->propSupplyStatus) );
// 3717 }
// 3718 #endif  // SE_UK_EXT
// 3719 #endif  // ZCL_DEVICE_MGMT
// 3720 
// 3721 /*********************************************************************
// 3722  * @fn      zclSE_RegisterCmdCallbacks
// 3723  *
// 3724  * @brief   Register an applications command callbacks
// 3725  *
// 3726  * @param   endpoint - application's endpoint
// 3727  * @param   callbacks - pointer to the callback record.
// 3728  *
// 3729  * @return  ZMemError if not able to allocate
// 3730  */

        RSEG BANKED_CODE:CODE:NOROOT(0)
// 3731 ZStatus_t zclSE_RegisterCmdCallbacks( uint8 endpoint, zclSE_AppCallbacks_t *callbacks )
zclSE_RegisterCmdCallbacks:
        CFI Block cfiBlock0 Using cfiCommon0
        CFI Function zclSE_RegisterCmdCallbacks
        CODE
// 3732 {
        FUNCALL zclSE_RegisterCmdCallbacks, zcl_registerPlugin
        LOCFRAME ISTACK, 0, STACK
        LOCFRAME PSTACK, 0, STACK
        LOCFRAME XSTACK, 14, STACK
        LOCFRAME IOVERLAY, 0, STATIC
        LOCFRAME DOVERLAY, 0, STATIC
        ARGFRAME ISTACK, 0, STACK
        ARGFRAME PSTACK, 0, STACK
        ARGFRAME XSTACK, 14, STACK
        ARGFRAME IOVERLAY, 0, STATIC
        ARGFRAME DOVERLAY, 0, STATIC
        FUNCALL zclSE_RegisterCmdCallbacks, osal_mem_alloc
        LOCFRAME ISTACK, 0, STACK
        LOCFRAME PSTACK, 0, STACK
        LOCFRAME XSTACK, 12, STACK
        LOCFRAME IOVERLAY, 0, STATIC
        LOCFRAME DOVERLAY, 0, STATIC
        ARGFRAME ISTACK, 0, STACK
        ARGFRAME PSTACK, 0, STACK
        ARGFRAME XSTACK, 12, STACK
        ARGFRAME IOVERLAY, 0, STATIC
        ARGFRAME DOVERLAY, 0, STATIC
        MOV     A,#-0xc
        LCALL   ?BANKED_ENTER_XDATA
        CFI DPH0 load(1, XDATA, add(CFA_XSP16, literal(-1)))
        CFI DPL0 load(1, XDATA, add(CFA_XSP16, literal(-2)))
        CFI ?BRET_EXT load(1, XDATA, add(CFA_XSP16, literal(-3)))
        CFI ?RET_HIGH load(1, XDATA, add(CFA_XSP16, literal(-4)))
        CFI ?RET_LOW load(1, XDATA, add(CFA_XSP16, literal(-5)))
        CFI R7 load(1, XDATA, add(CFA_XSP16, literal(-6)))
        CFI V3 load(1, XDATA, add(CFA_XSP16, literal(-7)))
        CFI V2 load(1, XDATA, add(CFA_XSP16, literal(-8)))
        CFI V1 load(1, XDATA, add(CFA_XSP16, literal(-9)))
        CFI V0 load(1, XDATA, add(CFA_XSP16, literal(-10)))
        CFI VB load(1, XDATA, add(CFA_XSP16, literal(-11)))
        CFI R6 load(1, XDATA, add(CFA_XSP16, literal(-12)))
        CFI CFA_SP SP+0
        CFI CFA_XSP16 add(XSP16, 12)
        ; Saved register size: 12
        ; Auto size: 0
        MOV     ?V0 + 0,R1
        MOV     A,R2
        MOV     R6,A
        MOV     A,R3
        MOV     R7,A
// 3733   zclSECBRec_t *pNewItem;
// 3734   zclSECBRec_t *pLoop;
// 3735 
// 3736   // Register as a ZCL Plugin
// 3737   if ( !zclSEPluginRegisted )
        MOV     DPTR,#zclSEPluginRegisted
        MOVX    A,@DPTR
        JNZ     ??zclSE_RegisterCmdCallbacks_0
// 3738   {
// 3739 #ifndef SE_UK_EXT // SE 1.1
// 3740     zcl_registerPlugin( ZCL_CLUSTER_ID_SE_PRICING,
// 3741                         ZCL_CLUSTER_ID_SE_PREPAYMENT,
// 3742                         zclSE_HdlIncoming );
        ; Setup parameters for call to function zcl_registerPlugin
        MOV     ?V0 + 2,#??zclSE_HdlIncoming?relay & 0xff
        MOV     ?V0 + 3,#(??zclSE_HdlIncoming?relay >> 8) & 0xff
        MOV     R0,#?V0 + 2
        LCALL   ?PUSH_XSTACK_I_TWO
        CFI CFA_XSP16 add(XSP16, 14)
        MOV     R4,#0x5
        MOV     R5,#0x7
        MOV     R2,#0x0
        MOV     R3,#0x7
        LCALL   ??zcl_registerPlugin?relay
        MOV     A,#0x2
        LCALL   ?DEALLOC_XSTACK8
        CFI CFA_XSP16 add(XSP16, 12)
// 3743 #else
// 3744     zcl_registerPlugin( ZCL_CLUSTER_ID_SE_PRICING,
// 3745                         ZCL_CLUSTER_ID_SE_DEVICE_MGMT,
// 3746                         zclSE_HdlIncoming );
// 3747 #endif
// 3748     zclSEPluginRegisted = TRUE;
        MOV     DPTR,#zclSEPluginRegisted
        MOV     A,#0x1
        MOVX    @DPTR,A
// 3749   }
// 3750 
// 3751   // Fill in the new profile list
// 3752   pNewItem = osal_mem_alloc( sizeof( zclSECBRec_t ) );
??zclSE_RegisterCmdCallbacks_0:
        ; Setup parameters for call to function osal_mem_alloc
        MOV     R2,#0x5
        MOV     R3,#0x0
        LCALL   ??osal_mem_alloc?relay
        MOV     ?V0 + 2,R2
        MOV     ?V0 + 3,R3
        MOV     R0,?V0 + 2
        MOV     R1,?V0 + 3
// 3753   if ( pNewItem == NULL )
        MOV     A,R0
        ORL     A,R1
        JNZ     ??zclSE_RegisterCmdCallbacks_1
// 3754   {
// 3755     return ( ZMemError );
        MOV     R1,#0x10
        SJMP    ??zclSE_RegisterCmdCallbacks_2
// 3756   }
// 3757 
// 3758   pNewItem->next = (zclSECBRec_t *)NULL;
??zclSE_RegisterCmdCallbacks_1:
        MOV     DPL,R0
        MOV     DPH,R1
        CLR     A
        MOVX    @DPTR,A
        INC     DPTR
        MOVX    @DPTR,A
// 3759   pNewItem->endpoint = endpoint;
        MOV     DPL,R0
        MOV     DPH,R1
        INC     DPTR
        INC     DPTR
        MOV     A,?V0 + 0
        MOVX    @DPTR,A
// 3760   pNewItem->CBs = callbacks;
        MOV     DPL,R0
        MOV     DPH,R1
        INC     DPTR
        INC     DPTR
        INC     DPTR
        MOV     A,R6
        MOVX    @DPTR,A
        INC     DPTR
        MOV     A,R7
        MOVX    @DPTR,A
// 3761 
// 3762   // Find spot in list
// 3763   if ( zclSECBs == NULL )
        MOV     DPTR,#zclSECBs
        MOVX    A,@DPTR
        MOV     R2,A
        INC     DPTR
        MOVX    A,@DPTR
        MOV     R3,A
        MOV     A,R2
        ORL     A,R3
        JNZ     ??zclSE_RegisterCmdCallbacks_3
// 3764   {
// 3765     zclSECBs = pNewItem;
        MOV     DPTR,#zclSECBs
        SJMP    ??zclSE_RegisterCmdCallbacks_4
// 3766   }
// 3767   else
// 3768   {
// 3769     // Look for end of list
// 3770     pLoop = zclSECBs;
// 3771     while ( pLoop->next != NULL )
// 3772     {
// 3773       pLoop = pLoop->next;
??zclSE_RegisterCmdCallbacks_5:
        MOVX    A,@DPTR
        MOV     R2,A
        INC     DPTR
??zclSE_RegisterCmdCallbacks_3:
        MOVX    A,@DPTR
        MOV     R3,A
// 3774     }
        MOV     DPL,R2
        MOV     DPH,R3
        MOVX    A,@DPTR
        MOV     R4,A
        INC     DPTR
        MOVX    A,@DPTR
        MOV     R5,A
        MOV     A,R4
        ORL     A,R5
        MOV     DPL,R2
        MOV     DPH,R3
        JNZ     ??zclSE_RegisterCmdCallbacks_5
// 3775 
// 3776     // Put new item at end of list
// 3777     pLoop->next = pNewItem;
??zclSE_RegisterCmdCallbacks_4:
        MOV     A,R0
        MOVX    @DPTR,A
        INC     DPTR
        MOV     A,R1
        MOVX    @DPTR,A
// 3778   }
// 3779 
// 3780   return ( ZSuccess );
        MOV     R1,#0x0
??zclSE_RegisterCmdCallbacks_2:
        MOV     R7,#0x4
        LJMP    ?BANKED_LEAVE_XDATA
        CFI EndBlock cfiBlock0
// 3781 }
// 3782 
// 3783 #if defined( ZCL_LOAD_CONTROL ) || defined( ZCL_SIMPLE_METERING ) || \ 
// 3784     defined( ZCL_PRICING ) || defined( ZCL_MESSAGE ) || \ 
// 3785     defined( ZCL_PREPAYMENT ) || defined( ZCL_TUNNELING ) || \ 
// 3786     defined( ZCL_TOU ) || defined( ZCL_DEVICE_MGMT )
// 3787 /*********************************************************************
// 3788  * @fn      zclSE_FindCallbacks
// 3789  *
// 3790  * @brief   Find the callbacks for an endpoint
// 3791  *
// 3792  * @param   endpoint
// 3793  *
// 3794  * @return  pointer to the callbacks
// 3795  */
// 3796 static zclSE_AppCallbacks_t *zclSE_FindCallbacks( uint8 endpoint )
// 3797 {
// 3798   zclSECBRec_t *pCBs;
// 3799 
// 3800   pCBs = zclSECBs;
// 3801   while ( pCBs )
// 3802   {
// 3803     if ( pCBs->endpoint == endpoint )
// 3804     {
// 3805       return ( pCBs->CBs );
// 3806     }
// 3807     pCBs = pCBs->next;
// 3808   }
// 3809   return ( (zclSE_AppCallbacks_t *)NULL );
// 3810 }
// 3811 #endif
// 3812 
// 3813 /*********************************************************************
// 3814  * @fn      zclSE_HdlIncoming
// 3815  *
// 3816  * @brief   Callback from ZCL to process incoming Commands specific
// 3817  *          to this cluster library or Profile commands for attributes
// 3818  *          that aren't in the attribute list
// 3819  *
// 3820  * @param   pInMsg - pointer to the incoming message
// 3821  *
// 3822  * @return  ZStatus_t
// 3823  */

        RSEG BANKED_CODE:CODE:NOROOT(0)
// 3824 static ZStatus_t zclSE_HdlIncoming(  zclIncoming_t *pInMsg )
zclSE_HdlIncoming:
        CFI Block cfiBlock1 Using cfiCommon0
        CFI Function zclSE_HdlIncoming
        CODE
// 3825 {
        ; Saved register size: 0
        ; Auto size: 0
// 3826   ZStatus_t stat = ZSuccess;
// 3827 
// 3828 #if defined ( INTER_PAN )
// 3829   if ( StubAPS_InterPan( pInMsg->msg->srcAddr.panId, pInMsg->msg->srcAddr.endPoint ) &&
// 3830        !INTER_PAN_CLUSTER(pInMsg->msg->clusterId) )
// 3831   {
// 3832     return ( stat ); // Cluster not supported thru Inter-PAN
// 3833   }
// 3834 #endif
// 3835   if ( zcl_ClusterCmd( pInMsg->hdr.fc.type ) )
// 3836   {
// 3837     // Is this a manufacturer specific command?
// 3838     if ( pInMsg->hdr.fc.manuSpecific == 0 )
// 3839     {
// 3840       stat = zclSE_HdlInSpecificCommands( pInMsg );
// 3841     }
// 3842     else
// 3843     {
// 3844       // We don't support any manufacturer specific command.
// 3845       stat = ZFailure;
// 3846     }
// 3847   }
// 3848   else
// 3849   {
// 3850     // Handle all the normal (Read, Write...) commands -- should never get here
// 3851     stat = ZFailure;
// 3852   }
// 3853 
// 3854   return ( stat );
        MOV     R1,#0x1
        LJMP    ?BRET
        CFI EndBlock cfiBlock1
// 3855 }

        RSEG BANK_RELAYS:CODE:REORDER:NOROOT(0)
??zclSE_RegisterCmdCallbacks?relay:
        LCALL   ?BDISPATCH
        DATA
        DC24    zclSE_RegisterCmdCallbacks

        RSEG BANK_RELAYS:CODE:REORDER:NOROOT(0)
??zclSE_HdlIncoming?relay:
        LCALL   ?BDISPATCH
        DATA
        DC24    zclSE_HdlIncoming

        END
// 3856 
// 3857 /*********************************************************************
// 3858  * @fn      zclSE_HdlInSpecificCommands
// 3859  *
// 3860  * @brief   Function to process incoming Commands specific
// 3861  *          to this cluster library
// 3862 
// 3863  * @param   pInMsg - pointer to the incoming message
// 3864  *
// 3865  * @return  ZStatus_t
// 3866  */
// 3867 static ZStatus_t zclSE_HdlInSpecificCommands( zclIncoming_t *pInMsg )
// 3868 {
// 3869   ZStatus_t stat;
// 3870   //zclSE_AppCallbacks_t *pCBs;
// 3871 
// 3872   // make sure endpoint exists
// 3873 
// 3874 #if defined( ZCL_LOAD_CONTROL ) || defined( ZCL_SIMPLE_METERING ) || \ 
// 3875     defined( ZCL_PRICING ) || defined( ZCL_MESSAGE ) || \ 
// 3876     defined( ZCL_PREPAYMENT ) || defined( ZCL_TUNNELING ) || \ 
// 3877     defined( ZCL_TOU ) || defined( ZCL_DEVICE_MGMT )
// 3878 
// 3879   pCBs = zclSE_FindCallbacks( pInMsg->msg->endPoint );
// 3880   if ( pCBs == NULL )
// 3881   {
// 3882     return ( ZFailure );
// 3883   }
// 3884 
// 3885 #endif
// 3886   switch ( pInMsg->msg->clusterId )			
// 3887   {
// 3888 #ifdef ZCL_SIMPLE_METERING
// 3889     case ZCL_CLUSTER_ID_SE_SIMPLE_METERING:
// 3890       stat = zclSE_ProcessInSimpleMeteringCmds( pInMsg, pCBs );
// 3891       break;
// 3892 #endif
// 3893 
// 3894 #ifdef ZCL_PRICING
// 3895     case ZCL_CLUSTER_ID_SE_PRICING:
// 3896       stat = zclSE_ProcessInPricingCmds( pInMsg, pCBs );
// 3897       break;
// 3898 #endif
// 3899 
// 3900 #ifdef ZCL_MESSAGE
// 3901     case ZCL_CLUSTER_ID_SE_MESSAGE:
// 3902       stat = zclSE_ProcessInMessageCmds( pInMsg, pCBs );
// 3903       break;
// 3904 #endif
// 3905 
// 3906 #ifdef ZCL_LOAD_CONTROL
// 3907     case ZCL_CLUSTER_ID_SE_LOAD_CONTROL:
// 3908       stat = zclSE_ProcessInLoadControlCmds( pInMsg, pCBs );
// 3909       break;
// 3910 #endif
// 3911 
// 3912 #ifdef ZCL_TUNNELING
// 3913     case ZCL_CLUSTER_ID_SE_SE_TUNNELING:
// 3914       stat = zclSE_ProcessInTunnelingCmds( pInMsg, pCBs );
// 3915       break;
// 3916 #endif // ZCL_TUNNELING
// 3917 
// 3918 #ifdef ZCL_PREPAYMENT
// 3919     case ZCL_CLUSTER_ID_SE_PREPAYMENT:
// 3920       stat = zclSE_ProcessInPrepaymentCmds( pInMsg, pCBs );
// 3921       break;
// 3922 #endif // ZCL_PREPAYMENT
// 3923 
// 3924 #ifdef SE_UK_EXT
// 3925 #ifdef ZCL_TOU
// 3926     case ZCL_CLUSTER_ID_SE_TOU_CALENDAR:
// 3927       stat = zclSE_ProcessInTouCmds( pInMsg, pCBs );
// 3928       break;
// 3929 #endif  // ZCL_TOU
// 3930 
// 3931 #ifdef ZCL_DEVICE_MGMT
// 3932     case ZCL_CLUSTER_ID_SE_DEVICE_MGMT:
// 3933       stat = zclSE_ProcessInDeviceMgmtCmds( pInMsg, pCBs );
// 3934       break;
// 3935 #endif  // ZCL_DEVICE_MGMT
// 3936 #endif  // SE_UK_EXT
// 3937 
// 3938     default:
// 3939       stat = ZFailure;
// 3940       break;
// 3941   }
// 3942 
// 3943   return ( stat );
// 3944 }
// 3945 
// 3946 #ifdef ZCL_SIMPLE_METERING
// 3947 /*********************************************************************
// 3948  * @fn      zclSE_ProcessInSimpleMeteringCmds
// 3949  *
// 3950  * @brief   Callback from ZCL to process incoming Commands specific
// 3951  *          to this cluster library on a command ID basis
// 3952  *
// 3953  * @param   pInMsg - pointer to the incoming message
// 3954  * @param   pCBs - pointer to the application call back function
// 3955  *
// 3956  * @return  ZStatus_t
// 3957  */
// 3958 static ZStatus_t zclSE_ProcessInSimpleMeteringCmds( zclIncoming_t *pInMsg,
// 3959                                                      zclSE_AppCallbacks_t *pCBs )
// 3960 {
// 3961   ZStatus_t stat;
// 3962 
// 3963   if ( zcl_ServerCmd( pInMsg->hdr.fc.direction ) )
// 3964   {
// 3965     // Process Client commands, received by server
// 3966     switch ( pInMsg->hdr.commandID )
// 3967     {
// 3968       case COMMAND_SE_GET_PROFILE_CMD:
// 3969         stat = zclSE_ProcessInCmd_SimpleMeter_GetProfileCmd( pInMsg, pCBs );
// 3970         break;
// 3971 
// 3972       case COMMAND_SE_REQ_MIRROR_RSP:
// 3973         stat = zclSE_ProcessInCmd_SimpleMeter_ReqMirrorRsp( pInMsg, pCBs );
// 3974         break;
// 3975 
// 3976       case COMMAND_SE_MIRROR_REM_RSP:
// 3977         stat = zclSE_ProcessInCmd_SimpleMeter_MirrorRemRsp( pInMsg, pCBs );
// 3978         break;
// 3979 
// 3980       case COMMAND_SE_REQ_FAST_POLL_MODE_CMD:
// 3981         stat = zclSE_ProcessInCmd_SimpleMeter_ReqFastPollModeCmd( pInMsg, pCBs );
// 3982         break;
// 3983 
// 3984 #ifdef SE_UK_EXT
// 3985       case COMMAND_SE_GET_SNAPSHOT_CMD:
// 3986         stat = zclSE_ProcessInCmd_SimpleMeter_GetSnapshotCmd( pInMsg, pCBs );
// 3987         break;
// 3988 
// 3989       case COMMAND_SE_TAKE_SNAPSHOT_CMD:
// 3990         stat = zclSE_ProcessInCmd_SimpleMeter_TakeSnapshotCmd( pInMsg, pCBs );
// 3991         break;
// 3992 
// 3993       case COMMAND_SE_MIRROR_REPORT_ATTR_RSP:
// 3994         stat = zclSE_ProcessInCmd_SimpleMeter_MirrorReportAttrRsp( pInMsg, pCBs );
// 3995         break;
// 3996 #endif  // SE_UK_EXT
// 3997 
// 3998       default:
// 3999         stat = ZFailure;
// 4000         break;
// 4001     }
// 4002   }
// 4003   else
// 4004   {
// 4005     // Process Server commands, received by client
// 4006     switch ( pInMsg->hdr.commandID )
// 4007     {
// 4008       case COMMAND_SE_GET_PROFILE_RSP:
// 4009         stat = zclSE_ProcessInCmd_SimpleMeter_GetProfileRsp( pInMsg, pCBs );
// 4010         break;
// 4011 
// 4012       case COMMAND_SE_REQ_MIRROR_CMD:
// 4013         stat = zclSE_ProcessInCmd_SimpleMeter_ReqMirrorCmd( pInMsg, pCBs );
// 4014         break;
// 4015 
// 4016       case COMMAND_SE_MIRROR_REM_CMD:
// 4017         stat = zclSE_ProcessInCmd_SimpleMeter_MirrorRemCmd( pInMsg, pCBs );
// 4018         break;
// 4019 
// 4020       case COMMAND_SE_REQ_FAST_POLL_MODE_RSP:
// 4021         stat = zclSE_ProcessInCmd_SimpleMeter_ReqFastPollModeRsp( pInMsg, pCBs );
// 4022         break;
// 4023 
// 4024 #ifdef SE_UK_EXT
// 4025       case COMMAND_SE_GET_SNAPSHOT_RSP:
// 4026         stat = zclSE_ProcessInCmd_SimpleMeter_GetSnapshotRsp( pInMsg, pCBs );
// 4027         break;
// 4028 #endif  // SE_UK_EXT
// 4029 
// 4030       default:
// 4031         stat = ZFailure;
// 4032         break;
// 4033     }
// 4034   }
// 4035 
// 4036   return ( stat );
// 4037 }
// 4038 
// 4039 /*********************************************************************
// 4040  * @fn      zclSE_ProcessInCmd_SimpleMeter_GetProfileCmd
// 4041  *
// 4042  * @brief   Process in the received Get Profile Command.
// 4043  *
// 4044  * @param   pInMsg - pointer to the incoming message
// 4045  * @param   pCBs - pointer to the application call back function
// 4046  *
// 4047  * @return  ZStatus_t - ZFailure @ Unsupported
// 4048  *                      ZCL_STATUS_CMD_HAS_RSP @ Supported and do
// 4049  *                                           not need default rsp
// 4050  *                      ZCL_STATUS_INVALID_FIELD @ Range checking
// 4051  *                                           failure
// 4052  *
// 4053  */
// 4054 static ZStatus_t zclSE_ProcessInCmd_SimpleMeter_GetProfileCmd( zclIncoming_t *pInMsg,
// 4055                                                                 zclSE_AppCallbacks_t *pCBs )
// 4056 {
// 4057   if ( pCBs->pfnSimpleMeter_GetProfileCmd )
// 4058   {
// 4059     zclCCGetProfileCmd_t cmd;
// 4060 
// 4061     cmd.channel = pInMsg->pData[0];
// 4062     cmd.endTime = osal_build_uint32( &pInMsg->pData[1], 4 );
// 4063     cmd.numOfPeriods = pInMsg->pData[5];
// 4064 
// 4065     // Range checking
// 4066     if ( cmd.channel > MAX_INTERVAL_CHANNEL_SE_SIMPLE_METERING )
// 4067     {
// 4068       return ZCL_STATUS_INVALID_FIELD;
// 4069     }
// 4070     pCBs->pfnSimpleMeter_GetProfileCmd( &cmd, &(pInMsg->msg->srcAddr),
// 4071                                        pInMsg->hdr.transSeqNum  );
// 4072 
// 4073     return ZCL_STATUS_CMD_HAS_RSP;
// 4074   }
// 4075 
// 4076   return ZFailure;
// 4077 }
// 4078 
// 4079 /*********************************************************************
// 4080  * @fn      zclSE_ProcessInCmd_SimpleMeter_GetProfileRsp
// 4081  *
// 4082  * @brief   Process in the received Get Profile Response.
// 4083  *
// 4084  * @param   pInMsg - pointer to the incoming message
// 4085  * @param   pCBs - pointer to the application call back function
// 4086  *
// 4087  * @return  ZStatus_t - ZFailure @ Unsupported
// 4088  *                      ZSuccess @ Supported and send default rsp
// 4089  *                      ZCL_STATUS_INVALID_FIELD @ Range checking
// 4090  *                                           failure
// 4091  *                      ZCL_STATUS_SOFTWARE_FAILURE @ ZStack memory allocation failure
// 4092  */
// 4093 static ZStatus_t zclSE_ProcessInCmd_SimpleMeter_GetProfileRsp( zclIncoming_t *pInMsg,
// 4094                                                                 zclSE_AppCallbacks_t *pCBs )
// 4095 {
// 4096   if ( pCBs->pfnSimpleMeter_GetProfileRsp )
// 4097   {
// 4098     uint24 *pBuf24;
// 4099     uint8  *pBuf8;
// 4100     uint8  i;
// 4101     zclCCGetProfileRsp_t cmd;
// 4102 
// 4103     cmd.endTime = osal_build_uint32( &pInMsg->pData[0], 4 );
// 4104     cmd.status = pInMsg->pData[4];
// 4105     cmd.profileIntervalPeriod = pInMsg->pData[5];
// 4106     cmd.numOfPeriodDelivered = pInMsg->pData[6];
// 4107 
// 4108     // Range Checking
// 4109     if ( cmd.profileIntervalPeriod > MAX_PROFILE_INTERVAL_PERIOD_SE_SIMPLE_METERING )
// 4110     {
// 4111        return ZCL_STATUS_INVALID_FIELD;
// 4112     }
// 4113 
// 4114     // Convert the byte stream to array of uint24
// 4115     pBuf8 = &pInMsg->pData[7];  // Pointer to the start of the array of bytes
// 4116 
// 4117     // Pointer to the start of the array of uint24
// 4118     pBuf24 = (uint24*)osal_mem_alloc( cmd.numOfPeriodDelivered *
// 4119                                      sizeof(uint24) );
// 4120     if ( pBuf24 == NULL )
// 4121     {
// 4122       return ZCL_STATUS_SOFTWARE_FAILURE;  // Memory allocation error
// 4123     }
// 4124 
// 4125     cmd.intervals = pBuf24;
// 4126     for ( i = 0; i < cmd.numOfPeriodDelivered; i++ )
// 4127     {
// 4128       *(pBuf24++) = osal_build_uint32( pBuf8, 3 );
// 4129       pBuf8 += 3;
// 4130     }
// 4131 
// 4132     pCBs->pfnSimpleMeter_GetProfileRsp( &cmd, &(pInMsg->msg->srcAddr),
// 4133                                        pInMsg->hdr.transSeqNum );
// 4134 
// 4135     osal_mem_free( cmd.intervals );
// 4136 
// 4137     return ZSuccess;
// 4138   }
// 4139 
// 4140   return ZFailure;
// 4141 }
// 4142 
// 4143 /*********************************************************************
// 4144  * @fn      zclSE_ProcessInCmd_SimpleMeter_ReqMirrorCmd
// 4145  *
// 4146  * @brief   Process in the received Request Mirror Command.
// 4147  *
// 4148  * @param   pInMsg - pointer to the incoming message
// 4149  * @param   pCBs - pointer to the application call back function
// 4150  *
// 4151  * @return  ZStatus_t - ZFailure @ Unsupported
// 4152  *                      ZSuccess @ Supported and send default rsp
// 4153  */
// 4154 static ZStatus_t zclSE_ProcessInCmd_SimpleMeter_ReqMirrorCmd( zclIncoming_t *pInMsg,
// 4155                                                                   zclSE_AppCallbacks_t *pCBs )
// 4156 {
// 4157   if ( pCBs->pfnSimpleMeter_ReqMirrorCmd )
// 4158   {
// 4159     pCBs->pfnSimpleMeter_ReqMirrorCmd( &(pInMsg->msg->srcAddr),
// 4160                                        pInMsg->hdr.transSeqNum );
// 4161     return ZSuccess;
// 4162   }
// 4163 
// 4164   return ZFailure;
// 4165 }
// 4166 
// 4167 /*********************************************************************
// 4168  * @fn      zclSE_ProcessInCmd_SimpleMeter_ReqMirrorRsp
// 4169  *
// 4170  * @brief   Process in the received Request Mirror Response.
// 4171  *
// 4172  * @param   pInMsg - pointer to the incoming message
// 4173  * @param   pCBs - pointer to the application call back function
// 4174  *
// 4175  * @return  ZStatus_t - ZFailure @ Unsupported
// 4176  *                      ZSuccess @ Supported and send default rsp
// 4177  */
// 4178 static ZStatus_t zclSE_ProcessInCmd_SimpleMeter_ReqMirrorRsp( zclIncoming_t *pInMsg,
// 4179                                                                   zclSE_AppCallbacks_t *pCBs )
// 4180 {
// 4181   if ( pCBs->pfnSimpleMeter_ReqMirrorRsp )
// 4182   {
// 4183     zclCCReqMirrorRsp_t cmd;
// 4184 
// 4185     cmd.endpointId = BUILD_UINT16( pInMsg->pData[0], pInMsg->pData[1] );
// 4186 
// 4187     pCBs->pfnSimpleMeter_ReqMirrorRsp( &cmd, &(pInMsg->msg->srcAddr),
// 4188                                        pInMsg->hdr.transSeqNum );
// 4189     return ZSuccess ;
// 4190   }
// 4191 
// 4192   return ZFailure;
// 4193 }
// 4194 
// 4195 /*********************************************************************
// 4196  * @fn      zclSE_ProcessInCmd_SimpleMeter_MirrorRemCmd
// 4197  *
// 4198  * @brief   Process in the received Mirror Removed Command.
// 4199  *
// 4200  * @param   pInMsg - pointer to the incoming message
// 4201  * @param   pCBs - pointer to the application call back function
// 4202  *
// 4203  * @return  ZStatus_t - ZFailure @ Unsupported
// 4204  *                      ZSuccess @ Supported and send default rsp
// 4205  */
// 4206 static ZStatus_t zclSE_ProcessInCmd_SimpleMeter_MirrorRemCmd( zclIncoming_t *pInMsg,
// 4207                                                                   zclSE_AppCallbacks_t *pCBs )
// 4208 {
// 4209   if ( pCBs->pfnSimpleMeter_MirrorRemCmd )
// 4210   {
// 4211     pCBs->pfnSimpleMeter_MirrorRemCmd( &(pInMsg->msg->srcAddr),
// 4212                                        pInMsg->hdr.transSeqNum );
// 4213     return ZSuccess;
// 4214   }
// 4215 
// 4216   return ZFailure;
// 4217 }
// 4218 
// 4219 /*********************************************************************
// 4220  * @fn      zclSE_ProcessInCmd_SimpleMeter_MirrorRemRsp
// 4221  *
// 4222  * @brief   Process in the received Mirror Removed Response.
// 4223  *
// 4224  * @param   pInMsg - pointer to the incoming message
// 4225  * @param   pCBs - pointer to the application call back function
// 4226  *
// 4227  * @return  ZStatus_t - ZFailure @ Unsupported
// 4228  *                      ZSuccess @ Supported and send default rsp
// 4229  */
// 4230 static ZStatus_t zclSE_ProcessInCmd_SimpleMeter_MirrorRemRsp( zclIncoming_t *pInMsg,
// 4231                                                                   zclSE_AppCallbacks_t *pCBs )
// 4232 {
// 4233   if ( pCBs->pfnSimpleMeter_MirrorRemRsp )
// 4234   {
// 4235     zclCCMirrorRemRsp_t cmd;
// 4236 
// 4237     cmd.endpointId = pInMsg->pData[0] | ( (uint16)pInMsg->pData[1] << 8 );
// 4238 
// 4239     pCBs->pfnSimpleMeter_MirrorRemRsp( &cmd, &(pInMsg->msg->srcAddr),
// 4240                                        pInMsg->hdr.transSeqNum );
// 4241     return ZSuccess;
// 4242   }
// 4243 
// 4244   return ZFailure;
// 4245 }
// 4246 
// 4247 
// 4248 /*********************************************************************
// 4249  * @fn      zclSE_ProcessInCmd_SimpleMeter_ReqFastPollModeCmd
// 4250  *
// 4251  * @brief   Process in the received Request Fast Poll Mode Command
// 4252  *
// 4253  * @param   pInMsg - pointer to the incoming message
// 4254  * @param   pCBs - pointer to the application call back function
// 4255  *
// 4256  * @return  ZStatus_t - ZFailure @ Unsupported
// 4257  *                      ZCL_STATUS_CMD_HAS_RSP @ Supported and do
// 4258  *                                           not need default rsp
// 4259  */
// 4260 static ZStatus_t zclSE_ProcessInCmd_SimpleMeter_ReqFastPollModeCmd( zclIncoming_t *pInMsg,
// 4261                                                                    zclSE_AppCallbacks_t *pCBs )
// 4262 {
// 4263   if ( pCBs->pfnSimpleMeter_ReqFastPollModeCmd )
// 4264   {
// 4265     zclCCReqFastPollModeCmd_t cmd;
// 4266     zclAttrRec_t attrRec;
// 4267     uint8 fastPollUpdatePeriodAttr = 0;
// 4268 
// 4269     // Retrieve Fast Poll Update Period Attribute Record and save value to local variable
// 4270     if ( zclFindAttrRec( pInMsg->msg->endPoint, pInMsg->msg->clusterId,
// 4271                          ATTRID_SE_FAST_POLL_UPDATE_PERIOD, &attrRec ) )
// 4272     {
// 4273       zclReadAttrData( (uint8 *)&fastPollUpdatePeriodAttr, &attrRec, NULL );
// 4274     }
// 4275 
// 4276     // Value has been set by application
// 4277     if (( fastPollUpdatePeriodAttr > 0 ) && (pInMsg->pData[0] < fastPollUpdatePeriodAttr))
// 4278     {
// 4279       // the minimum acceptable value is defined by the attribute value
// 4280       cmd.fastPollUpdatePeriod = fastPollUpdatePeriodAttr;
// 4281     }
// 4282     else
// 4283     {
// 4284       // use received update period
// 4285       cmd.fastPollUpdatePeriod = pInMsg->pData[0];
// 4286     }
// 4287 
// 4288     // As per SE 1.1 spec: maximum duration value will be used if received exceeds it
// 4289     cmd.duration = MIN(pInMsg->pData[1], MAX_DURATION_IN_MINUTES_FAST_POLL_MODE);
// 4290 
// 4291     pCBs->pfnSimpleMeter_ReqFastPollModeCmd(&cmd, &(pInMsg->msg->srcAddr),
// 4292                                             pInMsg->hdr.transSeqNum );
// 4293 
// 4294     return ZCL_STATUS_CMD_HAS_RSP;
// 4295   }
// 4296 
// 4297   return ZFailure;
// 4298 }
// 4299 
// 4300 /*********************************************************************
// 4301  * @fn      zclSE_ProcessInCmd_SimpleMeter_ReqFastPollModeRsp
// 4302  *
// 4303  * @brief   Process in the received Request Fast Poll Mode Response
// 4304  *
// 4305  * @param   pInMsg - pointer to the incoming message
// 4306  * @param   pCBs - pointer to the application call back function
// 4307  *
// 4308  * @return  ZStatus_t - ZFailure @ Unsupported
// 4309  *                      ZSuccess @ Supported and send default rsp
// 4310  */
// 4311 static ZStatus_t zclSE_ProcessInCmd_SimpleMeter_ReqFastPollModeRsp( zclIncoming_t *pInMsg,
// 4312                                                                    zclSE_AppCallbacks_t *pCBs )
// 4313 {
// 4314   if ( pCBs->pfnSimpleMeter_ReqFastPollModeRsp )
// 4315   {
// 4316     zclCCReqFastPollModeRsp_t cmd;
// 4317 
// 4318     cmd.appliedUpdatePeriod = pInMsg->pData[0];
// 4319 
// 4320     cmd.fastPollModeEndTime = osal_build_uint32( &pInMsg->pData[1], 4 );
// 4321 
// 4322     pCBs->pfnSimpleMeter_ReqFastPollModeRsp(&cmd, &(pInMsg->msg->srcAddr),
// 4323                                             pInMsg->hdr.transSeqNum );
// 4324 
// 4325     return ZSuccess;
// 4326   }
// 4327 
// 4328   return ZFailure;
// 4329 }
// 4330 
// 4331 #ifdef SE_UK_EXT
// 4332 /*********************************************************************
// 4333  * @fn      zclSE_ProcessInCmd_SimpleMeter_GetSnapshotCmd
// 4334  *
// 4335  * @brief   Process in the received Get Snapshot Command
// 4336  *
// 4337  * @param   pInMsg - pointer to the incoming message
// 4338  * @param   pCBs - pointer to the application call back function
// 4339  *
// 4340  * @return  ZStatus_t - ZFailure @ Unsupported
// 4341  *                      ZCL_STATUS_CMD_HAS_RSP @ Supported and do
// 4342  *                                           not need default rsp
// 4343  */
// 4344 static ZStatus_t zclSE_ProcessInCmd_SimpleMeter_GetSnapshotCmd( zclIncoming_t *pInMsg,
// 4345                                                                 zclSE_AppCallbacks_t *pCBs )
// 4346 {
// 4347   if ( pCBs->pfnSimpleMeter_GetSnapshotCmd )
// 4348   {
// 4349     zclCCReqGetSnapshotCmd_t cmd;
// 4350 
// 4351     cmd.StartTime = osal_build_uint32( &pInMsg->pData[0], 4 );
// 4352     cmd.NumberOfSnapshots = pInMsg->pData[4];
// 4353     cmd.SnapshotCause = BUILD_UINT16( pInMsg->pData[5], pInMsg->pData[6] );
// 4354 
// 4355     pCBs->pfnSimpleMeter_GetSnapshotCmd(&cmd, &(pInMsg->msg->srcAddr),
// 4356                                         pInMsg->hdr.transSeqNum );
// 4357 
// 4358     return ZCL_STATUS_CMD_HAS_RSP;
// 4359   }
// 4360 
// 4361   return ZFailure;
// 4362 }
// 4363 
// 4364 /*********************************************************************
// 4365  * @fn      zclSE_ProcessInCmd_SimpleMeter_GetSnapshotRsp
// 4366  *
// 4367  * @brief   Process in the received Get Snapshot Response
// 4368  *
// 4369  * @param   pInMsg - pointer to the incoming message
// 4370  * @param   pCBs - pointer to the application call back function
// 4371  *
// 4372  * @return  ZStatus_t - ZFailure @ Unsupported
// 4373  *                      ZSuccess @ Supported and send default rsp
// 4374  */
// 4375 static ZStatus_t zclSE_ProcessInCmd_SimpleMeter_GetSnapshotRsp( zclIncoming_t *pInMsg,
// 4376                                                                 zclSE_AppCallbacks_t *pCBs )
// 4377 {
// 4378   if ( pCBs->pfnSimpleMeter_GetSnapshotRsp )
// 4379   {
// 4380     zclCCReqGetSnapshotRsp_t cmd;
// 4381 
// 4382     cmd.IssuerEventID = osal_build_uint32( &pInMsg->pData[0], 4 );
// 4383     cmd.SnapshotTime = osal_build_uint32( &pInMsg->pData[4], 4 );
// 4384     cmd.CommandIndex = pInMsg->pData[8];
// 4385     cmd.SnapshotCause = BUILD_UINT16( pInMsg->pData[9], pInMsg->pData[10] );
// 4386     cmd.SnapshotPayloadType = pInMsg->pData[11];
// 4387 
// 4388     cmd.pSnapshotPayload = pInMsg->pData + 12;
// 4389 
// 4390     pCBs->pfnSimpleMeter_GetSnapshotRsp(&cmd, &(pInMsg->msg->srcAddr),
// 4391                                         pInMsg->hdr.transSeqNum );
// 4392 
// 4393     return ZSuccess;
// 4394   }
// 4395 
// 4396   return ZFailure;
// 4397 }
// 4398 
// 4399 /*********************************************************************
// 4400  * @fn      zclSE_ProcessInCmd_SimpleMeter_TakeSnapshotCmd
// 4401  *
// 4402  * @brief   Process in the received Take Snapshot Command
// 4403  *
// 4404  * @param   pInMsg - pointer to the incoming message
// 4405  * @param   pCBs - pointer to the application call back function
// 4406  *
// 4407  * @return  ZStatus_t - ZFailure @ Unsupported
// 4408  *                      ZSuccess @ Supported and send default rsp
// 4409  */
// 4410 static ZStatus_t zclSE_ProcessInCmd_SimpleMeter_TakeSnapshotCmd( zclIncoming_t *pInMsg,
// 4411                                                                  zclSE_AppCallbacks_t *pCBs )
// 4412 {
// 4413   if ( pCBs->pfnSimpleMeter_TakeSnapshotCmd )
// 4414   {
// 4415     pCBs->pfnSimpleMeter_TakeSnapshotCmd( &(pInMsg->msg->srcAddr),
// 4416                                           pInMsg->hdr.transSeqNum );
// 4417 
// 4418     return ZSuccess;
// 4419   }
// 4420 
// 4421   return ZFailure;
// 4422 }
// 4423 
// 4424 /*********************************************************************
// 4425  * @fn      zclSE_ProcessInCmd_SimpleMeter_MirrorReportAttrRsp
// 4426  *
// 4427  * @brief   Process in the received Mirror Report Attribute Response
// 4428  *
// 4429  * @param   pInMsg - pointer to the incoming message
// 4430  * @param   pCBs - pointer to the application call back function
// 4431  *
// 4432  * @return  ZStatus_t - ZFailure @ Unsupported
// 4433  *                      ZSuccess @ Supported and send default rsp
// 4434  */
// 4435 static ZStatus_t zclSE_ProcessInCmd_SimpleMeter_MirrorReportAttrRsp( zclIncoming_t *pInMsg,
// 4436                                                                      zclSE_AppCallbacks_t *pCBs )
// 4437 {
// 4438   if ( pCBs->pfnSimpleMeter_MirrorReportAttrRsp )
// 4439   {
// 4440     zclCCReqMirrorReportAttrRsp_t cmd;
// 4441 
// 4442     cmd.NotificationFlags = pInMsg->pData[0];
// 4443     cmd.PriceNotificationFlags = BUILD_UINT16( pInMsg->pData[1], pInMsg->pData[2] );
// 4444     cmd.CalendarNotificationFlags = pInMsg->pData[3];
// 4445     cmd.PrePayNotificationFlags = BUILD_UINT16( pInMsg->pData[4], pInMsg->pData[5] );
// 4446     cmd.DeviceMgmtNotificationFlags = pInMsg->pData[6];
// 4447 
// 4448     pCBs->pfnSimpleMeter_MirrorReportAttrRsp(&cmd, &(pInMsg->msg->srcAddr),
// 4449                                             pInMsg->hdr.transSeqNum );
// 4450 
// 4451     return ZSuccess;
// 4452   }
// 4453 
// 4454   return ZFailure;
// 4455 }
// 4456 #endif  // SE_UK_EXT
// 4457 #endif  // ZCL_SIMPLE_METERING
// 4458 
// 4459 
// 4460 #ifdef ZCL_PRICING
// 4461 /*********************************************************************
// 4462  * @fn      zclSE_ProcessInPricingCmds
// 4463  *
// 4464  * @brief   Callback from ZCL to process incoming Commands specific
// 4465  *          to this cluster library on a command ID basis
// 4466  *
// 4467  * @param   pInMsg - pointer to the incoming message
// 4468  * @param   pCBs - pointer to the application call back function
// 4469  *
// 4470  * @return  ZStatus_t
// 4471  */
// 4472 static ZStatus_t zclSE_ProcessInPricingCmds( zclIncoming_t *pInMsg,
// 4473                                               zclSE_AppCallbacks_t *pCBs )
// 4474 {
// 4475   ZStatus_t stat;
// 4476 
// 4477   if ( zcl_ServerCmd( pInMsg->hdr.fc.direction ) )
// 4478   {
// 4479     // Process Client commands, received by server
// 4480     switch ( pInMsg->hdr.commandID )
// 4481     {
// 4482       case COMMAND_SE_GET_CURRENT_PRICE:
// 4483         stat = zclSE_ProcessInCmd_Pricing_GetCurrentPrice( pInMsg, pCBs );
// 4484         break;
// 4485 
// 4486       case COMMAND_SE_GET_SCHEDULED_PRICE:
// 4487         stat = zclSE_ProcessInCmd_Pricing_GetScheduledPrice( pInMsg, pCBs );
// 4488         break;
// 4489 
// 4490       case COMMAND_SE_PRICE_ACKNOWLEDGEMENT:
// 4491         stat = zclSE_ProcessInCmd_Pricing_PriceAcknowledgement ( pInMsg, pCBs );
// 4492         break;
// 4493 
// 4494       case COMMAND_SE_GET_BLOCK_PERIOD:
// 4495         stat = zclSE_ProcessInCmd_Pricing_GetBlockPeriod ( pInMsg, pCBs );
// 4496         break;
// 4497 
// 4498 #ifdef SE_UK_EXT
// 4499       case COMMAND_SE_GET_TARIFF_INFO:
// 4500         stat = zclSE_ProcessInCmd_Pricing_GetTariffInformation ( pInMsg, pCBs );
// 4501         break;
// 4502 
// 4503       case COMMAND_SE_GET_PRICE_MATRIX:
// 4504         stat = zclSE_ProcessInCmd_Pricing_GetPriceMatrix ( pInMsg, pCBs );
// 4505         break;
// 4506 
// 4507       case COMMAND_SE_GET_BLOCK_THRESHOLD:
// 4508         stat = zclSE_ProcessInCmd_Pricing_GetBlockThresholds ( pInMsg, pCBs );
// 4509         break;
// 4510 
// 4511       case COMMAND_SE_GET_CONVERSION_FACTOR:
// 4512         stat = zclSE_ProcessInCmd_Pricing_GetConversionFactor ( pInMsg, pCBs );
// 4513         break;
// 4514 
// 4515       case COMMAND_SE_GET_CALORIFIC_VALUE:
// 4516         stat = zclSE_ProcessInCmd_Pricing_GetCalorificValue ( pInMsg, pCBs );
// 4517         break;
// 4518 
// 4519       case COMMAND_SE_GET_CO2_VALUE:
// 4520         stat = zclSE_ProcessInCmd_Pricing_GetCO2Value ( pInMsg, pCBs );
// 4521         break;
// 4522 
// 4523       case COMMAND_SE_GET_BILLING_PERIOD:
// 4524         stat = zclSE_ProcessInCmd_Pricing_GetBillingPeriod ( pInMsg, pCBs );
// 4525         break;
// 4526 
// 4527       case COMMAND_SE_GET_CONSOLIDATED_BILL:
// 4528         stat = zclSE_ProcessInCmd_Pricing_GetConsolidatedBill ( pInMsg, pCBs );
// 4529         break;
// 4530 
// 4531       case COMMAND_SE_CPP_EVENT_RESPONSE:
// 4532         stat = zclSE_ProcessInCmd_Pricing_CPPEventResponse ( pInMsg, pCBs );
// 4533         break;
// 4534 #endif  // SE_UK_EXT
// 4535 
// 4536       default:
// 4537         stat = ZFailure;
// 4538         break;
// 4539     }
// 4540   }
// 4541   else
// 4542   {
// 4543     // Process Server commands, received by client
// 4544     switch ( pInMsg->hdr.commandID )
// 4545     {
// 4546       case COMMAND_SE_PUBLISH_PRICE:
// 4547         stat = zclSE_ProcessInCmd_Pricing_PublishPrice( pInMsg, pCBs );
// 4548         break;
// 4549 
// 4550       case COMMAND_SE_PUBLISH_BLOCK_PERIOD:
// 4551         stat = zclSE_ProcessInCmd_Pricing_PublishBlockPeriod( pInMsg, pCBs );
// 4552         break;
// 4553 
// 4554 #ifdef SE_UK_EXT
// 4555       case COMMAND_SE_PUBLISH_TARIFF_INFO:
// 4556         stat = zclSE_ProcessInCmd_Pricing_PublishTariffInformation( pInMsg, pCBs );
// 4557         break;
// 4558 
// 4559       case COMMAND_SE_PUBLISH_PRICE_MATRIX:
// 4560         stat = zclSE_ProcessInCmd_Pricing_PublishPriceMatrix( pInMsg, pCBs );
// 4561         break;
// 4562 
// 4563       case COMMAND_SE_PUBLISH_BLOCK_THRESHOLD:
// 4564         stat = zclSE_ProcessInCmd_Pricing_PublishBlockThreshold( pInMsg, pCBs );
// 4565         break;
// 4566 
// 4567       case COMMAND_SE_PUBLISH_CONVERSION_FACTOR:
// 4568         stat = zclSE_ProcessInCmd_Pricing_PublishConversionFactor( pInMsg, pCBs );
// 4569         break;
// 4570 
// 4571       case COMMAND_SE_PUBLISH_CALORIFIC_VALUE:
// 4572         stat = zclSE_ProcessInCmd_Pricing_PublishCalorificValue( pInMsg, pCBs );
// 4573         break;
// 4574 
// 4575       case COMMAND_SE_PUBLISH_CO2_VALUE:
// 4576         stat = zclSE_ProcessInCmd_Pricing_PublishCO2Value( pInMsg, pCBs );
// 4577         break;
// 4578 
// 4579       case COMMAND_SE_PUBLISH_CPP_EVENT:
// 4580         stat = zclSE_ProcessInCmd_Pricing_PublishCPPEvent( pInMsg, pCBs );
// 4581         break;
// 4582 
// 4583       case COMMAND_SE_PUBLISH_BILLING_PERIOD:
// 4584         stat = zclSE_ProcessInCmd_Pricing_PublishBillingPeriod( pInMsg, pCBs );
// 4585         break;
// 4586 
// 4587       case COMMAND_SE_PUBLISH_CONSOLIDATED_BILL:
// 4588         stat = zclSE_ProcessInCmd_Pricing_PublishConsolidatedBill( pInMsg, pCBs );
// 4589         break;
// 4590 
// 4591       case COMMAND_SE_PUBLISH_CREDIT_PAYMENT_INFO:
// 4592         stat = zclSE_ProcessInCmd_Pricing_PublishCreditPaymentInfo( pInMsg, pCBs );
// 4593         break;
// 4594 #endif  // SE_UK_EXT
// 4595 
// 4596       default:
// 4597         stat = ZFailure;
// 4598         break;
// 4599     }
// 4600   }
// 4601 
// 4602   return ( stat );
// 4603 }
// 4604 
// 4605 /*********************************************************************
// 4606  * @fn      zclSE_ProcessInCmd_Pricing_GetCurrentPrice
// 4607  *
// 4608  * @brief   Process in the received Get Current Price.
// 4609  *
// 4610  * @param   pInMsg - pointer to the incoming message
// 4611  * @param   pCBs - pointer to the application call back function
// 4612  *
// 4613  * @return  ZStatus_t - ZFailure @ Unsupported
// 4614  *                      ZCL_STATUS_CMD_HAS_RSP @ Supported and do
// 4615  *                                           not need default rsp
// 4616  */
// 4617 static ZStatus_t zclSE_ProcessInCmd_Pricing_GetCurrentPrice( zclIncoming_t *pInMsg,
// 4618                                                               zclSE_AppCallbacks_t *pCBs )
// 4619 {
// 4620   if ( pCBs->pfnPricing_GetCurrentPrice )
// 4621   {
// 4622     zclCCGetCurrentPrice_t cmd;
// 4623 
// 4624     cmd.option = pInMsg->pData[0];
// 4625 
// 4626     pCBs->pfnPricing_GetCurrentPrice( &cmd,  &(pInMsg->msg->srcAddr),
// 4627                                      pInMsg->hdr.transSeqNum );
// 4628 
// 4629     return ZCL_STATUS_CMD_HAS_RSP;
// 4630   }
// 4631 
// 4632   return ZFailure;
// 4633 }
// 4634 
// 4635 /*********************************************************************
// 4636  * @fn      zclSE_ProcessInCmd_Pricing_GetScheduledPrice
// 4637  *
// 4638  * @brief   Process in the received Get Scheduled Price.
// 4639  *
// 4640  * @param   pInMsg - pointer to the incoming message
// 4641  * @param   pCBs - pointer to the application call back function
// 4642  *
// 4643  * @return  ZStatus_t - ZFailure @ Unsupported
// 4644  *                      ZCL_STATUS_CMD_HAS_RSP @ Supported and do
// 4645  *                                           not need default rsp
// 4646  */
// 4647 static ZStatus_t zclSE_ProcessInCmd_Pricing_GetScheduledPrice( zclIncoming_t *pInMsg,
// 4648                                                                 zclSE_AppCallbacks_t *pCBs )
// 4649 {
// 4650   if ( pCBs->pfnPricing_GetScheduledPrice )
// 4651   {
// 4652     zclCCGetScheduledPrice_t cmd;
// 4653 
// 4654     cmd.startTime = osal_build_uint32( pInMsg->pData, 4 );
// 4655     cmd.numEvents = pInMsg->pData[4];
// 4656 
// 4657     pCBs->pfnPricing_GetScheduledPrice( &cmd, &(pInMsg->msg->srcAddr),
// 4658                                        pInMsg->hdr.transSeqNum );
// 4659     return ZCL_STATUS_CMD_HAS_RSP;
// 4660   }
// 4661 
// 4662   return ZFailure;
// 4663 }
// 4664 
// 4665 /*********************************************************************
// 4666  * @fn      zclSE_ProcessInCmd_Pricing_PublishPrice
// 4667  *
// 4668  * @brief   Process in the received Publish Price.
// 4669  *
// 4670  * @param   pInMsg - pointer to the incoming message
// 4671  * @param   pCBs - pointer to the application call back function
// 4672  *
// 4673  * @return  ZStatus_t - ZFailure @ Unsupported
// 4674  *                      ZSuccess @ Supported and need default rsp
// 4675  *                      ZCL_STATUS_CMD_HAS_RSP @ Supported and do
// 4676  *                                           not need default rsp
// 4677  *                      ZCL_STATUS_SOFTWARE_FAILURE @ ZStack memory allocation failure
// 4678  */
// 4679 static ZStatus_t zclSE_ProcessInCmd_Pricing_PublishPrice( zclIncoming_t *pInMsg,
// 4680                                                            zclSE_AppCallbacks_t *pCBs )
// 4681 {
// 4682   if ( pCBs->pfnPricing_PublishPrice )
// 4683   {
// 4684     zclCCPublishPrice_t cmd;
// 4685 
// 4686     // Parse the command and do range check
// 4687     if ( zclSE_ParseInCmd_PublishPrice( &cmd, &(pInMsg->pData[0]),
// 4688                                         pInMsg->pDataLen ) == ZSuccess )
// 4689     {
// 4690       pCBs->pfnPricing_PublishPrice( &cmd, &(pInMsg->msg->srcAddr),
// 4691                                     pInMsg->hdr.transSeqNum );
// 4692 
// 4693       // Free the memory allocated in zclSE_ParseInCmd_PublishPrice()
// 4694       if ( cmd.rateLabel.pStr != NULL )
// 4695       {
// 4696         osal_mem_free( cmd.rateLabel.pStr );
// 4697       }
// 4698 
// 4699       // SE 1.1
// 4700       if ((pInMsg->pDataLen - cmd.rateLabel.strLen) > PACKET_LEN_SE_PUBLISH_PRICE_SE_1_0)
// 4701       {
// 4702         return ZCL_STATUS_CMD_HAS_RSP;
// 4703       }
// 4704       else
// 4705       {
// 4706         // SE 1.0 backwards compatibility
// 4707         return ZSuccess;
// 4708       }
// 4709     }
// 4710     else
// 4711     {
// 4712       return ZCL_STATUS_SOFTWARE_FAILURE;
// 4713     }
// 4714   }
// 4715 
// 4716   return ZFailure;
// 4717 }
// 4718 
// 4719 /*********************************************************************
// 4720  * @fn      zclSE_ProcessInCmd_Pricing_PriceAcknowledgement
// 4721  *
// 4722  * @brief   Process in the received Price Acknowledgement
// 4723  *
// 4724  * @param   pInMsg - pointer to the incoming message
// 4725  * @param   pCBs - pointer to the application call back function
// 4726  *
// 4727  * @return  ZStatus_t - ZFailure @ Unsupported
// 4728  *                      ZSuccess @ Supported and need default rsp
// 4729  */
// 4730 static ZStatus_t zclSE_ProcessInCmd_Pricing_PriceAcknowledgement( zclIncoming_t *pInMsg,
// 4731                                                                   zclSE_AppCallbacks_t *pCBs )
// 4732 {
// 4733   if ( pCBs->pfnPricing_PriceAcknowledgement )
// 4734   {
// 4735     zclCCPriceAcknowledgement_t cmd;
// 4736 
// 4737     cmd.providerId = osal_build_uint32( pInMsg->pData, 4 );
// 4738     cmd.issuerEventId = osal_build_uint32( &pInMsg->pData[4], 4 );
// 4739     cmd.priceAckTime = osal_build_uint32( &pInMsg->pData[8], 4 );
// 4740     cmd.control = pInMsg->pData[12];
// 4741 
// 4742     pCBs->pfnPricing_PriceAcknowledgement( &cmd, &(pInMsg->msg->srcAddr),
// 4743                                        pInMsg->hdr.transSeqNum );
// 4744     return ZSuccess;
// 4745   }
// 4746 
// 4747   return ZFailure;
// 4748 }
// 4749 
// 4750 /*********************************************************************
// 4751  * @fn      zclSE_ProcessInCmd_Pricing_GetBlockPeriod
// 4752  *
// 4753  * @brief   Process in the received Get Block Period.
// 4754  *
// 4755  * @param   pInMsg - pointer to the incoming message
// 4756  * @param   pCBs - pointer to the application call back function
// 4757  *
// 4758  * @return  ZStatus_t - ZFailure @ Unsupported
// 4759  *                      ZCL_STATUS_CMD_HAS_RSP @ Supported and do
// 4760  *                                           not need default rsp
// 4761  */
// 4762 static ZStatus_t zclSE_ProcessInCmd_Pricing_GetBlockPeriod( zclIncoming_t *pInMsg,
// 4763                                                             zclSE_AppCallbacks_t *pCBs )
// 4764 {
// 4765   if ( pCBs->pfnPricing_GetBlockPeriod )
// 4766   {
// 4767     zclCCGetBlockPeriod_t cmd;
// 4768 
// 4769     cmd.startTime = osal_build_uint32( pInMsg->pData, 4 );
// 4770     cmd.numEvents = pInMsg->pData[4];
// 4771 
// 4772     pCBs->pfnPricing_GetBlockPeriod( &cmd, &(pInMsg->msg->srcAddr),
// 4773                                      pInMsg->hdr.transSeqNum );
// 4774     return ZCL_STATUS_CMD_HAS_RSP;
// 4775   }
// 4776 
// 4777   return ZFailure;
// 4778 }
// 4779 
// 4780 /*********************************************************************
// 4781  * @fn      zclSE_ProcessInCmd_Pricing_PublishBlockPeriod
// 4782  *
// 4783  * @brief   Process in the received Publish Block Period.
// 4784  *
// 4785  * @param   pInMsg - pointer to the incoming message
// 4786  * @param   pCBs - pointer to the application call back function
// 4787  *
// 4788  * @return  ZStatus_t - ZFailure @ Unsupported
// 4789  *                      ZCL_STATUS_CMD_HAS_RSP @ Supported and do
// 4790  *                                           not need default rsp
// 4791  */
// 4792 static ZStatus_t zclSE_ProcessInCmd_Pricing_PublishBlockPeriod( zclIncoming_t *pInMsg,
// 4793                                                                 zclSE_AppCallbacks_t *pCBs )
// 4794 {
// 4795   if ( pCBs->pfnPricing_PublishBlockPeriod )
// 4796   {
// 4797     zclCCPublishBlockPeriod_t cmd;
// 4798 
// 4799     // Parse the command and do range check
// 4800     zclSE_ParseInCmd_PublishBlockPeriod( &cmd, &(pInMsg->pData[0]), pInMsg->pDataLen );
// 4801 
// 4802     pCBs->pfnPricing_PublishBlockPeriod( &cmd, &(pInMsg->msg->srcAddr),
// 4803                                          pInMsg->hdr.transSeqNum );
// 4804     return ZCL_STATUS_CMD_HAS_RSP;
// 4805   }
// 4806 
// 4807   return ZFailure;
// 4808 }
// 4809 
// 4810 #ifdef SE_UK_EXT
// 4811 /*********************************************************************
// 4812  * @fn      zclSE_ProcessInCmd_Pricing_PublishTariffInformation
// 4813  *
// 4814  * @brief   Process in the received Publish Tarif Information.
// 4815  *
// 4816  * @param   pInMsg - pointer to the incoming message
// 4817  * @param   pCBs - pointer to the application call back function
// 4818  *
// 4819  * @return  ZStatus_t - ZFailure @ Unsupported
// 4820  *                      ZCL_STATUS_CMD_HAS_RSP @ Supported and do
// 4821  *                                           not need default rsp
// 4822  */
// 4823 static ZStatus_t zclSE_ProcessInCmd_Pricing_PublishTariffInformation( zclIncoming_t *pInMsg,
// 4824                                                                       zclSE_AppCallbacks_t *pCBs )
// 4825 {
// 4826   if ( pCBs->pfnPricing_PublishTariffInformation )
// 4827   {
// 4828     zclCCPublishTariffInformation_t cmd;
// 4829 
// 4830     zclSE_ParseInCmd_PublishTariffInformation( &cmd, &(pInMsg->pData[0]),
// 4831                                                pInMsg->pDataLen );
// 4832 
// 4833     pCBs->pfnPricing_PublishTariffInformation( &cmd, &(pInMsg->msg->srcAddr),
// 4834                                                pInMsg->hdr.transSeqNum );
// 4835     return ZCL_STATUS_CMD_HAS_RSP;
// 4836   }
// 4837 
// 4838   return ZFailure;
// 4839 }
// 4840 
// 4841 /*********************************************************************
// 4842  * @fn      zclSE_ProcessInCmd_Pricing_PublishPriceMatrix
// 4843  *
// 4844  * @brief   Process in the received Publish Price Matrix.
// 4845  *
// 4846  * @param   pInMsg - pointer to the incoming message
// 4847  * @param   pCBs - pointer to the application call back function
// 4848  *
// 4849  * @return  ZStatus_t - ZFailure @ Unsupported
// 4850  *                      ZCL_STATUS_CMD_HAS_RSP @ Supported and do
// 4851  *                                           not need default rsp
// 4852  *                      ZCL_STATUS_SOFTWARE_FAILURE @ ZStack memory allocation failure
// 4853  */
// 4854 static ZStatus_t zclSE_ProcessInCmd_Pricing_PublishPriceMatrix( zclIncoming_t *pInMsg,
// 4855                                                                 zclSE_AppCallbacks_t *pCBs )
// 4856 {
// 4857   if ( pCBs->pfnPricing_PublishPriceMatrix )
// 4858   {
// 4859     zclCCPublishPriceMatrix_t cmd;
// 4860 
// 4861     if ( zclSE_ParseInCmd_PublishPriceMatrix( &cmd, &(pInMsg->pData[0]),
// 4862                                              pInMsg->pDataLen ) == ZSuccess )
// 4863     {
// 4864       pCBs->pfnPricing_PublishPriceMatrix( &cmd, &(pInMsg->msg->srcAddr),
// 4865                                                  pInMsg->hdr.transSeqNum );
// 4866 
// 4867       if ( cmd.pTierBlockPrice != NULL )
// 4868       {
// 4869         osal_mem_free( cmd.pTierBlockPrice );
// 4870       }
// 4871 
// 4872       return ZCL_STATUS_CMD_HAS_RSP;
// 4873     }
// 4874     else
// 4875     {
// 4876       return ZCL_STATUS_SOFTWARE_FAILURE;
// 4877     }
// 4878   }
// 4879 
// 4880   return ZFailure;
// 4881 }
// 4882 
// 4883 /*********************************************************************
// 4884  * @fn      zclSE_ProcessInCmd_Pricing_PublishBlockThreshold
// 4885  *
// 4886  * @brief   Process in the received Publish Block Threshold.
// 4887  *
// 4888  * @param   pInMsg - pointer to the incoming message
// 4889  * @param   pCBs - pointer to the application call back function
// 4890  *
// 4891  * @return  ZStatus_t - ZFailure @ Unsupported
// 4892  *                      ZCL_STATUS_CMD_HAS_RSP @ Supported and do
// 4893  *                                           not need default rsp
// 4894  *                      ZCL_STATUS_SOFTWARE_FAILURE @ ZStack memory allocation failure
// 4895  */
// 4896 static ZStatus_t zclSE_ProcessInCmd_Pricing_PublishBlockThreshold( zclIncoming_t *pInMsg,
// 4897                                                                    zclSE_AppCallbacks_t *pCBs )
// 4898 {
// 4899   if ( pCBs->pfnPricing_PublishBlockThresholds )
// 4900   {
// 4901     zclCCPublishBlockThresholds_t cmd;
// 4902 
// 4903     if ( zclSE_ParseInCmd_PublishBlockThresholds( &cmd, &(pInMsg->pData[0]),
// 4904                                              pInMsg->pDataLen ) == ZSuccess )
// 4905     {
// 4906       pCBs->pfnPricing_PublishBlockThresholds( &cmd, &(pInMsg->msg->srcAddr),
// 4907                                                pInMsg->hdr.transSeqNum );
// 4908 
// 4909       if ( cmd.pTierBlockThreshold != NULL )
// 4910       {
// 4911         osal_mem_free( cmd.pTierBlockThreshold );
// 4912       }
// 4913 
// 4914       return ZCL_STATUS_CMD_HAS_RSP;
// 4915     }
// 4916     else
// 4917     {
// 4918       return ZCL_STATUS_SOFTWARE_FAILURE;
// 4919     }
// 4920   }
// 4921 
// 4922   return ZFailure;
// 4923 }
// 4924 
// 4925 /*********************************************************************
// 4926  * @fn      zclSE_ProcessInCmd_Pricing_PublishConversionFactor
// 4927  *
// 4928  * @brief   Process in the received Publish Conversion Factor.
// 4929  *
// 4930  * @param   pInMsg - pointer to the incoming message
// 4931  * @param   pCBs - pointer to the application call back function
// 4932  *
// 4933  * @return  ZStatus_t - ZFailure @ Unsupported
// 4934  *                      ZCL_STATUS_CMD_HAS_RSP @ Supported and do
// 4935  *                                           not need default rsp
// 4936  */
// 4937 static ZStatus_t zclSE_ProcessInCmd_Pricing_PublishConversionFactor( zclIncoming_t *pInMsg,
// 4938                                                                      zclSE_AppCallbacks_t *pCBs )
// 4939 {
// 4940   if ( pCBs->pfnPricing_PublishConversionFactor )
// 4941   {
// 4942     zclCCPublishConversionFactor_t cmd;
// 4943 
// 4944     zclSE_ParseInCmd_PublishConversionFactor( &cmd, &(pInMsg->pData[0]),
// 4945                                               pInMsg->pDataLen );
// 4946 
// 4947     pCBs->pfnPricing_PublishConversionFactor( &cmd, &(pInMsg->msg->srcAddr),
// 4948                                               pInMsg->hdr.transSeqNum );
// 4949     return ZCL_STATUS_CMD_HAS_RSP;
// 4950   }
// 4951 
// 4952   return ZFailure;
// 4953 }
// 4954 
// 4955 /*********************************************************************
// 4956  * @fn      zclSE_ProcessInCmd_Pricing_PublishCalorificValue
// 4957  *
// 4958  * @brief   Process in the received Publish Calorific Value.
// 4959  *
// 4960  * @param   pInMsg - pointer to the incoming message
// 4961  * @param   pCBs - pointer to the application call back function
// 4962  *
// 4963  * @return  ZStatus_t - ZFailure @ Unsupported
// 4964  *                      ZCL_STATUS_CMD_HAS_RSP @ Supported and do
// 4965  *                                           not need default rsp
// 4966  */
// 4967 static ZStatus_t zclSE_ProcessInCmd_Pricing_PublishCalorificValue( zclIncoming_t *pInMsg,
// 4968                                                                    zclSE_AppCallbacks_t *pCBs )
// 4969 {
// 4970   if ( pCBs->pfnPricing_PublishCalorificValue )
// 4971   {
// 4972     zclCCPublishCalorificValue_t cmd;
// 4973 
// 4974     zclSE_ParseInCmd_PublishCalorificValue( &cmd, &(pInMsg->pData[0]),
// 4975                                             pInMsg->pDataLen );
// 4976 
// 4977     pCBs->pfnPricing_PublishCalorificValue( &cmd, &(pInMsg->msg->srcAddr),
// 4978                                             pInMsg->hdr.transSeqNum );
// 4979     return ZCL_STATUS_CMD_HAS_RSP;
// 4980   }
// 4981 
// 4982   return ZFailure;
// 4983 }
// 4984 
// 4985 /*********************************************************************
// 4986  * @fn      zclSE_ProcessInCmd_Pricing_PublishCO2Value
// 4987  *
// 4988  * @brief   Process in the received Publish CO2 Value.
// 4989  *
// 4990  * @param   pInMsg - pointer to the incoming message
// 4991  * @param   pCBs - pointer to the application call back function
// 4992  *
// 4993  * @return  ZStatus_t - ZFailure @ Unsupported
// 4994  *                      ZCL_STATUS_CMD_HAS_RSP @ Supported and do
// 4995  *                                           not need default rsp
// 4996  */
// 4997 static ZStatus_t zclSE_ProcessInCmd_Pricing_PublishCO2Value( zclIncoming_t *pInMsg,
// 4998                                                              zclSE_AppCallbacks_t *pCBs )
// 4999 {
// 5000   if ( pCBs->pfnPricing_PublishCO2Value )
// 5001   {
// 5002     zclCCPublishCO2Value_t cmd;
// 5003 
// 5004     zclSE_ParseInCmd_PublishCO2Value( &cmd, &(pInMsg->pData[0]),
// 5005                                       pInMsg->pDataLen );
// 5006 
// 5007     pCBs->pfnPricing_PublishCO2Value( &cmd, &(pInMsg->msg->srcAddr),
// 5008                                       pInMsg->hdr.transSeqNum );
// 5009     return ZCL_STATUS_CMD_HAS_RSP;
// 5010   }
// 5011 
// 5012   return ZFailure;
// 5013 }
// 5014 
// 5015 /*********************************************************************
// 5016  * @fn      zclSE_ProcessInCmd_Pricing_PublishCPPEvent
// 5017  *
// 5018  * @brief   Process in the received Publish CPP Event.
// 5019  *
// 5020  * @param   pInMsg - pointer to the incoming message
// 5021  * @param   pCBs - pointer to the application call back function
// 5022  *
// 5023  * @return  ZStatus_t - ZFailure @ Unsupported
// 5024  *                      ZCL_STATUS_CMD_HAS_RSP @ Supported and do
// 5025  *                                           not need default rsp
// 5026  */
// 5027 static ZStatus_t zclSE_ProcessInCmd_Pricing_PublishCPPEvent( zclIncoming_t *pInMsg,
// 5028                                                              zclSE_AppCallbacks_t *pCBs )
// 5029 {
// 5030   if ( pCBs->pfnPricing_PublishCPPEvent )
// 5031   {
// 5032     zclCCPublishCPPEvent_t cmd;
// 5033 
// 5034     zclSE_ParseInCmd_PublishCPPEvent( &cmd, &(pInMsg->pData[0]), pInMsg->pDataLen );
// 5035 
// 5036     pCBs->pfnPricing_PublishCPPEvent( &cmd, &(pInMsg->msg->srcAddr),
// 5037                                       pInMsg->hdr.transSeqNum );
// 5038     return ZCL_STATUS_CMD_HAS_RSP;
// 5039   }
// 5040 
// 5041   return ZFailure;
// 5042 }
// 5043 
// 5044 /*********************************************************************
// 5045  * @fn      zclSE_ProcessInCmd_Pricing_PublishBillingPeriod
// 5046  *
// 5047  * @brief   Process in the received Publish Billing Period.
// 5048  *
// 5049  * @param   pInMsg - pointer to the incoming message
// 5050  * @param   pCBs - pointer to the application call back function
// 5051  *
// 5052  * @return  ZStatus_t - ZFailure @ Unsupported
// 5053  *                      ZCL_STATUS_CMD_HAS_RSP @ Supported and do
